ARM GAS  C:\Users\AURORA~1\AppData\Local\Temp\cca7i9Nf.s 			page 1


   1              		.cpu cortex-m4
   2              		.arch armv7e-m
   3              		.fpu fpv4-sp-d16
   4              		.eabi_attribute 27, 1
   5              		.eabi_attribute 28, 1
   6              		.eabi_attribute 20, 1
   7              		.eabi_attribute 21, 1
   8              		.eabi_attribute 23, 3
   9              		.eabi_attribute 24, 1
  10              		.eabi_attribute 25, 1
  11              		.eabi_attribute 26, 1
  12              		.eabi_attribute 30, 6
  13              		.eabi_attribute 34, 1
  14              		.eabi_attribute 18, 4
  15              		.file	"bsp_fdcan.c"
  16              		.text
  17              	.Ltext0:
  18              		.cfi_sections	.debug_frame
  19              		.file 1 "Bsp/bsp_fdcan/bsp_fdcan.c"
  20              		.section	.text.fdcan_user_init,"ax",%progbits
  21              		.align	1
  22              		.global	fdcan_user_init
  23              		.syntax unified
  24              		.thumb
  25              		.thumb_func
  27              	fdcan_user_init:
  28              	.LFB132:
   1:Bsp/bsp_fdcan/bsp_fdcan.c **** #include "bsp_fdcan.h"
   2:Bsp/bsp_fdcan/bsp_fdcan.c **** 
   3:Bsp/bsp_fdcan/bsp_fdcan.c **** void fdcan_user_init()
   4:Bsp/bsp_fdcan/bsp_fdcan.c **** {
  29              		.loc 1 4 1
  30              		.cfi_startproc
  31              		@ args = 0, pretend = 0, frame = 24
  32              		@ frame_needed = 1, uses_anonymous_args = 0
  33 0000 80B5     		push	{r7, lr}
  34              	.LCFI0:
  35              		.cfi_def_cfa_offset 8
  36              		.cfi_offset 7, -8
  37              		.cfi_offset 14, -4
  38 0002 86B0     		sub	sp, sp, #24
  39              	.LCFI1:
  40              		.cfi_def_cfa_offset 32
  41 0004 00AF     		add	r7, sp, #0
  42              	.LCFI2:
  43              		.cfi_def_cfa_register 7
   5:Bsp/bsp_fdcan/bsp_fdcan.c ****     FDCAN_FilterTypeDef fdcan1_filter;
   6:Bsp/bsp_fdcan/bsp_fdcan.c **** 
   7:Bsp/bsp_fdcan/bsp_fdcan.c ****     HAL_FDCAN_ActivateNotification(&hfdcan1, FDCAN_IT_RX_FIFO0_NEW_MESSAGE, 0);
  44              		.loc 1 7 5
  45 0006 0022     		movs	r2, #0
  46 0008 0121     		movs	r1, #1
  47 000a 1048     		ldr	r0, .L3
  48 000c FFF7FEFF 		bl	HAL_FDCAN_ActivateNotification
   8:Bsp/bsp_fdcan/bsp_fdcan.c **** 
   9:Bsp/bsp_fdcan/bsp_fdcan.c ****     fdcan1_filter.IdType = FDCAN_STANDARD_ID;
  49              		.loc 1 9 26
ARM GAS  C:\Users\AURORA~1\AppData\Local\Temp\cca7i9Nf.s 			page 2


  50 0010 0023     		movs	r3, #0
  51 0012 3B60     		str	r3, [r7]
  10:Bsp/bsp_fdcan/bsp_fdcan.c ****     fdcan1_filter.FilterIndex = 0;
  52              		.loc 1 10 31
  53 0014 0023     		movs	r3, #0
  54 0016 7B60     		str	r3, [r7, #4]
  11:Bsp/bsp_fdcan/bsp_fdcan.c ****     fdcan1_filter.FilterType = FDCAN_FILTER_RANGE;
  55              		.loc 1 11 30
  56 0018 0023     		movs	r3, #0
  57 001a BB60     		str	r3, [r7, #8]
  12:Bsp/bsp_fdcan/bsp_fdcan.c ****     fdcan1_filter.FilterConfig = FDCAN_FILTER_TO_RXFIFO0;
  58              		.loc 1 12 32
  59 001c 0123     		movs	r3, #1
  60 001e FB60     		str	r3, [r7, #12]
  13:Bsp/bsp_fdcan/bsp_fdcan.c ****     fdcan1_filter.FilterID1 = 0x0000;
  61              		.loc 1 13 29
  62 0020 0023     		movs	r3, #0
  63 0022 3B61     		str	r3, [r7, #16]
  14:Bsp/bsp_fdcan/bsp_fdcan.c ****     fdcan1_filter.FilterID2 = 0x07ff;
  64              		.loc 1 14 29
  65 0024 40F2FF73 		movw	r3, #2047
  66 0028 7B61     		str	r3, [r7, #20]
  15:Bsp/bsp_fdcan/bsp_fdcan.c **** 
  16:Bsp/bsp_fdcan/bsp_fdcan.c ****     if(HAL_FDCAN_ConfigFilter(&hfdcan1, &fdcan1_filter) != HAL_OK)
  67              		.loc 1 16 8
  68 002a 3B46     		mov	r3, r7
  69 002c 1946     		mov	r1, r3
  70 002e 0748     		ldr	r0, .L3
  71 0030 FFF7FEFF 		bl	HAL_FDCAN_ConfigFilter
  72 0034 0346     		mov	r3, r0
  73              		.loc 1 16 7 discriminator 1
  74 0036 002B     		cmp	r3, #0
  75 0038 01D0     		beq	.L2
  17:Bsp/bsp_fdcan/bsp_fdcan.c ****         Error_Handler();
  76              		.loc 1 17 9
  77 003a FFF7FEFF 		bl	Error_Handler
  78              	.L2:
  18:Bsp/bsp_fdcan/bsp_fdcan.c **** 
  19:Bsp/bsp_fdcan/bsp_fdcan.c ****     HAL_FDCAN_Start(&hfdcan1);
  79              		.loc 1 19 5
  80 003e 0348     		ldr	r0, .L3
  81 0040 FFF7FEFF 		bl	HAL_FDCAN_Start
  20:Bsp/bsp_fdcan/bsp_fdcan.c **** }
  82              		.loc 1 20 1
  83 0044 00BF     		nop
  84 0046 1837     		adds	r7, r7, #24
  85              	.LCFI3:
  86              		.cfi_def_cfa_offset 8
  87 0048 BD46     		mov	sp, r7
  88              	.LCFI4:
  89              		.cfi_def_cfa_register 13
  90              		@ sp needed
  91 004a 80BD     		pop	{r7, pc}
  92              	.L4:
  93              		.align	2
  94              	.L3:
  95 004c 00000000 		.word	hfdcan1
ARM GAS  C:\Users\AURORA~1\AppData\Local\Temp\cca7i9Nf.s 			page 3


  96              		.cfi_endproc
  97              	.LFE132:
  99              		.section	.text.fdcan_send_message,"ax",%progbits
 100              		.align	1
 101              		.global	fdcan_send_message
 102              		.syntax unified
 103              		.thumb
 104              		.thumb_func
 106              	fdcan_send_message:
 107              	.LFB133:
  21:Bsp/bsp_fdcan/bsp_fdcan.c **** 
  22:Bsp/bsp_fdcan/bsp_fdcan.c **** void fdcan_send_message(FDCAN_HandleTypeDef *fdhcan, uint16_t tx_id, uint8_t *tx_data, uint32_t DLC
  23:Bsp/bsp_fdcan/bsp_fdcan.c **** {
 108              		.loc 1 23 1
 109              		.cfi_startproc
 110              		@ args = 0, pretend = 0, frame = 56
 111              		@ frame_needed = 1, uses_anonymous_args = 0
 112 0000 80B5     		push	{r7, lr}
 113              	.LCFI5:
 114              		.cfi_def_cfa_offset 8
 115              		.cfi_offset 7, -8
 116              		.cfi_offset 14, -4
 117 0002 8EB0     		sub	sp, sp, #56
 118              	.LCFI6:
 119              		.cfi_def_cfa_offset 64
 120 0004 00AF     		add	r7, sp, #0
 121              	.LCFI7:
 122              		.cfi_def_cfa_register 7
 123 0006 F860     		str	r0, [r7, #12]
 124 0008 7A60     		str	r2, [r7, #4]
 125 000a 3B60     		str	r3, [r7]
 126 000c 0B46     		mov	r3, r1	@ movhi
 127 000e 7B81     		strh	r3, [r7, #10]	@ movhi
  24:Bsp/bsp_fdcan/bsp_fdcan.c ****     // 创建发送数据的头部和帧
  25:Bsp/bsp_fdcan/bsp_fdcan.c ****     FDCAN_TxHeaderTypeDef txHeader;
  26:Bsp/bsp_fdcan/bsp_fdcan.c ****     // uint8_t txData[8] = {0xFF, 0xFF, 0xFF, 0xFF, 0xFF, 0xFF, 0xFF, 0xFC};
  27:Bsp/bsp_fdcan/bsp_fdcan.c **** 
  28:Bsp/bsp_fdcan/bsp_fdcan.c ****     // 配置 FDCAN 发送消息的头部
  29:Bsp/bsp_fdcan/bsp_fdcan.c ****     txHeader.Identifier = tx_id;  // 标准模式 CAN ID 为 0
 128              		.loc 1 29 25
 129 0010 7B89     		ldrh	r3, [r7, #10]
 130 0012 7B61     		str	r3, [r7, #20]
  30:Bsp/bsp_fdcan/bsp_fdcan.c ****     txHeader.IdType = FDCAN_STANDARD_ID;  // 标准ID
 131              		.loc 1 30 21
 132 0014 0023     		movs	r3, #0
 133 0016 BB61     		str	r3, [r7, #24]
  31:Bsp/bsp_fdcan/bsp_fdcan.c ****     txHeader.TxFrameType = FDCAN_DATA_FRAME;  // 数据帧
 134              		.loc 1 31 26
 135 0018 0023     		movs	r3, #0
 136 001a FB61     		str	r3, [r7, #28]
  32:Bsp/bsp_fdcan/bsp_fdcan.c ****     txHeader.DataLength = DLC;  // 数据长度为 8 字节
 137              		.loc 1 32 25
 138 001c 3B68     		ldr	r3, [r7]
 139 001e 3B62     		str	r3, [r7, #32]
  33:Bsp/bsp_fdcan/bsp_fdcan.c ****     txHeader.ErrorStateIndicator = FDCAN_ESI_ACTIVE;;  // 错误状态指示符
 140              		.loc 1 33 34
 141 0020 0023     		movs	r3, #0
ARM GAS  C:\Users\AURORA~1\AppData\Local\Temp\cca7i9Nf.s 			page 4


 142 0022 7B62     		str	r3, [r7, #36]
  34:Bsp/bsp_fdcan/bsp_fdcan.c ****     txHeader.BitRateSwitch = FDCAN_BRS_OFF;  // 比特率切换
 143              		.loc 1 34 28
 144 0024 0023     		movs	r3, #0
 145 0026 BB62     		str	r3, [r7, #40]
  35:Bsp/bsp_fdcan/bsp_fdcan.c ****     txHeader.FDFormat = FDCAN_CLASSIC_CAN;  // 设置为经典CAN模式
 146              		.loc 1 35 23
 147 0028 0023     		movs	r3, #0
 148 002a FB62     		str	r3, [r7, #44]
  36:Bsp/bsp_fdcan/bsp_fdcan.c ****     txHeader.TxEventFifoControl = FDCAN_NO_TX_EVENTS,	// 不需要，禁用事件FIFO
 149              		.loc 1 36 33
 150 002c 0023     		movs	r3, #0
 151 002e 3B63     		str	r3, [r7, #48]
  37:Bsp/bsp_fdcan/bsp_fdcan.c ****     txHeader.MessageMarker = 0;                     	// 不使用消息标记
 152              		.loc 1 37 28
 153 0030 0023     		movs	r3, #0
 154 0032 7B63     		str	r3, [r7, #52]
  38:Bsp/bsp_fdcan/bsp_fdcan.c **** 
  39:Bsp/bsp_fdcan/bsp_fdcan.c ****     // // 发送消息到 FDCAN 发送队列
  40:Bsp/bsp_fdcan/bsp_fdcan.c ****     // if (HAL_FDCAN_AddMessageToTxFifoQ(&hfdcan1, &txHeader, txData) != HAL_OK)
  41:Bsp/bsp_fdcan/bsp_fdcan.c ****     // {
  42:Bsp/bsp_fdcan/bsp_fdcan.c ****     //     // 发送失败时处理
  43:Bsp/bsp_fdcan/bsp_fdcan.c ****     //     Error_Handler();
  44:Bsp/bsp_fdcan/bsp_fdcan.c ****     // }
  45:Bsp/bsp_fdcan/bsp_fdcan.c **** 
  46:Bsp/bsp_fdcan/bsp_fdcan.c ****     if (HAL_FDCAN_GetTxFifoFreeLevel(&hfdcan1) > 0) 
 155              		.loc 1 46 9
 156 0034 0B48     		ldr	r0, .L9
 157 0036 FFF7FEFF 		bl	HAL_FDCAN_GetTxFifoFreeLevel
 158 003a 0346     		mov	r3, r0
 159              		.loc 1 46 8 discriminator 1
 160 003c 002B     		cmp	r3, #0
 161 003e 07D0     		beq	.L6
  47:Bsp/bsp_fdcan/bsp_fdcan.c ****     {
  48:Bsp/bsp_fdcan/bsp_fdcan.c ****         HAL_FDCAN_AddMessageToTxFifoQ(&hfdcan1, &txHeader, tx_data);
 162              		.loc 1 48 9
 163 0040 07F11403 		add	r3, r7, #20
 164 0044 7A68     		ldr	r2, [r7, #4]
 165 0046 1946     		mov	r1, r3
 166 0048 0648     		ldr	r0, .L9
 167 004a FFF7FEFF 		bl	HAL_FDCAN_AddMessageToTxFifoQ
  49:Bsp/bsp_fdcan/bsp_fdcan.c ****     }
  50:Bsp/bsp_fdcan/bsp_fdcan.c ****     else{
  51:Bsp/bsp_fdcan/bsp_fdcan.c ****         HAL_FDCAN_Stop(&hfdcan1);  // 停止FDCAN
  52:Bsp/bsp_fdcan/bsp_fdcan.c ****         HAL_FDCAN_Start(&hfdcan1); // 重启FDCAN
  53:Bsp/bsp_fdcan/bsp_fdcan.c ****     }
  54:Bsp/bsp_fdcan/bsp_fdcan.c **** 
  55:Bsp/bsp_fdcan/bsp_fdcan.c **** }
 168              		.loc 1 55 1
 169 004e 05E0     		b	.L8
 170              	.L6:
  51:Bsp/bsp_fdcan/bsp_fdcan.c ****         HAL_FDCAN_Start(&hfdcan1); // 重启FDCAN
 171              		.loc 1 51 9
 172 0050 0448     		ldr	r0, .L9
 173 0052 FFF7FEFF 		bl	HAL_FDCAN_Stop
  52:Bsp/bsp_fdcan/bsp_fdcan.c ****     }
 174              		.loc 1 52 9
ARM GAS  C:\Users\AURORA~1\AppData\Local\Temp\cca7i9Nf.s 			page 5


 175 0056 0348     		ldr	r0, .L9
 176 0058 FFF7FEFF 		bl	HAL_FDCAN_Start
 177              	.L8:
 178              		.loc 1 55 1
 179 005c 00BF     		nop
 180 005e 3837     		adds	r7, r7, #56
 181              	.LCFI8:
 182              		.cfi_def_cfa_offset 8
 183 0060 BD46     		mov	sp, r7
 184              	.LCFI9:
 185              		.cfi_def_cfa_register 13
 186              		@ sp needed
 187 0062 80BD     		pop	{r7, pc}
 188              	.L10:
 189              		.align	2
 190              	.L9:
 191 0064 00000000 		.word	hfdcan1
 192              		.cfi_endproc
 193              	.LFE133:
 195              		.section	.text.HAL_FDCAN_RxFifo0Callback,"ax",%progbits
 196              		.align	1
 197              		.global	HAL_FDCAN_RxFifo0Callback
 198              		.syntax unified
 199              		.thumb
 200              		.thumb_func
 202              	HAL_FDCAN_RxFifo0Callback:
 203              	.LFB134:
  56:Bsp/bsp_fdcan/bsp_fdcan.c **** 
  57:Bsp/bsp_fdcan/bsp_fdcan.c **** void HAL_FDCAN_RxFifo0Callback(FDCAN_HandleTypeDef *hfdcan, uint32_t RxFifo0ITs)
  58:Bsp/bsp_fdcan/bsp_fdcan.c **** {
 204              		.loc 1 58 1
 205              		.cfi_startproc
 206              		@ args = 0, pretend = 0, frame = 8
 207              		@ frame_needed = 1, uses_anonymous_args = 0
 208 0000 80B5     		push	{r7, lr}
 209              	.LCFI10:
 210              		.cfi_def_cfa_offset 8
 211              		.cfi_offset 7, -8
 212              		.cfi_offset 14, -4
 213 0002 82B0     		sub	sp, sp, #8
 214              	.LCFI11:
 215              		.cfi_def_cfa_offset 16
 216 0004 00AF     		add	r7, sp, #0
 217              	.LCFI12:
 218              		.cfi_def_cfa_register 7
 219 0006 7860     		str	r0, [r7, #4]
 220 0008 3960     		str	r1, [r7]
  59:Bsp/bsp_fdcan/bsp_fdcan.c ****     if(hfdcan == &hfdcan1)
 221              		.loc 1 59 7
 222 000a 7B68     		ldr	r3, [r7, #4]
 223 000c 044A     		ldr	r2, .L14
 224 000e 9342     		cmp	r3, r2
 225 0010 01D1     		bne	.L13
  60:Bsp/bsp_fdcan/bsp_fdcan.c ****     {
  61:Bsp/bsp_fdcan/bsp_fdcan.c ****         fdcan1_rx_callback();
 226              		.loc 1 61 9
 227 0012 FFF7FEFF 		bl	fdcan1_rx_callback
ARM GAS  C:\Users\AURORA~1\AppData\Local\Temp\cca7i9Nf.s 			page 6


 228              	.L13:
  62:Bsp/bsp_fdcan/bsp_fdcan.c ****     }
  63:Bsp/bsp_fdcan/bsp_fdcan.c **** }
 229              		.loc 1 63 1
 230 0016 00BF     		nop
 231 0018 0837     		adds	r7, r7, #8
 232              	.LCFI13:
 233              		.cfi_def_cfa_offset 8
 234 001a BD46     		mov	sp, r7
 235              	.LCFI14:
 236              		.cfi_def_cfa_register 13
 237              		@ sp needed
 238 001c 80BD     		pop	{r7, pc}
 239              	.L15:
 240 001e 00BF     		.align	2
 241              	.L14:
 242 0020 00000000 		.word	hfdcan1
 243              		.cfi_endproc
 244              	.LFE134:
 246              		.section	.text.FDCAN_Recieve_Message,"ax",%progbits
 247              		.align	1
 248              		.global	FDCAN_Recieve_Message
 249              		.syntax unified
 250              		.thumb
 251              		.thumb_func
 253              	FDCAN_Recieve_Message:
 254              	.LFB135:
  64:Bsp/bsp_fdcan/bsp_fdcan.c **** 
  65:Bsp/bsp_fdcan/bsp_fdcan.c **** void FDCAN_Recieve_Message(FDCAN_HandleTypeDef *hfdcan, uint16_t *rx_id, uint8_t *buff)
  66:Bsp/bsp_fdcan/bsp_fdcan.c **** {
 255              		.loc 1 66 1
 256              		.cfi_startproc
 257              		@ args = 0, pretend = 0, frame = 56
 258              		@ frame_needed = 1, uses_anonymous_args = 0
 259 0000 80B5     		push	{r7, lr}
 260              	.LCFI15:
 261              		.cfi_def_cfa_offset 8
 262              		.cfi_offset 7, -8
 263              		.cfi_offset 14, -4
 264 0002 8EB0     		sub	sp, sp, #56
 265              	.LCFI16:
 266              		.cfi_def_cfa_offset 64
 267 0004 00AF     		add	r7, sp, #0
 268              	.LCFI17:
 269              		.cfi_def_cfa_register 7
 270 0006 F860     		str	r0, [r7, #12]
 271 0008 B960     		str	r1, [r7, #8]
 272 000a 7A60     		str	r2, [r7, #4]
  67:Bsp/bsp_fdcan/bsp_fdcan.c ****     FDCAN_RxHeaderTypeDef rx_header;
  68:Bsp/bsp_fdcan/bsp_fdcan.c ****     if(HAL_FDCAN_GetRxMessage(hfdcan, FDCAN_RX_FIFO0, &rx_header, buff) == HAL_OK)
 273              		.loc 1 68 8
 274 000c 07F11002 		add	r2, r7, #16
 275 0010 7B68     		ldr	r3, [r7, #4]
 276 0012 4021     		movs	r1, #64
 277 0014 F868     		ldr	r0, [r7, #12]
 278 0016 FFF7FEFF 		bl	HAL_FDCAN_GetRxMessage
  69:Bsp/bsp_fdcan/bsp_fdcan.c ****     {
ARM GAS  C:\Users\AURORA~1\AppData\Local\Temp\cca7i9Nf.s 			page 7


  70:Bsp/bsp_fdcan/bsp_fdcan.c ****         
  71:Bsp/bsp_fdcan/bsp_fdcan.c ****     }
  72:Bsp/bsp_fdcan/bsp_fdcan.c **** }
 279              		.loc 1 72 1
 280 001a 00BF     		nop
 281 001c 3837     		adds	r7, r7, #56
 282              	.LCFI18:
 283              		.cfi_def_cfa_offset 8
 284 001e BD46     		mov	sp, r7
 285              	.LCFI19:
 286              		.cfi_def_cfa_register 13
 287              		@ sp needed
 288 0020 80BD     		pop	{r7, pc}
 289              		.cfi_endproc
 290              	.LFE135:
 292              		.section	.text.fdcan1_rx_callback,"ax",%progbits
 293              		.align	1
 294              		.weak	fdcan1_rx_callback
 295              		.syntax unified
 296              		.thumb
 297              		.thumb_func
 299              	fdcan1_rx_callback:
 300              	.LFB136:
  73:Bsp/bsp_fdcan/bsp_fdcan.c **** 
  74:Bsp/bsp_fdcan/bsp_fdcan.c **** 
  75:Bsp/bsp_fdcan/bsp_fdcan.c **** /**
  76:Bsp/bsp_fdcan/bsp_fdcan.c **** ************************************************************************
  77:Bsp/bsp_fdcan/bsp_fdcan.c **** * @brief:      	fdcan1_rx_callback(void)
  78:Bsp/bsp_fdcan/bsp_fdcan.c **** * @param:       void
  79:Bsp/bsp_fdcan/bsp_fdcan.c **** * @retval:     	void
  80:Bsp/bsp_fdcan/bsp_fdcan.c **** * @details:    	供用户调用的接收弱函数
  81:Bsp/bsp_fdcan/bsp_fdcan.c **** ************************************************************************
  82:Bsp/bsp_fdcan/bsp_fdcan.c **** **/
  83:Bsp/bsp_fdcan/bsp_fdcan.c **** __weak void fdcan1_rx_callback(void)
  84:Bsp/bsp_fdcan/bsp_fdcan.c **** {
 301              		.loc 1 84 1
 302              		.cfi_startproc
 303              		@ args = 0, pretend = 0, frame = 0
 304              		@ frame_needed = 1, uses_anonymous_args = 0
 305              		@ link register save eliminated.
 306 0000 80B4     		push	{r7}
 307              	.LCFI20:
 308              		.cfi_def_cfa_offset 4
 309              		.cfi_offset 7, -4
 310 0002 00AF     		add	r7, sp, #0
 311              	.LCFI21:
 312              		.cfi_def_cfa_register 7
  85:Bsp/bsp_fdcan/bsp_fdcan.c **** 
  86:Bsp/bsp_fdcan/bsp_fdcan.c **** }...
 313              		.loc 1 86 1
 314 0004 00BF     		nop
 315 0006 BD46     		mov	sp, r7
 316              	.LCFI22:
 317              		.cfi_def_cfa_register 13
 318              		@ sp needed
 319 0008 5DF8047B 		ldr	r7, [sp], #4
 320              	.LCFI23:
ARM GAS  C:\Users\AURORA~1\AppData\Local\Temp\cca7i9Nf.s 			page 8


 321              		.cfi_restore 7
 322              		.cfi_def_cfa_offset 0
 323 000c 7047     		bx	lr
 324              		.cfi_endproc
 325              	.LFE136:
 327              		.text
 328              	.Letext0:
 329              		.file 2 "D:/msys64/mingw64/arm-none-eabi/include/machine/_default_types.h"
 330              		.file 3 "D:/msys64/mingw64/arm-none-eabi/include/sys/_stdint.h"
 331              		.file 4 "Drivers/CMSIS/Device/ST/STM32G4xx/Include/stm32g474xx.h"
 332              		.file 5 "Drivers/CMSIS/Device/ST/STM32G4xx/Include/stm32g4xx.h"
 333              		.file 6 "Drivers/STM32G4xx_HAL_Driver/Inc/stm32g4xx_hal_def.h"
 334              		.file 7 "Drivers/STM32G4xx_HAL_Driver/Inc/stm32g4xx_hal_fdcan.h"
 335              		.file 8 "Core/Inc/fdcan.h"
 336              		.file 9 "Core/Inc/main.h"
ARM GAS  C:\Users\AURORA~1\AppData\Local\Temp\cca7i9Nf.s 			page 9

