ARM GAS  C:\Users\AURORA~1\AppData\Local\Temp\ccIe3uEs.s 			page 1


   1              		.cpu cortex-m4
   2              		.arch armv7e-m
   3              		.fpu fpv4-sp-d16
   4              		.eabi_attribute 27, 1
   5              		.eabi_attribute 28, 1
   6              		.eabi_attribute 20, 1
   7              		.eabi_attribute 21, 1
   8              		.eabi_attribute 23, 3
   9              		.eabi_attribute 24, 1
  10              		.eabi_attribute 25, 1
  11              		.eabi_attribute 26, 1
  12              		.eabi_attribute 30, 6
  13              		.eabi_attribute 34, 1
  14              		.eabi_attribute 18, 4
  15              		.file	"gpio.c"
  16              		.text
  17              	.Ltext0:
  18              		.cfi_sections	.debug_frame
  19              		.file 1 "Core/Src/gpio.c"
  20              		.section	.text.MX_GPIO_Init,"ax",%progbits
  21              		.align	1
  22              		.global	MX_GPIO_Init
  23              		.syntax unified
  24              		.thumb
  25              		.thumb_func
  27              	MX_GPIO_Init:
  28              	.LFB132:
   1:Core/Src/gpio.c **** /* USER CODE BEGIN Header */
   2:Core/Src/gpio.c **** /**
   3:Core/Src/gpio.c ****   ******************************************************************************
   4:Core/Src/gpio.c ****   * @file    gpio.c
   5:Core/Src/gpio.c ****   * @brief   This file provides code for the configuration
   6:Core/Src/gpio.c ****   *          of all used GPIO pins.
   7:Core/Src/gpio.c ****   ******************************************************************************
   8:Core/Src/gpio.c ****   * @attention
   9:Core/Src/gpio.c ****   *
  10:Core/Src/gpio.c ****   * Copyright (c) 2025 STMicroelectronics.
  11:Core/Src/gpio.c ****   * All rights reserved.
  12:Core/Src/gpio.c ****   *
  13:Core/Src/gpio.c ****   * This software is licensed under terms that can be found in the LICENSE file
  14:Core/Src/gpio.c ****   * in the root directory of this software component.
  15:Core/Src/gpio.c ****   * If no LICENSE file comes with this software, it is provided AS-IS.
  16:Core/Src/gpio.c ****   *
  17:Core/Src/gpio.c ****   ******************************************************************************
  18:Core/Src/gpio.c ****   */
  19:Core/Src/gpio.c **** /* USER CODE END Header */
  20:Core/Src/gpio.c **** 
  21:Core/Src/gpio.c **** /* Includes ------------------------------------------------------------------*/
  22:Core/Src/gpio.c **** #include "gpio.h"
  23:Core/Src/gpio.c **** 
  24:Core/Src/gpio.c **** /* USER CODE BEGIN 0 */
  25:Core/Src/gpio.c **** 
  26:Core/Src/gpio.c **** /* USER CODE END 0 */
  27:Core/Src/gpio.c **** 
  28:Core/Src/gpio.c **** /*----------------------------------------------------------------------------*/
  29:Core/Src/gpio.c **** /* Configure GPIO                                                             */
  30:Core/Src/gpio.c **** /*----------------------------------------------------------------------------*/
ARM GAS  C:\Users\AURORA~1\AppData\Local\Temp\ccIe3uEs.s 			page 2


  31:Core/Src/gpio.c **** /* USER CODE BEGIN 1 */
  32:Core/Src/gpio.c **** 
  33:Core/Src/gpio.c **** /* USER CODE END 1 */
  34:Core/Src/gpio.c **** 
  35:Core/Src/gpio.c **** /** Configure pins as
  36:Core/Src/gpio.c ****         * Analog
  37:Core/Src/gpio.c ****         * Input
  38:Core/Src/gpio.c ****         * Output
  39:Core/Src/gpio.c ****         * EVENT_OUT
  40:Core/Src/gpio.c ****         * EXTI
  41:Core/Src/gpio.c **** */
  42:Core/Src/gpio.c **** void MX_GPIO_Init(void)
  43:Core/Src/gpio.c **** {
  29              		.loc 1 43 1
  30              		.cfi_startproc
  31              		@ args = 0, pretend = 0, frame = 40
  32              		@ frame_needed = 1, uses_anonymous_args = 0
  33 0000 80B5     		push	{r7, lr}
  34              	.LCFI0:
  35              		.cfi_def_cfa_offset 8
  36              		.cfi_offset 7, -8
  37              		.cfi_offset 14, -4
  38 0002 8AB0     		sub	sp, sp, #40
  39              	.LCFI1:
  40              		.cfi_def_cfa_offset 48
  41 0004 00AF     		add	r7, sp, #0
  42              	.LCFI2:
  43              		.cfi_def_cfa_register 7
  44:Core/Src/gpio.c **** 
  45:Core/Src/gpio.c ****   GPIO_InitTypeDef GPIO_InitStruct = {0};
  44              		.loc 1 45 20
  45 0006 07F11403 		add	r3, r7, #20
  46 000a 0022     		movs	r2, #0
  47 000c 1A60     		str	r2, [r3]
  48 000e 5A60     		str	r2, [r3, #4]
  49 0010 9A60     		str	r2, [r3, #8]
  50 0012 DA60     		str	r2, [r3, #12]
  51 0014 1A61     		str	r2, [r3, #16]
  52              	.LBB2:
  46:Core/Src/gpio.c **** 
  47:Core/Src/gpio.c ****   /* GPIO Ports Clock Enable */
  48:Core/Src/gpio.c ****   __HAL_RCC_GPIOF_CLK_ENABLE();
  53              		.loc 1 48 3
  54 0016 3F4B     		ldr	r3, .L2
  55 0018 DB6C     		ldr	r3, [r3, #76]
  56 001a 3E4A     		ldr	r2, .L2
  57 001c 43F02003 		orr	r3, r3, #32
  58 0020 D364     		str	r3, [r2, #76]
  59 0022 3C4B     		ldr	r3, .L2
  60 0024 DB6C     		ldr	r3, [r3, #76]
  61 0026 03F02003 		and	r3, r3, #32
  62 002a 3B61     		str	r3, [r7, #16]
  63 002c 3B69     		ldr	r3, [r7, #16]
  64              	.LBE2:
  65              	.LBB3:
  49:Core/Src/gpio.c ****   __HAL_RCC_GPIOA_CLK_ENABLE();
  66              		.loc 1 49 3
ARM GAS  C:\Users\AURORA~1\AppData\Local\Temp\ccIe3uEs.s 			page 3


  67 002e 394B     		ldr	r3, .L2
  68 0030 DB6C     		ldr	r3, [r3, #76]
  69 0032 384A     		ldr	r2, .L2
  70 0034 43F00103 		orr	r3, r3, #1
  71 0038 D364     		str	r3, [r2, #76]
  72 003a 364B     		ldr	r3, .L2
  73 003c DB6C     		ldr	r3, [r3, #76]
  74 003e 03F00103 		and	r3, r3, #1
  75 0042 FB60     		str	r3, [r7, #12]
  76 0044 FB68     		ldr	r3, [r7, #12]
  77              	.LBE3:
  78              	.LBB4:
  50:Core/Src/gpio.c ****   __HAL_RCC_GPIOC_CLK_ENABLE();
  79              		.loc 1 50 3
  80 0046 334B     		ldr	r3, .L2
  81 0048 DB6C     		ldr	r3, [r3, #76]
  82 004a 324A     		ldr	r2, .L2
  83 004c 43F00403 		orr	r3, r3, #4
  84 0050 D364     		str	r3, [r2, #76]
  85 0052 304B     		ldr	r3, .L2
  86 0054 DB6C     		ldr	r3, [r3, #76]
  87 0056 03F00403 		and	r3, r3, #4
  88 005a BB60     		str	r3, [r7, #8]
  89 005c BB68     		ldr	r3, [r7, #8]
  90              	.LBE4:
  91              	.LBB5:
  51:Core/Src/gpio.c ****   __HAL_RCC_GPIOD_CLK_ENABLE();
  92              		.loc 1 51 3
  93 005e 2D4B     		ldr	r3, .L2
  94 0060 DB6C     		ldr	r3, [r3, #76]
  95 0062 2C4A     		ldr	r2, .L2
  96 0064 43F00803 		orr	r3, r3, #8
  97 0068 D364     		str	r3, [r2, #76]
  98 006a 2A4B     		ldr	r3, .L2
  99 006c DB6C     		ldr	r3, [r3, #76]
 100 006e 03F00803 		and	r3, r3, #8
 101 0072 7B60     		str	r3, [r7, #4]
 102 0074 7B68     		ldr	r3, [r7, #4]
 103              	.LBE5:
 104              	.LBB6:
  52:Core/Src/gpio.c ****   __HAL_RCC_GPIOB_CLK_ENABLE();
 105              		.loc 1 52 3
 106 0076 274B     		ldr	r3, .L2
 107 0078 DB6C     		ldr	r3, [r3, #76]
 108 007a 264A     		ldr	r2, .L2
 109 007c 43F00203 		orr	r3, r3, #2
 110 0080 D364     		str	r3, [r2, #76]
 111 0082 244B     		ldr	r3, .L2
 112 0084 DB6C     		ldr	r3, [r3, #76]
 113 0086 03F00203 		and	r3, r3, #2
 114 008a 3B60     		str	r3, [r7]
 115 008c 3B68     		ldr	r3, [r7]
 116              	.LBE6:
  53:Core/Src/gpio.c **** 
  54:Core/Src/gpio.c ****   /*Configure GPIO pin Output Level */
  55:Core/Src/gpio.c ****   HAL_GPIO_WritePin(GPIOA, GPIO_PIN_15, GPIO_PIN_RESET);
 117              		.loc 1 55 3
ARM GAS  C:\Users\AURORA~1\AppData\Local\Temp\ccIe3uEs.s 			page 4


 118 008e 0022     		movs	r2, #0
 119 0090 4FF40041 		mov	r1, #32768
 120 0094 4FF09040 		mov	r0, #1207959552
 121 0098 FFF7FEFF 		bl	HAL_GPIO_WritePin
  56:Core/Src/gpio.c **** 
  57:Core/Src/gpio.c ****   /*Configure GPIO pin Output Level */
  58:Core/Src/gpio.c ****   HAL_GPIO_WritePin(GPIOC, GPIO_PIN_11, GPIO_PIN_RESET);
 122              		.loc 1 58 3
 123 009c 0022     		movs	r2, #0
 124 009e 4FF40061 		mov	r1, #2048
 125 00a2 1D48     		ldr	r0, .L2+4
 126 00a4 FFF7FEFF 		bl	HAL_GPIO_WritePin
  59:Core/Src/gpio.c **** 
  60:Core/Src/gpio.c ****   /*Configure GPIO pin Output Level */
  61:Core/Src/gpio.c ****   HAL_GPIO_WritePin(GPIOD, GPIO_PIN_2, GPIO_PIN_RESET);
 127              		.loc 1 61 3
 128 00a8 0022     		movs	r2, #0
 129 00aa 0421     		movs	r1, #4
 130 00ac 1B48     		ldr	r0, .L2+8
 131 00ae FFF7FEFF 		bl	HAL_GPIO_WritePin
  62:Core/Src/gpio.c **** 
  63:Core/Src/gpio.c ****   /*Configure GPIO pin : PA15 */
  64:Core/Src/gpio.c ****   GPIO_InitStruct.Pin = GPIO_PIN_15;
 132              		.loc 1 64 23
 133 00b2 4FF40043 		mov	r3, #32768
 134 00b6 7B61     		str	r3, [r7, #20]
  65:Core/Src/gpio.c ****   GPIO_InitStruct.Mode = GPIO_MODE_OUTPUT_PP;
 135              		.loc 1 65 24
 136 00b8 0123     		movs	r3, #1
 137 00ba BB61     		str	r3, [r7, #24]
  66:Core/Src/gpio.c ****   GPIO_InitStruct.Pull = GPIO_NOPULL;
 138              		.loc 1 66 24
 139 00bc 0023     		movs	r3, #0
 140 00be FB61     		str	r3, [r7, #28]
  67:Core/Src/gpio.c ****   GPIO_InitStruct.Speed = GPIO_SPEED_FREQ_LOW;
 141              		.loc 1 67 25
 142 00c0 0023     		movs	r3, #0
 143 00c2 3B62     		str	r3, [r7, #32]
  68:Core/Src/gpio.c ****   HAL_GPIO_Init(GPIOA, &GPIO_InitStruct);
 144              		.loc 1 68 3
 145 00c4 07F11403 		add	r3, r7, #20
 146 00c8 1946     		mov	r1, r3
 147 00ca 4FF09040 		mov	r0, #1207959552
 148 00ce FFF7FEFF 		bl	HAL_GPIO_Init
  69:Core/Src/gpio.c **** 
  70:Core/Src/gpio.c ****   /*Configure GPIO pin : PC11 */
  71:Core/Src/gpio.c ****   GPIO_InitStruct.Pin = GPIO_PIN_11;
 149              		.loc 1 71 23
 150 00d2 4FF40063 		mov	r3, #2048
 151 00d6 7B61     		str	r3, [r7, #20]
  72:Core/Src/gpio.c ****   GPIO_InitStruct.Mode = GPIO_MODE_OUTPUT_PP;
 152              		.loc 1 72 24
 153 00d8 0123     		movs	r3, #1
 154 00da BB61     		str	r3, [r7, #24]
  73:Core/Src/gpio.c ****   GPIO_InitStruct.Pull = GPIO_NOPULL;
 155              		.loc 1 73 24
 156 00dc 0023     		movs	r3, #0
ARM GAS  C:\Users\AURORA~1\AppData\Local\Temp\ccIe3uEs.s 			page 5


 157 00de FB61     		str	r3, [r7, #28]
  74:Core/Src/gpio.c ****   GPIO_InitStruct.Speed = GPIO_SPEED_FREQ_LOW;
 158              		.loc 1 74 25
 159 00e0 0023     		movs	r3, #0
 160 00e2 3B62     		str	r3, [r7, #32]
  75:Core/Src/gpio.c ****   HAL_GPIO_Init(GPIOC, &GPIO_InitStruct);
 161              		.loc 1 75 3
 162 00e4 07F11403 		add	r3, r7, #20
 163 00e8 1946     		mov	r1, r3
 164 00ea 0B48     		ldr	r0, .L2+4
 165 00ec FFF7FEFF 		bl	HAL_GPIO_Init
  76:Core/Src/gpio.c **** 
  77:Core/Src/gpio.c ****   /*Configure GPIO pin : PD2 */
  78:Core/Src/gpio.c ****   GPIO_InitStruct.Pin = GPIO_PIN_2;
 166              		.loc 1 78 23
 167 00f0 0423     		movs	r3, #4
 168 00f2 7B61     		str	r3, [r7, #20]
  79:Core/Src/gpio.c ****   GPIO_InitStruct.Mode = GPIO_MODE_OUTPUT_PP;
 169              		.loc 1 79 24
 170 00f4 0123     		movs	r3, #1
 171 00f6 BB61     		str	r3, [r7, #24]
  80:Core/Src/gpio.c ****   GPIO_InitStruct.Pull = GPIO_NOPULL;
 172              		.loc 1 80 24
 173 00f8 0023     		movs	r3, #0
 174 00fa FB61     		str	r3, [r7, #28]
  81:Core/Src/gpio.c ****   GPIO_InitStruct.Speed = GPIO_SPEED_FREQ_LOW;
 175              		.loc 1 81 25
 176 00fc 0023     		movs	r3, #0
 177 00fe 3B62     		str	r3, [r7, #32]
  82:Core/Src/gpio.c ****   HAL_GPIO_Init(GPIOD, &GPIO_InitStruct);
 178              		.loc 1 82 3
 179 0100 07F11403 		add	r3, r7, #20
 180 0104 1946     		mov	r1, r3
 181 0106 0548     		ldr	r0, .L2+8
 182 0108 FFF7FEFF 		bl	HAL_GPIO_Init
  83:Core/Src/gpio.c **** 
  84:Core/Src/gpio.c **** }
 183              		.loc 1 84 1
 184 010c 00BF     		nop
 185 010e 2837     		adds	r7, r7, #40
 186              	.LCFI3:
 187              		.cfi_def_cfa_offset 8
 188 0110 BD46     		mov	sp, r7
 189              	.LCFI4:
 190              		.cfi_def_cfa_register 13
 191              		@ sp needed
 192 0112 80BD     		pop	{r7, pc}
 193              	.L3:
 194              		.align	2
 195              	.L2:
 196 0114 00100240 		.word	1073876992
 197 0118 00080048 		.word	1207961600
 198 011c 000C0048 		.word	1207962624
 199              		.cfi_endproc
 200              	.LFE132:
 202              		.text
 203              	.Letext0:
ARM GAS  C:\Users\AURORA~1\AppData\Local\Temp\ccIe3uEs.s 			page 6


 204              		.file 2 "D:/msys64/mingw64/arm-none-eabi/include/machine/_default_types.h"
 205              		.file 3 "D:/msys64/mingw64/arm-none-eabi/include/sys/_stdint.h"
 206              		.file 4 "Drivers/CMSIS/Device/ST/STM32G4xx/Include/stm32g474xx.h"
 207              		.file 5 "Drivers/STM32G4xx_HAL_Driver/Inc/stm32g4xx_hal_gpio.h"
ARM GAS  C:\Users\AURORA~1\AppData\Local\Temp\ccIe3uEs.s 			page 7

