ARM GAS  C:\Users\AURORA~1\AppData\Local\Temp\ccDd7T3c.s 			page 1


   1              		.cpu cortex-m4
   2              		.arch armv7e-m
   3              		.fpu fpv4-sp-d16
   4              		.eabi_attribute 27, 1
   5              		.eabi_attribute 28, 1
   6              		.eabi_attribute 20, 1
   7              		.eabi_attribute 21, 1
   8              		.eabi_attribute 23, 3
   9              		.eabi_attribute 24, 1
  10              		.eabi_attribute 25, 1
  11              		.eabi_attribute 26, 1
  12              		.eabi_attribute 30, 6
  13              		.eabi_attribute 34, 1
  14              		.eabi_attribute 18, 4
  15              		.file	"lcd.c"
  16              		.text
  17              	.Ltext0:
  18              		.cfi_sections	.debug_frame
  19              		.file 1 "Module/LCD/lcd.c"
  20              		.global	ascii_1206
  21              		.section	.rodata.ascii_1206,"a"
  22              		.align	2
  25              	ascii_1206:
  26 0000 00000000 		.ascii	"\000\000\000\000\000\000\000\000\000\000\000\000"
  26      00000000 
  26      00000000 
  27 000c 00000404 		.ascii	"\000\000\004\004\004\004\004\000\000\004\000\000"
  27      04040400 
  27      00040000 
  28 0018 14140A00 		.ascii	"\024\024\012\000\000\000\000\000\000\000\000\000"
  28      00000000 
  28      00000000 
  29 0024 00000A0A 		.ascii	"\000\000\012\012\037\012\012\037\012\012\000\000"
  29      1F0A0A1F 
  29      0A0A0000 
  30 0030 00040E15 		.ascii	"\000\004\016\025\005\006\014\024\025\016\004\000"
  30      05060C14 
  30      150E0400 
  31 003c 00001215 		.ascii	"\000\000\022\025\015\025.,*\022\000\000"
  31      0D152E2C 
  31      2A120000 
  32 0048 0000040A 		.ascii	"\000\000\004\012\0126\025\025)\026\000\000"
  32      0A361515 
  32      29160000 
  33 0054 02020100 		.ascii	"\002\002\001\000\000\000\000\000\000\000\000\000"
  33      00000000 
  33      00000000 
  34 0060 10080804 		.ascii	"\020\010\010\004\004\004\004\004\010\010\020\000"
  34      04040404 
  34      08081000 
  35 006c 02040408 		.ascii	"\002\004\004\010\010\010\010\010\004\004\002\000"
  35      08080808 
  35      04040200 
  36 0078 00000004 		.ascii	"\000\000\000\004\025\016\016\025\004\000\000\000"
  36      150E0E15 
  36      04000000 
  37 0084 00000008 		.ascii	"\000\000\000\010\010>\010\010\000\000\000\000"
ARM GAS  C:\Users\AURORA~1\AppData\Local\Temp\ccDd7T3c.s 			page 2


  37      083E0808 
  37      00000000 
  38 0090 00000000 		.ascii	"\000\000\000\000\000\000\000\000\002\002\001\000"
  38      00000000 
  38      02020100 
  39 009c 00000000 		.ascii	"\000\000\000\000\000?\000\000\000\000\000\000"
  39      003F0000 
  39      00000000 
  40 00a8 00000000 		.ascii	"\000\000\000\000\000\000\000\000\000\002\000\000"
  40      00000000 
  40      00020000 
  41 00b4 00201010 		.ascii	"\000 \020\020\010\010\004\004\002\002\001\000"
  41      08080404 
  41      02020100 
  42 00c0 00000E11 		.ascii	"\000\000\016\021\021\021\021\021\021\016\000\000"
  42      11111111 
  42      110E0000 
  43 00cc 00000406 		.ascii	"\000\000\004\006\004\004\004\004\004\016\000\000"
  43      04040404 
  43      040E0000 
  44 00d8 00000E11 		.ascii	"\000\000\016\021\021\010\004\002\001\037\000\000"
  44      11080402 
  44      011F0000 
  45 00e4 00000E11 		.ascii	"\000\000\016\021\020\014\020\020\021\016\000\000"
  45      100C1010 
  45      110E0000 
  46 00f0 0000080C 		.ascii	"\000\000\010\014\014\012\011\037\010\034\000\000"
  46      0C0A091F 
  46      081C0000 
  47 00fc 00001F01 		.ascii	"\000\000\037\001\001\017\021\020\021\016\000\000"
  47      010F1110 
  47      110E0000 
  48 0108 00000C12 		.ascii	"\000\000\014\022\001\015\023\021\021\016\000\000"
  48      010D1311 
  48      110E0000 
  49 0114 00001E10 		.ascii	"\000\000\036\020\010\010\004\004\004\004\000\000"
  49      08080404 
  49      04040000 
  50 0120 00000E11 		.ascii	"\000\000\016\021\021\016\021\021\021\016\000\000"
  50      110E1111 
  50      110E0000 
  51 012c 00000E11 		.ascii	"\000\000\016\021\021\031\026\020\011\006\000\000"
  51      11191610 
  51      09060000 
  52 0138 00000000 		.ascii	"\000\000\000\000\004\000\000\000\000\004\000\000"
  52      04000000 
  52      00040000 
  53 0144 00000000 		.ascii	"\000\000\000\000\000\004\000\000\000\004\004\000"
  53      00040000 
  53      00040400 
  54 0150 00001008 		.ascii	"\000\000\020\010\004\002\002\004\010\020\000\000"
  54      04020204 
  54      08100000 
  55 015c 00000000 		.ascii	"\000\000\000\000?\000?\000\000\000\000\000"
  55      3F003F00 
  55      00000000 
  56 0168 00000204 		.ascii	"\000\000\002\004\010\020\020\010\004\002\000\000"
ARM GAS  C:\Users\AURORA~1\AppData\Local\Temp\ccDd7T3c.s 			page 3


  56      08101008 
  56      04020000 
  57 0174 00000E11 		.ascii	"\000\000\016\021\021\010\004\004\000\004\000\000"
  57      11080404 
  57      00040000 
  58 0180 00001C22 		.ascii	"\000\000\034\")--\035\"\034\000\000"
  58      292D2D1D 
  58      221C0000 
  59 018c 00000404 		.ascii	"\000\000\004\004\014\012\012\036\0223\000\000"
  59      0C0A0A1E 
  59      12330000 
  60 0198 00000F12 		.ascii	"\000\000\017\022\022\016\022\022\022\017\000\000"
  60      120E1212 
  60      120F0000 
  61 01a4 00001E11 		.ascii	"\000\000\036\021\001\001\001\001\021\016\000\000"
  61      01010101 
  61      110E0000 
  62 01b0 00000F12 		.ascii	"\000\000\017\022\022\022\022\022\022\017\000\000"
  62      12121212 
  62      120F0000 
  63 01bc 00001F12 		.ascii	"\000\000\037\022\012\016\012\002\022\037\000\000"
  63      0A0E0A02 
  63      121F0000 
  64 01c8 00001F12 		.ascii	"\000\000\037\022\012\016\012\002\002\007\000\000"
  64      0A0E0A02 
  64      02070000 
  65 01d4 00001C12 		.ascii	"\000\000\034\022\001\0019\021\022\014\000\000"
  65      01013911 
  65      120C0000 
  66 01e0 00003312 		.ascii	"\000\0003\022\022\036\022\022\0223\000\000"
  66      121E1212 
  66      12330000 
  67 01ec 00001F04 		.ascii	"\000\000\037\004\004\004\004\004\004\037\000\000"
  67      04040404 
  67      041F0000 
  68 01f8 00003E08 		.ascii	"\000\000>\010\010\010\010\010\010\010\011\007"
  68      08080808 
  68      08080907 
  69 0204 00003712 		.ascii	"\000\0007\022\012\006\012\022\0227\000\000"
  69      0A060A12 
  69      12370000 
  70 0210 00000702 		.ascii	"\000\000\007\002\002\002\002\002\"?\000\000"
  70      02020202 
  70      223F0000 
  71 021c 00003B1B 		.ascii	"\000\000;\033\033\033\025\025\0255\000\000"
  71      1B1B1515 
  71      15350000 
  72 0228 00003B12 		.ascii	"\000\000;\022\026\026\032\032\022\027\000\000"
  72      16161A1A 
  72      12170000 
  73 0234 00000E11 		.ascii	"\000\000\016\021\021\021\021\021\021\016\000\000"
  73      11111111 
  73      110E0000 
  74 0240 00000F12 		.ascii	"\000\000\017\022\022\016\002\002\002\007\000\000"
  74      120E0202 
  74      02070000 
  75 024c 00000E11 		.ascii	"\000\000\016\021\021\021\021\027\031\016\030\000"
ARM GAS  C:\Users\AURORA~1\AppData\Local\Temp\ccDd7T3c.s 			page 4


  75      11111117 
  75      190E1800 
  76 0258 00000F12 		.ascii	"\000\000\017\022\022\016\012\022\0227\000\000"
  76      120E0A12 
  76      12370000 
  77 0264 00001E11 		.ascii	"\000\000\036\021\001\006\010\020\021\017\000\000"
  77      01060810 
  77      110F0000 
  78 0270 00001F15 		.ascii	"\000\000\037\025\004\004\004\004\004\016\000\000"
  78      04040404 
  78      040E0000 
  79 027c 00003312 		.ascii	"\000\0003\022\022\022\022\022\022\014\000\000"
  79      12121212 
  79      120C0000 
  80 0288 00003312 		.ascii	"\000\0003\022\022\012\012\014\004\004\000\000"
  80      120A0A0C 
  80      04040000 
  81 0294 00001515 		.ascii	"\000\000\025\025\025\025\016\012\012\012\000\000"
  81      15150E0A 
  81      0A0A0000 
  82 02a0 00001B0A 		.ascii	"\000\000\033\012\012\004\004\012\012\033\000\000"
  82      0A04040A 
  82      0A1B0000 
  83 02ac 00001B0A 		.ascii	"\000\000\033\012\012\012\004\004\004\016\000\000"
  83      0A0A0404 
  83      040E0000 
  84 02b8 00001F09 		.ascii	"\000\000\037\011\010\004\004\002\022\037\000\000"
  84      08040402 
  84      121F0000 
  85 02c4 1C040404 		.ascii	"\034\004\004\004\004\004\004\004\004\004\034\000"
  85      04040404 
  85      04041C00 
  86 02d0 00020204 		.ascii	"\000\002\002\004\004\004\010\010\010\020\020\000"
  86      04040808 
  86      08101000 
  87 02dc 0E080808 		.ascii	"\016\010\010\010\010\010\010\010\010\010\016\000"
  87      08080808 
  87      08080E00 
  88 02e8 040A0000 		.ascii	"\004\012\000\000\000\000\000\000\000\000\000\000"
  88      00000000 
  88      00000000 
  89 02f4 00000000 		.ascii	"\000\000\000\000\000\000\000\000\000\000\000?"
  89      00000000 
  89      0000003F 
  90 0300 02040000 		.ascii	"\002\004\000\000\000\000\000\000\000\000\000\000"
  90      00000000 
  90      00000000 
  91 030c 00000000 		.ascii	"\000\000\000\000\000\014\022\034\022<\000\000"
  91      000C121C 
  91      123C0000 
  92 0318 00030202 		.ascii	"\000\003\002\002\002\016\022\022\022\016\000\000"
  92      020E1212 
  92      120E0000 
  93 0324 00000000 		.ascii	"\000\000\000\000\000\034\022\002\022\014\000\000"
  93      001C1202 
  93      120C0000 
  94 0330 00181010 		.ascii	"\000\030\020\020\020\034\022\022\022<\000\000"
ARM GAS  C:\Users\AURORA~1\AppData\Local\Temp\ccDd7T3c.s 			page 5


  94      101C1212 
  94      123C0000 
  95 033c 00000000 		.ascii	"\000\000\000\000\000\014\022\036\002\034\000\000"
  95      000C121E 
  95      021C0000 
  96 0348 00182404 		.ascii	"\000\030$\004\004\036\004\004\004\036\000\000"
  96      041E0404 
  96      041E0000 
  97 0354 00000000 		.ascii	"\000\000\000\000\000<\022\014\002\034\"\034"
  97      003C120C 
  97      021C221C 
  98 0360 00030202 		.ascii	"\000\003\002\002\002\016\022\022\0227\000\000"
  98      020E1212 
  98      12370000 
  99 036c 00040400 		.ascii	"\000\004\004\000\000\006\004\004\004\016\000\000"
  99      00060404 
  99      040E0000 
 100 0378 00080800 		.ascii	"\000\010\010\000\000\014\010\010\010\010\010\007"
 100      000C0808 
 100      08080807 
 101 0384 00030202 		.ascii	"\000\003\002\002\002\032\012\006\012\023\000\000"
 101      021A0A06 
 101      0A130000 
 102 0390 00070404 		.ascii	"\000\007\004\004\004\004\004\004\004\037\000\000"
 102      04040404 
 102      041F0000 
 103 039c 00000000 		.ascii	"\000\000\000\000\000\017\025\025\025\025\000\000"
 103      000F1515 
 103      15150000 
 104 03a8 00000000 		.ascii	"\000\000\000\000\000\017\022\022\0227\000\000"
 104      000F1212 
 104      12370000 
 105 03b4 00000000 		.ascii	"\000\000\000\000\000\014\022\022\022\014\000\000"
 105      000C1212 
 105      120C0000 
 106 03c0 00000000 		.ascii	"\000\000\000\000\000\017\022\022\022\016\002\007"
 106      000F1212 
 106      120E0207 
 107 03cc 00000000 		.ascii	"\000\000\000\000\000\034\022\022\022\034\0208"
 107      001C1212 
 107      121C1038 
 108 03d8 00000000 		.ascii	"\000\000\000\000\000\033\006\002\002\007\000\000"
 108      001B0602 
 108      02070000 
 109 03e4 00000000 		.ascii	"\000\000\000\000\000\036\002\014\020\036\000\000"
 109      001E020C 
 109      101E0000 
 110 03f0 00000004 		.ascii	"\000\000\000\004\004\036\004\004\004\034\000\000"
 110      041E0404 
 110      041C0000 
 111 03fc 00000000 		.ascii	"\000\000\000\000\000\033\022\022\022<\000\000"
 111      001B1212 
 111      123C0000 
 112 0408 00000000 		.ascii	"\000\000\000\000\000\033\012\012\004\004\000\000"
 112      001B0A0A 
 112      04040000 
 113 0414 00000000 		.ascii	"\000\000\000\000\000\025\025\016\012\012\000\000"
ARM GAS  C:\Users\AURORA~1\AppData\Local\Temp\ccDd7T3c.s 			page 6


 113      0015150E 
 113      0A0A0000 
 114 0420 00000000 		.ascii	"\000\000\000\000\000\033\012\004\012\033\000\000"
 114      001B0A04 
 114      0A1B0000 
 115 042c 00000000 		.ascii	"\000\000\000\000\0003\022\022\014\010\004\003"
 115      00331212 
 115      0C080403 
 116 0438 00000000 		.ascii	"\000\000\000\000\000\036\010\004\004\036\000\000"
 116      001E0804 
 116      041E0000 
 117 0444 18080808 		.ascii	"\030\010\010\010\010\014\010\010\010\010\030\000"
 117      080C0808 
 117      08081800 
 118 0450 08080808 		.ascii	"\010\010\010\010\010\010\010\010\010\010\010\010"
 118      08080808 
 118      08080808 
 119 045c 06040404 		.ascii	"\006\004\004\004\004\010\004\004\004\004\006\000"
 119      04080404 
 119      04040600 
 120 0468 16090000 		.ascii	"\026\011\000\000\000\000\000\000\000\000\000\000"
 120      00000000 
 120      00000000 
 121              		.global	ascii_1608
 122              		.section	.rodata.ascii_1608,"a"
 123              		.align	2
 126              	ascii_1608:
 127 0000 00000000 		.ascii	"\000\000\000\000\000\000\000\000\000\000\000\000\000"
 127      00000000 
 127      00000000 
 127      00
 128 000d 000000   		.ascii	"\000\000\000"
 129 0010 00000008 		.ascii	"\000\000\000\010\010\010\010\010\010\010\000\000\030"
 129      08080808 
 129      08080000 
 129      18
 130 001d 180000   		.ascii	"\030\000\000"
 131 0020 00486C24 		.ascii	"\000Hl$\022\000\000\000\000\000\000\000\000\000\000"
 131      12000000 
 131      00000000 
 131      000000
 132 002f 00       		.ascii	"\000"
 133 0030 00000024 		.ascii	"\000\000\000$$$\177\022\022\022\177\022\022\022\000"
 133      24247F12 
 133      12127F12 
 133      121200
 134 003f 00       		.ascii	"\000"
 135 0040 0000081C 		.ascii	"\000\000\010\034**\012\014\030((**\034\010\010"
 135      2A2A0A0C 
 135      1828282A 
 135      2A1C0808 
 136 0050 00000022 		.ascii	"\000\000\000\"%\025\025\025*XTTT\"\000\000"
 136      25151515 
 136      2A585454 
 136      54220000 
 137 0060 0000000C 		.ascii	"\000\000\000\014\022\022\022\012v%)\021\221n\000\000"
 137      1212120A 
ARM GAS  C:\Users\AURORA~1\AppData\Local\Temp\ccDd7T3c.s 			page 7


 137      76252911 
 137      916E0000 
 138 0070 00060604 		.ascii	"\000\006\006\004\003\000\000\000\000\000\000\000\000"
 138      03000000 
 138      00000000 
 138      00
 139 007d 000000   		.ascii	"\000\000\000"
 140 0080 00402010 		.ascii	"\000@ \020\020\010\010\010\010\010\010\020\020 @\000"
 140      10080808 
 140      08080810 
 140      10204000 
 141 0090 00020408 		.ascii	"\000\002\004\010\010\020\020\020\020\020\020\010\010"
 141      08101010 
 141      10101008 
 141      08
 142 009d 040200   		.ascii	"\004\002\000"
 143 00a0 00000000 		.ascii	"\000\000\000\000\010\010k\034\034k\010\010\000\000\000"
 143      08086B1C 
 143      1C6B0808 
 143      000000
 144 00af 00       		.ascii	"\000"
 145 00b0 00000000 		.ascii	"\000\000\000\000\010\010\010\010\177\010\010\010\010"
 145      08080808 
 145      7F080808 
 145      08
 146 00bd 000000   		.ascii	"\000\000\000"
 147 00c0 00000000 		.ascii	"\000\000\000\000\000\000\000\000\000\000\000\000\006"
 147      00000000 
 147      00000000 
 147      06
 148 00cd 060403   		.ascii	"\006\004\003"
 149 00d0 00000000 		.ascii	"\000\000\000\000\000\000\000\000\376\000\000\000\000"
 149      00000000 
 149      FE000000 
 149      00
 150 00dd 000000   		.ascii	"\000\000\000"
 151 00e0 00000000 		.ascii	"\000\000\000\000\000\000\000\000\000\000\000\000\006"
 151      00000000 
 151      00000000 
 151      06
 152 00ed 060000   		.ascii	"\006\000\000"
 153 00f0 00008040 		.ascii	"\000\000\200@@  \020\020\010\010\004\004\002\002\000"
 153      40202010 
 153      10080804 
 153      04020200 
 154 0100 00000018 		.ascii	"\000\000\000\030$BBBBBBB$\030\000\000"
 154      24424242 
 154      42424242 
 154      24180000 
 155 0110 00000008 		.ascii	"\000\000\000\010\016\010\010\010\010\010\010\010\010"
 155      0E080808 
 155      08080808 
 155      08
 156 011d 3E0000   		.ascii	">\000\000"
 157 0120 0000003C 		.ascii	"\000\000\000<BBB  \020\010\004B~\000\000"
 157      42424220 
 157      20100804 
ARM GAS  C:\Users\AURORA~1\AppData\Local\Temp\ccDd7T3c.s 			page 8


 157      427E0000 
 158 0130 0000003C 		.ascii	"\000\000\000<BB \030 @@B\"\034\000\000"
 158      42422018 
 158      20404042 
 158      221C0000 
 159 0140 00000020 		.ascii	"\000\000\000 0($$\"\"~  x\000\000"
 159      30282424 
 159      22227E20 
 159      20780000 
 160 0150 0000007E 		.ascii	"\000\000\000~\002\002\002\032&@@B\"\034\000\000"
 160      0202021A 
 160      26404042 
 160      221C0000 
 161 0160 00000038 		.ascii	"\000\000\0008$\002\002\032&BBB$\030\000\000"
 161      2402021A 
 161      26424242 
 161      24180000 
 162 0170 0000007E 		.ascii	"\000\000\000~\"\"\020\020\010\010\010\010\010\010\000"
 162      22221010 
 162      08080808 
 162      080800
 163 017f 00       		.ascii	"\000"
 164 0180 0000003C 		.ascii	"\000\000\000<BBB$\030$BBB<\000\000"
 164      42424224 
 164      18244242 
 164      423C0000 
 165 0190 00000018 		.ascii	"\000\000\000\030$BBBdX@@$\034\000\000"
 165      24424242 
 165      64584040 
 165      241C0000 
 166 01a0 00000000 		.ascii	"\000\000\000\000\000\000\030\030\000\000\000\000\030"
 166      00001818 
 166      00000000 
 166      18
 167 01ad 180000   		.ascii	"\030\000\000"
 168 01b0 00000000 		.ascii	"\000\000\000\000\000\000\000\010\000\000\000\000\000"
 168      00000008 
 168      00000000 
 168      00
 169 01bd 080804   		.ascii	"\010\010\004"
 170 01c0 00000040 		.ascii	"\000\000\000@ \020\010\004\002\004\010\020 @\000\000"
 170      20100804 
 170      02040810 
 170      20400000 
 171 01d0 00000000 		.ascii	"\000\000\000\000\000\000\177\000\000\000\177\000\000"
 171      00007F00 
 171      00007F00 
 171      00
 172 01dd 000000   		.ascii	"\000\000\000"
 173 01e0 00000002 		.ascii	"\000\000\000\002\004\010\020 @ \020\010\004\002\000"
 173      04081020 
 173      40201008 
 173      040200
 174 01ef 00       		.ascii	"\000"
 175 01f0 0000003C 		.ascii	"\000\000\000<BBF@ \020\020\000\030\030\000\000"
 175      42424640 
 175      20101000 
ARM GAS  C:\Users\AURORA~1\AppData\Local\Temp\ccDd7T3c.s 			page 9


 175      18180000 
 176 0200 0000001C 		.ascii	"\000\000\000\034\"ZUUUU-B\"\034\000\000"
 176      225A5555 
 176      55552D42 
 176      221C0000 
 177 0210 00000008 		.ascii	"\000\000\000\010\010\030\024\024$<\"BB\347\000\000"
 177      08181414 
 177      243C2242 
 177      42E70000 
 178 0220 0000001F 		.ascii	"\000\000\000\037\"\"\"\036\"BBB\"\037\000\000"
 178      2222221E 
 178      22424242 
 178      221F0000 
 179 0230 0000007C 		.ascii	"\000\000\000|BB\001\001\001\001\001B\"\034\000\000"
 179      42420101 
 179      01010142 
 179      221C0000 
 180 0240 0000001F 		.ascii	"\000\000\000\037\"BBBBBBB\"\037\000\000"
 180      22424242 
 180      42424242 
 180      221F0000 
 181 0250 0000003F 		.ascii	"\000\000\000?B\022\022\036\022\022\002BB?\000\000"
 181      4212121E 
 181      12120242 
 181      423F0000 
 182 0260 0000003F 		.ascii	"\000\000\000?B\022\022\036\022\022\002\002\002\007\000"
 182      4212121E 
 182      12120202 
 182      020700
 183 026f 00       		.ascii	"\000"
 184 0270 0000003C 		.ascii	"\000\000\000<\"\"\001\001\001q!\"\"\034\000\000"
 184      22220101 
 184      01712122 
 184      221C0000 
 185 0280 000000E7 		.ascii	"\000\000\000\347BBBB~BBBB\347\000\000"
 185      42424242 
 185      7E424242 
 185      42E70000 
 186 0290 0000003E 		.ascii	"\000\000\000>\010\010\010\010\010\010\010\010\010>\000"
 186      08080808 
 186      08080808 
 186      083E00
 187 029f 00       		.ascii	"\000"
 188 02a0 0000007C 		.ascii	"\000\000\000|\020\020\020\020\020\020\020\020\020\020"
 188      10101010 
 188      10101010 
 188      1010
 189 02ae 110F     		.ascii	"\021\017"
 190 02b0 00000077 		.ascii	"\000\000\000w\"\022\012\016\012\022\022\"\"w\000\000"
 190      22120A0E 
 190      0A121222 
 190      22770000 
 191 02c0 00000007 		.ascii	"\000\000\000\007\002\002\002\002\002\002\002\002B\177"
 191      02020202 
 191      02020202 
 191      427F
 192 02ce 0000     		.ascii	"\000\000"
ARM GAS  C:\Users\AURORA~1\AppData\Local\Temp\ccDd7T3c.s 			page 10


 193 02d0 00000077 		.ascii	"\000\000\000w6666*****k\000\000"
 193      36363636 
 193      2A2A2A2A 
 193      2A6B0000 
 194 02e0 000000E3 		.ascii	"\000\000\000\343FFJJRRRbbG\000\000"
 194      46464A4A 
 194      52525262 
 194      62470000 
 195 02f0 0000001C 		.ascii	"\000\000\000\034\"AAAAAAA\"\034\000\000"
 195      22414141 
 195      41414141 
 195      221C0000 
 196 0300 0000003F 		.ascii	"\000\000\000?BBBB>\002\002\002\002\007\000\000"
 196      42424242 
 196      3E020202 
 196      02070000 
 197 0310 0000001C 		.ascii	"\000\000\000\034\"AAAAAMS2\034`\000"
 197      22414141 
 197      41414D53 
 197      321C6000 
 198 0320 0000003F 		.ascii	"\000\000\000?BBB>\022\022\"\"B\307\000\000"
 198      4242423E 
 198      12122222 
 198      42C70000 
 199 0330 0000007C 		.ascii	"\000\000\000|BB\002\004\030 @BB>\000\000"
 199      42420204 
 199      18204042 
 199      423E0000 
 200 0340 0000007F 		.ascii	"\000\000\000\177I\010\010\010\010\010\010\010\010\034"
 200      49080808 
 200      08080808 
 200      081C
 201 034e 0000     		.ascii	"\000\000"
 202 0350 000000E7 		.ascii	"\000\000\000\347BBBBBBBBB<\000\000"
 202      42424242 
 202      42424242 
 202      423C0000 
 203 0360 000000E7 		.ascii	"\000\000\000\347BB\"$$\024\024\030\010\010\000\000"
 203      42422224 
 203      24141418 
 203      08080000 
 204 0370 0000006B 		.ascii	"\000\000\000kIIIIUU6\"\"\"\000\000"
 204      49494949 
 204      55553622 
 204      22220000 
 205 0380 000000E7 		.ascii	"\000\000\000\347B$$\030\030\030$$B\347\000\000"
 205      42242418 
 205      18182424 
 205      42E70000 
 206 0390 00000077 		.ascii	"\000\000\000w\"\"\024\024\010\010\010\010\010\034\000"
 206      22221414 
 206      08080808 
 206      081C00
 207 039f 00       		.ascii	"\000"
 208 03a0 0000007E 		.ascii	"\000\000\000~! \020\020\010\004\004BB?\000\000"
 208      21201010 
 208      08040442 
ARM GAS  C:\Users\AURORA~1\AppData\Local\Temp\ccDd7T3c.s 			page 11


 208      423F0000 
 209 03b0 00780808 		.ascii	"\000x\010\010\010\010\010\010\010\010\010\010\010\010"
 209      08080808 
 209      08080808 
 209      0808
 210 03be 7800     		.ascii	"x\000"
 211 03c0 00000202 		.ascii	"\000\000\002\002\004\004\010\010\010\020\020   @@"
 211      04040808 
 211      08101020 
 211      20204040 
 212 03d0 001E1010 		.ascii	"\000\036\020\020\020\020\020\020\020\020\020\020\020"
 212      10101010 
 212      10101010 
 212      10
 213 03dd 101E00   		.ascii	"\020\036\000"
 214 03e0 00384400 		.ascii	"\0008D\000\000\000\000\000\000\000\000\000\000\000\000"
 214      00000000 
 214      00000000 
 214      000000
 215 03ef 00       		.ascii	"\000"
 216 03f0 00000000 		.ascii	"\000\000\000\000\000\000\000\000\000\000\000\000\000"
 216      00000000 
 216      00000000 
 216      00
 217 03fd 0000FF   		.ascii	"\000\000\377"
 218 0400 00060800 		.ascii	"\000\006\010\000\000\000\000\000\000\000\000\000\000"
 218      00000000 
 218      00000000 
 218      00
 219 040d 000000   		.ascii	"\000\000\000"
 220 0410 00000000 		.ascii	"\000\000\000\000\000\000\000<BxDBB\374\000\000"
 220      0000003C 
 220      42784442 
 220      42FC0000 
 221 0420 00000003 		.ascii	"\000\000\000\003\002\002\002\032&BBB&\032\000\000"
 221      0202021A 
 221      26424242 
 221      261A0000 
 222 0430 00000000 		.ascii	"\000\000\000\000\000\000\0008D\002\002\002D8\000\000"
 222      00000038 
 222      44020202 
 222      44380000 
 223 0440 00000060 		.ascii	"\000\000\000`@@@xDBBBd\330\000\000"
 223      40404078 
 223      44424242 
 223      64D80000 
 224 0450 00000000 		.ascii	"\000\000\000\000\000\000\000<B~\002\002B<\000\000"
 224      0000003C 
 224      427E0202 
 224      423C0000 
 225 0460 000000F0 		.ascii	"\000\000\000\360\210\010\010~\010\010\010\010\010>\000"
 225      8808087E 
 225      08080808 
 225      083E00
 226 046f 00       		.ascii	"\000"
 227 0470 00000000 		.ascii	"\000\000\000\000\000\000\000|\"\"\034\002<BB<"
 227      0000007C 
ARM GAS  C:\Users\AURORA~1\AppData\Local\Temp\ccDd7T3c.s 			page 12


 227      22221C02 
 227      3C42423C 
 228 0480 00000003 		.ascii	"\000\000\000\003\002\002\002:FBBBB\347\000\000"
 228      0202023A 
 228      46424242 
 228      42E70000 
 229 0490 0000000C 		.ascii	"\000\000\000\014\014\000\000\016\010\010\010\010\010"
 229      0C00000E 
 229      08080808 
 229      08
 230 049d 3E0000   		.ascii	">\000\000"
 231 04a0 00000030 		.ascii	"\000\000\00000\000\0008      \"\036"
 231      30000038 
 231      20202020 
 231      2020221E 
 232 04b0 00000003 		.ascii	"\000\000\000\003\002\002\002r\022\012\026\022\"w\000"
 232      02020272 
 232      120A1612 
 232      227700
 233 04bf 00       		.ascii	"\000"
 234 04c0 0000000E 		.ascii	"\000\000\000\016\010\010\010\010\010\010\010\010\010"
 234      08080808 
 234      08080808 
 234      08
 235 04cd 3E0000   		.ascii	">\000\000"
 236 04d0 00000000 		.ascii	"\000\000\000\000\000\000\000\177\222\222\222\222\222"
 236      0000007F 
 236      92929292 
 236      92
 237 04dd B70000   		.ascii	"\267\000\000"
 238 04e0 00000000 		.ascii	"\000\000\000\000\000\000\000;FBBBB\347\000\000"
 238      0000003B 
 238      46424242 
 238      42E70000 
 239 04f0 00000000 		.ascii	"\000\000\000\000\000\000\000<BBBBB<\000\000"
 239      0000003C 
 239      42424242 
 239      423C0000 
 240 0500 00000000 		.ascii	"\000\000\000\000\000\000\000\033&BBB\"\036\002\007"
 240      0000001B 
 240      26424242 
 240      221E0207 
 241 0510 00000000 		.ascii	"\000\000\000\000\000\000\000xDBBBDx@\340"
 241      00000078 
 241      44424242 
 241      447840E0 
 242 0520 00000000 		.ascii	"\000\000\000\000\000\000\000wL\004\004\004\004\037\000"
 242      00000077 
 242      4C040404 
 242      041F00
 243 052f 00       		.ascii	"\000"
 244 0530 00000000 		.ascii	"\000\000\000\000\000\000\000|B\002<@B>\000\000"
 244      0000007C 
 244      42023C40 
 244      423E0000 
 245 0540 00000000 		.ascii	"\000\000\000\000\000\010\010>\010\010\010\010\0100\000"
 245      0008083E 
ARM GAS  C:\Users\AURORA~1\AppData\Local\Temp\ccDd7T3c.s 			page 13


 245      08080808 
 245      083000
 246 054f 00       		.ascii	"\000"
 247 0550 00000000 		.ascii	"\000\000\000\000\000\000\000cBBBBb\334\000\000"
 247      00000063 
 247      42424242 
 247      62DC0000 
 248 0560 00000000 		.ascii	"\000\000\000\000\000\000\000\347B$$\024\010\010\000"
 248      000000E7 
 248      42242414 
 248      080800
 249 056f 00       		.ascii	"\000"
 250 0570 00000000 		.ascii	"\000\000\000\000\000\000\000\353IIUU\"\"\000\000"
 250      000000EB 
 250      49495555 
 250      22220000 
 251 0580 00000000 		.ascii	"\000\000\000\000\000\000\000v$\030\030\030$n\000\000"
 251      00000076 
 251      24181818 
 251      246E0000 
 252 0590 00000000 		.ascii	"\000\000\000\000\000\000\000\347B$$\024\030\010\010"
 252      000000E7 
 252      42242414 
 252      180808
 253 059f 07       		.ascii	"\007"
 254 05a0 00000000 		.ascii	"\000\000\000\000\000\000\000~\"\020\010\010D~\000\000"
 254      0000007E 
 254      22100808 
 254      447E0000 
 255 05b0 00C02020 		.ascii	"\000\300     \020      \300\000"
 255      20202010 
 255      20202020 
 255      2020C000 
 256 05c0 10101010 		.ascii	"\020\020\020\020\020\020\020\020\020\020\020\020\020"
 256      10101010 
 256      10101010 
 256      10
 257 05cd 101010   		.ascii	"\020\020\020"
 258 05d0 00060808 		.ascii	"\000\006\010\010\010\010\010\020\010\010\010\010\010"
 258      08080810 
 258      08080808 
 258      08
 259 05dd 080600   		.ascii	"\010\006\000"
 260 05e0 0C32C200 		.ascii	"\0142\302\000\000\000\000\000\000\000\000\000\000\000"
 260      00000000 
 260      00000000 
 260      0000
 261 05ee 0000     		.ascii	"\000\000"
 262              		.global	ascii_2412
 263              		.section	.rodata.ascii_2412,"a"
 264              		.align	2
 267              	ascii_2412:
 268 0000 00000000 		.ascii	"\000\000\000\000\000\000\000\000\000\000\000\000\000"
 268      00000000 
 268      00000000 
 268      00
 269 000d 00000000 		.ascii	"\000\000\000\000\000\000\000\000\000\000\000\000\000"
ARM GAS  C:\Users\AURORA~1\AppData\Local\Temp\ccDd7T3c.s 			page 14


 269      00000000 
 269      00000000 
 269      00
 270 001a 00000000 		.ascii	"\000\000\000\000\000\000\000\000\000\000\000\000\000"
 270      00000000 
 270      00000000 
 270      00
 271 0027 00000000 		.ascii	"\000\000\000\000\000\000\000\000\000"
 271      00000000 
 271      00
 272 0030 00000000 		.ascii	"\000\000\000\000\000\000\000\000`\000`\000`\000`\000"
 272      00000000 
 272      60006000 
 272      60006000 
 273 0040 60006000 		.ascii	"`\000`\000`\000@\000 \000 \000 \000\000\000\000\000"
 273      60004000 
 273      20002000 
 273      20000000 
 273      0000
 274 0052 00006000 		.ascii	"\000\000`\000`\000`\000\000\000\000\000\000\000"
 274      60006000 
 274      00000000 
 274      0000
 275 0060 00000000 		.ascii	"\000\000\000\000`\006`\0060\003\230\001\210\000D\000"
 275      60066006 
 275      30039801 
 275      88004400 
 276 0070 00000000 		.ascii	"\000\000\000\000\000\000\000\000\000\000\000\000\000"
 276      00000000 
 276      00000000 
 276      00
 277 007d 00000000 		.ascii	"\000\000\000\000\000\000\000\000\000\000\000\000\000"
 277      00000000 
 277      00000000 
 277      00
 278 008a 00000000 		.ascii	"\000\000\000\000\000\000"
 278      0000
 279 0090 00000000 		.ascii	"\000\000\000\000\000\000\000\000\020\002\020\002\020"
 279      00000000 
 279      10021002 
 279      10
 280 009d 021002FE 		.ascii	"\002\020\002\376\007\376\007\010\002\010\001\010\001"
 280      07FE0708 
 280      02080108 
 280      01
 281 00aa 08010801 		.ascii	"\010\001\010\001\376\007\376\007\004\001\004\001\004"
 281      FE07FE07 
 281      04010401 
 281      04
 282 00b7 01040100 		.ascii	"\001\004\001\000\000\000\000\000\000"
 282      00000000 
 282      00
 283 00c0 00000000 		.ascii	"\000\000\000\000\000\000@\000@\000\360\001X\003L\003"
 283      00004000 
 283      4000F001 
 283      58034C03 
 284 00d0 CC034C00 		.ascii	"\314\003L\000X\000p\000\340\000\300\001\300\001@\003"
ARM GAS  C:\Users\AURORA~1\AppData\Local\Temp\ccDd7T3c.s 			page 15


 284      58007000 
 284      E000C001 
 284      C0014003 
 285 00e0 4C035C03 		.ascii	"L\003\\\003L\003H\001\360\000@\000@\000\000\000"
 285      4C034801 
 285      F0004000 
 285      40000000 
 286 00f0 00000000 		.ascii	"\000\000\000\000\000\000\000\000\016\001\012\001\221"
 286      00000000 
 286      0E010A01 
 286      91
 287 00fd 00910091 		.ascii	"\000\221\000\221\000Q\000Q\000:\000\256\003\240\002"
 287      00510051 
 287      003A00AE 
 287      03A002
 288 010c 50045004 		.ascii	"P\004P\004H\004H\004H\004\204\002\204\003\000\000\000"
 288      48044804 
 288      48048402 
 288      84030000 
 288      00
 289 011d 000000   		.ascii	"\000\000\000"
 290 0120 00000000 		.ascii	"\000\000\000\000\000\000\000\0008\000l\000l\000l\000"
 290      00000000 
 290      38006C00 
 290      6C006C00 
 291 0130 6C006C00 		.ascii	"l\000l\000,\000\230\007\034\001\032\0013\0013\001c\001"
 291      2C009807 
 291      1C011A01 
 291      33013301 
 291      6301
 292 0142 E300C308 		.ascii	"\343\000\303\010\306\011<\007\000\000\000\000\000\000"
 292      C6093C07 
 292      00000000 
 292      0000
 293 0150 00000000 		.ascii	"\000\000\000\000\014\000\034\000\020\000\020\000\010"
 293      0C001C00 
 293      10001000 
 293      08
 294 015d 00040000 		.ascii	"\000\004\000\000\000\000\000\000\000\000\000\000\000"
 294      00000000 
 294      00000000 
 294      00
 295 016a 00000000 		.ascii	"\000\000\000\000\000\000\000\000\000\000\000\000\000"
 295      00000000 
 295      00000000 
 295      00
 296 0177 00000000 		.ascii	"\000\000\000\000\000\000\000\000\000"
 296      00000000 
 296      00
 297 0180 00000000 		.ascii	"\000\000\000\000\000\004\000\002\000\001\200\000\200"
 297      00040002 
 297      00018000 
 297      80
 298 018d 00400040 		.ascii	"\000@\000@\000 \000 \000 \000 \000 \000 \000 \000@\000"
 298      00200020 
 298      00200020 
 298      00200020 
ARM GAS  C:\Users\AURORA~1\AppData\Local\Temp\ccDd7T3c.s 			page 16


 298      00200040 
 299 01a2 40008000 		.ascii	"@\000\200\000\200\000\000\001\000\002\000\004\000\000"
 299      80000001 
 299      00020004 
 299      0000
 300 01b0 00000000 		.ascii	"\000\000\000\000\002\000\004\000\010\000\020\000\020"
 300      02000400 
 300      08001000 
 300      10
 301 01bd 00200020 		.ascii	"\000 \000 \000@\000@\000@\000@\000@\000@\000@\000 \000"
 301      00400040 
 301      00400040 
 301      00400040 
 301      00400020 
 302 01d2 20001000 		.ascii	" \000\020\000\020\000\010\000\004\000\002\000\000\000"
 302      10000800 
 302      04000200 
 302      0000
 303 01e0 00000000 		.ascii	"\000\000\000\000\000\000\000\000\000\000\000\000@\000"
 303      00000000 
 303      00000000 
 303      4000
 304 01ee C0004000 		.ascii	"\300\000@\000F\014N\017\320\001\360\001^\017F\014@\000"
 304      460C4E0F 
 304      D001F001 
 304      5E0F460C 
 304      4000
 305 0200 40004000 		.ascii	"@\000@\000\000\000\000\000\000\000\000\000\000\000\000"
 305      00000000 
 305      00000000 
 305      000000
 306 020f 00       		.ascii	"\000"
 307 0210 00000000 		.ascii	"\000\000\000\000\000\000\000\000\000\000\000\000\000"
 307      00000000 
 307      00000000 
 307      00
 308 021d 00400040 		.ascii	"\000@\000@\000@\000@\000@\000\376\017@\000@\000@\000"
 308      00400040 
 308      004000FE 
 308      0F400040 
 308      004000
 309 0230 40004000 		.ascii	"@\000@\000\000\000\000\000\000\000\000\000\000\000\000"
 309      00000000 
 309      00000000 
 309      000000
 310 023f 00       		.ascii	"\000"
 311 0240 00000000 		.ascii	"\000\000\000\000\000\000\000\000\000\000\000\000\000"
 311      00000000 
 311      00000000 
 311      00
 312 024d 00000000 		.ascii	"\000\000\000\000\000\000\000\000\000\000\000\000\000"
 312      00000000 
 312      00000000 
 312      00
 313 025a 00000000 		.ascii	"\000\000\000\000\000\000\000\000\000\000\014\000\034"
 313      00000000 
 313      00000C00 
ARM GAS  C:\Users\AURORA~1\AppData\Local\Temp\ccDd7T3c.s 			page 17


 313      1C
 314 0267 00100010 		.ascii	"\000\020\000\020\000\010\000\004\000"
 314      00080004 
 314      00
 315 0270 00000000 		.ascii	"\000\000\000\000\000\000\000\000\000\000\000\000\000"
 315      00000000 
 315      00000000 
 315      00
 316 027d 00000000 		.ascii	"\000\000\000\000\000\000\000\000\000\000\000\376\007"
 316      00000000 
 316      000000FE 
 316      07
 317 028a 00000000 		.ascii	"\000\000\000\000\000\000\000\000\000\000\000\000\000"
 317      00000000 
 317      00000000 
 317      00
 318 0297 00000000 		.ascii	"\000\000\000\000\000\000\000\000\000"
 318      00000000 
 318      00
 319 02a0 00000000 		.ascii	"\000\000\000\000\000\000\000\000\000\000\000\000\000"
 319      00000000 
 319      00000000 
 319      00
 320 02ad 00000000 		.ascii	"\000\000\000\000\000\000\000\000\000\000\000\000\000"
 320      00000000 
 320      00000000 
 320      00
 321 02ba 00000000 		.ascii	"\000\000\000\000\000\000\000\000\000\000\034\000\034"
 321      00000000 
 321      00001C00 
 321      1C
 322 02c7 001C0000 		.ascii	"\000\034\000\000\000\000\000\000\000"
 322      00000000 
 322      00
 323 02d0 00000000 		.ascii	"\000\000\000\000\000\004\000\006\000\002\000\003\000"
 323      00040006 
 323      00020003 
 323      00
 324 02dd 01000180 		.ascii	"\001\000\001\200\000\200\000@\000@\000`\000 \000 \000"
 324      00800040 
 324      00400060 
 324      00200020 
 324      00
 325 02ee 10001000 		.ascii	"\020\000\020\000\010\000\010\000\014\000\004\000\006"
 325      08000800 
 325      0C000400 
 325      06
 326 02fb 00020000 		.ascii	"\000\002\000\000\000"
 326      00
 327 0300 00000000 		.ascii	"\000\000\000\000\000\000\000\000\000\000\360\000\230"
 327      00000000 
 327      0000F000 
 327      98
 328 030d 010C030C 		.ascii	"\001\014\003\014\003\006\006\006\006\006\006\006\006"
 328      03060606 
 328      06060606 
 328      06
ARM GAS  C:\Users\AURORA~1\AppData\Local\Temp\ccDd7T3c.s 			page 18


 329 031a 06060606 		.ascii	"\006\006\006\006\006\006\006\006\014\003\014\003\230"
 329      06060606 
 329      0C030C03 
 329      98
 330 0327 01F00000 		.ascii	"\001\360\000\000\000\000\000\000\000"
 330      00000000 
 330      00
 331 0330 00000000 		.ascii	"\000\000\000\000\000\000\000\000\000\000@\000|\000`"
 331      00000000 
 331      00004000 
 331      7C0060
 332 033f 00600060 		.ascii	"\000`\000`\000`\000`\000`\000`\000`\000`\000`\000`\000"
 332      00600060 
 332      00600060 
 332      00600060 
 332      00600060 
 333 0354 60006000 		.ascii	"`\000`\000\374\003\000\000\000\000\000\000"
 333      FC030000 
 333      00000000 
 334 0360 00000000 		.ascii	"\000\000\000\000\000\000\000\000\000\000\370\000\204"
 334      00000000 
 334      0000F800 
 334      84
 335 036d 01020306 		.ascii	"\001\002\003\006\003\006\003\000\003\000\001\200\001"
 335      03060300 
 335      03000180 
 335      01
 336 037a C0006000 		.ascii	"\300\000`\000 \000\020\000\010\002\004\002\006\002\376"
 336      20001000 
 336      08020402 
 336      0602FE
 337 0389 03000000 		.ascii	"\003\000\000\000\000\000\000"
 337      000000
 338 0390 00000000 		.ascii	"\000\000\000\000\000\000\000\000\000\000x\000\306\000"
 338      00000000 
 338      00007800 
 338      C600
 339 039e 86018601 		.ascii	"\206\001\206\001\200\001\200\001\300\000p\000\200\001"
 339      80018001 
 339      C0007000 
 339      8001
 340 03ac 00010003 		.ascii	"\000\001\000\003\000\003\006\003\006\003\206\001\370"
 340      00030603 
 340      06038601 
 340      F8
 341 03b9 00000000 		.ascii	"\000\000\000\000\000\000\000"
 341      000000
 342 03c0 00000000 		.ascii	"\000\000\000\000\000\000\000\000\000\000\200\001\200"
 342      00000000 
 342      00008001 
 342      80
 343 03cd 01C001A0 		.ascii	"\001\300\001\240\001\240\001\220\001\210\001\210\001"
 343      01A00190 
 343      01880188 
 343      01
 344 03da 84018201 		.ascii	"\204\001\202\001\376\017\200\001\200\001\200\001\200"
 344      FE0F8001 
ARM GAS  C:\Users\AURORA~1\AppData\Local\Temp\ccDd7T3c.s 			page 19


 344      80018001 
 344      80
 345 03e7 01E00700 		.ascii	"\001\340\007\000\000\000\000\000\000"
 345      00000000 
 345      00
 346 03f0 00000000 		.ascii	"\000\000\000\000\000\000\000\000\000\000\374\003\004"
 346      00000000 
 346      0000FC03 
 346      04
 347 03fd 00040004 		.ascii	"\000\004\000\004\000\004\000\004\000\364\000\214\001"
 347      00040004 
 347      00F4008C 
 347      01
 348 040a 04030003 		.ascii	"\004\003\000\003\000\003\006\003\006\003\202\001\204"
 348      00030603 
 348      06038201 
 348      84
 349 0417 01F80000 		.ascii	"\001\370\000\000\000\000\000\000\000"
 349      00000000 
 349      00
 350 0420 00000000 		.ascii	"\000\000\000\000\000\000\000\000\000\000\340\001\030"
 350      00000000 
 350      0000E001 
 350      18
 351 042d 030C030C 		.ascii	"\003\014\003\014\000\004\000\006\000\346\001\026\003"
 351      00040006 
 351      00E60116 
 351      03
 352 043a 0E060606 		.ascii	"\016\006\006\006\006\006\006\006\004\006\014\002\030"
 352      06060606 
 352      04060C02 
 352      18
 353 0447 03F00000 		.ascii	"\003\360\000\000\000\000\000\000\000"
 353      00000000 
 353      00
 354 0450 00000000 		.ascii	"\000\000\000\000\000\000\000\000\000\000\370\007\014"
 354      00000000 
 354      0000F807 
 354      0C
 355 045d 06040204 		.ascii	"\006\004\002\004\001\000\001\000\001\200\000\200\000"
 355      01000100 
 355      01800080 
 355      00
 356 046a 40004000 		.ascii	"@\000@\000@\000`\000`\000`\000`\000`\000\000\000\000"
 356      40006000 
 356      60006000 
 356      60006000 
 356      000000
 357 047d 000000   		.ascii	"\000\000\000"
 358 0480 00000000 		.ascii	"\000\000\000\000\000\000\000\000\000\000\370\001\014"
 358      00000000 
 358      0000F801 
 358      0C
 359 048d 03060606 		.ascii	"\003\006\006\006\006\006\006\014\002\034\003\360\000"
 359      0606060C 
 359      021C03F0 
 359      00
ARM GAS  C:\Users\AURORA~1\AppData\Local\Temp\ccDd7T3c.s 			page 20


 360 049a C8010C03 		.ascii	"\310\001\014\003\006\006\006\006\006\006\006\006\014"
 360      06060606 
 360      06060606 
 360      0C
 361 04a7 03F00100 		.ascii	"\003\360\001\000\000\000\000\000\000"
 361      00000000 
 361      00
 362 04b0 00000000 		.ascii	"\000\000\000\000\000\000\000\000\000\000\360\000\014"
 362      00000000 
 362      0000F000 
 362      0C
 363 04bd 010C0306 		.ascii	"\001\014\003\006\002\006\006\006\006\006\006\006\007"
 363      02060606 
 363      06060606 
 363      07
 364 04ca 8C067806 		.ascii	"\214\006x\006\000\006\000\003\000\003\014\001\214\001"
 364      00060003 
 364      00030C01 
 364      8C01
 365 04d8 78000000 		.ascii	"x\000\000\000\000\000\000\000"
 365      00000000 
 366 04e0 00000000 		.ascii	"\000\000\000\000\000\000\000\000\000\000\000\000\000"
 366      00000000 
 366      00000000 
 366      00
 367 04ed 00000000 		.ascii	"\000\000\000\000\000\000\000\340\000\340\000\340\000"
 367      000000E0 
 367      00E000E0 
 367      00
 368 04fa 00000000 		.ascii	"\000\000\000\000\000\000\000\000\000\000\340\000\340"
 368      00000000 
 368      0000E000 
 368      E0
 369 0507 00E00000 		.ascii	"\000\340\000\000\000\000\000\000\000"
 369      00000000 
 369      00
 370 0510 00000000 		.ascii	"\000\000\000\000\000\000\000\000\000\000\000\000\000"
 370      00000000 
 370      00000000 
 370      00
 371 051d 00000000 		.ascii	"\000\000\000\000\000\000\000`\000`\000\000\000\000\000"
 371      00000060 
 371      00600000 
 371      000000
 372 052c 00000000 		.ascii	"\000\000\000\000\000\000\000\000\000\000`\000`\000@"
 372      00000000 
 372      00006000 
 372      600040
 373 053b 00200020 		.ascii	"\000 \000 \000"
 373      00
 374 0540 00000000 		.ascii	"\000\000\000\000\000\000\000\000\000\004\000\002\000"
 374      00000000 
 374      00040002 
 374      00
 375 054d 01800040 		.ascii	"\001\200\000@\000 \000\020\000\010\000\004\000\010\000"
 375      00200010 
 375      00080004 
ARM GAS  C:\Users\AURORA~1\AppData\Local\Temp\ccDd7T3c.s 			page 21


 375      000800
 376 055c 10002000 		.ascii	"\020\000 \000@\000\200\000\000\001\000\002\000\004\000"
 376      40008000 
 376      00010002 
 376      000400
 377 056b 00000000 		.ascii	"\000\000\000\000\000"
 377      00
 378 0570 00000000 		.ascii	"\000\000\000\000\000\000\000\000\000\000\000\000\000"
 378      00000000 
 378      00000000 
 378      00
 379 057d 00000000 		.ascii	"\000\000\000\000\000\000\000\376\007\000\000\000\000"
 379      000000FE 
 379      07000000 
 379      00
 380 058a 0000FE07 		.ascii	"\000\000\376\007\000\000\000\000\000\000\000\000\000"
 380      00000000 
 380      00000000 
 380      00
 381 0597 00000000 		.ascii	"\000\000\000\000\000\000\000\000\000"
 381      00000000 
 381      00
 382 05a0 00000000 		.ascii	"\000\000\000\000\000\000\000\000\004\000\010\000\020"
 382      00000000 
 382      04000800 
 382      10
 383 05ad 00200040 		.ascii	"\000 \000@\000\200\000\000\001\000\002\000\004\000\002"
 383      00800000 
 383      01000200 
 383      040002
 384 05bc 00018000 		.ascii	"\000\001\200\000@\000 \000\020\000\010\000\004\000\000"
 384      40002000 
 384      10000800 
 384      040000
 385 05cb 00000000 		.ascii	"\000\000\000\000\000"
 385      00
 386 05d0 00000000 		.ascii	"\000\000\000\000\000\000\000\000\000\000\340\003\030"
 386      00000000 
 386      0000E003 
 386      18
 387 05dd 06040C04 		.ascii	"\006\004\014\004\014\014\014\014\014\000\007\200\001"
 387      0C0C0C0C 
 387      0C000780 
 387      01
 388 05ea 40004000 		.ascii	"@\000@\000@\000\000\000\000\000\340\000\340\000\340"
 388      40000000 
 388      0000E000 
 388      E000E0
 389 05f9 00000000 		.ascii	"\000\000\000\000\000\000\000"
 389      000000
 390 0600 00000000 		.ascii	"\000\000\000\000\000\000\000\000\340\000\030\003\014"
 390      00000000 
 390      E0001803 
 390      0C
 391 060d 02CC0564 		.ascii	"\002\314\005d\005f\005\246\005\266\004\266\004\266\004"
 391      056605A6 
 391      05B604B6 
ARM GAS  C:\Users\AURORA~1\AppData\Local\Temp\ccDd7T3c.s 			page 22


 391      04B604
 392 061c B604B602 		.ascii	"\266\004\266\002\344\001\014\004\014\002\030\003\360"
 392      E4010C04 
 392      0C021803 
 392      F0
 393 0629 00000000 		.ascii	"\000\000\000\000\000\000\000"
 393      000000
 394 0630 00000000 		.ascii	"\000\000\000\000\000\000\000\000\000\000`\000`\000P"
 394      00000000 
 394      00006000 
 394      600050
 395 063f 00D00090 		.ascii	"\000\320\000\220\000\220\000\210\000\210\001\010\001"
 395      00900088 
 395      00880108 
 395      01
 396 064c F8010403 		.ascii	"\370\001\004\003\004\003\004\002\002\002\002\006\017"
 396      04030402 
 396      02020206 
 396      0F
 397 0659 0F000000 		.ascii	"\017\000\000\000\000\000\000"
 397      000000
 398 0660 00000000 		.ascii	"\000\000\000\000\000\000\000\000\000\000\376\000\214"
 398      00000000 
 398      0000FE00 
 398      8C
 399 066d 030C030C 		.ascii	"\003\014\003\014\003\014\003\014\003\214\001\374\000"
 399      030C030C 
 399      038C01FC 
 399      00
 400 067a 0C030C02 		.ascii	"\014\003\014\002\014\006\014\006\014\006\014\006\014"
 400      0C060C06 
 400      0C060C06 
 400      0C
 401 0687 03FE0100 		.ascii	"\003\376\001\000\000\000\000\000\000"
 401      00000000 
 401      00
 402 0690 00000000 		.ascii	"\000\000\000\000\000\000\000\000\000\000\340\003\030"
 402      00000000 
 402      0000E003 
 402      18
 403 069d 030C060C 		.ascii	"\003\014\006\014\004\004\004\006\000\006\000\006\000"
 403      04040406 
 403      00060006 
 403      00
 404 06aa 06000600 		.ascii	"\006\000\006\000\006\000\006\004\014\004\014\002\030"
 404      06000604 
 404      0C040C02 
 404      18
 405 06b7 03F00000 		.ascii	"\003\360\000\000\000\000\000\000\000"
 405      00000000 
 405      00
 406 06c0 00000000 		.ascii	"\000\000\000\000\000\000\000\000\000\000\177\000\214"
 406      00000000 
 406      00007F00 
 406      8C
 407 06cd 010C030C 		.ascii	"\001\014\003\014\003\014\006\014\006\014\006\014\006"
 407      030C060C 
ARM GAS  C:\Users\AURORA~1\AppData\Local\Temp\ccDd7T3c.s 			page 23


 407      060C060C 
 407      06
 408 06da 0C060C06 		.ascii	"\014\006\014\006\014\006\014\006\014\003\014\003\214"
 408      0C060C06 
 408      0C030C03 
 408      8C
 409 06e7 017F0000 		.ascii	"\001\177\000\000\000\000\000\000\000"
 409      00000000 
 409      00
 410 06f0 00000000 		.ascii	"\000\000\000\000\000\000\000\000\000\000\377\003\006"
 410      00000000 
 410      0000FF03 
 410      06
 411 06fd 03060406 		.ascii	"\003\006\004\006\004\006\000\206\000\206\000\376\000"
 411      04060086 
 411      008600FE 
 411      00
 412 070a 86008600 		.ascii	"\206\000\206\000\206\000\006\000\006\004\006\004\006"
 412      86000600 
 412      06040604 
 412      06
 413 0717 02FF0300 		.ascii	"\002\377\003\000\000\000\000\000\000"
 413      00000000 
 413      00
 414 0720 00000000 		.ascii	"\000\000\000\000\000\000\000\000\000\000\377\003\006"
 414      00000000 
 414      0000FF03 
 414      06
 415 072d 03060406 		.ascii	"\003\006\004\006\004\006\000\206\000\206\000\376\000"
 415      04060086 
 415      008600FE 
 415      00
 416 073a 86008600 		.ascii	"\206\000\206\000\206\000\006\000\006\000\006\000\006"
 416      86000600 
 416      06000600 
 416      06
 417 0747 001F0000 		.ascii	"\000\037\000\000\000\000\000\000\000"
 417      00000000 
 417      00
 418 0750 00000000 		.ascii	"\000\000\000\000\000\000\000\000\000\000\360\000\030"
 418      00000000 
 418      0000F000 
 418      18
 419 075d 010C020C 		.ascii	"\001\014\002\014\002\004\002\006\000\006\000\006\000"
 419      02040206 
 419      00060006 
 419      00
 420 076a 0600C60F 		.ascii	"\006\000\306\017\006\003\006\003\014\003\014\003\030"
 420      06030603 
 420      0C030C03 
 420      18
 421 0777 03F00000 		.ascii	"\003\360\000\000\000\000\000\000\000"
 421      00000000 
 421      00
 422 0780 00000000 		.ascii	"\000\000\000\000\000\000\000\000\000\000\017\017\006"
 422      00000000 
 422      00000F0F 
ARM GAS  C:\Users\AURORA~1\AppData\Local\Temp\ccDd7T3c.s 			page 24


 422      06
 423 078d 06060606 		.ascii	"\006\006\006\006\006\006\006\006\006\006\006\376\007"
 423      06060606 
 423      060606FE 
 423      07
 424 079a 06060606 		.ascii	"\006\006\006\006\006\006\006\006\006\006\006\006\006"
 424      06060606 
 424      06060606 
 424      06
 425 07a7 060F0F00 		.ascii	"\006\017\017\000\000\000\000\000\000"
 425      00000000 
 425      00
 426 07b0 00000000 		.ascii	"\000\000\000\000\000\000\000\000\000\000\374\003`\000"
 426      00000000 
 426      0000FC03 
 426      6000
 427 07be 60006000 		.ascii	"`\000`\000`\000`\000`\000`\000`\000`\000`\000`\000`"
 427      60006000 
 427      60006000 
 427      60006000 
 427      60006000 
 428 07d3 00600060 		.ascii	"\000`\000`\000\374\003\000\000\000\000\000\000"
 428      00FC0300 
 428      00000000 
 428      00
 429 07e0 00000000 		.ascii	"\000\000\000\000\000\000\000\000\000\000\370\007\300"
 429      00000000 
 429      0000F807 
 429      C0
 430 07ed 00C000C0 		.ascii	"\000\300\000\300\000\300\000\300\000\300\000\300\000"
 430      00C000C0 
 430      00C000C0 
 430      00
 431 07fa C000C000 		.ascii	"\300\000\300\000\300\000\300\000\300\000\300\000\300"
 431      C000C000 
 431      C000C000 
 431      C0
 432 0807 00C000C6 		.ascii	"\000\300\000\306\000f\000<\000"
 432      0066003C 
 432      00
 433 0810 00000000 		.ascii	"\000\000\000\000\000\000\000\000\000\000\317\003\206"
 433      00000000 
 433      0000CF03 
 433      86
 434 081d 01C60046 		.ascii	"\001\306\000F\000&\000\026\0006\000.\000n\000F\000\306"
 434      00260016 
 434      0036002E 
 434      006E0046 
 434      00C6
 435 082f 00860086 		.ascii	"\000\206\000\206\001\006\001\006\003\217\007\000\000"
 435      01060106 
 435      038F0700 
 435      00
 436 083c 00000000 		.ascii	"\000\000\000\000"
 437 0840 00000000 		.ascii	"\000\000\000\000\000\000\000\000\000\000\037\000\006"
 437      00000000 
 437      00001F00 
ARM GAS  C:\Users\AURORA~1\AppData\Local\Temp\ccDd7T3c.s 			page 25


 437      06
 438 084d 00060006 		.ascii	"\000\006\000\006\000\006\000\006\000\006\000\006\000"
 438      00060006 
 438      00060006 
 438      00
 439 085a 06000600 		.ascii	"\006\000\006\000\006\000\006\000\006\004\006\004\006"
 439      06000600 
 439      06040604 
 439      06
 440 0867 02FF0300 		.ascii	"\002\377\003\000\000\000\000\000\000"
 440      00000000 
 440      00
 441 0870 00000000 		.ascii	"\000\000\000\000\000\000\000\000\000\000\007\007\206"
 441      00000000 
 441      00000707 
 441      86
 442 087d 0386038E 		.ascii	"\003\206\003\216\003\216\003N\003N\003J\003Z\003Z\003"
 442      038E034E 
 442      034E034A 
 442      035A035A 
 442      03
 443 088e 3A033203 		.ascii	":\0032\0032\0032\003\022\003\207\007\000\000\000\000"
 443      32033203 
 443      12038707 
 443      00000000 
 444 089e 0000     		.ascii	"\000\000"
 445 08a0 00000000 		.ascii	"\000\000\000\000\000\000\000\000\000\000\216\017\014"
 445      00000000 
 445      00008E0F 
 445      0C
 446 08ad 021C021C 		.ascii	"\002\034\002\034\0024\0024\002d\002d\002D\002\304\002"
 446      02340234 
 446      02640264 
 446      024402C4 
 446      02
 447 08be 84028403 		.ascii	"\204\002\204\003\204\003\004\003\004\003\037\002\000"
 447      84030403 
 447      04031F02 
 447      00
 448 08cb 00000000 		.ascii	"\000\000\000\000\000"
 448      00
 449 08d0 00000000 		.ascii	"\000\000\000\000\000\000\000\000\000\000\360\000\230"
 449      00000000 
 449      0000F000 
 449      98
 450 08dd 010C030C 		.ascii	"\001\014\003\014\002\006\006\006\006\006\006\006\006"
 450      02060606 
 450      06060606 
 450      06
 451 08ea 06060606 		.ascii	"\006\006\006\006\006\006\006\006\014\002\014\003\230"
 451      06060606 
 451      0C020C03 
 451      98
 452 08f7 01F00000 		.ascii	"\001\360\000\000\000\000\000\000\000"
 452      00000000 
 452      00
 453 0900 00000000 		.ascii	"\000\000\000\000\000\000\000\000\000\000\377\000\006"
ARM GAS  C:\Users\AURORA~1\AppData\Local\Temp\ccDd7T3c.s 			page 26


 453      00000000 
 453      0000FF00 
 453      06
 454 090d 03060606 		.ascii	"\003\006\006\006\006\006\006\006\006\006\006\206\003"
 454      06060606 
 454      06060686 
 454      03
 455 091a FE000600 		.ascii	"\376\000\006\000\006\000\006\000\006\000\006\000\006"
 455      06000600 
 455      06000600 
 455      06
 456 0927 001F0000 		.ascii	"\000\037\000\000\000\000\000\000\000"
 456      00000000 
 456      00
 457 0930 00000000 		.ascii	"\000\000\000\000\000\000\000\000\000\000\360\000\230"
 457      00000000 
 457      0000F000 
 457      98
 458 093d 010C030C 		.ascii	"\001\014\003\014\002\006\006\006\006\006\006\006\006"
 458      02060606 
 458      06060606 
 458      06
 459 094a 06060606 		.ascii	"\006\006\006\006\006\006v\006L\002\314\003\230\001\360"
 459      06067606 
 459      4C02CC03 
 459      9801F0
 460 0959 00800700 		.ascii	"\000\200\007\000\003\000\000"
 460      030000
 461 0960 00000000 		.ascii	"\000\000\000\000\000\000\000\000\000\000\377\001\006"
 461      00000000 
 461      0000FF01 
 461      06
 462 096d 03060606 		.ascii	"\003\006\006\006\006\006\006\006\006\006\003\376\000"
 462      06060606 
 462      060603FE 
 462      00
 463 097a 4600C600 		.ascii	"F\000\306\000\206\000\206\001\006\003\006\003\006\006"
 463      86008601 
 463      06030603 
 463      0606
 464 0988 0F0E0000 		.ascii	"\017\016\000\000\000\000\000\000"
 464      00000000 
 465 0990 00000000 		.ascii	"\000\000\000\000\000\000\000\000\000\000\370\002\014"
 465      00000000 
 465      0000F802 
 465      0C
 466 099d 03060206 		.ascii	"\003\006\002\006\002\006\000\016\000<\000\370\000\340"
 466      0206000E 
 466      003C00F8 
 466      00E0
 467 09ab 03800300 		.ascii	"\003\200\003\000\007\002\006\002\006\006\006\014\003"
 467      07020602 
 467      0606060C 
 467      03
 468 09b8 F0010000 		.ascii	"\360\001\000\000\000\000\000\000"
 468      00000000 
 469 09c0 00000000 		.ascii	"\000\000\000\000\000\000\000\000\000\000\376\007b\004"
ARM GAS  C:\Users\AURORA~1\AppData\Local\Temp\ccDd7T3c.s 			page 27


 469      00000000 
 469      0000FE07 
 469      6204
 470 09ce 61086108 		.ascii	"a\010a\010`\000`\000`\000`\000`\000`\000`\000`\000`"
 470      60006000 
 470      60006000 
 470      60006000 
 470      60006000 
 471 09e3 00600060 		.ascii	"\000`\000`\000\370\001\000\000\000\000\000\000"
 471      00F80100 
 471      00000000 
 471      00
 472 09f0 00000000 		.ascii	"\000\000\000\000\000\000\000\000\000\000\036\007\014"
 472      00000000 
 472      00001E07 
 472      0C
 473 09fd 020C020C 		.ascii	"\002\014\002\014\002\014\002\014\002\014\002\014\002"
 473      020C020C 
 473      020C020C 
 473      02
 474 0a0a 0C020C02 		.ascii	"\014\002\014\002\014\002\014\002\014\002\014\002\030"
 474      0C020C02 
 474      0C020C02 
 474      18
 475 0a17 01F00000 		.ascii	"\001\360\000\000\000\000\000\000\000"
 475      00000000 
 475      00
 476 0a20 00000000 		.ascii	"\000\000\000\000\000\000\000\000\000\000\017\007\006"
 476      00000000 
 476      00000F07 
 476      06
 477 0a2d 02040104 		.ascii	"\002\004\001\004\001\014\001\014\001\210\000\210\000"
 477      010C010C 
 477      01880088 
 477      00
 478 0a3a 98009800 		.ascii	"\230\000\230\000P\000P\000p\0000\000 \000 \000\000\000"
 478      50005000 
 478      70003000 
 478      20002000 
 478      0000
 479 0a4c 00000000 		.ascii	"\000\000\000\000"
 480 0a50 00000000 		.ascii	"\000\000\000\000\000\000\000\000\000\000\367\016b\004"
 480      00000000 
 480      0000F70E 
 480      6204
 481 0a5e 42044604 		.ascii	"B\004F\004F\004d\002d\002\344\002\344\002\234\002\234"
 481      46046402 
 481      6402E402 
 481      E4029C02 
 481      9C
 482 0a6f 01980198 		.ascii	"\001\230\001\230\001\210\001\210\000\210\000\000\000"
 482      01880188 
 482      00880000 
 482      00
 483 0a7c 00000000 		.ascii	"\000\000\000\000"
 484 0a80 00000000 		.ascii	"\000\000\000\000\000\000\000\000\000\000\236\007\014"
 484      00000000 
ARM GAS  C:\Users\AURORA~1\AppData\Local\Temp\ccDd7T3c.s 			page 28


 484      00009E07 
 484      0C
 485 0a8d 01080118 		.ascii	"\001\010\001\030\001\220\000\260\000`\000 \000`\000"
 485      019000B0 
 485      00600020 
 485      006000
 486 0a9c 6000D000 		.ascii	"`\000\320\000\220\000\210\001\010\001\004\003\216\007"
 486      90008801 
 486      08010403 
 486      8E07
 487 0aaa 00000000 		.ascii	"\000\000\000\000\000\000"
 487      0000
 488 0ab0 00000000 		.ascii	"\000\000\000\000\000\000\000\000\000\000\017\017\006"
 488      00000000 
 488      00000F0F 
 488      06
 489 0abd 0404020C 		.ascii	"\004\004\002\014\002\010\001\030\001\270\000\260\000"
 489      02080118 
 489      01B800B0 
 489      00
 490 0aca 70006000 		.ascii	"p\000`\000`\000`\000`\000`\000`\000\370\001\000\000"
 490      60006000 
 490      60006000 
 490      6000F801 
 490      0000
 491 0adc 00000000 		.ascii	"\000\000\000\000"
 492 0ae0 00000000 		.ascii	"\000\000\000\000\000\000\000\000\000\000\374\007\014"
 492      00000000 
 492      0000FC07 
 492      0C
 493 0aed 02060302 		.ascii	"\002\006\003\002\001\200\001\200\000@\000@\000 \000"
 493      01800180 
 493      00400040 
 493      002000
 494 0afc 20001000 		.ascii	" \000\020\000\030\000\010\004\014\004\004\002\376\003"
 494      18000804 
 494      0C040402 
 494      FE03
 495 0b0a 00000000 		.ascii	"\000\000\000\000\000\000"
 495      0000
 496 0b10 00000000 		.ascii	"\000\000\000\000\340\003 \000 \000 \000 \000 \000 \000"
 496      E0032000 
 496      20002000 
 496      20002000 
 496      2000
 497 0b22 20002000 		.ascii	" \000 \000 \000 \000 \000 \000 \000 \000 \000 \000 "
 497      20002000 
 497      20002000 
 497      20002000 
 497      20002000 
 498 0b37 00200020 		.ascii	"\000 \000 \000\340\003\000\000"
 498      00E00300 
 498      00
 499 0b40 00000000 		.ascii	"\000\000\000\000\000\000\000\000\004\000\004\000\010"
 499      00000000 
 499      04000400 
 499      08
ARM GAS  C:\Users\AURORA~1\AppData\Local\Temp\ccDd7T3c.s 			page 29


 500 0b4d 00080010 		.ascii	"\000\010\000\020\000\020\000\020\000 \000 \000@\000"
 500      00100010 
 500      00200020 
 500      004000
 501 0b5c 4000C000 		.ascii	"@\000\300\000\200\000\200\000\000\001\000\001\000\002"
 501      80008000 
 501      00010001 
 501      0002
 502 0b6a 00020002 		.ascii	"\000\002\000\002\000\004"
 502      0004
 503 0b70 00000000 		.ascii	"\000\000\000\000|\000@\000@\000@\000@\000@\000@\000"
 503      7C004000 
 503      40004000 
 503      40004000 
 503      4000
 504 0b82 40004000 		.ascii	"@\000@\000@\000@\000@\000@\000@\000@\000@\000@\000@"
 504      40004000 
 504      40004000 
 504      40004000 
 504      40004000 
 505 0b97 00400040 		.ascii	"\000@\000@\000|\000\000\000"
 505      007C0000 
 505      00
 506 0ba0 00006000 		.ascii	"\000\000`\000\220\000\010\001\000\000\000\000\000\000"
 506      90000801 
 506      00000000 
 506      0000
 507 0bae 00000000 		.ascii	"\000\000\000\000\000\000\000\000\000\000\000\000\000"
 507      00000000 
 507      00000000 
 507      00
 508 0bbb 00000000 		.ascii	"\000\000\000\000\000\000\000\000\000\000\000\000\000"
 508      00000000 
 508      00000000 
 508      00
 509 0bc8 00000000 		.ascii	"\000\000\000\000\000\000\000\000"
 509      00000000 
 510 0bd0 00000000 		.ascii	"\000\000\000\000\000\000\000\000\000\000\000\000\000"
 510      00000000 
 510      00000000 
 510      00
 511 0bdd 00000000 		.ascii	"\000\000\000\000\000\000\000\000\000\000\000\000\000"
 511      00000000 
 511      00000000 
 511      00
 512 0bea 00000000 		.ascii	"\000\000\000\000\000\000\000\000\000\000\000\000\000"
 512      00000000 
 512      00000000 
 512      00
 513 0bf7 00000000 		.ascii	"\000\000\000\000\000\000\000\377\017"
 513      000000FF 
 513      0F
 514 0c00 00000000 		.ascii	"\000\000\000\000\030\000`\000\000\000\000\000\000\000"
 514      18006000 
 514      00000000 
 514      0000
 515 0c0e 00000000 		.ascii	"\000\000\000\000\000\000\000\000\000\000\000\000\000"
ARM GAS  C:\Users\AURORA~1\AppData\Local\Temp\ccDd7T3c.s 			page 30


 515      00000000 
 515      00000000 
 515      00
 516 0c1b 00000000 		.ascii	"\000\000\000\000\000\000\000\000\000\000\000\000\000"
 516      00000000 
 516      00000000 
 516      00
 517 0c28 00000000 		.ascii	"\000\000\000\000\000\000\000\000"
 517      00000000 
 518 0c30 00000000 		.ascii	"\000\000\000\000\000\000\000\000\000\000\000\000\000"
 518      00000000 
 518      00000000 
 518      00
 519 0c3d 00000000 		.ascii	"\000\000\000\000\000\000\000\360\001\014\003\014\003"
 519      000000F0 
 519      010C030C 
 519      03
 520 0c4a 0003E003 		.ascii	"\000\003\340\003\034\003\016\003\006\003\006\003\216"
 520      1C030E03 
 520      06030603 
 520      8E
 521 0c57 0B7C0E00 		.ascii	"\013|\016\000\000\000\000\000\000"
 521      00000000 
 521      00
 522 0c60 00000000 		.ascii	"\000\000\000\000\000\000\000\000\010\000\016\000\014"
 522      00000000 
 522      08000E00 
 522      0C
 523 0c6d 000C000C 		.ascii	"\000\014\000\014\000\014\000\314\001<\003\034\006\014"
 523      000C00CC 
 523      013C031C 
 523      060C
 524 0c7b 060C060C 		.ascii	"\006\014\006\014\006\014\006\014\006\014\002\034\003"
 524      060C060C 
 524      060C021C 
 524      03
 525 0c88 E4010000 		.ascii	"\344\001\000\000\000\000\000\000"
 525      00000000 
 526 0c90 00000000 		.ascii	"\000\000\000\000\000\000\000\000\000\000\000\000\000"
 526      00000000 
 526      00000000 
 526      00
 527 0c9d 00000000 		.ascii	"\000\000\000\000\000\000\000\360\000\214\001\214\001"
 527      000000F0 
 527      008C018C 
 527      01
 528 0caa 86010600 		.ascii	"\206\001\006\000\006\000\006\000\006\002\014\002\014"
 528      06000600 
 528      06020C02 
 528      0C
 529 0cb7 01F00000 		.ascii	"\001\360\000\000\000\000\000\000\000"
 529      00000000 
 529      00
 530 0cc0 00000000 		.ascii	"\000\000\000\000\000\000\000\000\000\002\300\003\000"
 530      00000000 
 530      0002C003 
 530      00
ARM GAS  C:\Users\AURORA~1\AppData\Local\Temp\ccDd7T3c.s 			page 31


 531 0ccd 03000300 		.ascii	"\003\000\003\000\003\000\003x\003\214\003\014\003\006"
 531      03000378 
 531      038C030C 
 531      0306
 532 0cdb 03060306 		.ascii	"\003\006\003\006\003\006\003\006\003\004\003\214\007"
 532      03060306 
 532      0304038C 
 532      07
 533 0ce8 78010000 		.ascii	"x\001\000\000\000\000\000\000"
 533      00000000 
 534 0cf0 00000000 		.ascii	"\000\000\000\000\000\000\000\000\000\000\000\000\000"
 534      00000000 
 534      00000000 
 534      00
 535 0cfd 00000000 		.ascii	"\000\000\000\000\000\000\000\340\001\030\003\010\002"
 535      000000E0 
 535      01180308 
 535      02
 536 0d0a 0C060C06 		.ascii	"\014\006\014\006\374\007\014\000\014\000\030\004\030"
 536      FC070C00 
 536      0C001804 
 536      18
 537 0d17 02E00100 		.ascii	"\002\340\001\000\000\000\000\000\000"
 537      00000000 
 537      00
 538 0d20 00000000 		.ascii	"\000\000\000\000\000\000\000\000\000\000\300\003`\006"
 538      00000000 
 538      0000C003 
 538      6006
 539 0d2e 30063000 		.ascii	"0\0060\0000\000\376\0010\0000\0000\0000\0000\0000\000"
 539      3000FE01 
 539      30003000 
 539      30003000 
 539      30003000 
 540 0d42 30003000 		.ascii	"0\0000\0000\000\374\001\000\000\000\000\000\000"
 540      3000FC01 
 540      00000000 
 540      0000
 541 0d50 00000000 		.ascii	"\000\000\000\000\000\000\000\000\000\000\000\000\000"
 541      00000000 
 541      00000000 
 541      00
 542 0d5d 00000000 		.ascii	"\000\000\000\000\000\000\000\360\007\330\006\214\001"
 542      000000F0 
 542      07D8068C 
 542      01
 543 0d6a 8C018C01 		.ascii	"\214\001\214\001\230\001\370\000\014\000\374\000\314"
 543      9801F800 
 543      0C00FC00 
 543      CC
 544 0d77 03060306 		.ascii	"\003\006\003\006\003\216\003\370\000"
 544      038E03F8 
 544      00
 545 0d80 00000000 		.ascii	"\000\000\000\000\000\000\000\000\010\000\016\000\014"
 545      00000000 
 545      08000E00 
 545      0C
ARM GAS  C:\Users\AURORA~1\AppData\Local\Temp\ccDd7T3c.s 			page 32


 546 0d8d 000C000C 		.ascii	"\000\014\000\014\000\014\000\354\001\034\003\014\003"
 546      000C00EC 
 546      011C030C 
 546      03
 547 0d9a 0C030C03 		.ascii	"\014\003\014\003\014\003\014\003\014\003\014\003\014"
 547      0C030C03 
 547      0C030C03 
 547      0C
 548 0da7 039E0700 		.ascii	"\003\236\007\000\000\000\000\000\000"
 548      00000000 
 548      00
 549 0db0 00000000 		.ascii	"\000\000\000\000\000\000\000\000\000\000`\000`\000\000"
 549      00000000 
 549      00006000 
 549      600000
 550 0dbf 00000040 		.ascii	"\000\000\000@\000|\000`\000`\000`\000`\000`\000`\000"
 550      007C0060 
 550      00600060 
 550      00600060 
 550      006000
 551 0dd2 60006000 		.ascii	"`\000`\000`\000\374\003\000\000\000\000\000\000"
 551      6000FC03 
 551      00000000 
 551      0000
 552 0de0 00000000 		.ascii	"\000\000\000\000\000\000\000\000\000\000\300\001\300"
 552      00000000 
 552      0000C001 
 552      C0
 553 0ded 01000000 		.ascii	"\001\000\000\000\000\000\001\360\001\200\001\200\001"
 553      000001F0 
 553      01800180 
 553      01
 554 0dfa 80018001 		.ascii	"\200\001\200\001\200\001\200\001\200\001\200\001\200"
 554      80018001 
 554      80018001 
 554      80
 555 0e07 01800180 		.ascii	"\001\200\001\200\001\314\000|\000"
 555      01CC007C 
 555      00
 556 0e10 00000000 		.ascii	"\000\000\000\000\000\000\000\000\010\000\016\000\014"
 556      00000000 
 556      08000E00 
 556      0C
 557 0e1d 000C000C 		.ascii	"\000\014\000\014\000\014\000\214\003\214\000\214\000"
 557      000C008C 
 557      038C008C 
 557      00
 558 0e2a 4C006C00 		.ascii	"L\000l\000\\\000\214\000\214\001\014\001\014\003\236"
 558      5C008C00 
 558      8C010C01 
 558      0C039E
 559 0e39 07000000 		.ascii	"\007\000\000\000\000\000\000"
 559      000000
 560 0e40 00000000 		.ascii	"\000\000\000\000\000\000\000\000@\000|\000`\000`\000"
 560      00000000 
 560      40007C00 
 560      60006000 
ARM GAS  C:\Users\AURORA~1\AppData\Local\Temp\ccDd7T3c.s 			page 33


 561 0e50 60006000 		.ascii	"`\000`\000`\000`\000`\000`\000`\000`\000`\000`\000`"
 561      60006000 
 561      60006000 
 561      60006000 
 561      60006000 
 562 0e65 006000FC 		.ascii	"\000`\000\374\003\000\000\000\000\000\000"
 562      03000000 
 562      000000
 563 0e70 00000000 		.ascii	"\000\000\000\000\000\000\000\000\000\000\000\000\000"
 563      00000000 
 563      00000000 
 563      00
 564 0e7d 00000000 		.ascii	"\000\000\000\000\000\000\0007\007\356\006f\006f\006"
 564      00000037 
 564      07EE0666 
 564      066606
 565 0e8c 66066606 		.ascii	"f\006f\006f\006f\006f\006f\006\377\017\000\000\000\000"
 565      66066606 
 565      66066606 
 565      FF0F0000 
 565      0000
 566 0e9e 0000     		.ascii	"\000\000"
 567 0ea0 00000000 		.ascii	"\000\000\000\000\000\000\000\000\000\000\000\000\000"
 567      00000000 
 567      00000000 
 567      00
 568 0ead 00000000 		.ascii	"\000\000\000\000\000\000\000\356\001\034\003\014\003"
 568      000000EE 
 568      011C030C 
 568      03
 569 0eba 0C030C03 		.ascii	"\014\003\014\003\014\003\014\003\014\003\014\003\014"
 569      0C030C03 
 569      0C030C03 
 569      0C
 570 0ec7 039E0700 		.ascii	"\003\236\007\000\000\000\000\000\000"
 570      00000000 
 570      00
 571 0ed0 00000000 		.ascii	"\000\000\000\000\000\000\000\000\000\000\000\000\000"
 571      00000000 
 571      00000000 
 571      00
 572 0edd 00000000 		.ascii	"\000\000\000\000\000\000\000\360\000\230\001\014\003"
 572      000000F0 
 572      0098010C 
 572      03
 573 0eea 06060606 		.ascii	"\006\006\006\006\006\006\006\006\006\006\014\003\014"
 573      06060606 
 573      06060C03 
 573      0C
 574 0ef7 03F00000 		.ascii	"\003\360\000\000\000\000\000\000\000"
 574      00000000 
 574      00
 575 0f00 00000000 		.ascii	"\000\000\000\000\000\000\000\000\000\000\000\000\000"
 575      00000000 
 575      00000000 
 575      00
 576 0f0d 00000000 		.ascii	"\000\000\000\000\000\000\000\356\001\034\003\014\006"
ARM GAS  C:\Users\AURORA~1\AppData\Local\Temp\ccDd7T3c.s 			page 34


 576      000000EE 
 576      011C030C 
 576      06
 577 0f1a 0C060C06 		.ascii	"\014\006\014\006\014\006\014\006\014\006\014\003\034"
 577      0C060C06 
 577      0C060C03 
 577      1C
 578 0f27 03EC010C 		.ascii	"\003\354\001\014\000\014\000>\000"
 578      000C003E 
 578      00
 579 0f30 00000000 		.ascii	"\000\000\000\000\000\000\000\000\000\000\000\000\000"
 579      00000000 
 579      00000000 
 579      00
 580 0f3d 00000000 		.ascii	"\000\000\000\000\000\000\000x\002\214\003\014\003\006"
 580      00000078 
 580      028C030C 
 580      0306
 581 0f4b 03060306 		.ascii	"\003\006\003\006\003\006\003\006\003\004\003\214\003"
 581      03060306 
 581      0304038C 
 581      03
 582 0f58 78030003 		.ascii	"x\003\000\003\000\003\300\007"
 582      0003C007 
 583 0f60 00000000 		.ascii	"\000\000\000\000\000\000\000\000\000\000\000\000\000"
 583      00000000 
 583      00000000 
 583      00
 584 0f6d 00000000 		.ascii	"\000\000\000\000\000\000\000\237\003X\0068\006\030\000"
 584      0000009F 
 584      03580638 
 584      061800
 585 0f7c 18001800 		.ascii	"\030\000\030\000\030\000\030\000\030\000\030\000\377"
 585      18001800 
 585      18001800 
 585      FF
 586 0f89 00000000 		.ascii	"\000\000\000\000\000\000\000"
 586      000000
 587 0f90 00000000 		.ascii	"\000\000\000\000\000\000\000\000\000\000\000\000\000"
 587      00000000 
 587      00000000 
 587      00
 588 0f9d 00000000 		.ascii	"\000\000\000\000\000\000\000\360\003\034\003\014\002"
 588      000000F0 
 588      031C030C 
 588      02
 589 0faa 0C023800 		.ascii	"\014\0028\000\360\000\300\003\004\003\004\003\214\003"
 589      F000C003 
 589      04030403 
 589      8C03
 590 0fb8 FC010000 		.ascii	"\374\001\000\000\000\000\000\000"
 590      00000000 
 591 0fc0 00000000 		.ascii	"\000\000\000\000\000\000\000\000\000\000\000\000 \000"
 591      00000000 
 591      00000000 
 591      2000
 592 0fce 20003000 		.ascii	" \0000\0000\000\376\0010\0000\0000\0000\0000\0000\000"
ARM GAS  C:\Users\AURORA~1\AppData\Local\Temp\ccDd7T3c.s 			page 35


 592      3000FE01 
 592      30003000 
 592      30003000 
 592      30003000 
 593 0fe2 30003002 		.ascii	"0\0000\0020\002\340\001\000\000\000\000\000\000"
 593      3002E001 
 593      00000000 
 593      0000
 594 0ff0 00000000 		.ascii	"\000\000\000\000\000\000\000\000\000\000\000\000\000"
 594      00000000 
 594      00000000 
 594      00
 595 0ffd 00000000 		.ascii	"\000\000\000\000\000\010\002\216\003\014\003\014\003"
 595      0008028E 
 595      030C030C 
 595      03
 596 100a 0C030C03 		.ascii	"\014\003\014\003\014\003\014\003\014\003\014\003\234"
 596      0C030C03 
 596      0C030C03 
 596      9C
 597 1017 07780100 		.ascii	"\007x\001\000\000\000\000\000\000"
 597      00000000 
 597      00
 598 1020 00000000 		.ascii	"\000\000\000\000\000\000\000\000\000\000\000\000\000"
 598      00000000 
 598      00000000 
 598      00
 599 102d 00000000 		.ascii	"\000\000\000\000\000\000\000\036\007\014\002\010\001"
 599      0000001E 
 599      070C0208 
 599      01
 600 103a 08011801 		.ascii	"\010\001\030\001\220\000\260\000\260\000`\000`\000 "
 600      9000B000 
 600      B0006000 
 600      600020
 601 1049 00000000 		.ascii	"\000\000\000\000\000\000\000"
 601      000000
 602 1050 00000000 		.ascii	"\000\000\000\000\000\000\000\000\000\000\000\000\000"
 602      00000000 
 602      00000000 
 602      00
 603 105d 00000000 		.ascii	"\000\000\000\000\000\000\000\367\016b\004F\004d\002"
 603      000000F7 
 603      0E620446 
 603      046402
 604 106c 6402EC02 		.ascii	"d\002\354\002\234\001\230\001\230\001\230\001\010\000"
 604      9C019801 
 604      98019801 
 604      0800
 605 107a 00000000 		.ascii	"\000\000\000\000\000\000"
 605      0000
 606 1080 00000000 		.ascii	"\000\000\000\000\000\000\000\000\000\000\000\000\000"
 606      00000000 
 606      00000000 
 606      00
 607 108d 00000000 		.ascii	"\000\000\000\000\000\000\000\274\007\030\001\020\001"
 607      000000BC 
ARM GAS  C:\Users\AURORA~1\AppData\Local\Temp\ccDd7T3c.s 			page 36


 607      07180110 
 607      01
 608 109a B0006000 		.ascii	"\260\000`\000`\000\340\000\220\000\010\001\010\003\236"
 608      6000E000 
 608      90000801 
 608      08039E
 609 10a9 07000000 		.ascii	"\007\000\000\000\000\000\000"
 609      000000
 610 10b0 00000000 		.ascii	"\000\000\000\000\000\000\000\000\000\000\000\000\000"
 610      00000000 
 610      00000000 
 610      00
 611 10bd 00000000 		.ascii	"\000\000\000\000\000\000\000\236\007\010\001\010\001"
 611      0000009E 
 611      07080108 
 611      01
 612 10ca 08019000 		.ascii	"\010\001\220\000\220\000\260\000`\000`\000`\000 \000"
 612      9000B000 
 612      60006000 
 612      60002000 
 613 10da 20002400 		.ascii	" \000$\000\034\000"
 613      1C00
 614 10e0 00000000 		.ascii	"\000\000\000\000\000\000\000\000\000\000\000\000\000"
 614      00000000 
 614      00000000 
 614      00
 615 10ed 00000000 		.ascii	"\000\000\000\000\000\000\000\374\001\204\001\304\000"
 615      000000FC 
 615      018401C4 
 615      00
 616 10fa 44006000 		.ascii	"D\000`\000 \0000\000\030\002\010\002\014\003\374\001"
 616      20003000 
 616      18020802 
 616      0C03FC01 
 617 110a 00000000 		.ascii	"\000\000\000\000\000\000"
 617      0000
 618 1110 00000000 		.ascii	"\000\000\000\000\000\003\200\000\200\000\200\000\200"
 618      00038000 
 618      80008000 
 618      80
 619 111d 00800080 		.ascii	"\000\200\000\200\000\200\000\200\000@\000 \000@\000"
 619      00800080 
 619      00400020 
 619      004000
 620 112c 80008000 		.ascii	"\200\000\200\000\200\000\200\000\200\000\200\000\200"
 620      80008000 
 620      80008000 
 620      80
 621 1139 00800000 		.ascii	"\000\200\000\000\003\000\000"
 621      030000
 622 1140 40004000 		.ascii	"@\000@\000@\000@\000@\000@\000@\000@\000@\000@\000@"
 622      40004000 
 622      40004000 
 622      40004000 
 622      40004000 
 623 1155 00400040 		.ascii	"\000@\000@\000@\000@\000@\000@\000@\000@\000@\000@\000"
 623      00400040 
ARM GAS  C:\Users\AURORA~1\AppData\Local\Temp\ccDd7T3c.s 			page 37


 623      00400040 
 623      00400040 
 623      00400040 
 624 116a 40004000 		.ascii	"@\000@\000@\000"
 624      4000
 625 1170 00000000 		.ascii	"\000\000\000\000\014\000\020\000\020\000\020\000\020"
 625      0C001000 
 625      10001000 
 625      10
 626 117d 00100010 		.ascii	"\000\020\000\020\000\020\000\020\000 \000@\000 \000"
 626      00100010 
 626      00200040 
 626      002000
 627 118c 10001000 		.ascii	"\020\000\020\000\020\000\020\000\020\000\020\000\020"
 627      10001000 
 627      10001000 
 627      10
 628 1199 0010000C 		.ascii	"\000\020\000\014\000\000\000"
 628      000000
 629 11a0 00001C00 		.ascii	"\000\000\034\000\"\004\302\004\200\003\000\000\000\000"
 629      2204C204 
 629      80030000 
 629      0000
 630 11ae 00000000 		.ascii	"\000\000\000\000\000\000\000\000\000\000\000\000\000"
 630      00000000 
 630      00000000 
 630      00
 631 11bb 00000000 		.ascii	"\000\000\000\000\000\000\000\000\000\000\000\000\000"
 631      00000000 
 631      00000000 
 631      00
 632 11c8 00000000 		.ascii	"\000\000\000\000\000\000\000\000"
 632      00000000 
 633              		.global	ascii_3216
 634              		.section	.rodata.ascii_3216,"a"
 635              		.align	2
 638              	ascii_3216:
 639 0000 00000000 		.ascii	"\000\000\000\000\000\000\000\000\000\000\000\000\000"
 639      00000000 
 639      00000000 
 639      00
 640 000d 00000000 		.ascii	"\000\000\000\000\000\000\000\000\000\000\000\000\000"
 640      00000000 
 640      00000000 
 640      00
 641 001a 00000000 		.ascii	"\000\000\000\000\000\000\000\000\000\000\000\000\000"
 641      00000000 
 641      00000000 
 641      00
 642 0027 00000000 		.ascii	"\000\000\000\000\000\000\000\000\000\000\000\000\000"
 642      00000000 
 642      00000000 
 642      00
 643 0034 00000000 		.ascii	"\000\000\000\000\000\000\000\000\000\000\000\000"
 643      00000000 
 643      00000000 
 644 0040 00000000 		.ascii	"\000\000\000\000\000\000\000\000\000\000\300\001\300"
ARM GAS  C:\Users\AURORA~1\AppData\Local\Temp\ccDd7T3c.s 			page 38


 644      00000000 
 644      0000C001 
 644      C0
 645 004d 01C001C0 		.ascii	"\001\300\001\300\001\300\001\300\001\300\001\200\000"
 645      01C001C0 
 645      01C00180 
 645      00
 646 005a 80008000 		.ascii	"\200\000\200\000\200\000\200\000\200\000\200\000\000"
 646      80008000 
 646      80008000 
 646      00
 647 0067 00000000 		.ascii	"\000\000\000\000\000\000\000\200\001\300\003\300\003"
 647      00000080 
 647      01C003C0 
 647      03
 648 0074 80010000 		.ascii	"\200\001\000\000\000\000\000\000\000\000\000\000"
 648      00000000 
 648      00000000 
 649 0080 00000000 		.ascii	"\000\000\000\000\000\000\340\034\340\034\360\036p\016"
 649      0000E01C 
 649      E01CF01E 
 649      700E
 650 008e 38071803 		.ascii	"8\007\030\003\010\001\204\000\000\000\000\000\000\000"
 650      08018400 
 650      00000000 
 650      0000
 651 009c 00000000 		.ascii	"\000\000\000\000\000\000\000\000\000\000\000\000\000"
 651      00000000 
 651      00000000 
 651      00
 652 00a9 00000000 		.ascii	"\000\000\000\000\000\000\000\000\000\000\000\000\000"
 652      00000000 
 652      00000000 
 652      00
 653 00b6 00000000 		.ascii	"\000\000\000\000\000\000\000\000\000\000"
 653      00000000 
 653      0000
 654 00c0 00000000 		.ascii	"\000\000\000\000\000\000\000\000\000\000\000\000 \020"
 654      00000000 
 654      00000000 
 654      2010
 655 00ce 20102010 		.ascii	" \020 \020 \020 \020\376\177\376\177\020\010\020\010"
 655      20102010 
 655      FE7FFE7F 
 655      10081008 
 656 00de 10081008 		.ascii	"\020\010\020\010\020\010\020\010\020\010\376\177\376"
 656      10081008 
 656      1008FE7F 
 656      FE
 657 00eb 7F080408 		.ascii	"\177\010\004\010\004\010\004\010\004\010\004\000\000"
 657      04080408 
 657      04080400 
 657      00
 658 00f8 00000000 		.ascii	"\000\000\000\000\000\000\000\000"
 658      00000000 
 659 0100 00000000 		.ascii	"\000\000\000\000\000\000\000\000\000\001\000\001\300"
 659      00000000 
ARM GAS  C:\Users\AURORA~1\AppData\Local\Temp\ccDd7T3c.s 			page 39


 659      00010001 
 659      C0
 660 010d 07601910 		.ascii	"\007`\031\0201\0301\0309\03098\001p\001\340\001\300"
 660      31183118 
 660      39183938 
 660      017001E0 
 660      01C0
 661 011f 03800700 		.ascii	"\003\200\007\000\017\000\035\0009\0001\0341\0341\014"
 661      0F001D00 
 661      3900311C 
 661      311C310C 
 662 012f 310C1118 		.ascii	"1\014\021\030\015\340\007\000\001\000\001\000\001\000"
 662      0DE00700 
 662      01000100 
 662      0100
 663 013d 000000   		.ascii	"\000\000\000"
 664 0140 00000000 		.ascii	"\000\000\000\000\000\000\000\000\000\000\000\000\034"
 664      00000000 
 664      00000000 
 664      1C
 665 014d 10361863 		.ascii	"\0206\030c\010c\014c\004c\004c\002c\002c\0016\035\234"
 665      08630C63 
 665      04630463 
 665      02630263 
 665      01361D9C 
 666 0161 37802280 		.ascii	"7\200\"\200c@c@c c c0c\020\"\0306\010\034\000\000\000"
 666      63406340 
 666      63206320 
 666      63306310 
 666      22183608 
 667 0179 00000000 		.ascii	"\000\000\000\000\000\000\000"
 667      000000
 668 0180 00000000 		.ascii	"\000\000\000\000\000\000\000\000\000\000\000\000\360"
 668      00000000 
 668      00000000 
 668      F0
 669 018d 0098018C 		.ascii	"\000\230\001\214\001\214\001\214\001\214\001\214\000"
 669      018C018C 
 669      018C018C 
 669      00
 670 019a CC007800 		.ascii	"\314\000x\000\030>\034\0106\0102\010c\004c\004\303\004"
 670      183E1C08 
 670      36083208 
 670      63046304 
 670      C304
 671 01ac C3038343 		.ascii	"\303\003\203C\006C\216&x\034\000\000\000\000\000\000"
 671      06438E26 
 671      781C0000 
 671      00000000 
 672 01bc 00000000 		.ascii	"\000\000\000\000"
 673 01c0 00000000 		.ascii	"\000\000\000\000\000\000\034\000<\000<\0000\0000\000"
 673      00001C00 
 673      3C003C00 
 673      30003000 
 674 01d0 10000C00 		.ascii	"\020\000\014\000\006\000\000\000\000\000\000\000\000"
 674      06000000 
 674      00000000 
ARM GAS  C:\Users\AURORA~1\AppData\Local\Temp\ccDd7T3c.s 			page 40


 674      00
 675 01dd 00000000 		.ascii	"\000\000\000\000\000\000\000\000\000\000\000\000\000"
 675      00000000 
 675      00000000 
 675      00
 676 01ea 00000000 		.ascii	"\000\000\000\000\000\000\000\000\000\000\000\000\000"
 676      00000000 
 676      00000000 
 676      00
 677 01f7 00000000 		.ascii	"\000\000\000\000\000\000\000\000\000"
 677      00000000 
 677      00
 678 0200 00000000 		.ascii	"\000\000\000\000\000\000\000@\000 \000\020\000\010\000"
 678      00000040 
 678      00200010 
 678      000800
 679 020f 0C000400 		.ascii	"\014\000\004\000\006\000\003\000\003\000\003\200\001"
 679      06000300 
 679      03000380 
 679      01
 680 021c 80018001 		.ascii	"\200\001\200\001\200\001\200\001\200\001\200\001\200"
 680      80018001 
 680      80018001 
 680      80
 681 0229 01000300 		.ascii	"\001\000\003\000\003\000\003\000\006\000\006\000\014"
 681      03000300 
 681      06000600 
 681      0C
 682 0236 00080010 		.ascii	"\000\010\000\020\000 \000@\000\000"
 682      00200040 
 682      0000
 683 0240 00000000 		.ascii	"\000\000\000\000\000\000\002\000\004\000\010\000\020"
 683      00000200 
 683      04000800 
 683      10
 684 024d 00300020 		.ascii	"\0000\000 \000`\000\300\000\300\000\300\000\200\001"
 684      006000C0 
 684      00C000C0 
 684      008001
 685 025c 80018001 		.ascii	"\200\001\200\001\200\001\200\001\200\001\200\001\200"
 685      80018001 
 685      80018001 
 685      80
 686 0269 01C000C0 		.ascii	"\001\300\000\300\000\300\000`\000`\0000\000\020\000"
 686      00C00060 
 686      00600030 
 686      001000
 687 0278 08000400 		.ascii	"\010\000\004\000\002\000\000\000"
 687      02000000 
 688 0280 00000000 		.ascii	"\000\000\000\000\000\000\000\000\000\000\000\000\000"
 688      00000000 
 688      00000000 
 688      00
 689 028d 00000000 		.ascii	"\000\000\000\000\001\200\003\200\003\000\001\034q<y"
 689      01800380 
 689      0300011C 
 689      713C79
ARM GAS  C:\Users\AURORA~1\AppData\Local\Temp\ccDd7T3c.s 			page 41


 690 029c 783DC007 		.ascii	"x=\300\007\000\001\300\007x=<y\034q\000\001\200\003"
 690      0001C007 
 690      783D3C79 
 690      1C710001 
 690      8003
 691 02ae 80038001 		.ascii	"\200\003\200\001\000\000\000\000\000\000\000\000\000"
 691      00000000 
 691      00000000 
 691      00
 692 02bb 00000000 		.ascii	"\000\000\000\000\000"
 692      00
 693 02c0 00000000 		.ascii	"\000\000\000\000\000\000\000\000\000\000\000\000\000"
 693      00000000 
 693      00000000 
 693      00
 694 02cd 00000000 		.ascii	"\000\000\000\000\000\000\001\000\001\000\001\000\001"
 694      00000100 
 694      01000100 
 694      01
 695 02da 00010001 		.ascii	"\000\001\000\001\000\001\374\177\000\001\000\001\000"
 695      0001FC7F 
 695      00010001 
 695      00
 696 02e7 01000100 		.ascii	"\001\000\001\000\001\000\001\000\001\000\000\000\000"
 696      01000100 
 696      01000000 
 696      00
 697 02f4 00000000 		.ascii	"\000\000\000\000\000\000\000\000\000\000\000\000"
 697      00000000 
 697      00000000 
 698 0300 00000000 		.ascii	"\000\000\000\000\000\000\000\000\000\000\000\000\000"
 698      00000000 
 698      00000000 
 698      00
 699 030d 00000000 		.ascii	"\000\000\000\000\000\000\000\000\000\000\000\000\000"
 699      00000000 
 699      00000000 
 699      00
 700 031a 00000000 		.ascii	"\000\000\000\000\000\000\000\000\000\000\000\000\000"
 700      00000000 
 700      00000000 
 700      00
 701 0327 00000000 		.ascii	"\000\000\000\000\000\000\000\000\000\034\000<\000<\000"
 701      00000000 
 701      001C003C 
 701      003C00
 702 0336 30003000 		.ascii	"0\0000\000\020\000\014\000\006\000"
 702      10000C00 
 702      0600
 703 0340 00000000 		.ascii	"\000\000\000\000\000\000\000\000\000\000\000\000\000"
 703      00000000 
 703      00000000 
 703      00
 704 034d 00000000 		.ascii	"\000\000\000\000\000\000\000\000\000\000\000\000\000"
 704      00000000 
 704      00000000 
 704      00
ARM GAS  C:\Users\AURORA~1\AppData\Local\Temp\ccDd7T3c.s 			page 42


 705 035a 00000000 		.ascii	"\000\000\000\000\000\000\376\177\000\000\000\000\000"
 705      0000FE7F 
 705      00000000 
 705      00
 706 0367 00000000 		.ascii	"\000\000\000\000\000\000\000\000\000\000\000\000\000"
 706      00000000 
 706      00000000 
 706      00
 707 0374 00000000 		.ascii	"\000\000\000\000\000\000\000\000\000\000\000\000"
 707      00000000 
 707      00000000 
 708 0380 00000000 		.ascii	"\000\000\000\000\000\000\000\000\000\000\000\000\000"
 708      00000000 
 708      00000000 
 708      00
 709 038d 00000000 		.ascii	"\000\000\000\000\000\000\000\000\000\000\000\000\000"
 709      00000000 
 709      00000000 
 709      00
 710 039a 00000000 		.ascii	"\000\000\000\000\000\000\000\000\000\000\000\000\000"
 710      00000000 
 710      00000000 
 710      00
 711 03a7 00000000 		.ascii	"\000\000\000\000\000\000\000\030\000<\000<\000\030\000"
 711      00000018 
 711      003C003C 
 711      001800
 712 03b6 00000000 		.ascii	"\000\000\000\000\000\000\000\000\000\000"
 712      00000000 
 712      0000
 713 03c0 00000000 		.ascii	"\000\000\000\000\000\000\000@\000`\000 \0000\000\020"
 713      00000040 
 713      00600020 
 713      00300010 
 714 03d0 00180008 		.ascii	"\000\030\000\010\000\014\000\004\000\006\000\002\000"
 714      000C0004 
 714      00060002 
 714      00
 715 03dd 03000180 		.ascii	"\003\000\001\200\001\200\000\300\000@\000`\000 \000"
 715      018000C0 
 715      00400060 
 715      002000
 716 03ec 30001000 		.ascii	"0\000\020\000\030\000\010\000\014\000\004\000\006\000"
 716      18000800 
 716      0C000400 
 716      0600
 717 03fa 02000000 		.ascii	"\002\000\000\000\000\000"
 717      0000
 718 0400 00000000 		.ascii	"\000\000\000\000\000\000\000\000\000\000\000\000\300"
 718      00000000 
 718      00000000 
 718      C0
 719 040d 07600C30 		.ascii	"\007`\0140\030\0300\0300\030 \014`\014`\014`\014`\014"
 719      18183018 
 719      3018200C 
 719      600C600C 
 719      600C600C 
ARM GAS  C:\Users\AURORA~1\AppData\Local\Temp\ccDd7T3c.s 			page 43


 720 0421 600C600C 		.ascii	"`\014`\014`\014`\014`\030 \0300\03000\030`\014\300\007"
 720      600C600C 
 720      60182018 
 720      30183030 
 720      18600CC0 
 721 0436 00000000 		.ascii	"\000\000\000\000\000\000\000\000\000\000"
 721      00000000 
 721      0000
 722 0440 00000000 		.ascii	"\000\000\000\000\000\000\000\000\000\000\000\000\000"
 722      00000000 
 722      00000000 
 722      00
 723 044d 018001F8 		.ascii	"\001\200\001\370\001\200\001\200\001\200\001\200\001"
 723      01800180 
 723      01800180 
 723      01
 724 045a 80018001 		.ascii	"\200\001\200\001\200\001\200\001\200\001\200\001\200"
 724      80018001 
 724      80018001 
 724      80
 725 0467 01800180 		.ascii	"\001\200\001\200\001\200\001\200\001\200\001\300\003"
 725      01800180 
 725      018001C0 
 725      03
 726 0474 F81F0000 		.ascii	"\370\037\000\000\000\000\000\000\000\000\000\000"
 726      00000000 
 726      00000000 
 727 0480 00000000 		.ascii	"\000\000\000\000\000\000\000\000\000\000\000\000\340"
 727      00000000 
 727      00000000 
 727      E0
 728 048d 07101C08 		.ascii	"\007\020\034\010\030\0040\0040\0140\0140\0000\000\030"
 728      18043004 
 728      300C300C 
 728      30003000 
 728      18
 729 049e 00080004 		.ascii	"\000\010\000\004\000\002\000\001\200\000@\000  \020"
 729      00020001 
 729      80004000 
 729      202010
 730 04ad 20082004 		.ascii	" \010 \0040\374\037\374\037\000\000\000\000\000\000"
 730      30FC1FFC 
 730      1F000000 
 730      000000
 731 04bc 00000000 		.ascii	"\000\000\000\000"
 732 04c0 00000000 		.ascii	"\000\000\000\000\000\000\000\000\000\000\000\000\340"
 732      00000000 
 732      00000000 
 732      E0
 733 04cd 03180E0C 		.ascii	"\003\030\016\014\014\014\030\014\030\014\030\000\030"
 733      0C0C180C 
 733      180C1800 
 733      18
 734 04da 000C0006 		.ascii	"\000\014\000\006\300\003\000\016\000\030\000\020\000"
 734      C003000E 
 734      00180010 
 734      00
ARM GAS  C:\Users\AURORA~1\AppData\Local\Temp\ccDd7T3c.s 			page 44


 735 04e7 3000300C 		.ascii	"0\0000\0140\0140\014\020\014\030\030\014\340\003\000"
 735      300C300C 
 735      100C1818 
 735      0CE00300 
 736 04f7 00000000 		.ascii	"\000\000\000\000\000\000\000\000\000"
 736      00000000 
 736      00
 737 0500 00000000 		.ascii	"\000\000\000\000\000\000\000\000\000\000\000\000\000"
 737      00000000 
 737      00000000 
 737      00
 738 050d 0C000E00 		.ascii	"\014\000\016\000\016\000\017\200\016\200\016@\016`\016"
 738      0E000F80 
 738      0E800E40 
 738      0E600E
 739 051c 200E100E 		.ascii	" \016\020\016\020\016\010\016\004\016\004\016\376\177"
 739      100E080E 
 739      040E040E 
 739      FE7F
 740 052a 000E000E 		.ascii	"\000\016\000\016\000\016\000\016\000\016\000\016\300"
 740      000E000E 
 740      000E000E 
 740      C0
 741 0537 7F000000 		.ascii	"\177\000\000\000\000\000\000\000\000"
 741      00000000 
 741      00
 742 0540 00000000 		.ascii	"\000\000\000\000\000\000\000\000\000\000\000\000\360"
 742      00000000 
 742      00000000 
 742      F0
 743 054d 3FF03F10 		.ascii	"?\360?\020\000\020\000\020\000\010\000\010\000\310\007"
 743      00100010 
 743      00080008 
 743      00C807
 744 055c 280C1818 		.ascii	"(\014\030\030\010\020\0000\0000\0000\0000\0140\0140"
 744      08100030 
 744      00300030 
 744      00300C30 
 744      0C30
 745 056e 04180418 		.ascii	"\004\030\004\030\010\014\360\003\000\000\000\000\000"
 745      080CF003 
 745      00000000 
 745      00
 746 057b 00000000 		.ascii	"\000\000\000\000\000"
 746      00
 747 0580 00000000 		.ascii	"\000\000\000\000\000\000\000\000\000\000\000\000\200"
 747      00000000 
 747      00000000 
 747      80
 748 058d 0FC01020 		.ascii	"\017\300\020 0\0200\030\000\030\000\010\000\014\000"
 748      30103018 
 748      00180008 
 748      000C00
 749 059c 8C0F6C18 		.ascii	"\214\017l\030<0\034`\014`\014`\014`\014`\030`\030 0"
 749      3C301C60 
 749      0C600C60 
 749      0C600C60 
ARM GAS  C:\Users\AURORA~1\AppData\Local\Temp\ccDd7T3c.s 			page 45


 749      18601820 
 750 05b1 306018C0 		.ascii	"0`\030\300\007\000\000\000\000\000\000\000\000\000\000"
 750      07000000 
 750      00000000 
 750      000000
 751 05c0 00000000 		.ascii	"\000\000\000\000\000\000\000\000\000\000\000\000\370"
 751      00000000 
 751      00000000 
 751      F8
 752 05cd 3FF83F1C 		.ascii	"?\370?\034\020\014\010\004\010\004\004\000\004\000\002"
 752      100C0804 
 752      08040400 
 752      040002
 753 05dc 00020001 		.ascii	"\000\002\000\001\000\001\000\001\200\000\200\000\200"
 753      00010001 
 753      80008000 
 753      80
 754 05e9 00C000C0 		.ascii	"\000\300\000\300\000\300\000\300\000\300\000\300\000"
 754      00C000C0 
 754      00C000C0 
 754      00
 755 05f6 00000000 		.ascii	"\000\000\000\000\000\000\000\000\000\000"
 755      00000000 
 755      0000
 756 0600 00000000 		.ascii	"\000\000\000\000\000\000\000\000\000\000\000\000\340"
 756      00000000 
 756      00000000 
 756      E0
 757 060d 07300C18 		.ascii	"\0070\014\030\030\0140\0140\0140\03408\030p\010\340"
 757      180C300C 
 757      300C301C 
 757      30381870 
 757      08E0
 758 061f 07B00718 		.ascii	"\007\260\007\030\016\014\034\0068\0060\0060\0060\006"
 758      0E0C1C06 
 758      38063006 
 758      30063006 
 759 062f 300C1818 		.ascii	"0\014\030\030\014\340\003\000\000\000\000\000\000\000"
 759      0CE00300 
 759      00000000 
 759      0000
 760 063d 000000   		.ascii	"\000\000\000"
 761 0640 00000000 		.ascii	"\000\000\000\000\000\000\000\000\000\000\000\000\340"
 761      00000000 
 761      00000000 
 761      E0
 762 064d 0318040C 		.ascii	"\003\030\004\014\010\014\030\006\020\0060\0060\0060"
 762      080C1806 
 762      10063006 
 762      300630
 763 065c 06300638 		.ascii	"\0060\0068\014<\0306\3601\0000\000\030\000\030\000\030"
 763      0C3C1836 
 763      F0310030 
 763      00180018 
 763      0018
 764 066e 0C0C0C06 		.ascii	"\014\014\014\006\014\003\360\001\000\000\000\000\000"
 764      0C03F001 
ARM GAS  C:\Users\AURORA~1\AppData\Local\Temp\ccDd7T3c.s 			page 46


 764      00000000 
 764      00
 765 067b 00000000 		.ascii	"\000\000\000\000\000"
 765      00
 766 0680 00000000 		.ascii	"\000\000\000\000\000\000\000\000\000\000\000\000\000"
 766      00000000 
 766      00000000 
 766      00
 767 068d 00000000 		.ascii	"\000\000\000\000\000\000\000\000\000\000\000\000\000"
 767      00000000 
 767      00000000 
 767      00
 768 069a 8001C003 		.ascii	"\200\001\300\003\300\003\200\001\000\000\000\000\000"
 768      C0038001 
 768      00000000 
 768      00
 769 06a7 00000000 		.ascii	"\000\000\000\000\000\000\000\200\001\300\003\300\003"
 769      00000080 
 769      01C003C0 
 769      03
 770 06b4 80010000 		.ascii	"\200\001\000\000\000\000\000\000\000\000\000\000"
 770      00000000 
 770      00000000 
 771 06c0 00000000 		.ascii	"\000\000\000\000\000\000\000\000\000\000\000\000\000"
 771      00000000 
 771      00000000 
 771      00
 772 06cd 00000000 		.ascii	"\000\000\000\000\000\000\000\000\000\000\000\000\000"
 772      00000000 
 772      00000000 
 772      00
 773 06da C000C000 		.ascii	"\300\000\300\000\000\000\000\000\000\000\000\000\000"
 773      00000000 
 773      00000000 
 773      00
 774 06e7 00000000 		.ascii	"\000\000\000\000\000\000\000\000\000\000\000\300\000"
 774      00000000 
 774      000000C0 
 774      00
 775 06f4 C0008000 		.ascii	"\300\000\200\000\200\000@\000@\000\000\000"
 775      80004000 
 775      40000000 
 776 0700 00000000 		.ascii	"\000\000\000\000\000\000\000\000\000\000\000 \000\020"
 776      00000000 
 776      00000020 
 776      0010
 777 070e 00080004 		.ascii	"\000\010\000\004\000\006\000\003\200\001\300\000`\000"
 777      00060003 
 777      8001C000 
 777      6000
 778 071c 30001800 		.ascii	"0\000\030\000\014\000\030\0000\000`\000\300\000\200"
 778      0C001800 
 778      30006000 
 778      C00080
 779 072b 01000300 		.ascii	"\001\000\003\000\006\000\004\000\010\000\020\000 \000"
 779      06000400 
 779      08001000 
ARM GAS  C:\Users\AURORA~1\AppData\Local\Temp\ccDd7T3c.s 			page 47


 779      2000
 780 0739 00000000 		.ascii	"\000\000\000\000\000\000\000"
 780      000000
 781 0740 00000000 		.ascii	"\000\000\000\000\000\000\000\000\000\000\000\000\000"
 781      00000000 
 781      00000000 
 781      00
 782 074d 00000000 		.ascii	"\000\000\000\000\000\000\000\000\000\000\000\000\000"
 782      00000000 
 782      00000000 
 782      00
 783 075a FE7F0000 		.ascii	"\376\177\000\000\000\000\000\000\000\000\000\000\376"
 783      00000000 
 783      00000000 
 783      FE
 784 0767 7F000000 		.ascii	"\177\000\000\000\000\000\000\000\000\000\000\000\000"
 784      00000000 
 784      00000000 
 784      00
 785 0774 00000000 		.ascii	"\000\000\000\000\000\000\000\000\000\000\000\000"
 785      00000000 
 785      00000000 
 786 0780 00000000 		.ascii	"\000\000\000\000\000\000\000\000\000\000\004\000\010"
 786      00000000 
 786      00000400 
 786      08
 787 078d 00100020 		.ascii	"\000\020\000 \000`\000\300\000\200\001\000\003\000\006"
 787      006000C0 
 787      00800100 
 787      030006
 788 079c 000C0018 		.ascii	"\000\014\000\030\0000\000\030\000\014\000\006\000\003"
 788      00300018 
 788      000C0006 
 788      0003
 789 07aa 8001C000 		.ascii	"\200\001\300\000`\000 \000\020\000\010\000\004\000\000"
 789      60002000 
 789      10000800 
 789      040000
 790 07b9 00000000 		.ascii	"\000\000\000\000\000\000\000"
 790      000000
 791 07c0 00000000 		.ascii	"\000\000\000\000\000\000\000\000\000\000\300\0070\030"
 791      00000000 
 791      0000C007 
 791      3018
 792 07ce 08300860 		.ascii	"\0100\010`\014`\034`\034`\034`\0000\000\034\000\006"
 792      0C601C60 
 792      1C601C60 
 792      0030001C 
 792      0006
 793 07e0 00018000 		.ascii	"\000\001\200\000\200\000\200\000\200\000\000\000\000"
 793      80008000 
 793      80000000 
 793      00
 794 07ed 008001C0 		.ascii	"\000\200\001\300\003\300\003\200\001\000\000\000\000"
 794      03C00380 
 794      01000000 
 794      00
ARM GAS  C:\Users\AURORA~1\AppData\Local\Temp\ccDd7T3c.s 			page 48


 795 07fa 00000000 		.ascii	"\000\000\000\000\000\000"
 795      0000
 796 0800 00000000 		.ascii	"\000\000\000\000\000\000\000\000\000\000\000\000\300"
 796      00000000 
 796      00000000 
 796      C0
 797 080d 07601810 		.ascii	"\007`\030\0200\030 \014/\214M\206L\306L\306LfLfDfDf"
 797      3018200C 
 797      2F8C4D86 
 797      4CC64CC6 
 797      4C664C66 
 798 0825 26662666 		.ascii	"&f&f\025\314\034\014@\010 \03000\030\300\007\000\000"
 798      15CC1C0C 
 798      40082018 
 798      303018C0 
 798      070000
 799 0838 00000000 		.ascii	"\000\000\000\000\000\000\000\000"
 799      00000000 
 800 0840 00000000 		.ascii	"\000\000\000\000\000\000\000\000\000\000\000\001\300"
 800      00000000 
 800      00000001 
 800      C0
 801 084d 01C001C0 		.ascii	"\001\300\001\300\001@\001`\003 \003 \003 \0030\006\020"
 801      01400160 
 801      03200320 
 801      03200330 
 801      0610
 802 085f 06100610 		.ascii	"\006\020\006\020\006\370\017\010\014\010\014\010\014"
 802      06F80F08 
 802      0C080C08 
 802      0C
 803 086c 0C0C0418 		.ascii	"\014\014\004\030\004\030\006\030\037|\000\000\000\000"
 803      04180618 
 803      1F7C0000 
 803      0000
 804 087a 00000000 		.ascii	"\000\000\000\000\000\000"
 804      0000
 805 0880 00000000 		.ascii	"\000\000\000\000\000\000\000\000\000\000\000\000\376"
 805      00000000 
 805      00000000 
 805      FE
 806 088d 07181C18 		.ascii	"\007\030\034\0308\0300\0300\0300\0300\030\030\030\014"
 806      38183018 
 806      30183018 
 806      30181818 
 806      0C
 807 089e F8071818 		.ascii	"\370\007\030\030\0300\030 \030`\030`\030`\030`\030`"
 807      18301820 
 807      18601860 
 807      18601860 
 807      1860
 808 08b0 18301818 		.ascii	"\0300\030\030\376\017\000\000\000\000\000\000\000\000"
 808      FE0F0000 
 808      00000000 
 808      0000
 809 08be 0000     		.ascii	"\000\000"
 810 08c0 00000000 		.ascii	"\000\000\000\000\000\000\000\000\000\000\000\000\300"
ARM GAS  C:\Users\AURORA~1\AppData\Local\Temp\ccDd7T3c.s 			page 49


 810      00000000 
 810      00000000 
 810      C0
 811 08cd 27603810 		.ascii	"'`8\0200\030 \014@\014@\004\000\006\000\006\000\006"
 811      3018200C 
 811      400C4004 
 811      00060006 
 811      0006
 812 08df 00060006 		.ascii	"\000\006\000\006\000\006\000\006\000\006\000\014@\014"
 812      00060006 
 812      0006000C 
 812      400C
 813 08ed 400C2018 		.ascii	"@\014 \03000\030\300\007\000\000\000\000\000\000\000"
 813      303018C0 
 813      07000000 
 813      00000000 
 814 08fd 000000   		.ascii	"\000\000\000"
 815 0900 00000000 		.ascii	"\000\000\000\000\000\000\000\000\000\000\000\000\376"
 815      00000000 
 815      00000000 
 815      FE
 816 090d 03180E18 		.ascii	"\003\030\016\030\030\0300\0300\0300\030`\030`\030`\030"
 816      18183018 
 816      30183018 
 816      60186018 
 816      6018
 817 091f 60186018 		.ascii	"`\030`\030`\030`\030`\030`\0300\0300\030\020\030\030"
 817      60186018 
 817      60186018 
 817      30183018 
 817      101818
 818 0932 180EFE03 		.ascii	"\030\016\376\003\000\000\000\000\000\000\000\000\000"
 818      00000000 
 818      00000000 
 818      00
 819 093f 00       		.ascii	"\000"
 820 0940 00000000 		.ascii	"\000\000\000\000\000\000\000\000\000\000\000\000\376"
 820      00000000 
 820      00000000 
 820      FE
 821 094d 3F183018 		.ascii	"?\0300\030 \030`\030@\030\000\030\010\030\010\030\014"
 821      20186018 
 821      40180018 
 821      08180818 
 821      0C
 822 095e F80F180C 		.ascii	"\370\017\030\014\030\010\030\010\030\000\030\000\030"
 822      18081808 
 822      18001800 
 822      18
 823 096b 00184018 		.ascii	"\000\030@\030@\030 \0300\376?\000\000\000\000\000\000"
 823      40182018 
 823      30FE3F00 
 823      00000000 
 823      00
 824 097c 00000000 		.ascii	"\000\000\000\000"
 825 0980 00000000 		.ascii	"\000\000\000\000\000\000\000\000\000\000\000\000\376"
 825      00000000 
ARM GAS  C:\Users\AURORA~1\AppData\Local\Temp\ccDd7T3c.s 			page 50


 825      00000000 
 825      FE
 826 098d 7F187018 		.ascii	"\177\030p\030@\030\300\030\200\030\000\030\020\030\020"
 826      4018C018 
 826      80180018 
 826      101810
 827 099c 1818F81F 		.ascii	"\030\030\370\037\030\030\030\020\030\020\030\000\030"
 827      18181810 
 827      18101800 
 827      18
 828 09a9 00180018 		.ascii	"\000\030\000\030\000\030\000\030\000\030\000~\000\000"
 828      00180018 
 828      0018007E 
 828      0000
 829 09b7 00000000 		.ascii	"\000\000\000\000\000\000\000\000\000"
 829      00000000 
 829      00
 830 09c0 00000000 		.ascii	"\000\000\000\000\000\000\000\000\000\000\000\000\300"
 830      00000000 
 830      00000000 
 830      C0
 831 09cd 13701C10 		.ascii	"\023p\034\020\020\030\020\014 \014 \004\000\006\000"
 831      1018100C 
 831      200C2004 
 831      000600
 832 09dc 06000600 		.ascii	"\006\000\006\000\006\000\006\000\006\374\0060\0060\014"
 832      06000600 
 832      06FC0630 
 832      06300C
 833 09eb 300C3018 		.ascii	"0\0140\0300\03000\010\300\007\000\000\000\000\000\000"
 833      30183030 
 833      08C00700 
 833      00000000 
 833      00
 834 09fc 00000000 		.ascii	"\000\000\000\000"
 835 0a00 00000000 		.ascii	"\000\000\000\000\000\000\000\000\000\000\000\000?~\014"
 835      00000000 
 835      00000000 
 835      3F7E0C
 836 0a0f 180C180C 		.ascii	"\030\014\030\014\030\014\030\014\030\014\030\014\030"
 836      180C180C 
 836      180C180C 
 836      18
 837 0a1c 0C180C18 		.ascii	"\014\030\014\030\374\037\014\030\014\030\014\030\014"
 837      FC1F0C18 
 837      0C180C18 
 837      0C
 838 0a29 180C180C 		.ascii	"\030\014\030\014\030\014\030\014\030\014\030?~\000\000"
 838      180C180C 
 838      180C183F 
 838      7E0000
 839 0a38 00000000 		.ascii	"\000\000\000\000\000\000\000\000"
 839      00000000 
 840 0a40 00000000 		.ascii	"\000\000\000\000\000\000\000\000\000\000\000\000\370"
 840      00000000 
 840      00000000 
 840      F8
ARM GAS  C:\Users\AURORA~1\AppData\Local\Temp\ccDd7T3c.s 			page 51


 841 0a4d 1F800180 		.ascii	"\037\200\001\200\001\200\001\200\001\200\001\200\001"
 841      01800180 
 841      01800180 
 841      01
 842 0a5a 80018001 		.ascii	"\200\001\200\001\200\001\200\001\200\001\200\001\200"
 842      80018001 
 842      80018001 
 842      80
 843 0a67 01800180 		.ascii	"\001\200\001\200\001\200\001\200\001\200\001\200\001"
 843      01800180 
 843      01800180 
 843      01
 844 0a74 F81F0000 		.ascii	"\370\037\000\000\000\000\000\000\000\000\000\000"
 844      00000000 
 844      00000000 
 845 0a80 00000000 		.ascii	"\000\000\000\000\000\000\000\000\000\000\000\000\340"
 845      00000000 
 845      00000000 
 845      E0
 846 0a8d 7F000600 		.ascii	"\177\000\006\000\006\000\006\000\006\000\006\000\006"
 846      06000600 
 846      06000600 
 846      06
 847 0a9a 00060006 		.ascii	"\000\006\000\006\000\006\000\006\000\006\000\006\000"
 847      00060006 
 847      00060006 
 847      00
 848 0aa7 06000600 		.ascii	"\006\000\006\000\006\000\006\000\006\000\006\000\006"
 848      06000600 
 848      06000600 
 848      06
 849 0ab4 00060006 		.ascii	"\000\006\000\006\016\006\016\003\216\001\374\000"
 849      0E060E03 
 849      8E01FC00 
 850 0ac0 00000000 		.ascii	"\000\000\000\000\000\000\000\000\000\000\000\000~|\030"
 850      00000000 
 850      00000000 
 850      7E7C18
 851 0acf 18180818 		.ascii	"\030\030\010\030\004\030\006\030\002\030\001\230\001"
 851      04180618 
 851      02180198 
 851      01
 852 0adc 9801D801 		.ascii	"\230\001\330\001\270\0038\003\030\007\030\006\030\016"
 852      B8033803 
 852      18071806 
 852      180E
 853 0aea 180C181C 		.ascii	"\030\014\030\034\030\030\0300\0300~\374\000\000\000"
 853      18181830 
 853      18307EFC 
 853      000000
 854 0af9 00000000 		.ascii	"\000\000\000\000\000\000\000"
 854      000000
 855 0b00 00000000 		.ascii	"\000\000\000\000\000\000\000\000\000\000\000\000~\000"
 855      00000000 
 855      00000000 
 855      7E00
 856 0b0e 18001800 		.ascii	"\030\000\030\000\030\000\030\000\030\000\030\000\030"
ARM GAS  C:\Users\AURORA~1\AppData\Local\Temp\ccDd7T3c.s 			page 52


 856      18001800 
 856      18001800 
 856      18
 857 0b1b 00180018 		.ascii	"\000\030\000\030\000\030\000\030\000\030\000\030\000"
 857      00180018 
 857      00180018 
 857      00
 858 0b28 18001800 		.ascii	"\030\000\030\000\030@\030@\030 \0300\376?\000\000\000"
 858      18401840 
 858      18201830 
 858      FE3F0000 
 858      00
 859 0b39 00000000 		.ascii	"\000\000\000\000\000\000\000"
 859      000000
 860 0b40 00000000 		.ascii	"\000\000\000\000\000\000\000\000\000\000\000\000\037"
 860      00000000 
 860      00000000 
 860      1F
 861 0b4d F81C381C 		.ascii	"\370\0348\0348\0348\034<44444446t2d2d2d2d1\3041\304"
 861      381C381C 
 861      3C343434 
 861      34343434 
 861      36743264 
 862 0b6b 31C431C4 		.ascii	"1\3041\3040\3040\2040\237\374\000\000\000\000\000\000"
 862      30C43084 
 862      309FFC00 
 862      00000000 
 862      00
 863 0b7c 00000000 		.ascii	"\000\000\000\000"
 864 0b80 00000000 		.ascii	"\000\000\000\000\000\000\000\000\000\000\000\000\037"
 864      00000000 
 864      00000000 
 864      1F
 865 0b8d 7C1C103C 		.ascii	"|\034\020<\0204\0204\020t\020d\020\344\020\304\020\304"
 865      10341034 
 865      10741064 
 865      10E410C4 
 865      10C4
 866 0b9f 11841184 		.ascii	"\021\204\021\204\023\004\023\004\027\004\026\004\036"
 866      13041304 
 866      17041604 
 866      1E
 867 0bac 041C041C 		.ascii	"\004\034\004\034\004\034\004\030\037\030\000\000\000"
 867      041C0418 
 867      1F180000 
 867      00
 868 0bb9 00000000 		.ascii	"\000\000\000\000\000\000\000"
 868      000000
 869 0bc0 00000000 		.ascii	"\000\000\000\000\000\000\000\000\000\000\000\000\300"
 869      00000000 
 869      00000000 
 869      C0
 870 0bcd 03300C18 		.ascii	"\0030\014\030\030\010\020\0140\0140\006`\006`\006`\006"
 870      1808100C 
 870      300C3006 
 870      60066006 
 870      6006
ARM GAS  C:\Users\AURORA~1\AppData\Local\Temp\ccDd7T3c.s 			page 53


 871 0bdf 60066006 		.ascii	"`\006`\006`\006`\006`\006`\014 \0140\010\020\030\030"
 871      60066006 
 871      6006600C 
 871      200C3008 
 871      101818
 872 0bf2 300CC003 		.ascii	"0\014\300\003\000\000\000\000\000\000\000\000\000\000"
 872      00000000 
 872      00000000 
 872      0000
 873 0c00 00000000 		.ascii	"\000\000\000\000\000\000\000\000\000\000\000\000\376"
 873      00000000 
 873      00000000 
 873      FE
 874 0c0d 0F181818 		.ascii	"\017\030\030\0300\030`\030`\030`\030`\030`\0300\030"
 874      30186018 
 874      60186018 
 874      60186018 
 874      3018
 875 0c1f 18F80F18 		.ascii	"\030\370\017\030\000\030\000\030\000\030\000\030\000"
 875      00180018 
 875      00180018 
 875      00
 876 0c2c 18001800 		.ascii	"\030\000\030\000\030\000\030\000~\000\000\000\000\000"
 876      18001800 
 876      7E000000 
 876      0000
 877 0c3a 00000000 		.ascii	"\000\000\000\000\000\000"
 877      0000
 878 0c40 00000000 		.ascii	"\000\000\000\000\000\000\000\000\000\000\000\000\300"
 878      00000000 
 878      00000000 
 878      C0
 879 0c4d 03300C18 		.ascii	"\0030\014\030\030\014\020\0140\014 \006`\006`\006`\006"
 879      180C100C 
 879      300C2006 
 879      60066006 
 879      6006
 880 0c5f 60066006 		.ascii	"`\006`\006`\006`\006`\006`\344a,3\0342\030\0260\016"
 880      60066006 
 880      600660E4 
 880      612C331C 
 880      32181630 
 881 0c74 C007004C 		.ascii	"\300\007\000L\000|\0008\000\000\000\000"
 881      007C0038 
 881      00000000 
 882 0c80 00000000 		.ascii	"\000\000\000\000\000\000\000\000\000\000\000\000\376"
 882      00000000 
 882      00000000 
 882      FE
 883 0c8d 07181C18 		.ascii	"\007\030\034\0308\0300\0300\0300\0300\030\030\030\014"
 883      38183018 
 883      30183018 
 883      30181818 
 883      0C
 884 0c9e F8079803 		.ascii	"\370\007\230\003\030\003\030\007\030\006\030\006\030"
 884      18031807 
 884      18061806 
ARM GAS  C:\Users\AURORA~1\AppData\Local\Temp\ccDd7T3c.s 			page 54


 884      18
 885 0cab 0E180C18 		.ascii	"\016\030\014\030\014\030\034\030\030~x\000\000\000\000"
 885      0C181C18 
 885      187E7800 
 885      000000
 886 0cba 00000000 		.ascii	"\000\000\000\000\000\000"
 886      0000
 887 0cc0 00000000 		.ascii	"\000\000\000\000\000\000\000\000\000\000\000\000\340"
 887      00000000 
 887      00000000 
 887      E0
 888 0ccd 27303818 		.ascii	"'08\0300\014 \014 \014\000\014\000\030\000x\000\340"
 888      300C200C 
 888      200C000C 
 888      00180078 
 888      00E0
 889 0cdf 03800F00 		.ascii	"\003\200\017\000\036\0008\000p\000`\004`\004`\010`\030"
 889      1E003800 
 889      70006004 
 889      60046008 
 889      6018
 890 0cf1 303818C8 		.ascii	"08\030\310\017\000\000\000\000\000\000\000\000\000\000"
 890      0F000000 
 890      00000000 
 890      000000
 891 0d00 00000000 		.ascii	"\000\000\000\000\000\000\000\000\000\000\000\000\374"
 891      00000000 
 891      00000000 
 891      FC
 892 0d0d 3F8C2184 		.ascii	"?\214!\204a\202A\202A\200\001\200\001\200\001\200\001"
 892      61824182 
 892      41800180 
 892      01800180 
 892      01
 893 0d1e 80018001 		.ascii	"\200\001\200\001\200\001\200\001\200\001\200\001\200"
 893      80018001 
 893      80018001 
 893      80
 894 0d2b 01800180 		.ascii	"\001\200\001\200\001\200\001\200\001\340\007\000\000"
 894      01800180 
 894      01E00700 
 894      00
 895 0d38 00000000 		.ascii	"\000\000\000\000\000\000\000\000"
 895      00000000 
 896 0d40 00000000 		.ascii	"\000\000\000\000\000\000\000\000\000\000\000\000?|\014"
 896      00000000 
 896      00000000 
 896      3F7C0C
 897 0d4f 100C100C 		.ascii	"\020\014\020\014\020\014\020\014\020\014\020\014\020"
 897      100C100C 
 897      100C100C 
 897      10
 898 0d5c 0C100C10 		.ascii	"\014\020\014\020\014\020\014\020\014\020\014\020\014"
 898      0C100C10 
 898      0C100C10 
 898      0C
 899 0d69 100C100C 		.ascii	"\020\014\020\014\020\014\020\010\0108\004\340\003\000"
ARM GAS  C:\Users\AURORA~1\AppData\Local\Temp\ccDd7T3c.s 			page 55


 899      100C1008 
 899      083804E0 
 899      0300
 900 0d77 00000000 		.ascii	"\000\000\000\000\000\000\000\000\000"
 900      00000000 
 900      00
 901 0d80 00000000 		.ascii	"\000\000\000\000\000\000\000\000\000\000\000\000>\370"
 901      00000000 
 901      00000000 
 901      3EF8
 902 0d8e 18201820 		.ascii	"\030 \030 \030 0\0200\0200\0200\020`\010`\010`\010\340"
 902      18203010 
 902      30103010 
 902      30106008 
 902      60086008 
 903 0da3 0CC004C0 		.ascii	"\014\300\004\300\004\300\004\200\003\200\003\200\003"
 903      04C00480 
 903      03800380 
 903      03
 904 0db0 80030001 		.ascii	"\200\003\000\001\000\001\000\000\000\000\000\000\000"
 904      00010000 
 904      00000000 
 904      00
 905 0dbd 000000   		.ascii	"\000\000\000"
 906 0dc0 00000000 		.ascii	"\000\000\000\000\000\000\000\000\000\000\000\000\337"
 906      00000000 
 906      00000000 
 906      DF
 907 0dcd F3866186 		.ascii	"\363\206a\206!\206!\214!\014!\214#\214\023\214\023\214"
 907      2186218C 
 907      210C218C 
 907      238C138C 
 907      138C
 908 0ddf 134C1358 		.ascii	"\023L\023X\022X\026X\0168\0168\0168\0160\014\020\004"
 908      12581658 
 908      0E380E38 
 908      0E380E30 
 908      0C1004
 909 0df2 10041004 		.ascii	"\020\004\020\004\000\000\000\000\000\000\000\000\000"
 909      00000000 
 909      00000000 
 909      00
 910 0dff 00       		.ascii	"\000"
 911 0e00 00000000 		.ascii	"\000\000\000\000\000\000\000\000\000\000\000\000~>\030"
 911      00000000 
 911      00000000 
 911      7E3E18
 912 0e0f 08380830 		.ascii	"\0108\0100\0040\004p\002`\002\340\001\300\001\300\001"
 912      04300470 
 912      026002E0 
 912      01C001C0 
 912      01
 913 0e20 80018003 		.ascii	"\200\001\200\003@\003@\007 \006 \006\020\014\020\014"
 913      40034007 
 913      20062006 
 913      100C100C 
 914 0e30 08180818 		.ascii	"\010\030\010\030>|\000\000\000\000\000\000\000\000\000"
ARM GAS  C:\Users\AURORA~1\AppData\Local\Temp\ccDd7T3c.s 			page 56


 914      3E7C0000 
 914      00000000 
 914      000000
 915 0e3f 00       		.ascii	"\000"
 916 0e40 00000000 		.ascii	"\000\000\000\000\000\000\000\000\000\000\000\000~|\034"
 916      00000000 
 916      00000000 
 916      7E7C1C
 917 0e4f 10181018 		.ascii	"\020\030\020\030\0100\0100\014p\004`\004`\002\300\002"
 917      08300830 
 917      0C700460 
 917      046002C0 
 917      02
 918 0e60 C002C001 		.ascii	"\300\002\300\001\200\001\200\001\200\001\200\001\200"
 918      80018001 
 918      80018001 
 918      80
 919 0e6d 01800180 		.ascii	"\001\200\001\200\001\200\001\340\007\000\000\000\000"
 919      018001E0 
 919      07000000 
 919      00
 920 0e7a 00000000 		.ascii	"\000\000\000\000\000\000"
 920      0000
 921 0e80 00000000 		.ascii	"\000\000\000\000\000\000\000\000\000\000\000\000\370"
 921      00000000 
 921      00000000 
 921      F8
 922 0e8d 3F181808 		.ascii	"?\030\030\010\030\004\014\004\016\000\006\000\007\000"
 922      18040C04 
 922      0E000600 
 922      0700
 923 0e9b 03800380 		.ascii	"\003\200\003\200\001\300\001\300\000\340\000`\000p\000"
 923      01C001C0 
 923      00E00060 
 923      007000
 924 0eaa 30003820 		.ascii	"0\0008 \030 \034\020\014\030\376\037\000\000\000\000"
 924      18201C10 
 924      0C18FE1F 
 924      00000000 
 925 0eba 00000000 		.ascii	"\000\000\000\000\000\000"
 925      0000
 926 0ec0 00000000 		.ascii	"\000\000\000\000\000\000\300?@\000@\000@\000@\000@\000"
 926      0000C03F 
 926      40004000 
 926      40004000 
 926      4000
 927 0ed2 40004000 		.ascii	"@\000@\000@\000@\000@\000@\000@\000@\000@\000@\000@"
 927      40004000 
 927      40004000 
 927      40004000 
 927      40004000 
 928 0ee7 00400040 		.ascii	"\000@\000@\000@\000@\000@\000@\000@\000@\000@\000\300"
 928      00400040 
 928      00400040 
 928      00400040 
 928      004000C0 
 929 0efb 3F000000 		.ascii	"?\000\000\000\000"
ARM GAS  C:\Users\AURORA~1\AppData\Local\Temp\ccDd7T3c.s 			page 57


 929      00
 930 0f00 00000000 		.ascii	"\000\000\000\000\000\000\000\000\000\000\010\000\030"
 930      00000000 
 930      00000800 
 930      18
 931 0f0d 00180010 		.ascii	"\000\030\000\020\0000\000 \000`\000`\000@\000\300\000"
 931      00300020 
 931      00600060 
 931      004000C0 
 931      00
 932 0f1e 80008001 		.ascii	"\200\000\200\001\200\001\000\001\000\003\000\002\000"
 932      80010001 
 932      00030002 
 932      00
 933 0f2b 06000600 		.ascii	"\006\000\006\000\004\000\014\000\010\000\030\000\030"
 933      04000C00 
 933      08001800 
 933      18
 934 0f38 00100030 		.ascii	"\000\020\0000\000 \000\000"
 934      00200000 
 935 0f40 00000000 		.ascii	"\000\000\000\000\000\000\374\003\000\002\000\002\000"
 935      0000FC03 
 935      00020002 
 935      00
 936 0f4d 02000200 		.ascii	"\002\000\002\000\002\000\002\000\002\000\002\000\002"
 936      02000200 
 936      02000200 
 936      02
 937 0f5a 00020002 		.ascii	"\000\002\000\002\000\002\000\002\000\002\000\002\000"
 937      00020002 
 937      00020002 
 937      00
 938 0f67 02000200 		.ascii	"\002\000\002\000\002\000\002\000\002\000\002\000\002"
 938      02000200 
 938      02000200 
 938      02
 939 0f74 00020002 		.ascii	"\000\002\000\002\000\002\374\003\000\000\000\000"
 939      0002FC03 
 939      00000000 
 940 0f80 00000000 		.ascii	"\000\000\000\000\000\000\200\007\300\006 \010\020\020"
 940      00008007 
 940      C0062008 
 940      1010
 941 0f8e 00000000 		.ascii	"\000\000\000\000\000\000\000\000\000\000\000\000\000"
 941      00000000 
 941      00000000 
 941      00
 942 0f9b 00000000 		.ascii	"\000\000\000\000\000\000\000\000\000\000\000\000\000"
 942      00000000 
 942      00000000 
 942      00
 943 0fa8 00000000 		.ascii	"\000\000\000\000\000\000\000\000\000\000\000\000\000"
 943      00000000 
 943      00000000 
 943      00
 944 0fb5 00000000 		.ascii	"\000\000\000\000\000\000\000\000\000\000\000"
 944      00000000 
ARM GAS  C:\Users\AURORA~1\AppData\Local\Temp\ccDd7T3c.s 			page 58


 944      000000
 945 0fc0 00000000 		.ascii	"\000\000\000\000\000\000\000\000\000\000\000\000\000"
 945      00000000 
 945      00000000 
 945      00
 946 0fcd 00000000 		.ascii	"\000\000\000\000\000\000\000\000\000\000\000\000\000"
 946      00000000 
 946      00000000 
 946      00
 947 0fda 00000000 		.ascii	"\000\000\000\000\000\000\000\000\000\000\000\000\000"
 947      00000000 
 947      00000000 
 947      00
 948 0fe7 00000000 		.ascii	"\000\000\000\000\000\000\000\000\000\000\000\000\000"
 948      00000000 
 948      00000000 
 948      00
 949 0ff4 00000000 		.ascii	"\000\000\000\000\000\000\000\000\000\000\377\377"
 949      00000000 
 949      0000FFFF 
 950 1000 00000000 		.ascii	"\000\000\000\000\000\000x\000\300\000\000\001\000\000"
 950      00007800 
 950      C0000001 
 950      0000
 951 100e 00000000 		.ascii	"\000\000\000\000\000\000\000\000\000\000\000\000\000"
 951      00000000 
 951      00000000 
 951      00
 952 101b 00000000 		.ascii	"\000\000\000\000\000\000\000\000\000\000\000\000\000"
 952      00000000 
 952      00000000 
 952      00
 953 1028 00000000 		.ascii	"\000\000\000\000\000\000\000\000\000\000\000\000\000"
 953      00000000 
 953      00000000 
 953      00
 954 1035 00000000 		.ascii	"\000\000\000\000\000\000\000\000\000\000\000"
 954      00000000 
 954      000000
 955 1040 00000000 		.ascii	"\000\000\000\000\000\000\000\000\000\000\000\000\000"
 955      00000000 
 955      00000000 
 955      00
 956 104d 00000000 		.ascii	"\000\000\000\000\000\000\000\000\000\000\000\000\000"
 956      00000000 
 956      00000000 
 956      00
 957 105a F0031806 		.ascii	"\360\003\030\006\014\014\014\014\000\014\200\017p\014"
 957      0C0C0C0C 
 957      000C800F 
 957      700C
 958 1068 1C0C0C0C 		.ascii	"\034\014\014\014\006\014\006\014\006L\014O\3708\000"
 958      060C060C 
 958      064C0C4F 
 958      F83800
 959 1077 00000000 		.ascii	"\000\000\000\000\000\000\000\000\000"
 959      00000000 
ARM GAS  C:\Users\AURORA~1\AppData\Local\Temp\ccDd7T3c.s 			page 59


 959      00
 960 1080 00000000 		.ascii	"\000\000\000\000\000\000\000\000\000\000\020\000\036"
 960      00000000 
 960      00001000 
 960      1E
 961 108d 00180018 		.ascii	"\000\030\000\030\000\030\000\030\000\030\000\030\000"
 961      00180018 
 961      00180018 
 961      00
 962 109a 180FD818 		.ascii	"\030\017\330\030808`\030`\030`\030`\030`\030`\030`\030"
 962      38303860 
 962      18601860 
 962      18601860 
 962      18601860 
 963 10af 20383078 		.ascii	" 80x\030\310\007\000\000\000\000\000\000\000\000\000"
 963      18C80700 
 963      00000000 
 963      00000000 
 964 10bf 00       		.ascii	"\000"
 965 10c0 00000000 		.ascii	"\000\000\000\000\000\000\000\000\000\000\000\000\000"
 965      00000000 
 965      00000000 
 965      00
 966 10cd 00000000 		.ascii	"\000\000\000\000\000\000\000\000\000\000\000\000\000"
 966      00000000 
 966      00000000 
 966      00
 967 10da C007700C 		.ascii	"\300\007p\014\030\030\030\030\014\030\014\000\014\000"
 967      18181818 
 967      0C180C00 
 967      0C00
 968 10e8 0C000C00 		.ascii	"\014\000\014\000\014 \030 \030\0200\010\300\007\000"
 968      0C201820 
 968      18103008 
 968      C00700
 969 10f7 00000000 		.ascii	"\000\000\000\000\000\000\000\000\000"
 969      00000000 
 969      00
 970 1100 00000000 		.ascii	"\000\000\000\000\000\000\000\000\000\000\000\020\000"
 970      00000000 
 970      00000010 
 970      00
 971 110d 1E001800 		.ascii	"\036\000\030\000\030\000\030\000\030\000\030\000\030"
 971      18001800 
 971      18001800 
 971      18
 972 111a E01B301C 		.ascii	"\340\0330\034\030\030\030\030\014\030\014\030\014\030"
 972      18181818 
 972      0C180C18 
 972      0C18
 973 1128 0C180C18 		.ascii	"\014\030\014\030\014\030\010\030\030\0340z\340\011\000"
 973      0C180818 
 973      181C307A 
 973      E00900
 974 1137 00000000 		.ascii	"\000\000\000\000\000\000\000\000\000"
 974      00000000 
 974      00
ARM GAS  C:\Users\AURORA~1\AppData\Local\Temp\ccDd7T3c.s 			page 60


 975 1140 00000000 		.ascii	"\000\000\000\000\000\000\000\000\000\000\000\000\000"
 975      00000000 
 975      00000000 
 975      00
 976 114d 00000000 		.ascii	"\000\000\000\000\000\000\000\000\000\000\000\000\000"
 976      00000000 
 976      00000000 
 976      00
 977 115a C007300C 		.ascii	"\300\0070\014\030\030\010\020\0140\0140\374?\014\000"
 977      18180810 
 977      0C300C30 
 977      FC3F0C00 
 978 116a 0C000C00 		.ascii	"\014\000\014\000\030 \030\020p\030\300\007\000\000\000"
 978      18201810 
 978      7018C007 
 978      000000
 979 1179 00000000 		.ascii	"\000\000\000\000\000\000\000"
 979      000000
 980 1180 00000000 		.ascii	"\000\000\000\000\000\000\000\000\000\000\000\000\000"
 980      00000000 
 980      00000000 
 980      00
 981 118d 3E80C380 		.ascii	">\200\303\200\300\300\300\300\000\300\000\300\000\374"
 981      C0C0C0C0 
 981      00C000C0 
 981      00FC
 982 119b 1FC000C0 		.ascii	"\037\300\000\300\000\300\000\300\000\300\000\300\000"
 982      00C000C0 
 982      00C000C0 
 982      00
 983 11a8 C000C000 		.ascii	"\300\000\300\000\300\000\300\000\300\000\300\000\370"
 983      C000C000 
 983      C000C000 
 983      F8
 984 11b5 0F000000 		.ascii	"\017\000\000\000\000\000\000\000\000\000\000"
 984      00000000 
 984      000000
 985 11c0 00000000 		.ascii	"\000\000\000\000\000\000\000\000\000\000\000\000\000"
 985      00000000 
 985      00000000 
 985      00
 986 11cd 00000000 		.ascii	"\000\000\000\000\000\000\000\000\000\000\000\000\000"
 986      00000000 
 986      00000000 
 986      00
 987 11da C077306C 		.ascii	"\300w0l\020\030\030\030\030\030\030\030\020\0300\014"
 987      10181818 
 987      18181818 
 987      1018300C 
 988 11ea F0071800 		.ascii	"\360\007\030\000\030\000\360\017\360?\010p\014`\014"
 988      1800F00F 
 988      F03F0870 
 988      0C600C
 989 11f9 600C6038 		.ascii	"`\014`88\340\017"
 989      38E00F
 990 1200 00000000 		.ascii	"\000\000\000\000\000\000\000\000\000\000\020\000\036"
 990      00000000 
ARM GAS  C:\Users\AURORA~1\AppData\Local\Temp\ccDd7T3c.s 			page 61


 990      00001000 
 990      1E
 991 120d 00180018 		.ascii	"\000\030\000\030\000\030\000\030\000\030\000\030\000"
 991      00180018 
 991      00180018 
 991      00
 992 121a 980FD818 		.ascii	"\230\017\330\03080\0300\0300\0300\0300\0300\0300\030"
 992      38301830 
 992      18301830 
 992      18301830 
 992      183018
 993 122d 30183018 		.ascii	"0\0300\0300\0300~\374\000\000\000\000\000\000\000\000"
 993      3018307E 
 993      FC000000 
 993      00000000 
 993      00
 994 123e 0000     		.ascii	"\000\000"
 995 1240 00000000 		.ascii	"\000\000\000\000\000\000\000\000\000\000\000\000\200"
 995      00000000 
 995      00000000 
 995      80
 996 124d 03800380 		.ascii	"\003\200\003\200\003\000\000\000\000\000\000\000\001"
 996      03000000 
 996      00000000 
 996      01
 997 125a F8018001 		.ascii	"\370\001\200\001\200\001\200\001\200\001\200\001\200"
 997      80018001 
 997      80018001 
 997      80
 998 1267 01800180 		.ascii	"\001\200\001\200\001\200\001\200\001\200\001\200\001"
 998      01800180 
 998      01800180 
 998      01
 999 1274 F81F0000 		.ascii	"\370\037\000\000\000\000\000\000\000\000\000\000"
 999      00000000 
 999      00000000 
 1000 1280 00000000 		.ascii	"\000\000\000\000\000\000\000\000\000\000\000\000\000"
 1000      00000000 
 1000      00000000 
 1000      00
 1001 128d 38003800 		.ascii	"8\0008\0008\000\000\000\000\000\000\000\020\200\037"
 1001      38000000 
 1001      00000000 
 1001      10801F
 1002 129c 00180018 		.ascii	"\000\030\000\030\000\030\000\030\000\030\000\030\000"
 1002      00180018 
 1002      00180018 
 1002      00
 1003 12a9 18001800 		.ascii	"\030\000\030\000\030\000\030\000\030\000\030\000\030"
 1003      18001800 
 1003      18001800 
 1003      18
 1004 12b6 00180018 		.ascii	"\000\030\000\030\030\014\030\006\360\003"
 1004      180C1806 
 1004      F003
 1005 12c0 00000000 		.ascii	"\000\000\000\000\000\000\000\000\000\000\020\000\036"
 1005      00000000 
ARM GAS  C:\Users\AURORA~1\AppData\Local\Temp\ccDd7T3c.s 			page 62


 1005      00001000 
 1005      1E
 1006 12cd 00180018 		.ascii	"\000\030\000\030\000\030\000\030\000\030\000\030\000"
 1006      00180018 
 1006      00180018 
 1006      00
 1007 12da 183E180C 		.ascii	"\030>\030\014\030\006\030\003\030\001\230\001\330\001"
 1007      18061803 
 1007      18019801 
 1007      D801
 1008 12e8 38031807 		.ascii	"8\003\030\007\030\006\030\014\030\034\030\030~|\000"
 1008      1806180C 
 1008      181C1818 
 1008      7E7C00
 1009 12f7 00000000 		.ascii	"\000\000\000\000\000\000\000\000\000"
 1009      00000000 
 1009      00
 1010 1300 00000000 		.ascii	"\000\000\000\000\000\000\000\000\000\000\000\001\370"
 1010      00000000 
 1010      00000001 
 1010      F8
 1011 130d 01800180 		.ascii	"\001\200\001\200\001\200\001\200\001\200\001\200\001"
 1011      01800180 
 1011      01800180 
 1011      01
 1012 131a 80018001 		.ascii	"\200\001\200\001\200\001\200\001\200\001\200\001\200"
 1012      80018001 
 1012      80018001 
 1012      80
 1013 1327 01800180 		.ascii	"\001\200\001\200\001\200\001\200\001\200\001\200\001"
 1013      01800180 
 1013      01800180 
 1013      01
 1014 1334 F81F0000 		.ascii	"\370\037\000\000\000\000\000\000\000\000\000\000"
 1014      00000000 
 1014      00000000 
 1015 1340 00000000 		.ascii	"\000\000\000\000\000\000\000\000\000\000\000\000\000"
 1015      00000000 
 1015      00000000 
 1015      00
 1016 134d 00000000 		.ascii	"\000\000\000\000\000\000\000\000\000\000\000\010\000"
 1016      00000000 
 1016      00000008 
 1016      00
 1017 135a EE1C9C33 		.ascii	"\356\034\2343\2141\2141\2141\2141\2141\2141\2141\214"
 1017      8C318C31 
 1017      8C318C31 
 1017      8C318C31 
 1017      8C318C
 1018 136d 318C318C 		.ascii	"1\2141\2141\2141\336{\000\000\000\000\000\000\000\000"
 1018      318C31DE 
 1018      7B000000 
 1018      00000000 
 1018      00
 1019 137e 0000     		.ascii	"\000\000"
 1020 1380 00000000 		.ascii	"\000\000\000\000\000\000\000\000\000\000\000\000\000"
 1020      00000000 
ARM GAS  C:\Users\AURORA~1\AppData\Local\Temp\ccDd7T3c.s 			page 63


 1020      00000000 
 1020      00
 1021 138d 00000000 		.ascii	"\000\000\000\000\000\000\000\000\000\000\000\020\000"
 1021      00000000 
 1021      00000010 
 1021      00
 1022 139a 1E0FD818 		.ascii	"\036\017\330\03080\0300\0300\0300\0300\0300\0300\030"
 1022      38301830 
 1022      18301830 
 1022      18301830 
 1022      183018
 1023 13ad 30183018 		.ascii	"0\0300\0300\0300~\374\000\000\000\000\000\000\000\000"
 1023      3018307E 
 1023      FC000000 
 1023      00000000 
 1023      00
 1024 13be 0000     		.ascii	"\000\000"
 1025 13c0 00000000 		.ascii	"\000\000\000\000\000\000\000\000\000\000\000\000\000"
 1025      00000000 
 1025      00000000 
 1025      00
 1026 13cd 00000000 		.ascii	"\000\000\000\000\000\000\000\000\000\000\000\000\000"
 1026      00000000 
 1026      00000000 
 1026      00
 1027 13da C007701C 		.ascii	"\300\007p\034\0200\0300\014`\014`\014`\014`\014`\014"
 1027      10301830 
 1027      0C600C60 
 1027      0C600C60 
 1027      0C600C
 1028 13ed 60183018 		.ascii	"`\0300\03000\030\300\007\000\000\000\000\000\000\000"
 1028      303018C0 
 1028      07000000 
 1028      00000000 
 1029 13fd 000000   		.ascii	"\000\000\000"
 1030 1400 00000000 		.ascii	"\000\000\000\000\000\000\000\000\000\000\000\000\000"
 1030      00000000 
 1030      00000000 
 1030      00
 1031 140d 00000000 		.ascii	"\000\000\000\000\000\000\000\000\000\000\000\020\000"
 1031      00000000 
 1031      00000010 
 1031      00
 1032 141a 9E0F5818 		.ascii	"\236\017X\03080\030 \030`\030`\030`\030`\030`\030`\030"
 1032      38301820 
 1032      18601860 
 1032      18601860 
 1032      18601860 
 1033 142f 30383078 		.ascii	"080x\030\230\007\030\000\030\000\030\000\030\000~\000"
 1033      18980718 
 1033      00180018 
 1033      0018007E 
 1033      00
 1034 1440 00000000 		.ascii	"\000\000\000\000\000\000\000\000\000\000\000\000\000"
 1034      00000000 
 1034      00000000 
 1034      00
ARM GAS  C:\Users\AURORA~1\AppData\Local\Temp\ccDd7T3c.s 			page 64


 1035 144d 00000000 		.ascii	"\000\000\000\000\000\000\000\000\000\000\000\000\000"
 1035      00000000 
 1035      00000000 
 1035      00
 1036 145a C023303C 		.ascii	"\300#0<\0308\0300\0140\0140\0140\0140\0140\0140\010"
 1036      18381830 
 1036      0C300C30 
 1036      0C300C30 
 1036      0C300C30 
 1037 146f 30183830 		.ascii	"0\03080<\3403\0000\0000\0000\0000\000\374"
 1037      3CE03300 
 1037      30003000 
 1037      30003000 
 1037      FC
 1038 1480 00000000 		.ascii	"\000\000\000\000\000\000\000\000\000\000\000\000\000"
 1038      00000000 
 1038      00000000 
 1038      00
 1039 148d 00000000 		.ascii	"\000\000\000\000\000\000\000\000\000\000\000`\000~<"
 1039      00000000 
 1039      00000060 
 1039      007E3C
 1040 149c 60666061 		.ascii	"`f`a\340\000\340\000`\000`\000`\000`\000`\000`\000`"
 1040      E000E000 
 1040      60006000 
 1040      60006000 
 1040      60006000 
 1041 14b1 006000FE 		.ascii	"\000`\000\376\007\000\000\000\000\000\000\000\000\000"
 1041      07000000 
 1041      00000000 
 1041      0000
 1042 14bf 00       		.ascii	"\000"
 1043 14c0 00000000 		.ascii	"\000\000\000\000\000\000\000\000\000\000\000\000\000"
 1043      00000000 
 1043      00000000 
 1043      00
 1044 14cd 00000000 		.ascii	"\000\000\000\000\000\000\000\000\000\000\000\000\000"
 1044      00000000 
 1044      00000000 
 1044      00
 1045 14da E0273038 		.ascii	"\340'08\0300\030 \030\000p\000\340\003\200\017\000\034"
 1045      18301820 
 1045      18007000 
 1045      E003800F 
 1045      001C
 1046 14ec 04300430 		.ascii	"\0040\0040\0140\034\030\354\017\000\000\000\000\000"
 1046      0C301C18 
 1046      EC0F0000 
 1046      000000
 1047 14fb 00000000 		.ascii	"\000\000\000\000\000"
 1047      00
 1048 1500 00000000 		.ascii	"\000\000\000\000\000\000\000\000\000\000\000\000\000"
 1048      00000000 
 1048      00000000 
 1048      00
 1049 150d 00000080 		.ascii	"\000\000\000\200\000\200\000\200\000\300\000\340\000"
 1049      00800080 
ARM GAS  C:\Users\AURORA~1\AppData\Local\Temp\ccDd7T3c.s 			page 65


 1049      00C000E0 
 1049      00
 1050 151a FC1FC000 		.ascii	"\374\037\300\000\300\000\300\000\300\000\300\000\300"
 1050      C000C000 
 1050      C000C000 
 1050      C0
 1051 1527 00C000C0 		.ascii	"\000\300\000\300\000\300\000\300 \300 \200\021\000\017"
 1051      00C000C0 
 1051      20C02080 
 1051      11000F
 1052 1536 00000000 		.ascii	"\000\000\000\000\000\000\000\000\000\000"
 1052      00000000 
 1052      0000
 1053 1540 00000000 		.ascii	"\000\000\000\000\000\000\000\000\000\000\000\000\000"
 1053      00000000 
 1053      00000000 
 1053      00
 1054 154d 00000000 		.ascii	"\000\000\000\000\000\000\000\000\000\000\000\020 \036"
 1054      00000000 
 1054      00000010 
 1054      201E
 1055 155b 3C183018 		.ascii	"<\0300\0300\0300\0300\0300\0300\0300\0300\0300\0300"
 1055      30183018 
 1055      30183018 
 1055      30183018 
 1055      30183018 
 1056 1570 183830F4 		.ascii	"\03080\364\340\023\000\000\000\000\000\000\000\000\000"
 1056      E0130000 
 1056      00000000 
 1056      000000
 1057 157f 00       		.ascii	"\000"
 1058 1580 00000000 		.ascii	"\000\000\000\000\000\000\000\000\000\000\000\000\000"
 1058      00000000 
 1058      00000000 
 1058      00
 1059 158d 00000000 		.ascii	"\000\000\000\000\000\000\000\000\000\000\000\000\000"
 1059      00000000 
 1059      00000000 
 1059      00
 1060 159a 7E3C1818 		.ascii	"~<\030\030\030\0108\0100\0040\004p\002`\002`\002\340"
 1060      18083808 
 1060      30043004 
 1060      70026002 
 1060      6002E0
 1061 15ad 01C001C0 		.ascii	"\001\300\001\300\001\300\000\200\000\000\000\000\000"
 1061      01C00080 
 1061      00000000 
 1061      00
 1062 15ba 00000000 		.ascii	"\000\000\000\000\000\000"
 1062      0000
 1063 15c0 00000000 		.ascii	"\000\000\000\000\000\000\000\000\000\000\000\000\000"
 1063      00000000 
 1063      00000000 
 1063      00
 1064 15cd 00000000 		.ascii	"\000\000\000\000\000\000\000\000\000\000\000\000\000"
 1064      00000000 
 1064      00000000 
ARM GAS  C:\Users\AURORA~1\AppData\Local\Temp\ccDd7T3c.s 			page 66


 1064      00
 1065 15da DFF78E63 		.ascii	"\337\367\216c\014#\214#\214#\230\023\230\023X\026X\026"
 1065      0C238C23 
 1065      8C239813 
 1065      98135816 
 1065      5816
 1066 15ec 700E700E 		.ascii	"p\016p\016p\016 \004 \004\000\000\000\000\000\000\000"
 1066      700E2004 
 1066      20040000 
 1066      00000000 
 1066      00
 1067 15fd 000000   		.ascii	"\000\000\000"
 1068 1600 00000000 		.ascii	"\000\000\000\000\000\000\000\000\000\000\000\000\000"
 1068      00000000 
 1068      00000000 
 1068      00
 1069 160d 00000000 		.ascii	"\000\000\000\000\000\000\000\000\000\000\000\000\000"
 1069      00000000 
 1069      00000000 
 1069      00
 1070 161a FC3E7008 		.ascii	"\374>p\010p\004\340\004\300\002\300\001\200\003\200"
 1070      7004E004 
 1070      C002C001 
 1070      800380
 1071 1629 03400760 		.ascii	"\003@\007`\006 \014\020\014\030\030>~\000\000\000\000"
 1071      06200C10 
 1071      0C18183E 
 1071      7E000000 
 1071      00
 1072 163a 00000000 		.ascii	"\000\000\000\000\000\000"
 1072      0000
 1073 1640 00000000 		.ascii	"\000\000\000\000\000\000\000\000\000\000\000\000\000"
 1073      00000000 
 1073      00000000 
 1073      00
 1074 164d 00000000 		.ascii	"\000\000\000\000\000\000\000\000\000\000\000\000\000"
 1074      00000000 
 1074      00000000 
 1074      00
 1075 165a 7E7C1818 		.ascii	"~|\030\030\030\0100\0100\0100\004`\004`\004\300\002"
 1075      18083008 
 1075      30083004 
 1075      60046004 
 1075      C002
 1076 166c C002C002 		.ascii	"\300\002\300\002\200\001\200\001\200\001\200\000\200"
 1076      80018001 
 1076      80018000 
 1076      80
 1077 1679 0080004C 		.ascii	"\000\200\000L\000<\000"
 1077      003C00
 1078 1680 00000000 		.ascii	"\000\000\000\000\000\000\000\000\000\000\000\000\000"
 1078      00000000 
 1078      00000000 
 1078      00
 1079 168d 00000000 		.ascii	"\000\000\000\000\000\000\000\000\000\000\000\000\000"
 1079      00000000 
 1079      00000000 
ARM GAS  C:\Users\AURORA~1\AppData\Local\Temp\ccDd7T3c.s 			page 67


 1079      00
 1080 169a FC1F0C0C 		.ascii	"\374\037\014\014\004\016\004\006\000\003\200\003\200"
 1080      040E0406 
 1080      00038003 
 1080      80
 1081 16a7 01C000E0 		.ascii	"\001\300\000\340\000p 0 80\034\030\374\037\000\000\000"
 1081      00702030 
 1081      2038301C 
 1081      18FC1F00 
 1081      0000
 1082 16b9 00000000 		.ascii	"\000\000\000\000\000\000\000"
 1082      000000
 1083 16c0 00000000 		.ascii	"\000\000\000\000\000\000\0000\000\010\000\004\000\004"
 1083      00000030 
 1083      00080004 
 1083      0004
 1084 16ce 00040004 		.ascii	"\000\004\000\004\000\004\000\004\000\004\000\004\000"
 1084      00040004 
 1084      00040004 
 1084      00
 1085 16db 04000400 		.ascii	"\004\000\004\000\002\200\001\000\002\000\004\000\004"
 1085      02800100 
 1085      02000400 
 1085      04
 1086 16e8 00040004 		.ascii	"\000\004\000\004\000\004\000\004\000\004\000\004\000"
 1086      00040004 
 1086      00040004 
 1086      00
 1087 16f5 04000400 		.ascii	"\004\000\004\000\004\000\010\0000\000\000"
 1087      04000800 
 1087      300000
 1088 1700 00010001 		.ascii	"\000\001\000\001\000\001\000\001\000\001\000\001\000"
 1088      00010001 
 1088      00010001 
 1088      00
 1089 170d 01000100 		.ascii	"\001\000\001\000\001\000\001\000\001\000\001\000\001"
 1089      01000100 
 1089      01000100 
 1089      01
 1090 171a 00010001 		.ascii	"\000\001\000\001\000\001\000\001\000\001\000\001\000"
 1090      00010001 
 1090      00010001 
 1090      00
 1091 1727 01000100 		.ascii	"\001\000\001\000\001\000\001\000\001\000\001\000\001"
 1091      01000100 
 1091      01000100 
 1091      01
 1092 1734 00010001 		.ascii	"\000\001\000\001\000\001\000\001\000\001\000\001"
 1092      00010001 
 1092      00010001 
 1093 1740 00000000 		.ascii	"\000\000\000\000\000\000\014\000\020\000 \000 \000 "
 1093      00000C00 
 1093      10002000 
 1093      200020
 1094 174f 00200020 		.ascii	"\000 \000 \000 \000 \000 \000 \000 \000@\000\200\001"
 1094      00200020 
 1094      00200020 
ARM GAS  C:\Users\AURORA~1\AppData\Local\Temp\ccDd7T3c.s 			page 68


 1094      00200040 
 1094      008001
 1095 1762 40002000 		.ascii	"@\000 \000 \000 \000 \000 \000 \000 \000 \000 \000 "
 1095      20002000 
 1095      20002000 
 1095      20002000 
 1095      20002000 
 1096 1777 00200010 		.ascii	"\000 \000\020\000\014\000\000\000"
 1096      000C0000 
 1096      00
 1097 1780 00003800 		.ascii	"\000\0008\000\304\000\206@\002a\000\"\000\034\000\000"
 1097      C4008640 
 1097      02610022 
 1097      001C0000 
 1098 1790 00000000 		.ascii	"\000\000\000\000\000\000\000\000\000\000\000\000\000"
 1098      00000000 
 1098      00000000 
 1098      00
 1099 179d 00000000 		.ascii	"\000\000\000\000\000\000\000\000\000\000\000\000\000"
 1099      00000000 
 1099      00000000 
 1099      00
 1100 17aa 00000000 		.ascii	"\000\000\000\000\000\000\000\000\000\000\000\000\000"
 1100      00000000 
 1100      00000000 
 1100      00
 1101 17b7 00000000 		.ascii	"\000\000\000\000\000\000\000\000\000"
 1101      00000000 
 1101      00
 1102              		.global	tfont12
 1103              		.section	.rodata.tfont12,"a"
 1104              		.align	2
 1107              	tfont12:
 1108 0000 D6D0     		.ascii	"\326\320"
 1109 0002 20002000 		.ascii	" \000 \000 \000\376\003\"\002\"\002\"\002\376\003\""
 1109      2000FE03 
 1109      22022202 
 1109      2202FE03 
 1109      22
 1110 0013 02200020 		.ascii	"\002 \000 \000 \000"
 1110      002000
 1111 001a BEB0     		.ascii	"\276\260"
 1112 001c FC010401 		.ascii	"\374\001\004\001\374\001\004\001\374\001 \000\377\007"
 1112      FC010401 
 1112      FC012000 
 1112      FF07
 1113 002a 0401FC01 		.ascii	"\004\001\374\001 \000$\0012\002"
 1113      20002401 
 1113      3202
 1114 0034 D4B0     		.ascii	"\324\260"
 1115 0036 FE070204 		.ascii	"\376\007\002\004\372\004\002\004\002\004\376\005R\004"
 1115      FA040204 
 1115      0204FE05 
 1115      5204
 1116 0044 52044A05 		.ascii	"R\004J\005\206\005\002\004\376\007"
 1116      86050204 
 1116      FE07
ARM GAS  C:\Users\AURORA~1\AppData\Local\Temp\ccDd7T3c.s 			page 69


 1117 004e B5E7     		.ascii	"\265\347"
 1118 0050 10001000 		.ascii	"\020\000\020\000\377\001\021\001\021\001\377\001\021"
 1118      FF011101 
 1118      1101FF01 
 1118      11
 1119 005d 011101FF 		.ascii	"\001\021\001\377\001\021\004\020\004\340\007"
 1119      01110410 
 1119      04E007
 1120 0068 D7D3     		.ascii	"\327\323"
 1121 006a 0000FC01 		.ascii	"\000\000\374\001\200\000@\000 \000 \000\377\007 \000"
 1121      80004000 
 1121      20002000 
 1121      FF072000 
 1122 007a 20002000 		.ascii	" \000 \000 \0008\000"
 1122      20003800 
 1123              		.global	tfont16
 1124              		.section	.rodata.tfont16,"a"
 1125              		.align	2
 1128              	tfont16:
 1129 0000 D6D0     		.ascii	"\326\320"
 1130 0002 80008000 		.ascii	"\200\000\200\000\200\000\200\000\374\037\204\020\204"
 1130      80008000 
 1130      FC1F8410 
 1130      84
 1131 000f 10841084 		.ascii	"\020\204\020\204\020\204\020\374\037\204\020\200\000"
 1131      108410FC 
 1131      1F841080 
 1131      00
 1132 001c 80008000 		.ascii	"\200\000\200\000\200\000"
 1132      8000
 1133 0022 BEB0     		.ascii	"\276\260"
 1134 0024 F80F0808 		.ascii	"\370\017\010\010\370\017\010\010\370\017\200\000\377"
 1134      F80F0808 
 1134      F80F8000 
 1134      FF
 1135 0031 7F0000F8 		.ascii	"\177\000\000\370\017\010\010\010\010\370\017\200\000"
 1135      0F080808 
 1135      08F80F80 
 1135      00
 1136 003e 8410A220 		.ascii	"\204\020\242 @\000"
 1136      4000
 1137 0044 D4B0     		.ascii	"\324\260"
 1138 0046 0000FE3F 		.ascii	"\000\000\376?\002 \362'\002 \002 \372/\"!\"!\"!\022"
 1138      0220F227 
 1138      02200220 
 1138      FA2F2221 
 1138      22212221 
 1139 005b 2912290A 		.ascii	")\022)\012.\002 \376?\002 "
 1139      2E0220FE 
 1139      3F0220
 1140 0066 B5E7     		.ascii	"\265\347"
 1141 0068 80008000 		.ascii	"\200\000\200\000\200\000\374\037\204\020\204\020\204"
 1141      8000FC1F 
 1141      84108410 
 1141      84
 1142 0075 10FC1F84 		.ascii	"\020\374\037\204\020\204\020\204\020\374\037\204P\200"
 1142      10841084 
ARM GAS  C:\Users\AURORA~1\AppData\Local\Temp\ccDd7T3c.s 			page 70


 1142      10FC1F84 
 1142      5080
 1143 0083 40804000 		.ascii	"@\200@\000\177"
 1143      7F
 1144 0088 D7D3     		.ascii	"\327\323"
 1145 008a 0000FE1F 		.ascii	"\000\000\376\037\000\010\000\004\000\002\200\001\200"
 1145      00080004 
 1145      00028001 
 1145      80
 1146 0097 00FF7F80 		.ascii	"\000\377\177\200\000\200\000\200\000\200\000\200\000"
 1146      00800080 
 1146      00800080 
 1146      00
 1147 00a4 8000A000 		.ascii	"\200\000\240\000@\000"
 1147      4000
 1148              		.global	tfont24
 1149              		.section	.rodata.tfont24,"a"
 1150              		.align	2
 1153              	tfont24:
 1154 0000 D6D0     		.ascii	"\326\320"
 1155 0002 00000000 		.ascii	"\000\000\000\000\000\000\000\030\000\000\010\000\000"
 1155      00000018 
 1155      00000800 
 1155      00
 1156 000f 08000008 		.ascii	"\010\000\000\010\000\010\010\030\370\377\037\030\010"
 1156      00080818 
 1156      F8FF1F18 
 1156      08
 1157 001c 18180818 		.ascii	"\030\030\010\030\030\010\030\030\010\030\030\010\030"
 1157      18081818 
 1157      08181808 
 1157      18
 1158 0029 180818F8 		.ascii	"\030\010\030\370\377\037\010\010\010\000\010\000\000"
 1158      FF1F0808 
 1158      08000800 
 1158      00
 1159 0036 08000008 		.ascii	"\010\000\000\010\000\000\010\000\000\030\000\000\030"
 1159      00000800 
 1159      00180000 
 1159      18
 1160 0043 00001800 		.ascii	"\000\000\030\000\000\000\000"
 1160      000000
 1161 004a BEB0     		.ascii	"\276\260"
 1162 004c 00000000 		.ascii	"\000\000\000\000\000\000@\000\006\300\377\007@\000\006"
 1162      00004000 
 1162      06C0FF07 
 1162      400006
 1163 005b C0FF0740 		.ascii	"\300\377\007@\000\006\300\377\007@\010\002\0000\000"
 1163      0006C0FF 
 1163      07400802 
 1163      003000
 1164 006a FEFF3F00 		.ascii	"\376\377?\000\000\000\300\377\007\300\000\002\300\000"
 1164      0000C0FF 
 1164      07C00002 
 1164      C000
 1165 0078 02C00002 		.ascii	"\002\300\000\002\300\377\003\200\020\000\200\021\001"
 1165      C0FF0380 
ARM GAS  C:\Users\AURORA~1\AppData\Local\Temp\ccDd7T3c.s 			page 71


 1165      10008011 
 1165      01
 1166 0085 60100E30 		.ascii	"`\020\0160\020\030\014\0360\000\034\000\000\000\000"
 1166      10180C1E 
 1166      30001C00 
 1166      000000
 1167 0094 D4B0     		.ascii	"\324\260"
 1168 0096 00000000 		.ascii	"\000\000\000\000\000\000\010\0000\370\377\037\010\000"
 1168      00000800 
 1168      30F8FF1F 
 1168      0800
 1169 00a4 1008C010 		.ascii	"\020\010\300\020\010?\020\010\000\020\010\000\020\010"
 1169      083F1008 
 1169      00100800 
 1169      1008
 1170 00b2 0013C8FF 		.ascii	"\000\023\310\377\020\010\"\020\010\"\020\010\"\020\010"
 1170      10082210 
 1170      08221008 
 1170      221008
 1171 00c1 22100821 		.ascii	"\"\020\010!\022\010!\024\210`\026H\300\023(\000\020"
 1171      12082114 
 1171      88601648 
 1171      C0132800 
 1171      10
 1172 00d2 080010F8 		.ascii	"\010\000\020\370\377\037\010\000\020\000\000\000"
 1172      FF1F0800 
 1172      10000000 
 1173 00de B5E7     		.ascii	"\265\347"
 1174 00e0 00000000 		.ascii	"\000\000\000\000\000\000\000\030\000\000\010\000\000"
 1174      00000018 
 1174      00000800 
 1174      00
 1175 00ed 08000008 		.ascii	"\010\000\000\010\000\360\377\017\020\010\004\020\010"
 1175      00F0FF0F 
 1175      10080410 
 1175      08
 1176 00fa 04100804 		.ascii	"\004\020\010\004\020\010\004\360\377\007\020\010\004"
 1176      100804F0 
 1176      FF071008 
 1176      04
 1177 0107 10080410 		.ascii	"\020\010\004\020\010\004\020\010\004\360\377\007\020"
 1177      08041008 
 1177      04F0FF07 
 1177      10
 1178 0114 08000008 		.ascii	"\010\000\000\010\020\000\010\020\000\010 \000\0300\000"
 1178      10000810 
 1178      00082000 
 1178      183000
 1179 0123 F01F0000 		.ascii	"\360\037\000\000\000"
 1179      00
 1180 0128 D7D3     		.ascii	"\327\323"
 1181 012a 00000000 		.ascii	"\000\000\000\000\000\000\000\000\004\360\377\017\000"
 1181      00000000 
 1181      04F0FF0F 
 1181      00
 1182 0137 00060000 		.ascii	"\000\006\000\000\001\000\300\000\000(\000\000\030\000"
 1182      0100C000 
ARM GAS  C:\Users\AURORA~1\AppData\Local\Temp\ccDd7T3c.s 			page 72


 1182      00280000 
 1182      1800
 1183 0145 00180000 		.ascii	"\000\030\000\000\0300\376\377\177\000\030\000\000\030"
 1183      1830FEFF 
 1183      7F001800 
 1183      0018
 1184 0153 00001800 		.ascii	"\000\000\030\000\000\030\000\000\030\000\000\030\000"
 1184      00180000 
 1184      18000018 
 1184      00
 1185 0160 00180000 		.ascii	"\000\030\000\000\030\000\000\030\000\000\037\000\000"
 1185      18000018 
 1185      00001F00 
 1185      00
 1186 016d 0C000000 		.ascii	"\014\000\000\000\000"
 1186      00
 1187              		.global	tfont32
 1188              		.section	.rodata.tfont32,"a"
 1189              		.align	2
 1192              	tfont32:
 1193 0000 D6D0     		.ascii	"\326\320"
 1194 0002 00000000 		.ascii	"\000\000\000\000\000\000\000\000\000\200\000\000\000"
 1194      00000000 
 1194      00800000 
 1194      00
 1195 000f 80010000 		.ascii	"\200\001\000\000\200\001\000\000\200\001\000\000\200"
 1195      80010000 
 1195      80010000 
 1195      80
 1196 001c 01000080 		.ascii	"\001\000\000\200\001\000\020\200\001\014\360\377\377"
 1196      01001080 
 1196      010CF0FF 
 1196      FF
 1197 0029 0F308001 		.ascii	"\0170\200\001\0040\200\001\0040\200\001\0040\200\001"
 1197      04308001 
 1197      04308001 
 1197      04308001 
 1198 0039 04308001 		.ascii	"\0040\200\001\0040\200\001\0040\200\001\0040\200\001"
 1198      04308001 
 1198      04308001 
 1198      04308001 
 1199 0049 04F0FFFF 		.ascii	"\004\360\377\377\0070\200\001\0040\200\001\004\000\200"
 1199      07308001 
 1199      04308001 
 1199      040080
 1200 0058 01000080 		.ascii	"\001\000\000\200\001\000\000\200\001\000\000\200\001"
 1200      01000080 
 1200      01000080 
 1200      01
 1201 0065 00008001 		.ascii	"\000\000\200\001\000\000\200\001\000\000\200\001\000"
 1201      00008001 
 1201      00008001 
 1201      00
 1202 0072 00800100 		.ascii	"\000\200\001\000\000\200\001\000\000\200\000\000\000"
 1202      00800100 
 1202      00800000 
 1202      00
ARM GAS  C:\Users\AURORA~1\AppData\Local\Temp\ccDd7T3c.s 			page 73


 1203 007f 000000   		.ascii	"\000\000\000"
 1204 0082 BEB0     		.ascii	"\276\260"
 1205 0084 00000000 		.ascii	"\000\000\000\000\000\000\000\000\000\000\000\000\000"
 1205      00000000 
 1205      00000000 
 1205      00
 1206 0091 01800100 		.ascii	"\001\200\001\000\377\377\001\000\003\200\001\000\003"
 1206      FFFF0100 
 1206      03800100 
 1206      03
 1207 009e 800100FF 		.ascii	"\200\001\000\377\377\001\000\003\200\001\000\003\200"
 1207      FF010003 
 1207      80010003 
 1207      80
 1208 00ab 0100FFFF 		.ascii	"\001\000\377\377\001\000\201\201\000\000\000\003\000"
 1208      01008181 
 1208      00000003 
 1208      00
 1209 00b8 0000031C 		.ascii	"\000\000\003\034\374\377\377?\000\000@\000\000\003\300"
 1209      FCFFFF3F 
 1209      00004000 
 1209      0003C0
 1210 00c7 0100FFFF 		.ascii	"\001\000\377\377\001\000\003\300\000\000\003\300\000"
 1210      010003C0 
 1210      000003C0 
 1210      00
 1211 00d4 0003C000 		.ascii	"\000\003\300\000\000\377\377\000\000\001A\000\000\004"
 1211      00FFFF00 
 1211      00014100 
 1211      0004
 1212 00e2 0100000E 		.ascii	"\001\000\000\016q\000\000\007\201\001\200\001\001\007"
 1212      71000007 
 1212      81018001 
 1212      0107
 1213 00f0 6000010E 		.ascii	"`\000\001\016\030\230\001\034\004\340\001\030\000\300"
 1213      1898011C 
 1213      04E00118 
 1213      00C0
 1214 00fe 00000000 		.ascii	"\000\000\000\000\000\000"
 1214      0000
 1215 0104 D4B0     		.ascii	"\324\260"
 1216 0106 00000000 		.ascii	"\000\000\000\000\000\000\000\000\000\000\000\010\360"
 1216      00000000 
 1216      00000008 
 1216      F0
 1217 0113 FFFF1F30 		.ascii	"\377\377\0370\000\000\0140\000\000\0140\000\020\014"
 1217      00000C30 
 1217      00000C30 
 1217      00100C
 1218 0122 30FE3F0C 		.ascii	"0\376?\0140\004\000\0140\000\000\0140\000\000\0140\000"
 1218      3004000C 
 1218      3000000C 
 1218      3000000C 
 1218      3000
 1219 0134 000C3000 		.ascii	"\000\0140\000\300\014\360\377\377\01500\006\01600\006"
 1219      C00CF0FF 
 1219      FF0D3030 
ARM GAS  C:\Users\AURORA~1\AppData\Local\Temp\ccDd7T3c.s 			page 74


 1219      060E3030 
 1219      06
 1220 0145 0C301006 		.ascii	"\0140\020\006\0140\020\006\0140\020\006\0140\030\206"
 1220      0C301006 
 1220      0C301006 
 1220      0C301886 
 1221 0155 0C301886 		.ascii	"\0140\030\206\0140\010\006\0150\014\206\0150\006\356"
 1221      0C300806 
 1221      0D300C86 
 1221      0D3006EE 
 1222 0165 0F3002FC 		.ascii	"\0170\002\374\0150\001\000\014\360\000\000\0140\000"
 1222      0D300100 
 1222      0CF00000 
 1222      0C3000
 1223 0174 000CF0FF 		.ascii	"\000\014\360\377\377\0170\000\000\014\020\000\000\004"
 1223      FF0F3000 
 1223      000C1000 
 1223      0004
 1224 0182 00000000 		.ascii	"\000\000\000\000"
 1225 0186 B5E7     		.ascii	"\265\347"
 1226 0188 00000000 		.ascii	"\000\000\000\000\000\000\000\000\000\300\000\000\000"
 1226      00000000 
 1226      00C00000 
 1226      00
 1227 0195 C0010000 		.ascii	"\300\001\000\000\300\000\000\000\300\000\000\000\300"
 1227      C0000000 
 1227      C0000000 
 1227      C0
 1228 01a2 000000C0 		.ascii	"\000\000\000\300\000\000\340\377\377\003`\300\000\003"
 1228      0000E0FF 
 1228      FF0360C0 
 1228      0003
 1229 01b0 60C00003 		.ascii	"`\300\000\003`\300\000\003`\300\000\003`\300\000\003"
 1229      60C00003 
 1229      60C00003 
 1229      60C00003 
 1230 01c0 60C00003 		.ascii	"`\300\000\003\340\377\377\003`\300\000\003`\300\000"
 1230      E0FFFF03 
 1230      60C00003 
 1230      60C000
 1231 01cf 0360C000 		.ascii	"\003`\300\000\003`\300\000\003`\300\000\003\340\377"
 1231      0360C000 
 1231      0360C000 
 1231      03E0FF
 1232 01de FF0360C0 		.ascii	"\377\003`\300\000\001`\300\000\000\000\300\000\010\000"
 1232      000160C0 
 1232      000000C0 
 1232      000800
 1233 01ed C0001000 		.ascii	"\300\000\020\000\300\000\020\000\300\000\030\000\300"
 1233      C0001000 
 1233      C0001800 
 1233      C0
 1234 01fa 01380080 		.ascii	"\0018\000\200\377\037\000\000\000\000\000\000\000\000"
 1234      FF1F0000 
 1234      00000000 
 1234      0000
 1235 0208 D7D3     		.ascii	"\327\323"
ARM GAS  C:\Users\AURORA~1\AppData\Local\Temp\ccDd7T3c.s 			page 75


 1236 020a 00000000 		.ascii	"\000\000\000\000\000\000\000\000\000\000\000\000\000"
 1236      00000000 
 1236      00000000 
 1236      00
 1237 0217 000003C0 		.ascii	"\000\000\003\300\377\377\007\000\000\200\007\000\000"
 1237      FFFF0700 
 1237      00800700 
 1237      00
 1238 0224 C0000000 		.ascii	"\300\000\000\000`\000\000\000\030\000\000\000\014\000"
 1238      60000000 
 1238      18000000 
 1238      0C00
 1239 0232 00800300 		.ascii	"\000\200\003\000\000\200\003\000\000\200\001\000\000"
 1239      00800300 
 1239      00800100 
 1239      00
 1240 023f 80010800 		.ascii	"\200\001\010\000\200\001\034\374\377\377?\000\200\001"
 1240      80011CFC 
 1240      FFFF3F00 
 1240      8001
 1241 024d 00008001 		.ascii	"\000\000\200\001\000\000\200\001\000\000\200\001\000"
 1241      00008001 
 1241      00008001 
 1241      00
 1242 025a 00800100 		.ascii	"\000\200\001\000\000\200\001\000\000\200\001\000\000"
 1242      00800100 
 1242      00800100 
 1242      00
 1243 0267 80010000 		.ascii	"\200\001\000\000\200\001\000\000\200\001\000\000\200"
 1243      80010000 
 1243      80010000 
 1243      80
 1244 0274 01000080 		.ascii	"\001\000\000\200\001\000\000\374\001\000\000\340\000"
 1244      010000FC 
 1244      010000E0 
 1244      00
 1245 0281 00004000 		.ascii	"\000\000@\000\000\000\000\000\000"
 1245      00000000 
 1245      00
 1246              		.section	.text.LCD_Writ_Bus,"ax",%progbits
 1247              		.align	1
 1248              		.global	LCD_Writ_Bus
 1249              		.syntax unified
 1250              		.thumb
 1251              		.thumb_func
 1253              	LCD_Writ_Bus:
 1254              	.LFB132:
   1:Module/LCD/lcd.c **** #include "lcd.h"
   2:Module/LCD/lcd.c **** #include "lcdfont.h"
   3:Module/LCD/lcd.c **** 
   4:Module/LCD/lcd.c **** 
   5:Module/LCD/lcd.c **** /******************************************************************************
   6:Module/LCD/lcd.c ****       LCD
   7:Module/LCD/lcd.c ****       dat  
   8:Module/LCD/lcd.c ****         
   9:Module/LCD/lcd.c **** ******************************************************************************/
  10:Module/LCD/lcd.c **** void LCD_Writ_Bus(uint8_t dat) 
ARM GAS  C:\Users\AURORA~1\AppData\Local\Temp\ccDd7T3c.s 			page 76


  11:Module/LCD/lcd.c **** {	
 1255              		.loc 1 11 1
 1256              		.cfi_startproc
 1257              		@ args = 0, pretend = 0, frame = 8
 1258              		@ frame_needed = 1, uses_anonymous_args = 0
 1259 0000 80B5     		push	{r7, lr}
 1260              	.LCFI0:
 1261              		.cfi_def_cfa_offset 8
 1262              		.cfi_offset 7, -8
 1263              		.cfi_offset 14, -4
 1264 0002 82B0     		sub	sp, sp, #8
 1265              	.LCFI1:
 1266              		.cfi_def_cfa_offset 16
 1267 0004 00AF     		add	r7, sp, #0
 1268              	.LCFI2:
 1269              		.cfi_def_cfa_register 7
 1270 0006 0346     		mov	r3, r0
 1271 0008 FB71     		strb	r3, [r7, #7]
  12:Module/LCD/lcd.c **** 	LCD_CS_Clr();
 1272              		.loc 1 12 2
 1273 000a 0022     		movs	r2, #0
 1274 000c 0421     		movs	r1, #4
 1275 000e 0948     		ldr	r0, .L2
 1276 0010 FFF7FEFF 		bl	HAL_GPIO_WritePin
  13:Module/LCD/lcd.c **** #if USE_ANALOG_SPI
  14:Module/LCD/lcd.c **** 	for(uint8_t i=0;i<8;i++) {			  
  15:Module/LCD/lcd.c **** 		LCD_SCLK_Clr();
  16:Module/LCD/lcd.c **** 		if(dat&0x80) {
  17:Module/LCD/lcd.c **** 		   LCD_MOSI_Set();
  18:Module/LCD/lcd.c **** 		} else {
  19:Module/LCD/lcd.c **** 		   LCD_MOSI_Clr();
  20:Module/LCD/lcd.c **** 		}
  21:Module/LCD/lcd.c **** 		LCD_SCLK_Set();
  22:Module/LCD/lcd.c **** 		dat<<=1;
  23:Module/LCD/lcd.c **** 	}
  24:Module/LCD/lcd.c **** #else
  25:Module/LCD/lcd.c **** 	HAL_SPI_Transmit(&hspi3, &dat, 1, 0xffff);
 1277              		.loc 1 25 2
 1278 0014 F91D     		adds	r1, r7, #7
 1279 0016 4FF6FF73 		movw	r3, #65535
 1280 001a 0122     		movs	r2, #1
 1281 001c 0648     		ldr	r0, .L2+4
 1282 001e FFF7FEFF 		bl	HAL_SPI_Transmit
  26:Module/LCD/lcd.c **** #endif	
  27:Module/LCD/lcd.c ****   LCD_CS_Set();	
 1283              		.loc 1 27 3
 1284 0022 0122     		movs	r2, #1
 1285 0024 0421     		movs	r1, #4
 1286 0026 0348     		ldr	r0, .L2
 1287 0028 FFF7FEFF 		bl	HAL_GPIO_WritePin
  28:Module/LCD/lcd.c **** }
 1288              		.loc 1 28 1
 1289 002c 00BF     		nop
 1290 002e 0837     		adds	r7, r7, #8
 1291              	.LCFI3:
 1292              		.cfi_def_cfa_offset 8
 1293 0030 BD46     		mov	sp, r7
ARM GAS  C:\Users\AURORA~1\AppData\Local\Temp\ccDd7T3c.s 			page 77


 1294              	.LCFI4:
 1295              		.cfi_def_cfa_register 13
 1296              		@ sp needed
 1297 0032 80BD     		pop	{r7, pc}
 1298              	.L3:
 1299              		.align	2
 1300              	.L2:
 1301 0034 000C0048 		.word	1207962624
 1302 0038 00000000 		.word	hspi3
 1303              		.cfi_endproc
 1304              	.LFE132:
 1306              		.section	.text.LCD_WR_DATA8,"ax",%progbits
 1307              		.align	1
 1308              		.global	LCD_WR_DATA8
 1309              		.syntax unified
 1310              		.thumb
 1311              		.thumb_func
 1313              	LCD_WR_DATA8:
 1314              	.LFB133:
  29:Module/LCD/lcd.c **** 
  30:Module/LCD/lcd.c **** 
  31:Module/LCD/lcd.c **** /******************************************************************************
  32:Module/LCD/lcd.c ****       LCD
  33:Module/LCD/lcd.c ****       dat 
  34:Module/LCD/lcd.c ****         
  35:Module/LCD/lcd.c **** ******************************************************************************/
  36:Module/LCD/lcd.c **** void LCD_WR_DATA8(uint8_t dat)
  37:Module/LCD/lcd.c **** {
 1315              		.loc 1 37 1
 1316              		.cfi_startproc
 1317              		@ args = 0, pretend = 0, frame = 8
 1318              		@ frame_needed = 1, uses_anonymous_args = 0
 1319 0000 80B5     		push	{r7, lr}
 1320              	.LCFI5:
 1321              		.cfi_def_cfa_offset 8
 1322              		.cfi_offset 7, -8
 1323              		.cfi_offset 14, -4
 1324 0002 82B0     		sub	sp, sp, #8
 1325              	.LCFI6:
 1326              		.cfi_def_cfa_offset 16
 1327 0004 00AF     		add	r7, sp, #0
 1328              	.LCFI7:
 1329              		.cfi_def_cfa_register 7
 1330 0006 0346     		mov	r3, r0
 1331 0008 FB71     		strb	r3, [r7, #7]
  38:Module/LCD/lcd.c **** 	LCD_Writ_Bus(dat);
 1332              		.loc 1 38 2
 1333 000a FB79     		ldrb	r3, [r7, #7]	@ zero_extendqisi2
 1334 000c 1846     		mov	r0, r3
 1335 000e FFF7FEFF 		bl	LCD_Writ_Bus
  39:Module/LCD/lcd.c **** }
 1336              		.loc 1 39 1
 1337 0012 00BF     		nop
 1338 0014 0837     		adds	r7, r7, #8
 1339              	.LCFI8:
 1340              		.cfi_def_cfa_offset 8
 1341 0016 BD46     		mov	sp, r7
ARM GAS  C:\Users\AURORA~1\AppData\Local\Temp\ccDd7T3c.s 			page 78


 1342              	.LCFI9:
 1343              		.cfi_def_cfa_register 13
 1344              		@ sp needed
 1345 0018 80BD     		pop	{r7, pc}
 1346              		.cfi_endproc
 1347              	.LFE133:
 1349              		.section	.text.LCD_WR_DATA,"ax",%progbits
 1350              		.align	1
 1351              		.global	LCD_WR_DATA
 1352              		.syntax unified
 1353              		.thumb
 1354              		.thumb_func
 1356              	LCD_WR_DATA:
 1357              	.LFB134:
  40:Module/LCD/lcd.c **** 
  41:Module/LCD/lcd.c **** 
  42:Module/LCD/lcd.c **** /******************************************************************************
  43:Module/LCD/lcd.c ****       LCD
  44:Module/LCD/lcd.c ****       dat 
  45:Module/LCD/lcd.c ****         
  46:Module/LCD/lcd.c **** ******************************************************************************/
  47:Module/LCD/lcd.c **** void LCD_WR_DATA(uint16_t dat)
  48:Module/LCD/lcd.c **** {
 1358              		.loc 1 48 1
 1359              		.cfi_startproc
 1360              		@ args = 0, pretend = 0, frame = 8
 1361              		@ frame_needed = 1, uses_anonymous_args = 0
 1362 0000 80B5     		push	{r7, lr}
 1363              	.LCFI10:
 1364              		.cfi_def_cfa_offset 8
 1365              		.cfi_offset 7, -8
 1366              		.cfi_offset 14, -4
 1367 0002 82B0     		sub	sp, sp, #8
 1368              	.LCFI11:
 1369              		.cfi_def_cfa_offset 16
 1370 0004 00AF     		add	r7, sp, #0
 1371              	.LCFI12:
 1372              		.cfi_def_cfa_register 7
 1373 0006 0346     		mov	r3, r0
 1374 0008 FB80     		strh	r3, [r7, #6]	@ movhi
  49:Module/LCD/lcd.c **** 	LCD_Writ_Bus(dat>>8);
 1375              		.loc 1 49 2
 1376 000a FB88     		ldrh	r3, [r7, #6]
 1377 000c 1B0A     		lsrs	r3, r3, #8
 1378 000e 9BB2     		uxth	r3, r3
 1379 0010 DBB2     		uxtb	r3, r3
 1380 0012 1846     		mov	r0, r3
 1381 0014 FFF7FEFF 		bl	LCD_Writ_Bus
  50:Module/LCD/lcd.c **** 	LCD_Writ_Bus(dat);
 1382              		.loc 1 50 2
 1383 0018 FB88     		ldrh	r3, [r7, #6]	@ movhi
 1384 001a DBB2     		uxtb	r3, r3
 1385 001c 1846     		mov	r0, r3
 1386 001e FFF7FEFF 		bl	LCD_Writ_Bus
  51:Module/LCD/lcd.c **** }
 1387              		.loc 1 51 1
 1388 0022 00BF     		nop
ARM GAS  C:\Users\AURORA~1\AppData\Local\Temp\ccDd7T3c.s 			page 79


 1389 0024 0837     		adds	r7, r7, #8
 1390              	.LCFI13:
 1391              		.cfi_def_cfa_offset 8
 1392 0026 BD46     		mov	sp, r7
 1393              	.LCFI14:
 1394              		.cfi_def_cfa_register 13
 1395              		@ sp needed
 1396 0028 80BD     		pop	{r7, pc}
 1397              		.cfi_endproc
 1398              	.LFE134:
 1400              		.section	.text.LCD_WR_REG,"ax",%progbits
 1401              		.align	1
 1402              		.global	LCD_WR_REG
 1403              		.syntax unified
 1404              		.thumb
 1405              		.thumb_func
 1407              	LCD_WR_REG:
 1408              	.LFB135:
  52:Module/LCD/lcd.c **** 
  53:Module/LCD/lcd.c **** 
  54:Module/LCD/lcd.c **** /******************************************************************************
  55:Module/LCD/lcd.c ****       LCD
  56:Module/LCD/lcd.c ****       dat 
  57:Module/LCD/lcd.c ****         
  58:Module/LCD/lcd.c **** ******************************************************************************/
  59:Module/LCD/lcd.c **** void LCD_WR_REG(uint8_t dat)
  60:Module/LCD/lcd.c **** {
 1409              		.loc 1 60 1
 1410              		.cfi_startproc
 1411              		@ args = 0, pretend = 0, frame = 8
 1412              		@ frame_needed = 1, uses_anonymous_args = 0
 1413 0000 80B5     		push	{r7, lr}
 1414              	.LCFI15:
 1415              		.cfi_def_cfa_offset 8
 1416              		.cfi_offset 7, -8
 1417              		.cfi_offset 14, -4
 1418 0002 82B0     		sub	sp, sp, #8
 1419              	.LCFI16:
 1420              		.cfi_def_cfa_offset 16
 1421 0004 00AF     		add	r7, sp, #0
 1422              	.LCFI17:
 1423              		.cfi_def_cfa_register 7
 1424 0006 0346     		mov	r3, r0
 1425 0008 FB71     		strb	r3, [r7, #7]
  61:Module/LCD/lcd.c **** 	LCD_DC_Clr();//
 1426              		.loc 1 61 2
 1427 000a 0022     		movs	r2, #0
 1428 000c 4FF40061 		mov	r1, #2048
 1429 0010 0848     		ldr	r0, .L7
 1430 0012 FFF7FEFF 		bl	HAL_GPIO_WritePin
  62:Module/LCD/lcd.c **** 	LCD_Writ_Bus(dat);
 1431              		.loc 1 62 2
 1432 0016 FB79     		ldrb	r3, [r7, #7]	@ zero_extendqisi2
 1433 0018 1846     		mov	r0, r3
 1434 001a FFF7FEFF 		bl	LCD_Writ_Bus
  63:Module/LCD/lcd.c **** 	LCD_DC_Set();//
 1435              		.loc 1 63 2
ARM GAS  C:\Users\AURORA~1\AppData\Local\Temp\ccDd7T3c.s 			page 80


 1436 001e 0122     		movs	r2, #1
 1437 0020 4FF40061 		mov	r1, #2048
 1438 0024 0348     		ldr	r0, .L7
 1439 0026 FFF7FEFF 		bl	HAL_GPIO_WritePin
  64:Module/LCD/lcd.c **** }
 1440              		.loc 1 64 1
 1441 002a 00BF     		nop
 1442 002c 0837     		adds	r7, r7, #8
 1443              	.LCFI18:
 1444              		.cfi_def_cfa_offset 8
 1445 002e BD46     		mov	sp, r7
 1446              	.LCFI19:
 1447              		.cfi_def_cfa_register 13
 1448              		@ sp needed
 1449 0030 80BD     		pop	{r7, pc}
 1450              	.L8:
 1451 0032 00BF     		.align	2
 1452              	.L7:
 1453 0034 00080048 		.word	1207961600
 1454              		.cfi_endproc
 1455              	.LFE135:
 1457              		.section	.text.LCD_Address_Set,"ax",%progbits
 1458              		.align	1
 1459              		.global	LCD_Address_Set
 1460              		.syntax unified
 1461              		.thumb
 1462              		.thumb_func
 1464              	LCD_Address_Set:
 1465              	.LFB136:
  65:Module/LCD/lcd.c **** 
  66:Module/LCD/lcd.c **** 
  67:Module/LCD/lcd.c **** /******************************************************************************
  68:Module/LCD/lcd.c ****       
  69:Module/LCD/lcd.c ****       x1,x2 
  70:Module/LCD/lcd.c ****                 y1,y2 
  71:Module/LCD/lcd.c ****         
  72:Module/LCD/lcd.c **** ******************************************************************************/
  73:Module/LCD/lcd.c **** void LCD_Address_Set(uint16_t x1,uint16_t y1,uint16_t x2,uint16_t y2)
  74:Module/LCD/lcd.c **** {
 1466              		.loc 1 74 1
 1467              		.cfi_startproc
 1468              		@ args = 0, pretend = 0, frame = 8
 1469              		@ frame_needed = 1, uses_anonymous_args = 0
 1470 0000 90B5     		push	{r4, r7, lr}
 1471              	.LCFI20:
 1472              		.cfi_def_cfa_offset 12
 1473              		.cfi_offset 4, -12
 1474              		.cfi_offset 7, -8
 1475              		.cfi_offset 14, -4
 1476 0002 83B0     		sub	sp, sp, #12
 1477              	.LCFI21:
 1478              		.cfi_def_cfa_offset 24
 1479 0004 00AF     		add	r7, sp, #0
 1480              	.LCFI22:
 1481              		.cfi_def_cfa_register 7
 1482 0006 0446     		mov	r4, r0
 1483 0008 0846     		mov	r0, r1
ARM GAS  C:\Users\AURORA~1\AppData\Local\Temp\ccDd7T3c.s 			page 81


 1484 000a 1146     		mov	r1, r2
 1485 000c 1A46     		mov	r2, r3
 1486 000e 2346     		mov	r3, r4	@ movhi
 1487 0010 FB80     		strh	r3, [r7, #6]	@ movhi
 1488 0012 0346     		mov	r3, r0	@ movhi
 1489 0014 BB80     		strh	r3, [r7, #4]	@ movhi
 1490 0016 0B46     		mov	r3, r1	@ movhi
 1491 0018 7B80     		strh	r3, [r7, #2]	@ movhi
 1492 001a 1346     		mov	r3, r2	@ movhi
 1493 001c 3B80     		strh	r3, [r7]	@ movhi
  75:Module/LCD/lcd.c **** 	if(USE_HORIZONTAL==0)
  76:Module/LCD/lcd.c **** 	{
  77:Module/LCD/lcd.c **** 		LCD_WR_REG(0x2a);//
  78:Module/LCD/lcd.c **** 		LCD_WR_DATA(x1+52);
  79:Module/LCD/lcd.c **** 		LCD_WR_DATA(x2+52);
  80:Module/LCD/lcd.c **** 		LCD_WR_REG(0x2b);//
  81:Module/LCD/lcd.c **** 		LCD_WR_DATA(y1+40);
  82:Module/LCD/lcd.c **** 		LCD_WR_DATA(y2+40);
  83:Module/LCD/lcd.c **** 		LCD_WR_REG(0x2c);//
  84:Module/LCD/lcd.c **** 	}
  85:Module/LCD/lcd.c **** 	else if(USE_HORIZONTAL==1)
  86:Module/LCD/lcd.c **** 	{
  87:Module/LCD/lcd.c **** 		LCD_WR_REG(0x2a);//
  88:Module/LCD/lcd.c **** 		LCD_WR_DATA(x1+53);
  89:Module/LCD/lcd.c **** 		LCD_WR_DATA(x2+53);
  90:Module/LCD/lcd.c **** 		LCD_WR_REG(0x2b);//
  91:Module/LCD/lcd.c **** 		LCD_WR_DATA(y1+40);
  92:Module/LCD/lcd.c **** 		LCD_WR_DATA(y2+40);
  93:Module/LCD/lcd.c **** 		LCD_WR_REG(0x2c);//
  94:Module/LCD/lcd.c **** 	}
  95:Module/LCD/lcd.c **** 	else if(USE_HORIZONTAL==2)
  96:Module/LCD/lcd.c **** 	{
  97:Module/LCD/lcd.c **** 		LCD_WR_REG(0x2a);//
  98:Module/LCD/lcd.c **** 		LCD_WR_DATA(x1+40);
  99:Module/LCD/lcd.c **** 		LCD_WR_DATA(x2+40);
 100:Module/LCD/lcd.c **** 		LCD_WR_REG(0x2b);//
 101:Module/LCD/lcd.c **** 		LCD_WR_DATA(y1+53);
 102:Module/LCD/lcd.c **** 		LCD_WR_DATA(y2+53);
 103:Module/LCD/lcd.c **** 		LCD_WR_REG(0x2c);//
 104:Module/LCD/lcd.c **** 	}
 105:Module/LCD/lcd.c **** 	else
 106:Module/LCD/lcd.c **** 	{
 107:Module/LCD/lcd.c **** 		LCD_WR_REG(0x2a);//
 1494              		.loc 1 107 3
 1495 001e 2A20     		movs	r0, #42
 1496 0020 FFF7FEFF 		bl	LCD_WR_REG
 108:Module/LCD/lcd.c **** 		LCD_WR_DATA(x1+40);
 1497              		.loc 1 108 3
 1498 0024 FB88     		ldrh	r3, [r7, #6]	@ movhi
 1499 0026 2833     		adds	r3, r3, #40
 1500 0028 9BB2     		uxth	r3, r3
 1501 002a 1846     		mov	r0, r3
 1502 002c FFF7FEFF 		bl	LCD_WR_DATA
 109:Module/LCD/lcd.c **** 		LCD_WR_DATA(x2+40);
 1503              		.loc 1 109 3
 1504 0030 7B88     		ldrh	r3, [r7, #2]	@ movhi
 1505 0032 2833     		adds	r3, r3, #40
ARM GAS  C:\Users\AURORA~1\AppData\Local\Temp\ccDd7T3c.s 			page 82


 1506 0034 9BB2     		uxth	r3, r3
 1507 0036 1846     		mov	r0, r3
 1508 0038 FFF7FEFF 		bl	LCD_WR_DATA
 110:Module/LCD/lcd.c **** 		LCD_WR_REG(0x2b);//
 1509              		.loc 1 110 3
 1510 003c 2B20     		movs	r0, #43
 1511 003e FFF7FEFF 		bl	LCD_WR_REG
 111:Module/LCD/lcd.c **** 		LCD_WR_DATA(y1+52);
 1512              		.loc 1 111 3
 1513 0042 BB88     		ldrh	r3, [r7, #4]	@ movhi
 1514 0044 3433     		adds	r3, r3, #52
 1515 0046 9BB2     		uxth	r3, r3
 1516 0048 1846     		mov	r0, r3
 1517 004a FFF7FEFF 		bl	LCD_WR_DATA
 112:Module/LCD/lcd.c **** 		LCD_WR_DATA(y2+52);
 1518              		.loc 1 112 3
 1519 004e 3B88     		ldrh	r3, [r7]	@ movhi
 1520 0050 3433     		adds	r3, r3, #52
 1521 0052 9BB2     		uxth	r3, r3
 1522 0054 1846     		mov	r0, r3
 1523 0056 FFF7FEFF 		bl	LCD_WR_DATA
 113:Module/LCD/lcd.c **** 		LCD_WR_REG(0x2c);//
 1524              		.loc 1 113 3
 1525 005a 2C20     		movs	r0, #44
 1526 005c FFF7FEFF 		bl	LCD_WR_REG
 114:Module/LCD/lcd.c **** 	}
 115:Module/LCD/lcd.c **** }
 1527              		.loc 1 115 1
 1528 0060 00BF     		nop
 1529 0062 0C37     		adds	r7, r7, #12
 1530              	.LCFI23:
 1531              		.cfi_def_cfa_offset 12
 1532 0064 BD46     		mov	sp, r7
 1533              	.LCFI24:
 1534              		.cfi_def_cfa_register 13
 1535              		@ sp needed
 1536 0066 90BD     		pop	{r4, r7, pc}
 1537              		.cfi_endproc
 1538              	.LFE136:
 1540              		.section	.text.LCD_Fill,"ax",%progbits
 1541              		.align	1
 1542              		.global	LCD_Fill
 1543              		.syntax unified
 1544              		.thumb
 1545              		.thumb_func
 1547              	LCD_Fill:
 1548              	.LFB137:
 116:Module/LCD/lcd.c **** 
 117:Module/LCD/lcd.c **** 
 118:Module/LCD/lcd.c **** 
 119:Module/LCD/lcd.c **** /******************************************************************************
 120:Module/LCD/lcd.c ****       
 121:Module/LCD/lcd.c ****       xsta,ysta   
 122:Module/LCD/lcd.c ****                 xend,yend   
 123:Module/LCD/lcd.c **** 								color       
 124:Module/LCD/lcd.c ****         
 125:Module/LCD/lcd.c **** ******************************************************************************/
ARM GAS  C:\Users\AURORA~1\AppData\Local\Temp\ccDd7T3c.s 			page 83


 126:Module/LCD/lcd.c **** void LCD_Fill(uint16_t xsta,uint16_t ysta,uint16_t xend,uint16_t yend,uint16_t color)
 127:Module/LCD/lcd.c **** {          
 1549              		.loc 1 127 1
 1550              		.cfi_startproc
 1551              		@ args = 4, pretend = 0, frame = 16
 1552              		@ frame_needed = 1, uses_anonymous_args = 0
 1553 0000 90B5     		push	{r4, r7, lr}
 1554              	.LCFI25:
 1555              		.cfi_def_cfa_offset 12
 1556              		.cfi_offset 4, -12
 1557              		.cfi_offset 7, -8
 1558              		.cfi_offset 14, -4
 1559 0002 85B0     		sub	sp, sp, #20
 1560              	.LCFI26:
 1561              		.cfi_def_cfa_offset 32
 1562 0004 00AF     		add	r7, sp, #0
 1563              	.LCFI27:
 1564              		.cfi_def_cfa_register 7
 1565 0006 0446     		mov	r4, r0
 1566 0008 0846     		mov	r0, r1
 1567 000a 1146     		mov	r1, r2
 1568 000c 1A46     		mov	r2, r3
 1569 000e 2346     		mov	r3, r4	@ movhi
 1570 0010 FB80     		strh	r3, [r7, #6]	@ movhi
 1571 0012 0346     		mov	r3, r0	@ movhi
 1572 0014 BB80     		strh	r3, [r7, #4]	@ movhi
 1573 0016 0B46     		mov	r3, r1	@ movhi
 1574 0018 7B80     		strh	r3, [r7, #2]	@ movhi
 1575 001a 1346     		mov	r3, r2	@ movhi
 1576 001c 3B80     		strh	r3, [r7]	@ movhi
 128:Module/LCD/lcd.c **** 	uint16_t i,j; 
 129:Module/LCD/lcd.c **** 	LCD_Address_Set(xsta,ysta,xend-1,yend-1);//
 1577              		.loc 1 129 2
 1578 001e 7B88     		ldrh	r3, [r7, #2]	@ movhi
 1579 0020 013B     		subs	r3, r3, #1
 1580 0022 9AB2     		uxth	r2, r3
 1581 0024 3B88     		ldrh	r3, [r7]	@ movhi
 1582 0026 013B     		subs	r3, r3, #1
 1583 0028 9BB2     		uxth	r3, r3
 1584 002a B988     		ldrh	r1, [r7, #4]
 1585 002c F888     		ldrh	r0, [r7, #6]
 1586 002e FFF7FEFF 		bl	LCD_Address_Set
 130:Module/LCD/lcd.c **** 	for(i=ysta;i<yend;i++)
 1587              		.loc 1 130 7
 1588 0032 BB88     		ldrh	r3, [r7, #4]	@ movhi
 1589 0034 FB81     		strh	r3, [r7, #14]	@ movhi
 1590              		.loc 1 130 2
 1591 0036 10E0     		b	.L11
 1592              	.L14:
 131:Module/LCD/lcd.c **** 	{													   	 	
 132:Module/LCD/lcd.c **** 		for(j=xsta;j<xend;j++)
 1593              		.loc 1 132 8
 1594 0038 FB88     		ldrh	r3, [r7, #6]	@ movhi
 1595 003a BB81     		strh	r3, [r7, #12]	@ movhi
 1596              		.loc 1 132 3
 1597 003c 06E0     		b	.L12
 1598              	.L13:
ARM GAS  C:\Users\AURORA~1\AppData\Local\Temp\ccDd7T3c.s 			page 84


 133:Module/LCD/lcd.c **** 		{
 134:Module/LCD/lcd.c **** 			LCD_WR_DATA(color);
 1599              		.loc 1 134 4
 1600 003e 3B8C     		ldrh	r3, [r7, #32]
 1601 0040 1846     		mov	r0, r3
 1602 0042 FFF7FEFF 		bl	LCD_WR_DATA
 132:Module/LCD/lcd.c **** 		{
 1603              		.loc 1 132 22 discriminator 3
 1604 0046 BB89     		ldrh	r3, [r7, #12]
 1605 0048 0133     		adds	r3, r3, #1
 1606 004a BB81     		strh	r3, [r7, #12]	@ movhi
 1607              	.L12:
 132:Module/LCD/lcd.c **** 		{
 1608              		.loc 1 132 15 discriminator 1
 1609 004c BA89     		ldrh	r2, [r7, #12]
 1610 004e 7B88     		ldrh	r3, [r7, #2]
 1611 0050 9A42     		cmp	r2, r3
 1612 0052 F4D3     		bcc	.L13
 130:Module/LCD/lcd.c **** 	{													   	 	
 1613              		.loc 1 130 21 discriminator 2
 1614 0054 FB89     		ldrh	r3, [r7, #14]
 1615 0056 0133     		adds	r3, r3, #1
 1616 0058 FB81     		strh	r3, [r7, #14]	@ movhi
 1617              	.L11:
 130:Module/LCD/lcd.c **** 	{													   	 	
 1618              		.loc 1 130 14 discriminator 1
 1619 005a FA89     		ldrh	r2, [r7, #14]
 1620 005c 3B88     		ldrh	r3, [r7]
 1621 005e 9A42     		cmp	r2, r3
 1622 0060 EAD3     		bcc	.L14
 135:Module/LCD/lcd.c **** 		}
 136:Module/LCD/lcd.c **** 	} 					  	    
 137:Module/LCD/lcd.c **** }
 1623              		.loc 1 137 1
 1624 0062 00BF     		nop
 1625 0064 00BF     		nop
 1626 0066 1437     		adds	r7, r7, #20
 1627              	.LCFI28:
 1628              		.cfi_def_cfa_offset 12
 1629 0068 BD46     		mov	sp, r7
 1630              	.LCFI29:
 1631              		.cfi_def_cfa_register 13
 1632              		@ sp needed
 1633 006a 90BD     		pop	{r4, r7, pc}
 1634              		.cfi_endproc
 1635              	.LFE137:
 1637              		.section	.text.LCD_DrawPoint,"ax",%progbits
 1638              		.align	1
 1639              		.global	LCD_DrawPoint
 1640              		.syntax unified
 1641              		.thumb
 1642              		.thumb_func
 1644              	LCD_DrawPoint:
 1645              	.LFB138:
 138:Module/LCD/lcd.c **** 
 139:Module/LCD/lcd.c **** /******************************************************************************
 140:Module/LCD/lcd.c ****       
ARM GAS  C:\Users\AURORA~1\AppData\Local\Temp\ccDd7T3c.s 			page 85


 141:Module/LCD/lcd.c ****       x,y 
 142:Module/LCD/lcd.c ****                 color 
 143:Module/LCD/lcd.c ****         
 144:Module/LCD/lcd.c **** ******************************************************************************/
 145:Module/LCD/lcd.c **** void LCD_DrawPoint(uint16_t x,uint16_t y,uint16_t color)
 146:Module/LCD/lcd.c **** {
 1646              		.loc 1 146 1
 1647              		.cfi_startproc
 1648              		@ args = 0, pretend = 0, frame = 8
 1649              		@ frame_needed = 1, uses_anonymous_args = 0
 1650 0000 80B5     		push	{r7, lr}
 1651              	.LCFI30:
 1652              		.cfi_def_cfa_offset 8
 1653              		.cfi_offset 7, -8
 1654              		.cfi_offset 14, -4
 1655 0002 82B0     		sub	sp, sp, #8
 1656              	.LCFI31:
 1657              		.cfi_def_cfa_offset 16
 1658 0004 00AF     		add	r7, sp, #0
 1659              	.LCFI32:
 1660              		.cfi_def_cfa_register 7
 1661 0006 0346     		mov	r3, r0
 1662 0008 FB80     		strh	r3, [r7, #6]	@ movhi
 1663 000a 0B46     		mov	r3, r1	@ movhi
 1664 000c BB80     		strh	r3, [r7, #4]	@ movhi
 1665 000e 1346     		mov	r3, r2	@ movhi
 1666 0010 7B80     		strh	r3, [r7, #2]	@ movhi
 147:Module/LCD/lcd.c **** 	LCD_Address_Set(x,y,x,y);// 
 1667              		.loc 1 147 2
 1668 0012 BB88     		ldrh	r3, [r7, #4]
 1669 0014 FA88     		ldrh	r2, [r7, #6]
 1670 0016 B988     		ldrh	r1, [r7, #4]
 1671 0018 F888     		ldrh	r0, [r7, #6]
 1672 001a FFF7FEFF 		bl	LCD_Address_Set
 148:Module/LCD/lcd.c **** 	LCD_WR_DATA(color);
 1673              		.loc 1 148 2
 1674 001e 7B88     		ldrh	r3, [r7, #2]
 1675 0020 1846     		mov	r0, r3
 1676 0022 FFF7FEFF 		bl	LCD_WR_DATA
 149:Module/LCD/lcd.c **** } 
 1677              		.loc 1 149 1
 1678 0026 00BF     		nop
 1679 0028 0837     		adds	r7, r7, #8
 1680              	.LCFI33:
 1681              		.cfi_def_cfa_offset 8
 1682 002a BD46     		mov	sp, r7
 1683              	.LCFI34:
 1684              		.cfi_def_cfa_register 13
 1685              		@ sp needed
 1686 002c 80BD     		pop	{r7, pc}
 1687              		.cfi_endproc
 1688              	.LFE138:
 1690              		.section	.text.LCD_DrawLine,"ax",%progbits
 1691              		.align	1
 1692              		.global	LCD_DrawLine
 1693              		.syntax unified
 1694              		.thumb
ARM GAS  C:\Users\AURORA~1\AppData\Local\Temp\ccDd7T3c.s 			page 86


 1695              		.thumb_func
 1697              	LCD_DrawLine:
 1698              	.LFB139:
 150:Module/LCD/lcd.c **** 
 151:Module/LCD/lcd.c **** 
 152:Module/LCD/lcd.c **** /******************************************************************************
 153:Module/LCD/lcd.c ****       
 154:Module/LCD/lcd.c ****       x1,y1   
 155:Module/LCD/lcd.c ****                 x2,y2   
 156:Module/LCD/lcd.c ****                 color   
 157:Module/LCD/lcd.c ****         
 158:Module/LCD/lcd.c **** ******************************************************************************/
 159:Module/LCD/lcd.c **** void LCD_DrawLine(uint16_t x1,uint16_t y1,uint16_t x2,uint16_t y2,uint16_t color)
 160:Module/LCD/lcd.c **** {
 1699              		.loc 1 160 1
 1700              		.cfi_startproc
 1701              		@ args = 4, pretend = 0, frame = 48
 1702              		@ frame_needed = 1, uses_anonymous_args = 0
 1703 0000 90B5     		push	{r4, r7, lr}
 1704              	.LCFI35:
 1705              		.cfi_def_cfa_offset 12
 1706              		.cfi_offset 4, -12
 1707              		.cfi_offset 7, -8
 1708              		.cfi_offset 14, -4
 1709 0002 8DB0     		sub	sp, sp, #52
 1710              	.LCFI36:
 1711              		.cfi_def_cfa_offset 64
 1712 0004 00AF     		add	r7, sp, #0
 1713              	.LCFI37:
 1714              		.cfi_def_cfa_register 7
 1715 0006 0446     		mov	r4, r0
 1716 0008 0846     		mov	r0, r1
 1717 000a 1146     		mov	r1, r2
 1718 000c 1A46     		mov	r2, r3
 1719 000e 2346     		mov	r3, r4	@ movhi
 1720 0010 FB80     		strh	r3, [r7, #6]	@ movhi
 1721 0012 0346     		mov	r3, r0	@ movhi
 1722 0014 BB80     		strh	r3, [r7, #4]	@ movhi
 1723 0016 0B46     		mov	r3, r1	@ movhi
 1724 0018 7B80     		strh	r3, [r7, #2]	@ movhi
 1725 001a 1346     		mov	r3, r2	@ movhi
 1726 001c 3B80     		strh	r3, [r7]	@ movhi
 161:Module/LCD/lcd.c **** 	uint16_t t; 
 162:Module/LCD/lcd.c **** 	int xerr=0,yerr=0,delta_x,delta_y,distance;
 1727              		.loc 1 162 6
 1728 001e 0023     		movs	r3, #0
 1729 0020 BB62     		str	r3, [r7, #40]
 1730              		.loc 1 162 13
 1731 0022 0023     		movs	r3, #0
 1732 0024 7B62     		str	r3, [r7, #36]
 163:Module/LCD/lcd.c **** 	int incx,incy,uRow,uCol;
 164:Module/LCD/lcd.c **** 	delta_x=x2-x1; // 
 1733              		.loc 1 164 12
 1734 0026 7A88     		ldrh	r2, [r7, #2]
 1735 0028 FB88     		ldrh	r3, [r7, #6]
 1736              		.loc 1 164 9
 1737 002a D31A     		subs	r3, r2, r3
ARM GAS  C:\Users\AURORA~1\AppData\Local\Temp\ccDd7T3c.s 			page 87


 1738 002c 3B62     		str	r3, [r7, #32]
 165:Module/LCD/lcd.c **** 	delta_y=y2-y1;
 1739              		.loc 1 165 12
 1740 002e 3A88     		ldrh	r2, [r7]
 1741 0030 BB88     		ldrh	r3, [r7, #4]
 1742              		.loc 1 165 9
 1743 0032 D31A     		subs	r3, r2, r3
 1744 0034 FB61     		str	r3, [r7, #28]
 166:Module/LCD/lcd.c **** 	uRow=x1;//
 1745              		.loc 1 166 6
 1746 0036 FB88     		ldrh	r3, [r7, #6]
 1747 0038 FB60     		str	r3, [r7, #12]
 167:Module/LCD/lcd.c **** 	uCol=y1;
 1748              		.loc 1 167 6
 1749 003a BB88     		ldrh	r3, [r7, #4]
 1750 003c BB60     		str	r3, [r7, #8]
 168:Module/LCD/lcd.c **** 	if(delta_x>0)incx=1; // 
 1751              		.loc 1 168 4
 1752 003e 3B6A     		ldr	r3, [r7, #32]
 1753 0040 002B     		cmp	r3, #0
 1754 0042 02DD     		ble	.L17
 1755              		.loc 1 168 19 discriminator 1
 1756 0044 0123     		movs	r3, #1
 1757 0046 7B61     		str	r3, [r7, #20]
 1758 0048 0BE0     		b	.L18
 1759              	.L17:
 169:Module/LCD/lcd.c **** 	else if (delta_x==0)incx=0;// 
 1760              		.loc 1 169 10
 1761 004a 3B6A     		ldr	r3, [r7, #32]
 1762 004c 002B     		cmp	r3, #0
 1763 004e 02D1     		bne	.L19
 1764              		.loc 1 169 26 discriminator 1
 1765 0050 0023     		movs	r3, #0
 1766 0052 7B61     		str	r3, [r7, #20]
 1767 0054 05E0     		b	.L18
 1768              	.L19:
 170:Module/LCD/lcd.c **** 	else {incx=-1;delta_x=-delta_x;}
 1769              		.loc 1 170 12
 1770 0056 4FF0FF33 		mov	r3, #-1
 1771 005a 7B61     		str	r3, [r7, #20]
 1772              		.loc 1 170 23
 1773 005c 3B6A     		ldr	r3, [r7, #32]
 1774 005e 5B42     		rsbs	r3, r3, #0
 1775 0060 3B62     		str	r3, [r7, #32]
 1776              	.L18:
 171:Module/LCD/lcd.c **** 	if(delta_y>0)incy=1;
 1777              		.loc 1 171 4
 1778 0062 FB69     		ldr	r3, [r7, #28]
 1779 0064 002B     		cmp	r3, #0
 1780 0066 02DD     		ble	.L20
 1781              		.loc 1 171 19 discriminator 1
 1782 0068 0123     		movs	r3, #1
 1783 006a 3B61     		str	r3, [r7, #16]
 1784 006c 0BE0     		b	.L21
 1785              	.L20:
 172:Module/LCD/lcd.c **** 	else if (delta_y==0)incy=0;// 
 1786              		.loc 1 172 10
ARM GAS  C:\Users\AURORA~1\AppData\Local\Temp\ccDd7T3c.s 			page 88


 1787 006e FB69     		ldr	r3, [r7, #28]
 1788 0070 002B     		cmp	r3, #0
 1789 0072 02D1     		bne	.L22
 1790              		.loc 1 172 26 discriminator 1
 1791 0074 0023     		movs	r3, #0
 1792 0076 3B61     		str	r3, [r7, #16]
 1793 0078 05E0     		b	.L21
 1794              	.L22:
 173:Module/LCD/lcd.c **** 	else {incy=-1;delta_y=-delta_y;}
 1795              		.loc 1 173 12
 1796 007a 4FF0FF33 		mov	r3, #-1
 1797 007e 3B61     		str	r3, [r7, #16]
 1798              		.loc 1 173 23
 1799 0080 FB69     		ldr	r3, [r7, #28]
 1800 0082 5B42     		rsbs	r3, r3, #0
 1801 0084 FB61     		str	r3, [r7, #28]
 1802              	.L21:
 174:Module/LCD/lcd.c **** 	if(delta_x>delta_y)distance=delta_x; // 
 1803              		.loc 1 174 4
 1804 0086 3A6A     		ldr	r2, [r7, #32]
 1805 0088 FB69     		ldr	r3, [r7, #28]
 1806 008a 9A42     		cmp	r2, r3
 1807 008c 02DD     		ble	.L23
 1808              		.loc 1 174 29 discriminator 1
 1809 008e 3B6A     		ldr	r3, [r7, #32]
 1810 0090 BB61     		str	r3, [r7, #24]
 1811 0092 01E0     		b	.L24
 1812              	.L23:
 175:Module/LCD/lcd.c **** 	else distance=delta_y;
 1813              		.loc 1 175 15
 1814 0094 FB69     		ldr	r3, [r7, #28]
 1815 0096 BB61     		str	r3, [r7, #24]
 1816              	.L24:
 176:Module/LCD/lcd.c **** 	for(t=0;t<distance+1;t++)
 1817              		.loc 1 176 7
 1818 0098 0023     		movs	r3, #0
 1819 009a FB85     		strh	r3, [r7, #46]	@ movhi
 1820              		.loc 1 176 2
 1821 009c 2BE0     		b	.L25
 1822              	.L28:
 177:Module/LCD/lcd.c **** 	{
 178:Module/LCD/lcd.c **** 		LCD_DrawPoint(uRow,uCol,color);//
 1823              		.loc 1 178 3
 1824 009e FB68     		ldr	r3, [r7, #12]
 1825 00a0 9BB2     		uxth	r3, r3
 1826 00a2 BA68     		ldr	r2, [r7, #8]
 1827 00a4 91B2     		uxth	r1, r2
 1828 00a6 B7F84020 		ldrh	r2, [r7, #64]
 1829 00aa 1846     		mov	r0, r3
 1830 00ac FFF7FEFF 		bl	LCD_DrawPoint
 179:Module/LCD/lcd.c **** 		xerr+=delta_x;
 1831              		.loc 1 179 7
 1832 00b0 BA6A     		ldr	r2, [r7, #40]
 1833 00b2 3B6A     		ldr	r3, [r7, #32]
 1834 00b4 1344     		add	r3, r3, r2
 1835 00b6 BB62     		str	r3, [r7, #40]
 180:Module/LCD/lcd.c **** 		yerr+=delta_y;
ARM GAS  C:\Users\AURORA~1\AppData\Local\Temp\ccDd7T3c.s 			page 89


 1836              		.loc 1 180 7
 1837 00b8 7A6A     		ldr	r2, [r7, #36]
 1838 00ba FB69     		ldr	r3, [r7, #28]
 1839 00bc 1344     		add	r3, r3, r2
 1840 00be 7B62     		str	r3, [r7, #36]
 181:Module/LCD/lcd.c **** 		if(xerr>distance)
 1841              		.loc 1 181 5
 1842 00c0 BA6A     		ldr	r2, [r7, #40]
 1843 00c2 BB69     		ldr	r3, [r7, #24]
 1844 00c4 9A42     		cmp	r2, r3
 1845 00c6 07DD     		ble	.L26
 182:Module/LCD/lcd.c **** 		{
 183:Module/LCD/lcd.c **** 			xerr-=distance;
 1846              		.loc 1 183 8
 1847 00c8 BA6A     		ldr	r2, [r7, #40]
 1848 00ca BB69     		ldr	r3, [r7, #24]
 1849 00cc D31A     		subs	r3, r2, r3
 1850 00ce BB62     		str	r3, [r7, #40]
 184:Module/LCD/lcd.c **** 			uRow+=incx;
 1851              		.loc 1 184 8
 1852 00d0 FA68     		ldr	r2, [r7, #12]
 1853 00d2 7B69     		ldr	r3, [r7, #20]
 1854 00d4 1344     		add	r3, r3, r2
 1855 00d6 FB60     		str	r3, [r7, #12]
 1856              	.L26:
 185:Module/LCD/lcd.c **** 		}
 186:Module/LCD/lcd.c **** 		if(yerr>distance)
 1857              		.loc 1 186 5
 1858 00d8 7A6A     		ldr	r2, [r7, #36]
 1859 00da BB69     		ldr	r3, [r7, #24]
 1860 00dc 9A42     		cmp	r2, r3
 1861 00de 07DD     		ble	.L27
 187:Module/LCD/lcd.c **** 		{
 188:Module/LCD/lcd.c **** 			yerr-=distance;
 1862              		.loc 1 188 8
 1863 00e0 7A6A     		ldr	r2, [r7, #36]
 1864 00e2 BB69     		ldr	r3, [r7, #24]
 1865 00e4 D31A     		subs	r3, r2, r3
 1866 00e6 7B62     		str	r3, [r7, #36]
 189:Module/LCD/lcd.c **** 			uCol+=incy;
 1867              		.loc 1 189 8
 1868 00e8 BA68     		ldr	r2, [r7, #8]
 1869 00ea 3B69     		ldr	r3, [r7, #16]
 1870 00ec 1344     		add	r3, r3, r2
 1871 00ee BB60     		str	r3, [r7, #8]
 1872              	.L27:
 176:Module/LCD/lcd.c **** 	{
 1873              		.loc 1 176 24 discriminator 2
 1874 00f0 FB8D     		ldrh	r3, [r7, #46]
 1875 00f2 0133     		adds	r3, r3, #1
 1876 00f4 FB85     		strh	r3, [r7, #46]	@ movhi
 1877              	.L25:
 176:Module/LCD/lcd.c **** 	{
 1878              		.loc 1 176 11 discriminator 1
 1879 00f6 FB8D     		ldrh	r3, [r7, #46]
 1880 00f8 BA69     		ldr	r2, [r7, #24]
 1881 00fa 9A42     		cmp	r2, r3
ARM GAS  C:\Users\AURORA~1\AppData\Local\Temp\ccDd7T3c.s 			page 90


 1882 00fc CFDA     		bge	.L28
 190:Module/LCD/lcd.c **** 		}
 191:Module/LCD/lcd.c **** 	}
 192:Module/LCD/lcd.c **** }
 1883              		.loc 1 192 1
 1884 00fe 00BF     		nop
 1885 0100 00BF     		nop
 1886 0102 3437     		adds	r7, r7, #52
 1887              	.LCFI38:
 1888              		.cfi_def_cfa_offset 12
 1889 0104 BD46     		mov	sp, r7
 1890              	.LCFI39:
 1891              		.cfi_def_cfa_register 13
 1892              		@ sp needed
 1893 0106 90BD     		pop	{r4, r7, pc}
 1894              		.cfi_endproc
 1895              	.LFE139:
 1897              		.section	.text.LCD_DrawRectangle,"ax",%progbits
 1898              		.align	1
 1899              		.global	LCD_DrawRectangle
 1900              		.syntax unified
 1901              		.thumb
 1902              		.thumb_func
 1904              	LCD_DrawRectangle:
 1905              	.LFB140:
 193:Module/LCD/lcd.c **** 
 194:Module/LCD/lcd.c **** 
 195:Module/LCD/lcd.c **** /******************************************************************************
 196:Module/LCD/lcd.c ****       
 197:Module/LCD/lcd.c ****       x1,y1   
 198:Module/LCD/lcd.c ****                 x2,y2   
 199:Module/LCD/lcd.c ****                 color   
 200:Module/LCD/lcd.c ****         
 201:Module/LCD/lcd.c **** ******************************************************************************/
 202:Module/LCD/lcd.c **** void LCD_DrawRectangle(uint16_t x1, uint16_t y1, uint16_t x2, uint16_t y2,uint16_t color)
 203:Module/LCD/lcd.c **** {
 1906              		.loc 1 203 1
 1907              		.cfi_startproc
 1908              		@ args = 4, pretend = 0, frame = 8
 1909              		@ frame_needed = 1, uses_anonymous_args = 0
 1910 0000 90B5     		push	{r4, r7, lr}
 1911              	.LCFI40:
 1912              		.cfi_def_cfa_offset 12
 1913              		.cfi_offset 4, -12
 1914              		.cfi_offset 7, -8
 1915              		.cfi_offset 14, -4
 1916 0002 85B0     		sub	sp, sp, #20
 1917              	.LCFI41:
 1918              		.cfi_def_cfa_offset 32
 1919 0004 02AF     		add	r7, sp, #8
 1920              	.LCFI42:
 1921              		.cfi_def_cfa 7, 24
 1922 0006 0446     		mov	r4, r0
 1923 0008 0846     		mov	r0, r1
 1924 000a 1146     		mov	r1, r2
 1925 000c 1A46     		mov	r2, r3
 1926 000e 2346     		mov	r3, r4	@ movhi
ARM GAS  C:\Users\AURORA~1\AppData\Local\Temp\ccDd7T3c.s 			page 91


 1927 0010 FB80     		strh	r3, [r7, #6]	@ movhi
 1928 0012 0346     		mov	r3, r0	@ movhi
 1929 0014 BB80     		strh	r3, [r7, #4]	@ movhi
 1930 0016 0B46     		mov	r3, r1	@ movhi
 1931 0018 7B80     		strh	r3, [r7, #2]	@ movhi
 1932 001a 1346     		mov	r3, r2	@ movhi
 1933 001c 3B80     		strh	r3, [r7]	@ movhi
 204:Module/LCD/lcd.c **** 	LCD_DrawLine(x1,y1,x2,y1,color);
 1934              		.loc 1 204 2
 1935 001e BC88     		ldrh	r4, [r7, #4]
 1936 0020 7A88     		ldrh	r2, [r7, #2]
 1937 0022 B988     		ldrh	r1, [r7, #4]
 1938 0024 F888     		ldrh	r0, [r7, #6]
 1939 0026 3B8B     		ldrh	r3, [r7, #24]
 1940 0028 0093     		str	r3, [sp]
 1941 002a 2346     		mov	r3, r4
 1942 002c FFF7FEFF 		bl	LCD_DrawLine
 205:Module/LCD/lcd.c **** 	LCD_DrawLine(x1,y1,x1,y2,color);
 1943              		.loc 1 205 2
 1944 0030 3C88     		ldrh	r4, [r7]
 1945 0032 FA88     		ldrh	r2, [r7, #6]
 1946 0034 B988     		ldrh	r1, [r7, #4]
 1947 0036 F888     		ldrh	r0, [r7, #6]
 1948 0038 3B8B     		ldrh	r3, [r7, #24]
 1949 003a 0093     		str	r3, [sp]
 1950 003c 2346     		mov	r3, r4
 1951 003e FFF7FEFF 		bl	LCD_DrawLine
 206:Module/LCD/lcd.c **** 	LCD_DrawLine(x1,y2,x2,y2,color);
 1952              		.loc 1 206 2
 1953 0042 3C88     		ldrh	r4, [r7]
 1954 0044 7A88     		ldrh	r2, [r7, #2]
 1955 0046 3988     		ldrh	r1, [r7]
 1956 0048 F888     		ldrh	r0, [r7, #6]
 1957 004a 3B8B     		ldrh	r3, [r7, #24]
 1958 004c 0093     		str	r3, [sp]
 1959 004e 2346     		mov	r3, r4
 1960 0050 FFF7FEFF 		bl	LCD_DrawLine
 207:Module/LCD/lcd.c **** 	LCD_DrawLine(x2,y1,x2,y2,color);
 1961              		.loc 1 207 2
 1962 0054 3C88     		ldrh	r4, [r7]
 1963 0056 7A88     		ldrh	r2, [r7, #2]
 1964 0058 B988     		ldrh	r1, [r7, #4]
 1965 005a 7888     		ldrh	r0, [r7, #2]
 1966 005c 3B8B     		ldrh	r3, [r7, #24]
 1967 005e 0093     		str	r3, [sp]
 1968 0060 2346     		mov	r3, r4
 1969 0062 FFF7FEFF 		bl	LCD_DrawLine
 208:Module/LCD/lcd.c **** }
 1970              		.loc 1 208 1
 1971 0066 00BF     		nop
 1972 0068 0C37     		adds	r7, r7, #12
 1973              	.LCFI43:
 1974              		.cfi_def_cfa_offset 12
 1975 006a BD46     		mov	sp, r7
 1976              	.LCFI44:
 1977              		.cfi_def_cfa_register 13
 1978              		@ sp needed
ARM GAS  C:\Users\AURORA~1\AppData\Local\Temp\ccDd7T3c.s 			page 92


 1979 006c 90BD     		pop	{r4, r7, pc}
 1980              		.cfi_endproc
 1981              	.LFE140:
 1983              		.section	.text.Draw_Circle,"ax",%progbits
 1984              		.align	1
 1985              		.global	Draw_Circle
 1986              		.syntax unified
 1987              		.thumb
 1988              		.thumb_func
 1990              	Draw_Circle:
 1991              	.LFB141:
 209:Module/LCD/lcd.c **** 
 210:Module/LCD/lcd.c **** 
 211:Module/LCD/lcd.c **** /******************************************************************************
 212:Module/LCD/lcd.c ****       
 213:Module/LCD/lcd.c ****       x0,y0   
 214:Module/LCD/lcd.c ****                 r       
 215:Module/LCD/lcd.c ****                 color   
 216:Module/LCD/lcd.c ****         
 217:Module/LCD/lcd.c **** ******************************************************************************/
 218:Module/LCD/lcd.c **** void Draw_Circle(uint16_t x0,uint16_t y0,uint8_t r,uint16_t color)
 219:Module/LCD/lcd.c **** {
 1992              		.loc 1 219 1
 1993              		.cfi_startproc
 1994              		@ args = 0, pretend = 0, frame = 16
 1995              		@ frame_needed = 1, uses_anonymous_args = 0
 1996 0000 90B5     		push	{r4, r7, lr}
 1997              	.LCFI45:
 1998              		.cfi_def_cfa_offset 12
 1999              		.cfi_offset 4, -12
 2000              		.cfi_offset 7, -8
 2001              		.cfi_offset 14, -4
 2002 0002 85B0     		sub	sp, sp, #20
 2003              	.LCFI46:
 2004              		.cfi_def_cfa_offset 32
 2005 0004 00AF     		add	r7, sp, #0
 2006              	.LCFI47:
 2007              		.cfi_def_cfa_register 7
 2008 0006 0446     		mov	r4, r0
 2009 0008 0846     		mov	r0, r1
 2010 000a 1146     		mov	r1, r2
 2011 000c 1A46     		mov	r2, r3
 2012 000e 2346     		mov	r3, r4	@ movhi
 2013 0010 FB80     		strh	r3, [r7, #6]	@ movhi
 2014 0012 0346     		mov	r3, r0	@ movhi
 2015 0014 BB80     		strh	r3, [r7, #4]	@ movhi
 2016 0016 0B46     		mov	r3, r1
 2017 0018 FB70     		strb	r3, [r7, #3]
 2018 001a 1346     		mov	r3, r2	@ movhi
 2019 001c 3B80     		strh	r3, [r7]	@ movhi
 220:Module/LCD/lcd.c **** 	int a,b;
 221:Module/LCD/lcd.c **** 	a=0;b=r;	  
 2020              		.loc 1 221 3
 2021 001e 0023     		movs	r3, #0
 2022 0020 FB60     		str	r3, [r7, #12]
 2023              		.loc 1 221 7
 2024 0022 FB78     		ldrb	r3, [r7, #3]	@ zero_extendqisi2
ARM GAS  C:\Users\AURORA~1\AppData\Local\Temp\ccDd7T3c.s 			page 93


 2025 0024 BB60     		str	r3, [r7, #8]
 222:Module/LCD/lcd.c **** 	while(a<=b)
 2026              		.loc 1 222 7
 2027 0026 82E0     		b	.L31
 2028              	.L33:
 223:Module/LCD/lcd.c **** 	{
 224:Module/LCD/lcd.c **** 		LCD_DrawPoint(x0-b,y0-a,color);             //3           
 2029              		.loc 1 224 3
 2030 0028 BB68     		ldr	r3, [r7, #8]
 2031 002a 9BB2     		uxth	r3, r3
 2032 002c FA88     		ldrh	r2, [r7, #6]	@ movhi
 2033 002e D31A     		subs	r3, r2, r3
 2034 0030 98B2     		uxth	r0, r3
 2035 0032 FB68     		ldr	r3, [r7, #12]
 2036 0034 9BB2     		uxth	r3, r3
 2037 0036 BA88     		ldrh	r2, [r7, #4]	@ movhi
 2038 0038 D31A     		subs	r3, r2, r3
 2039 003a 9BB2     		uxth	r3, r3
 2040 003c 3A88     		ldrh	r2, [r7]
 2041 003e 1946     		mov	r1, r3
 2042 0040 FFF7FEFF 		bl	LCD_DrawPoint
 225:Module/LCD/lcd.c **** 		LCD_DrawPoint(x0+b,y0-a,color);             //0           
 2043              		.loc 1 225 3
 2044 0044 BB68     		ldr	r3, [r7, #8]
 2045 0046 9AB2     		uxth	r2, r3
 2046 0048 FB88     		ldrh	r3, [r7, #6]	@ movhi
 2047 004a 1344     		add	r3, r3, r2
 2048 004c 98B2     		uxth	r0, r3
 2049 004e FB68     		ldr	r3, [r7, #12]
 2050 0050 9BB2     		uxth	r3, r3
 2051 0052 BA88     		ldrh	r2, [r7, #4]	@ movhi
 2052 0054 D31A     		subs	r3, r2, r3
 2053 0056 9BB2     		uxth	r3, r3
 2054 0058 3A88     		ldrh	r2, [r7]
 2055 005a 1946     		mov	r1, r3
 2056 005c FFF7FEFF 		bl	LCD_DrawPoint
 226:Module/LCD/lcd.c **** 		LCD_DrawPoint(x0-a,y0+b,color);             //1                
 2057              		.loc 1 226 3
 2058 0060 FB68     		ldr	r3, [r7, #12]
 2059 0062 9BB2     		uxth	r3, r3
 2060 0064 FA88     		ldrh	r2, [r7, #6]	@ movhi
 2061 0066 D31A     		subs	r3, r2, r3
 2062 0068 98B2     		uxth	r0, r3
 2063 006a BB68     		ldr	r3, [r7, #8]
 2064 006c 9AB2     		uxth	r2, r3
 2065 006e BB88     		ldrh	r3, [r7, #4]	@ movhi
 2066 0070 1344     		add	r3, r3, r2
 2067 0072 9BB2     		uxth	r3, r3
 2068 0074 3A88     		ldrh	r2, [r7]
 2069 0076 1946     		mov	r1, r3
 2070 0078 FFF7FEFF 		bl	LCD_DrawPoint
 227:Module/LCD/lcd.c **** 		LCD_DrawPoint(x0-a,y0-b,color);             //2             
 2071              		.loc 1 227 3
 2072 007c FB68     		ldr	r3, [r7, #12]
 2073 007e 9BB2     		uxth	r3, r3
 2074 0080 FA88     		ldrh	r2, [r7, #6]	@ movhi
 2075 0082 D31A     		subs	r3, r2, r3
ARM GAS  C:\Users\AURORA~1\AppData\Local\Temp\ccDd7T3c.s 			page 94


 2076 0084 98B2     		uxth	r0, r3
 2077 0086 BB68     		ldr	r3, [r7, #8]
 2078 0088 9BB2     		uxth	r3, r3
 2079 008a BA88     		ldrh	r2, [r7, #4]	@ movhi
 2080 008c D31A     		subs	r3, r2, r3
 2081 008e 9BB2     		uxth	r3, r3
 2082 0090 3A88     		ldrh	r2, [r7]
 2083 0092 1946     		mov	r1, r3
 2084 0094 FFF7FEFF 		bl	LCD_DrawPoint
 228:Module/LCD/lcd.c **** 		LCD_DrawPoint(x0+b,y0+a,color);             //4               
 2085              		.loc 1 228 3
 2086 0098 BB68     		ldr	r3, [r7, #8]
 2087 009a 9AB2     		uxth	r2, r3
 2088 009c FB88     		ldrh	r3, [r7, #6]	@ movhi
 2089 009e 1344     		add	r3, r3, r2
 2090 00a0 98B2     		uxth	r0, r3
 2091 00a2 FB68     		ldr	r3, [r7, #12]
 2092 00a4 9AB2     		uxth	r2, r3
 2093 00a6 BB88     		ldrh	r3, [r7, #4]	@ movhi
 2094 00a8 1344     		add	r3, r3, r2
 2095 00aa 9BB2     		uxth	r3, r3
 2096 00ac 3A88     		ldrh	r2, [r7]
 2097 00ae 1946     		mov	r1, r3
 2098 00b0 FFF7FEFF 		bl	LCD_DrawPoint
 229:Module/LCD/lcd.c **** 		LCD_DrawPoint(x0+a,y0-b,color);             //5
 2099              		.loc 1 229 3
 2100 00b4 FB68     		ldr	r3, [r7, #12]
 2101 00b6 9AB2     		uxth	r2, r3
 2102 00b8 FB88     		ldrh	r3, [r7, #6]	@ movhi
 2103 00ba 1344     		add	r3, r3, r2
 2104 00bc 98B2     		uxth	r0, r3
 2105 00be BB68     		ldr	r3, [r7, #8]
 2106 00c0 9BB2     		uxth	r3, r3
 2107 00c2 BA88     		ldrh	r2, [r7, #4]	@ movhi
 2108 00c4 D31A     		subs	r3, r2, r3
 2109 00c6 9BB2     		uxth	r3, r3
 2110 00c8 3A88     		ldrh	r2, [r7]
 2111 00ca 1946     		mov	r1, r3
 2112 00cc FFF7FEFF 		bl	LCD_DrawPoint
 230:Module/LCD/lcd.c **** 		LCD_DrawPoint(x0+a,y0+b,color);             //6 
 2113              		.loc 1 230 3
 2114 00d0 FB68     		ldr	r3, [r7, #12]
 2115 00d2 9AB2     		uxth	r2, r3
 2116 00d4 FB88     		ldrh	r3, [r7, #6]	@ movhi
 2117 00d6 1344     		add	r3, r3, r2
 2118 00d8 98B2     		uxth	r0, r3
 2119 00da BB68     		ldr	r3, [r7, #8]
 2120 00dc 9AB2     		uxth	r2, r3
 2121 00de BB88     		ldrh	r3, [r7, #4]	@ movhi
 2122 00e0 1344     		add	r3, r3, r2
 2123 00e2 9BB2     		uxth	r3, r3
 2124 00e4 3A88     		ldrh	r2, [r7]
 2125 00e6 1946     		mov	r1, r3
 2126 00e8 FFF7FEFF 		bl	LCD_DrawPoint
 231:Module/LCD/lcd.c **** 		LCD_DrawPoint(x0-b,y0+a,color);             //7
 2127              		.loc 1 231 3
 2128 00ec BB68     		ldr	r3, [r7, #8]
ARM GAS  C:\Users\AURORA~1\AppData\Local\Temp\ccDd7T3c.s 			page 95


 2129 00ee 9BB2     		uxth	r3, r3
 2130 00f0 FA88     		ldrh	r2, [r7, #6]	@ movhi
 2131 00f2 D31A     		subs	r3, r2, r3
 2132 00f4 98B2     		uxth	r0, r3
 2133 00f6 FB68     		ldr	r3, [r7, #12]
 2134 00f8 9AB2     		uxth	r2, r3
 2135 00fa BB88     		ldrh	r3, [r7, #4]	@ movhi
 2136 00fc 1344     		add	r3, r3, r2
 2137 00fe 9BB2     		uxth	r3, r3
 2138 0100 3A88     		ldrh	r2, [r7]
 2139 0102 1946     		mov	r1, r3
 2140 0104 FFF7FEFF 		bl	LCD_DrawPoint
 232:Module/LCD/lcd.c **** 		a++;
 2141              		.loc 1 232 4
 2142 0108 FB68     		ldr	r3, [r7, #12]
 2143 010a 0133     		adds	r3, r3, #1
 2144 010c FB60     		str	r3, [r7, #12]
 233:Module/LCD/lcd.c **** 		if((a*a+b*b)>(r*r))//
 2145              		.loc 1 233 8
 2146 010e FB68     		ldr	r3, [r7, #12]
 2147 0110 03FB03F2 		mul	r2, r3, r3
 2148              		.loc 1 233 12
 2149 0114 BB68     		ldr	r3, [r7, #8]
 2150 0116 03FB03F3 		mul	r3, r3, r3
 2151              		.loc 1 233 10
 2152 011a 1A44     		add	r2, r2, r3
 2153              		.loc 1 233 18
 2154 011c FB78     		ldrb	r3, [r7, #3]	@ zero_extendqisi2
 2155 011e F978     		ldrb	r1, [r7, #3]	@ zero_extendqisi2
 2156 0120 01FB03F3 		mul	r3, r1, r3
 2157              		.loc 1 233 5
 2158 0124 9A42     		cmp	r2, r3
 2159 0126 02DD     		ble	.L31
 234:Module/LCD/lcd.c **** 		{
 235:Module/LCD/lcd.c **** 			b--;
 2160              		.loc 1 235 5
 2161 0128 BB68     		ldr	r3, [r7, #8]
 2162 012a 013B     		subs	r3, r3, #1
 2163 012c BB60     		str	r3, [r7, #8]
 2164              	.L31:
 222:Module/LCD/lcd.c **** 	{
 2165              		.loc 1 222 9
 2166 012e FA68     		ldr	r2, [r7, #12]
 2167 0130 BB68     		ldr	r3, [r7, #8]
 2168 0132 9A42     		cmp	r2, r3
 2169 0134 7FF778AF 		ble	.L33
 236:Module/LCD/lcd.c **** 		}
 237:Module/LCD/lcd.c **** 	}
 238:Module/LCD/lcd.c **** }
 2170              		.loc 1 238 1
 2171 0138 00BF     		nop
 2172 013a 00BF     		nop
 2173 013c 1437     		adds	r7, r7, #20
 2174              	.LCFI48:
 2175              		.cfi_def_cfa_offset 12
 2176 013e BD46     		mov	sp, r7
 2177              	.LCFI49:
ARM GAS  C:\Users\AURORA~1\AppData\Local\Temp\ccDd7T3c.s 			page 96


 2178              		.cfi_def_cfa_register 13
 2179              		@ sp needed
 2180 0140 90BD     		pop	{r4, r7, pc}
 2181              		.cfi_endproc
 2182              	.LFE141:
 2184              		.section	.text.LCD_ShowChinese,"ax",%progbits
 2185              		.align	1
 2186              		.global	LCD_ShowChinese
 2187              		.syntax unified
 2188              		.thumb
 2189              		.thumb_func
 2191              	LCD_ShowChinese:
 2192              	.LFB142:
 239:Module/LCD/lcd.c **** 
 240:Module/LCD/lcd.c **** /******************************************************************************
 241:Module/LCD/lcd.c ****       
 242:Module/LCD/lcd.c ****       x,y
 243:Module/LCD/lcd.c ****                 *s 
 244:Module/LCD/lcd.c ****                 fc 
 245:Module/LCD/lcd.c ****                 bc 
 246:Module/LCD/lcd.c ****                 sizey   16 24 32
 247:Module/LCD/lcd.c ****                 mode:  0  1
 248:Module/LCD/lcd.c ****         
 249:Module/LCD/lcd.c **** ******************************************************************************/
 250:Module/LCD/lcd.c **** void LCD_ShowChinese(uint16_t x,uint16_t y,uint8_t *s,uint16_t fc,uint16_t bc,uint8_t sizey,uint8_t
 251:Module/LCD/lcd.c **** {
 2193              		.loc 1 251 1
 2194              		.cfi_startproc
 2195              		@ args = 12, pretend = 0, frame = 16
 2196              		@ frame_needed = 1, uses_anonymous_args = 0
 2197 0000 80B5     		push	{r7, lr}
 2198              	.LCFI50:
 2199              		.cfi_def_cfa_offset 8
 2200              		.cfi_offset 7, -8
 2201              		.cfi_offset 14, -4
 2202 0002 88B0     		sub	sp, sp, #32
 2203              	.LCFI51:
 2204              		.cfi_def_cfa_offset 40
 2205 0004 04AF     		add	r7, sp, #16
 2206              	.LCFI52:
 2207              		.cfi_def_cfa 7, 24
 2208 0006 BA60     		str	r2, [r7, #8]
 2209 0008 1A46     		mov	r2, r3
 2210 000a 0346     		mov	r3, r0	@ movhi
 2211 000c FB81     		strh	r3, [r7, #14]	@ movhi
 2212 000e 0B46     		mov	r3, r1	@ movhi
 2213 0010 BB81     		strh	r3, [r7, #12]	@ movhi
 2214 0012 1346     		mov	r3, r2	@ movhi
 2215 0014 FB80     		strh	r3, [r7, #6]	@ movhi
 252:Module/LCD/lcd.c **** 	while(*s!=0)
 2216              		.loc 1 252 7
 2217 0016 4EE0     		b	.L35
 2218              	.L42:
 253:Module/LCD/lcd.c **** 	{
 254:Module/LCD/lcd.c **** 		if(sizey==12) LCD_ShowChinese12x12(x,y,s,fc,bc,sizey,mode);
 2219              		.loc 1 254 5
 2220 0018 3B7F     		ldrb	r3, [r7, #28]	@ zero_extendqisi2
ARM GAS  C:\Users\AURORA~1\AppData\Local\Temp\ccDd7T3c.s 			page 97


 2221 001a 0C2B     		cmp	r3, #12
 2222 001c 0ED1     		bne	.L36
 2223              		.loc 1 254 17 discriminator 1
 2224 001e FA88     		ldrh	r2, [r7, #6]
 2225 0020 B989     		ldrh	r1, [r7, #12]
 2226 0022 F889     		ldrh	r0, [r7, #14]
 2227 0024 97F82030 		ldrb	r3, [r7, #32]	@ zero_extendqisi2
 2228 0028 0293     		str	r3, [sp, #8]
 2229 002a 3B7F     		ldrb	r3, [r7, #28]	@ zero_extendqisi2
 2230 002c 0193     		str	r3, [sp, #4]
 2231 002e 3B8B     		ldrh	r3, [r7, #24]
 2232 0030 0093     		str	r3, [sp]
 2233 0032 1346     		mov	r3, r2
 2234 0034 BA68     		ldr	r2, [r7, #8]
 2235 0036 FFF7FEFF 		bl	LCD_ShowChinese12x12
 2236 003a 34E0     		b	.L37
 2237              	.L36:
 255:Module/LCD/lcd.c **** 		else if(sizey==16) LCD_ShowChinese16x16(x,y,s,fc,bc,sizey,mode);
 2238              		.loc 1 255 10
 2239 003c 3B7F     		ldrb	r3, [r7, #28]	@ zero_extendqisi2
 2240 003e 102B     		cmp	r3, #16
 2241 0040 0ED1     		bne	.L38
 2242              		.loc 1 255 22 discriminator 1
 2243 0042 FA88     		ldrh	r2, [r7, #6]
 2244 0044 B989     		ldrh	r1, [r7, #12]
 2245 0046 F889     		ldrh	r0, [r7, #14]
 2246 0048 97F82030 		ldrb	r3, [r7, #32]	@ zero_extendqisi2
 2247 004c 0293     		str	r3, [sp, #8]
 2248 004e 3B7F     		ldrb	r3, [r7, #28]	@ zero_extendqisi2
 2249 0050 0193     		str	r3, [sp, #4]
 2250 0052 3B8B     		ldrh	r3, [r7, #24]
 2251 0054 0093     		str	r3, [sp]
 2252 0056 1346     		mov	r3, r2
 2253 0058 BA68     		ldr	r2, [r7, #8]
 2254 005a FFF7FEFF 		bl	LCD_ShowChinese16x16
 2255 005e 22E0     		b	.L37
 2256              	.L38:
 256:Module/LCD/lcd.c **** 		else if(sizey==24) LCD_ShowChinese24x24(x,y,s,fc,bc,sizey,mode);
 2257              		.loc 1 256 10
 2258 0060 3B7F     		ldrb	r3, [r7, #28]	@ zero_extendqisi2
 2259 0062 182B     		cmp	r3, #24
 2260 0064 0ED1     		bne	.L39
 2261              		.loc 1 256 22 discriminator 1
 2262 0066 FA88     		ldrh	r2, [r7, #6]
 2263 0068 B989     		ldrh	r1, [r7, #12]
 2264 006a F889     		ldrh	r0, [r7, #14]
 2265 006c 97F82030 		ldrb	r3, [r7, #32]	@ zero_extendqisi2
 2266 0070 0293     		str	r3, [sp, #8]
 2267 0072 3B7F     		ldrb	r3, [r7, #28]	@ zero_extendqisi2
 2268 0074 0193     		str	r3, [sp, #4]
 2269 0076 3B8B     		ldrh	r3, [r7, #24]
 2270 0078 0093     		str	r3, [sp]
 2271 007a 1346     		mov	r3, r2
 2272 007c BA68     		ldr	r2, [r7, #8]
 2273 007e FFF7FEFF 		bl	LCD_ShowChinese24x24
 2274 0082 10E0     		b	.L37
 2275              	.L39:
ARM GAS  C:\Users\AURORA~1\AppData\Local\Temp\ccDd7T3c.s 			page 98


 257:Module/LCD/lcd.c **** 		else if(sizey==32) LCD_ShowChinese32x32(x,y,s,fc,bc,sizey,mode);
 2276              		.loc 1 257 10
 2277 0084 3B7F     		ldrb	r3, [r7, #28]	@ zero_extendqisi2
 2278 0086 202B     		cmp	r3, #32
 2279 0088 1AD1     		bne	.L43
 2280              		.loc 1 257 22 discriminator 1
 2281 008a FA88     		ldrh	r2, [r7, #6]
 2282 008c B989     		ldrh	r1, [r7, #12]
 2283 008e F889     		ldrh	r0, [r7, #14]
 2284 0090 97F82030 		ldrb	r3, [r7, #32]	@ zero_extendqisi2
 2285 0094 0293     		str	r3, [sp, #8]
 2286 0096 3B7F     		ldrb	r3, [r7, #28]	@ zero_extendqisi2
 2287 0098 0193     		str	r3, [sp, #4]
 2288 009a 3B8B     		ldrh	r3, [r7, #24]
 2289 009c 0093     		str	r3, [sp]
 2290 009e 1346     		mov	r3, r2
 2291 00a0 BA68     		ldr	r2, [r7, #8]
 2292 00a2 FFF7FEFF 		bl	LCD_ShowChinese32x32
 2293              	.L37:
 258:Module/LCD/lcd.c **** 		else return;
 259:Module/LCD/lcd.c **** 		s+=2;
 2294              		.loc 1 259 4
 2295 00a6 BB68     		ldr	r3, [r7, #8]
 2296 00a8 0233     		adds	r3, r3, #2
 2297 00aa BB60     		str	r3, [r7, #8]
 260:Module/LCD/lcd.c **** 		x+=sizey;
 2298              		.loc 1 260 4
 2299 00ac 3B7F     		ldrb	r3, [r7, #28]	@ zero_extendqisi2
 2300 00ae 9AB2     		uxth	r2, r3
 2301 00b0 FB89     		ldrh	r3, [r7, #14]	@ movhi
 2302 00b2 1344     		add	r3, r3, r2
 2303 00b4 FB81     		strh	r3, [r7, #14]	@ movhi
 2304              	.L35:
 252:Module/LCD/lcd.c **** 	{
 2305              		.loc 1 252 8
 2306 00b6 BB68     		ldr	r3, [r7, #8]
 2307 00b8 1B78     		ldrb	r3, [r3]	@ zero_extendqisi2
 252:Module/LCD/lcd.c **** 	{
 2308              		.loc 1 252 10
 2309 00ba 002B     		cmp	r3, #0
 2310 00bc ACD1     		bne	.L42
 2311 00be 00E0     		b	.L34
 2312              	.L43:
 258:Module/LCD/lcd.c **** 		else return;
 2313              		.loc 1 258 8
 2314 00c0 00BF     		nop
 2315              	.L34:
 261:Module/LCD/lcd.c **** 	}
 262:Module/LCD/lcd.c **** }
 2316              		.loc 1 262 1
 2317 00c2 1037     		adds	r7, r7, #16
 2318              	.LCFI53:
 2319              		.cfi_def_cfa_offset 8
 2320 00c4 BD46     		mov	sp, r7
 2321              	.LCFI54:
 2322              		.cfi_def_cfa_register 13
 2323              		@ sp needed
ARM GAS  C:\Users\AURORA~1\AppData\Local\Temp\ccDd7T3c.s 			page 99


 2324 00c6 80BD     		pop	{r7, pc}
 2325              		.cfi_endproc
 2326              	.LFE142:
 2328              		.section	.text.LCD_ShowChinese12x12,"ax",%progbits
 2329              		.align	1
 2330              		.global	LCD_ShowChinese12x12
 2331              		.syntax unified
 2332              		.thumb
 2333              		.thumb_func
 2335              	LCD_ShowChinese12x12:
 2336              	.LFB143:
 263:Module/LCD/lcd.c **** 
 264:Module/LCD/lcd.c **** /******************************************************************************
 265:Module/LCD/lcd.c ****       12x12
 266:Module/LCD/lcd.c ****       x,y
 267:Module/LCD/lcd.c ****                 *s 
 268:Module/LCD/lcd.c ****                 fc 
 269:Module/LCD/lcd.c ****                 bc 
 270:Module/LCD/lcd.c ****                 sizey 
 271:Module/LCD/lcd.c ****                 mode:  0  1
 272:Module/LCD/lcd.c ****         
 273:Module/LCD/lcd.c **** ******************************************************************************/
 274:Module/LCD/lcd.c **** void LCD_ShowChinese12x12(uint16_t x,uint16_t y,uint8_t *s,uint16_t fc,uint16_t bc,uint8_t sizey,ui
 275:Module/LCD/lcd.c **** {
 2337              		.loc 1 275 1
 2338              		.cfi_startproc
 2339              		@ args = 12, pretend = 0, frame = 32
 2340              		@ frame_needed = 1, uses_anonymous_args = 0
 2341 0000 90B5     		push	{r4, r7, lr}
 2342              	.LCFI55:
 2343              		.cfi_def_cfa_offset 12
 2344              		.cfi_offset 4, -12
 2345              		.cfi_offset 7, -8
 2346              		.cfi_offset 14, -4
 2347 0002 89B0     		sub	sp, sp, #36
 2348              	.LCFI56:
 2349              		.cfi_def_cfa_offset 48
 2350 0004 00AF     		add	r7, sp, #0
 2351              	.LCFI57:
 2352              		.cfi_def_cfa_register 7
 2353 0006 BA60     		str	r2, [r7, #8]
 2354 0008 1A46     		mov	r2, r3
 2355 000a 0346     		mov	r3, r0	@ movhi
 2356 000c FB81     		strh	r3, [r7, #14]	@ movhi
 2357 000e 0B46     		mov	r3, r1	@ movhi
 2358 0010 BB81     		strh	r3, [r7, #12]	@ movhi
 2359 0012 1346     		mov	r3, r2	@ movhi
 2360 0014 FB80     		strh	r3, [r7, #6]	@ movhi
 276:Module/LCD/lcd.c **** 	uint8_t i,j,m=0;
 2361              		.loc 1 276 14
 2362 0016 0023     		movs	r3, #0
 2363 0018 7B77     		strb	r3, [r7, #29]
 277:Module/LCD/lcd.c **** 	uint16_t k;
 278:Module/LCD/lcd.c **** 	uint16_t HZnum;//
 279:Module/LCD/lcd.c **** 	uint16_t TypefaceNum;//
 280:Module/LCD/lcd.c **** 	uint16_t x0=x;
 2364              		.loc 1 280 11
ARM GAS  C:\Users\AURORA~1\AppData\Local\Temp\ccDd7T3c.s 			page 100


 2365 001a FB89     		ldrh	r3, [r7, #14]	@ movhi
 2366 001c 3B83     		strh	r3, [r7, #24]	@ movhi
 281:Module/LCD/lcd.c **** 	TypefaceNum=(sizey/8+((sizey%8)?1:0))*sizey;
 2367              		.loc 1 281 20
 2368 001e 97F83430 		ldrb	r3, [r7, #52]	@ zero_extendqisi2
 2369 0022 DB08     		lsrs	r3, r3, #3
 2370 0024 DBB2     		uxtb	r3, r3
 2371 0026 1A46     		mov	r2, r3
 2372              		.loc 1 281 35
 2373 0028 97F83430 		ldrb	r3, [r7, #52]
 2374 002c 03F00703 		and	r3, r3, #7
 2375 0030 DBB2     		uxtb	r3, r3
 2376 0032 002B     		cmp	r3, #0
 2377 0034 14BF     		ite	ne
 2378 0036 0123     		movne	r3, #1
 2379 0038 0023     		moveq	r3, #0
 2380 003a DBB2     		uxtb	r3, r3
 2381              		.loc 1 281 22
 2382 003c 1344     		add	r3, r3, r2
 2383              		.loc 1 281 13
 2384 003e 9AB2     		uxth	r2, r3
 2385 0040 97F83430 		ldrb	r3, [r7, #52]	@ zero_extendqisi2
 2386 0044 9BB2     		uxth	r3, r3
 2387 0046 12FB03F3 		smulbb	r3, r2, r3
 2388 004a FB82     		strh	r3, [r7, #22]	@ movhi
 282:Module/LCD/lcd.c **** 	                         
 283:Module/LCD/lcd.c **** 	HZnum=sizeof(tfont12)/sizeof(typFNT_GB12);	//
 2389              		.loc 1 283 7
 2390 004c 0523     		movs	r3, #5
 2391 004e BB82     		strh	r3, [r7, #20]	@ movhi
 284:Module/LCD/lcd.c **** 	for(k=0;k<HZnum;k++) 
 2392              		.loc 1 284 7
 2393 0050 0023     		movs	r3, #0
 2394 0052 7B83     		strh	r3, [r7, #26]	@ movhi
 2395              		.loc 1 284 2
 2396 0054 9EE0     		b	.L45
 2397              	.L57:
 285:Module/LCD/lcd.c **** 	{
 286:Module/LCD/lcd.c **** 		if((tfont12[k].Index[0]==*(s))&&(tfont12[k].Index[1]==*(s+1)))
 2398              		.loc 1 286 23
 2399 0056 7B8B     		ldrh	r3, [r7, #26]
 2400 0058 534A     		ldr	r2, .L60
 2401 005a 1A21     		movs	r1, #26
 2402 005c 01FB03F3 		mul	r3, r1, r3
 2403 0060 1344     		add	r3, r3, r2
 2404 0062 1A78     		ldrb	r2, [r3]	@ zero_extendqisi2
 2405              		.loc 1 286 26
 2406 0064 BB68     		ldr	r3, [r7, #8]
 2407 0066 1B78     		ldrb	r3, [r3]	@ zero_extendqisi2
 2408              		.loc 1 286 5
 2409 0068 9A42     		cmp	r2, r3
 2410 006a 40F08F80 		bne	.L59
 2411              		.loc 1 286 52 discriminator 1
 2412 006e 7B8B     		ldrh	r3, [r7, #26]
 2413 0070 4D4A     		ldr	r2, .L60
 2414 0072 1A21     		movs	r1, #26
 2415 0074 01FB03F3 		mul	r3, r1, r3
ARM GAS  C:\Users\AURORA~1\AppData\Local\Temp\ccDd7T3c.s 			page 101


 2416 0078 1344     		add	r3, r3, r2
 2417 007a 0133     		adds	r3, r3, #1
 2418 007c 1A78     		ldrb	r2, [r3]	@ zero_extendqisi2
 2419              		.loc 1 286 60 discriminator 1
 2420 007e BB68     		ldr	r3, [r7, #8]
 2421 0080 0133     		adds	r3, r3, #1
 2422              		.loc 1 286 55 discriminator 1
 2423 0082 1B78     		ldrb	r3, [r3]	@ zero_extendqisi2
 2424              		.loc 1 286 33 discriminator 1
 2425 0084 9A42     		cmp	r2, r3
 2426 0086 40F08180 		bne	.L59
 287:Module/LCD/lcd.c **** 		{ 	
 288:Module/LCD/lcd.c **** 			LCD_Address_Set(x,y,x+sizey-1,y+sizey-1);
 2427              		.loc 1 288 25
 2428 008a 97F83430 		ldrb	r3, [r7, #52]	@ zero_extendqisi2
 2429 008e 9AB2     		uxth	r2, r3
 2430 0090 FB89     		ldrh	r3, [r7, #14]	@ movhi
 2431 0092 1344     		add	r3, r3, r2
 2432 0094 9BB2     		uxth	r3, r3
 2433              		.loc 1 288 4
 2434 0096 013B     		subs	r3, r3, #1
 2435 0098 9CB2     		uxth	r4, r3
 2436              		.loc 1 288 35
 2437 009a 97F83430 		ldrb	r3, [r7, #52]	@ zero_extendqisi2
 2438 009e 9AB2     		uxth	r2, r3
 2439 00a0 BB89     		ldrh	r3, [r7, #12]	@ movhi
 2440 00a2 1344     		add	r3, r3, r2
 2441 00a4 9BB2     		uxth	r3, r3
 2442              		.loc 1 288 4
 2443 00a6 013B     		subs	r3, r3, #1
 2444 00a8 9BB2     		uxth	r3, r3
 2445 00aa B989     		ldrh	r1, [r7, #12]
 2446 00ac F889     		ldrh	r0, [r7, #14]
 2447 00ae 2246     		mov	r2, r4
 2448 00b0 FFF7FEFF 		bl	LCD_Address_Set
 289:Module/LCD/lcd.c **** 			for(i=0;i<TypefaceNum;i++)
 2449              		.loc 1 289 9
 2450 00b4 0023     		movs	r3, #0
 2451 00b6 FB77     		strb	r3, [r7, #31]
 2452              		.loc 1 289 4
 2453 00b8 63E0     		b	.L47
 2454              	.L56:
 290:Module/LCD/lcd.c **** 			{
 291:Module/LCD/lcd.c **** 				for(j=0;j<8;j++)
 2455              		.loc 1 291 10
 2456 00ba 0023     		movs	r3, #0
 2457 00bc BB77     		strb	r3, [r7, #30]
 2458              		.loc 1 291 5
 2459 00be 5AE0     		b	.L48
 2460              	.L55:
 292:Module/LCD/lcd.c **** 				{	
 293:Module/LCD/lcd.c **** 					if(!mode)//
 2461              		.loc 1 293 8
 2462 00c0 97F83830 		ldrb	r3, [r7, #56]	@ zero_extendqisi2
 2463 00c4 002B     		cmp	r3, #0
 2464 00c6 2BD1     		bne	.L49
 294:Module/LCD/lcd.c **** 					{
ARM GAS  C:\Users\AURORA~1\AppData\Local\Temp\ccDd7T3c.s 			page 102


 295:Module/LCD/lcd.c **** 						if(tfont12[k].Msk[i]&(0x01<<j))LCD_WR_DATA(fc);
 2465              		.loc 1 295 24
 2466 00c8 7A8B     		ldrh	r2, [r7, #26]
 2467 00ca FB7F     		ldrb	r3, [r7, #31]	@ zero_extendqisi2
 2468 00cc 3649     		ldr	r1, .L60
 2469 00ce 1A20     		movs	r0, #26
 2470 00d0 00FB02F2 		mul	r2, r0, r2
 2471 00d4 0A44     		add	r2, r2, r1
 2472 00d6 1344     		add	r3, r3, r2
 2473 00d8 0233     		adds	r3, r3, #2
 2474 00da 1B78     		ldrb	r3, [r3]	@ zero_extendqisi2
 2475 00dc 1A46     		mov	r2, r3
 2476              		.loc 1 295 10
 2477 00de BB7F     		ldrb	r3, [r7, #30]	@ zero_extendqisi2
 2478 00e0 42FA03F3 		asr	r3, r2, r3
 2479 00e4 03F00103 		and	r3, r3, #1
 2480              		.loc 1 295 9
 2481 00e8 002B     		cmp	r3, #0
 2482 00ea 04D0     		beq	.L50
 2483              		.loc 1 295 38 discriminator 1
 2484 00ec FB88     		ldrh	r3, [r7, #6]
 2485 00ee 1846     		mov	r0, r3
 2486 00f0 FFF7FEFF 		bl	LCD_WR_DATA
 2487 00f4 03E0     		b	.L51
 2488              	.L50:
 296:Module/LCD/lcd.c **** 						else LCD_WR_DATA(bc);
 2489              		.loc 1 296 12
 2490 00f6 3B8E     		ldrh	r3, [r7, #48]
 2491 00f8 1846     		mov	r0, r3
 2492 00fa FFF7FEFF 		bl	LCD_WR_DATA
 2493              	.L51:
 297:Module/LCD/lcd.c **** 						m++;
 2494              		.loc 1 297 8
 2495 00fe 7B7F     		ldrb	r3, [r7, #29]	@ zero_extendqisi2
 2496 0100 0133     		adds	r3, r3, #1
 2497 0102 7B77     		strb	r3, [r7, #29]
 298:Module/LCD/lcd.c **** 						if(m%sizey==0)
 2498              		.loc 1 298 17
 2499 0104 7B7F     		ldrb	r3, [r7, #29]	@ zero_extendqisi2
 2500 0106 97F83420 		ldrb	r2, [r7, #52]	@ zero_extendqisi2
 2501 010a B3FBF2F1 		udiv	r1, r3, r2
 2502 010e 01FB02F2 		mul	r2, r1, r2
 2503 0112 9B1A     		subs	r3, r3, r2
 2504 0114 DBB2     		uxtb	r3, r3
 2505              		.loc 1 298 9
 2506 0116 002B     		cmp	r3, #0
 2507 0118 2AD1     		bne	.L52
 299:Module/LCD/lcd.c **** 						{
 300:Module/LCD/lcd.c **** 							m=0;
 2508              		.loc 1 300 9
 2509 011a 0023     		movs	r3, #0
 2510 011c 7B77     		strb	r3, [r7, #29]
 301:Module/LCD/lcd.c **** 							break;
 2511              		.loc 1 301 8
 2512 011e 2DE0     		b	.L53
 2513              	.L49:
 302:Module/LCD/lcd.c **** 						}
ARM GAS  C:\Users\AURORA~1\AppData\Local\Temp\ccDd7T3c.s 			page 103


 303:Module/LCD/lcd.c **** 					}
 304:Module/LCD/lcd.c **** 					else//
 305:Module/LCD/lcd.c **** 					{
 306:Module/LCD/lcd.c **** 						if(tfont12[k].Msk[i]&(0x01<<j))	LCD_DrawPoint(x,y,fc);//
 2514              		.loc 1 306 24
 2515 0120 7A8B     		ldrh	r2, [r7, #26]
 2516 0122 FB7F     		ldrb	r3, [r7, #31]	@ zero_extendqisi2
 2517 0124 2049     		ldr	r1, .L60
 2518 0126 1A20     		movs	r0, #26
 2519 0128 00FB02F2 		mul	r2, r0, r2
 2520 012c 0A44     		add	r2, r2, r1
 2521 012e 1344     		add	r3, r3, r2
 2522 0130 0233     		adds	r3, r3, #2
 2523 0132 1B78     		ldrb	r3, [r3]	@ zero_extendqisi2
 2524 0134 1A46     		mov	r2, r3
 2525              		.loc 1 306 10
 2526 0136 BB7F     		ldrb	r3, [r7, #30]	@ zero_extendqisi2
 2527 0138 42FA03F3 		asr	r3, r2, r3
 2528 013c 03F00103 		and	r3, r3, #1
 2529              		.loc 1 306 9
 2530 0140 002B     		cmp	r3, #0
 2531 0142 05D0     		beq	.L54
 2532              		.loc 1 306 39 discriminator 1
 2533 0144 FA88     		ldrh	r2, [r7, #6]
 2534 0146 B989     		ldrh	r1, [r7, #12]
 2535 0148 FB89     		ldrh	r3, [r7, #14]
 2536 014a 1846     		mov	r0, r3
 2537 014c FFF7FEFF 		bl	LCD_DrawPoint
 2538              	.L54:
 307:Module/LCD/lcd.c **** 						x++;
 2539              		.loc 1 307 8
 2540 0150 FB89     		ldrh	r3, [r7, #14]
 2541 0152 0133     		adds	r3, r3, #1
 2542 0154 FB81     		strh	r3, [r7, #14]	@ movhi
 308:Module/LCD/lcd.c **** 						if((x-x0)==sizey)
 2543              		.loc 1 308 12
 2544 0156 FA89     		ldrh	r2, [r7, #14]
 2545 0158 3B8B     		ldrh	r3, [r7, #24]
 2546 015a D21A     		subs	r2, r2, r3
 2547              		.loc 1 308 16
 2548 015c 97F83430 		ldrb	r3, [r7, #52]	@ zero_extendqisi2
 2549              		.loc 1 308 9
 2550 0160 9A42     		cmp	r2, r3
 2551 0162 05D1     		bne	.L52
 309:Module/LCD/lcd.c **** 						{
 310:Module/LCD/lcd.c **** 							x=x0;
 2552              		.loc 1 310 9
 2553 0164 3B8B     		ldrh	r3, [r7, #24]	@ movhi
 2554 0166 FB81     		strh	r3, [r7, #14]	@ movhi
 311:Module/LCD/lcd.c **** 							y++;
 2555              		.loc 1 311 9
 2556 0168 BB89     		ldrh	r3, [r7, #12]
 2557 016a 0133     		adds	r3, r3, #1
 2558 016c BB81     		strh	r3, [r7, #12]	@ movhi
 312:Module/LCD/lcd.c **** 							break;
 2559              		.loc 1 312 8
 2560 016e 05E0     		b	.L53
ARM GAS  C:\Users\AURORA~1\AppData\Local\Temp\ccDd7T3c.s 			page 104


 2561              	.L52:
 291:Module/LCD/lcd.c **** 				{	
 2562              		.loc 1 291 18 discriminator 2
 2563 0170 BB7F     		ldrb	r3, [r7, #30]	@ zero_extendqisi2
 2564 0172 0133     		adds	r3, r3, #1
 2565 0174 BB77     		strb	r3, [r7, #30]
 2566              	.L48:
 291:Module/LCD/lcd.c **** 				{	
 2567              		.loc 1 291 14 discriminator 1
 2568 0176 BB7F     		ldrb	r3, [r7, #30]	@ zero_extendqisi2
 2569 0178 072B     		cmp	r3, #7
 2570 017a A1D9     		bls	.L55
 2571              	.L53:
 289:Module/LCD/lcd.c **** 			{
 2572              		.loc 1 289 27 discriminator 2
 2573 017c FB7F     		ldrb	r3, [r7, #31]	@ zero_extendqisi2
 2574 017e 0133     		adds	r3, r3, #1
 2575 0180 FB77     		strb	r3, [r7, #31]
 2576              	.L47:
 289:Module/LCD/lcd.c **** 			{
 2577              		.loc 1 289 13 discriminator 1
 2578 0182 FB7F     		ldrb	r3, [r7, #31]	@ zero_extendqisi2
 2579 0184 9BB2     		uxth	r3, r3
 2580 0186 FA8A     		ldrh	r2, [r7, #22]
 2581 0188 9A42     		cmp	r2, r3
 2582 018a 96D8     		bhi	.L56
 2583              	.L59:
 313:Module/LCD/lcd.c **** 						}
 314:Module/LCD/lcd.c **** 					}
 315:Module/LCD/lcd.c **** 				}
 316:Module/LCD/lcd.c **** 			}
 317:Module/LCD/lcd.c **** 		}				  	
 318:Module/LCD/lcd.c **** 		continue;  //
 2584              		.loc 1 318 3
 2585 018c 00BF     		nop
 284:Module/LCD/lcd.c **** 	{
 2586              		.loc 1 284 19 discriminator 2
 2587 018e 7B8B     		ldrh	r3, [r7, #26]
 2588 0190 0133     		adds	r3, r3, #1
 2589 0192 7B83     		strh	r3, [r7, #26]	@ movhi
 2590              	.L45:
 284:Module/LCD/lcd.c **** 	{
 2591              		.loc 1 284 11 discriminator 1
 2592 0194 7A8B     		ldrh	r2, [r7, #26]
 2593 0196 BB8A     		ldrh	r3, [r7, #20]
 2594 0198 9A42     		cmp	r2, r3
 2595 019a FFF45CAF 		bcc	.L57
 319:Module/LCD/lcd.c **** 	}
 320:Module/LCD/lcd.c **** } 
 2596              		.loc 1 320 1
 2597 019e 00BF     		nop
 2598 01a0 00BF     		nop
 2599 01a2 2437     		adds	r7, r7, #36
 2600              	.LCFI58:
 2601              		.cfi_def_cfa_offset 12
 2602 01a4 BD46     		mov	sp, r7
 2603              	.LCFI59:
ARM GAS  C:\Users\AURORA~1\AppData\Local\Temp\ccDd7T3c.s 			page 105


 2604              		.cfi_def_cfa_register 13
 2605              		@ sp needed
 2606 01a6 90BD     		pop	{r4, r7, pc}
 2607              	.L61:
 2608              		.align	2
 2609              	.L60:
 2610 01a8 00000000 		.word	tfont12
 2611              		.cfi_endproc
 2612              	.LFE143:
 2614              		.section	.text.LCD_ShowChinese16x16,"ax",%progbits
 2615              		.align	1
 2616              		.global	LCD_ShowChinese16x16
 2617              		.syntax unified
 2618              		.thumb
 2619              		.thumb_func
 2621              	LCD_ShowChinese16x16:
 2622              	.LFB144:
 321:Module/LCD/lcd.c **** 
 322:Module/LCD/lcd.c **** /******************************************************************************
 323:Module/LCD/lcd.c ****       16x16
 324:Module/LCD/lcd.c ****       x,y
 325:Module/LCD/lcd.c ****                 *s 
 326:Module/LCD/lcd.c ****                 fc 
 327:Module/LCD/lcd.c ****                 bc 
 328:Module/LCD/lcd.c ****                 sizey 
 329:Module/LCD/lcd.c ****                 mode:  0  1
 330:Module/LCD/lcd.c ****         
 331:Module/LCD/lcd.c **** ******************************************************************************/
 332:Module/LCD/lcd.c **** void LCD_ShowChinese16x16(uint16_t x,uint16_t y,uint8_t *s,uint16_t fc,uint16_t bc,uint8_t sizey,ui
 333:Module/LCD/lcd.c **** {
 2623              		.loc 1 333 1
 2624              		.cfi_startproc
 2625              		@ args = 12, pretend = 0, frame = 32
 2626              		@ frame_needed = 1, uses_anonymous_args = 0
 2627 0000 90B5     		push	{r4, r7, lr}
 2628              	.LCFI60:
 2629              		.cfi_def_cfa_offset 12
 2630              		.cfi_offset 4, -12
 2631              		.cfi_offset 7, -8
 2632              		.cfi_offset 14, -4
 2633 0002 89B0     		sub	sp, sp, #36
 2634              	.LCFI61:
 2635              		.cfi_def_cfa_offset 48
 2636 0004 00AF     		add	r7, sp, #0
 2637              	.LCFI62:
 2638              		.cfi_def_cfa_register 7
 2639 0006 BA60     		str	r2, [r7, #8]
 2640 0008 1A46     		mov	r2, r3
 2641 000a 0346     		mov	r3, r0	@ movhi
 2642 000c FB81     		strh	r3, [r7, #14]	@ movhi
 2643 000e 0B46     		mov	r3, r1	@ movhi
 2644 0010 BB81     		strh	r3, [r7, #12]	@ movhi
 2645 0012 1346     		mov	r3, r2	@ movhi
 2646 0014 FB80     		strh	r3, [r7, #6]	@ movhi
 334:Module/LCD/lcd.c **** 	uint8_t i,j,m=0;
 2647              		.loc 1 334 14
 2648 0016 0023     		movs	r3, #0
ARM GAS  C:\Users\AURORA~1\AppData\Local\Temp\ccDd7T3c.s 			page 106


 2649 0018 7B77     		strb	r3, [r7, #29]
 335:Module/LCD/lcd.c **** 	uint16_t k;
 336:Module/LCD/lcd.c **** 	uint16_t HZnum;//
 337:Module/LCD/lcd.c **** 	uint16_t TypefaceNum;//
 338:Module/LCD/lcd.c **** 	uint16_t x0=x;
 2650              		.loc 1 338 11
 2651 001a FB89     		ldrh	r3, [r7, #14]	@ movhi
 2652 001c 3B83     		strh	r3, [r7, #24]	@ movhi
 339:Module/LCD/lcd.c ****   TypefaceNum=(sizey/8+((sizey%8)?1:0))*sizey;
 2653              		.loc 1 339 21
 2654 001e 97F83430 		ldrb	r3, [r7, #52]	@ zero_extendqisi2
 2655 0022 DB08     		lsrs	r3, r3, #3
 2656 0024 DBB2     		uxtb	r3, r3
 2657 0026 1A46     		mov	r2, r3
 2658              		.loc 1 339 36
 2659 0028 97F83430 		ldrb	r3, [r7, #52]
 2660 002c 03F00703 		and	r3, r3, #7
 2661 0030 DBB2     		uxtb	r3, r3
 2662 0032 002B     		cmp	r3, #0
 2663 0034 14BF     		ite	ne
 2664 0036 0123     		movne	r3, #1
 2665 0038 0023     		moveq	r3, #0
 2666 003a DBB2     		uxtb	r3, r3
 2667              		.loc 1 339 23
 2668 003c 1344     		add	r3, r3, r2
 2669              		.loc 1 339 14
 2670 003e 9AB2     		uxth	r2, r3
 2671 0040 97F83430 		ldrb	r3, [r7, #52]	@ zero_extendqisi2
 2672 0044 9BB2     		uxth	r3, r3
 2673 0046 12FB03F3 		smulbb	r3, r2, r3
 2674 004a FB82     		strh	r3, [r7, #22]	@ movhi
 340:Module/LCD/lcd.c **** 	HZnum=sizeof(tfont16)/sizeof(typFNT_GB16);	//
 2675              		.loc 1 340 7
 2676 004c 0523     		movs	r3, #5
 2677 004e BB82     		strh	r3, [r7, #20]	@ movhi
 341:Module/LCD/lcd.c **** 	for(k=0;k<HZnum;k++) 
 2678              		.loc 1 341 7
 2679 0050 0023     		movs	r3, #0
 2680 0052 7B83     		strh	r3, [r7, #26]	@ movhi
 2681              		.loc 1 341 2
 2682 0054 A2E0     		b	.L63
 2683              	.L75:
 342:Module/LCD/lcd.c **** 	{
 343:Module/LCD/lcd.c **** 		if ((tfont16[k].Index[0]==*(s))&&(tfont16[k].Index[1]==*(s+1)))
 2684              		.loc 1 343 24
 2685 0056 7A8B     		ldrh	r2, [r7, #26]
 2686 0058 5549     		ldr	r1, .L78
 2687 005a 1346     		mov	r3, r2
 2688 005c 1B01     		lsls	r3, r3, #4
 2689 005e 1344     		add	r3, r3, r2
 2690 0060 5B00     		lsls	r3, r3, #1
 2691 0062 0B44     		add	r3, r3, r1
 2692 0064 1A78     		ldrb	r2, [r3]	@ zero_extendqisi2
 2693              		.loc 1 343 27
 2694 0066 BB68     		ldr	r3, [r7, #8]
 2695 0068 1B78     		ldrb	r3, [r3]	@ zero_extendqisi2
 2696              		.loc 1 343 6
ARM GAS  C:\Users\AURORA~1\AppData\Local\Temp\ccDd7T3c.s 			page 107


 2697 006a 9A42     		cmp	r2, r3
 2698 006c 40F09280 		bne	.L77
 2699              		.loc 1 343 53 discriminator 1
 2700 0070 7A8B     		ldrh	r2, [r7, #26]
 2701 0072 4F49     		ldr	r1, .L78
 2702 0074 1346     		mov	r3, r2
 2703 0076 1B01     		lsls	r3, r3, #4
 2704 0078 1344     		add	r3, r3, r2
 2705 007a 5B00     		lsls	r3, r3, #1
 2706 007c 0B44     		add	r3, r3, r1
 2707 007e 0133     		adds	r3, r3, #1
 2708 0080 1A78     		ldrb	r2, [r3]	@ zero_extendqisi2
 2709              		.loc 1 343 61 discriminator 1
 2710 0082 BB68     		ldr	r3, [r7, #8]
 2711 0084 0133     		adds	r3, r3, #1
 2712              		.loc 1 343 56 discriminator 1
 2713 0086 1B78     		ldrb	r3, [r3]	@ zero_extendqisi2
 2714              		.loc 1 343 34 discriminator 1
 2715 0088 9A42     		cmp	r2, r3
 2716 008a 40F08380 		bne	.L77
 344:Module/LCD/lcd.c **** 		{ 	
 345:Module/LCD/lcd.c **** 			LCD_Address_Set(x,y,x+sizey-1,y+sizey-1);
 2717              		.loc 1 345 25
 2718 008e 97F83430 		ldrb	r3, [r7, #52]	@ zero_extendqisi2
 2719 0092 9AB2     		uxth	r2, r3
 2720 0094 FB89     		ldrh	r3, [r7, #14]	@ movhi
 2721 0096 1344     		add	r3, r3, r2
 2722 0098 9BB2     		uxth	r3, r3
 2723              		.loc 1 345 4
 2724 009a 013B     		subs	r3, r3, #1
 2725 009c 9CB2     		uxth	r4, r3
 2726              		.loc 1 345 35
 2727 009e 97F83430 		ldrb	r3, [r7, #52]	@ zero_extendqisi2
 2728 00a2 9AB2     		uxth	r2, r3
 2729 00a4 BB89     		ldrh	r3, [r7, #12]	@ movhi
 2730 00a6 1344     		add	r3, r3, r2
 2731 00a8 9BB2     		uxth	r3, r3
 2732              		.loc 1 345 4
 2733 00aa 013B     		subs	r3, r3, #1
 2734 00ac 9BB2     		uxth	r3, r3
 2735 00ae B989     		ldrh	r1, [r7, #12]
 2736 00b0 F889     		ldrh	r0, [r7, #14]
 2737 00b2 2246     		mov	r2, r4
 2738 00b4 FFF7FEFF 		bl	LCD_Address_Set
 346:Module/LCD/lcd.c **** 			for(i=0;i<TypefaceNum;i++)
 2739              		.loc 1 346 9
 2740 00b8 0023     		movs	r3, #0
 2741 00ba FB77     		strb	r3, [r7, #31]
 2742              		.loc 1 346 4
 2743 00bc 65E0     		b	.L65
 2744              	.L74:
 347:Module/LCD/lcd.c **** 			{
 348:Module/LCD/lcd.c **** 				for(j=0;j<8;j++)
 2745              		.loc 1 348 10
 2746 00be 0023     		movs	r3, #0
 2747 00c0 BB77     		strb	r3, [r7, #30]
 2748              		.loc 1 348 5
ARM GAS  C:\Users\AURORA~1\AppData\Local\Temp\ccDd7T3c.s 			page 108


 2749 00c2 5CE0     		b	.L66
 2750              	.L73:
 349:Module/LCD/lcd.c **** 				{	
 350:Module/LCD/lcd.c **** 					if(!mode)//
 2751              		.loc 1 350 8
 2752 00c4 97F83830 		ldrb	r3, [r7, #56]	@ zero_extendqisi2
 2753 00c8 002B     		cmp	r3, #0
 2754 00ca 2CD1     		bne	.L67
 351:Module/LCD/lcd.c **** 					{
 352:Module/LCD/lcd.c **** 						if(tfont16[k].Msk[i]&(0x01<<j))LCD_WR_DATA(fc);
 2755              		.loc 1 352 24
 2756 00cc 7A8B     		ldrh	r2, [r7, #26]
 2757 00ce F97F     		ldrb	r1, [r7, #31]	@ zero_extendqisi2
 2758 00d0 3748     		ldr	r0, .L78
 2759 00d2 1346     		mov	r3, r2
 2760 00d4 1B01     		lsls	r3, r3, #4
 2761 00d6 1344     		add	r3, r3, r2
 2762 00d8 5B00     		lsls	r3, r3, #1
 2763 00da 0344     		add	r3, r3, r0
 2764 00dc 0B44     		add	r3, r3, r1
 2765 00de 0233     		adds	r3, r3, #2
 2766 00e0 1B78     		ldrb	r3, [r3]	@ zero_extendqisi2
 2767 00e2 1A46     		mov	r2, r3
 2768              		.loc 1 352 10
 2769 00e4 BB7F     		ldrb	r3, [r7, #30]	@ zero_extendqisi2
 2770 00e6 42FA03F3 		asr	r3, r2, r3
 2771 00ea 03F00103 		and	r3, r3, #1
 2772              		.loc 1 352 9
 2773 00ee 002B     		cmp	r3, #0
 2774 00f0 04D0     		beq	.L68
 2775              		.loc 1 352 38 discriminator 1
 2776 00f2 FB88     		ldrh	r3, [r7, #6]
 2777 00f4 1846     		mov	r0, r3
 2778 00f6 FFF7FEFF 		bl	LCD_WR_DATA
 2779 00fa 03E0     		b	.L69
 2780              	.L68:
 353:Module/LCD/lcd.c **** 						else LCD_WR_DATA(bc);
 2781              		.loc 1 353 12
 2782 00fc 3B8E     		ldrh	r3, [r7, #48]
 2783 00fe 1846     		mov	r0, r3
 2784 0100 FFF7FEFF 		bl	LCD_WR_DATA
 2785              	.L69:
 354:Module/LCD/lcd.c **** 						m++;
 2786              		.loc 1 354 8
 2787 0104 7B7F     		ldrb	r3, [r7, #29]	@ zero_extendqisi2
 2788 0106 0133     		adds	r3, r3, #1
 2789 0108 7B77     		strb	r3, [r7, #29]
 355:Module/LCD/lcd.c **** 						if(m%sizey==0)
 2790              		.loc 1 355 17
 2791 010a 7B7F     		ldrb	r3, [r7, #29]	@ zero_extendqisi2
 2792 010c 97F83420 		ldrb	r2, [r7, #52]	@ zero_extendqisi2
 2793 0110 B3FBF2F1 		udiv	r1, r3, r2
 2794 0114 01FB02F2 		mul	r2, r1, r2
 2795 0118 9B1A     		subs	r3, r3, r2
 2796 011a DBB2     		uxtb	r3, r3
 2797              		.loc 1 355 9
 2798 011c 002B     		cmp	r3, #0
ARM GAS  C:\Users\AURORA~1\AppData\Local\Temp\ccDd7T3c.s 			page 109


 2799 011e 2BD1     		bne	.L70
 356:Module/LCD/lcd.c **** 						{
 357:Module/LCD/lcd.c **** 							m=0;
 2800              		.loc 1 357 9
 2801 0120 0023     		movs	r3, #0
 2802 0122 7B77     		strb	r3, [r7, #29]
 358:Module/LCD/lcd.c **** 							break;
 2803              		.loc 1 358 8
 2804 0124 2EE0     		b	.L71
 2805              	.L67:
 359:Module/LCD/lcd.c **** 						}
 360:Module/LCD/lcd.c **** 					}
 361:Module/LCD/lcd.c **** 					else//
 362:Module/LCD/lcd.c **** 					{
 363:Module/LCD/lcd.c **** 						if(tfont16[k].Msk[i]&(0x01<<j))	LCD_DrawPoint(x,y,fc);//
 2806              		.loc 1 363 24
 2807 0126 7A8B     		ldrh	r2, [r7, #26]
 2808 0128 F97F     		ldrb	r1, [r7, #31]	@ zero_extendqisi2
 2809 012a 2148     		ldr	r0, .L78
 2810 012c 1346     		mov	r3, r2
 2811 012e 1B01     		lsls	r3, r3, #4
 2812 0130 1344     		add	r3, r3, r2
 2813 0132 5B00     		lsls	r3, r3, #1
 2814 0134 0344     		add	r3, r3, r0
 2815 0136 0B44     		add	r3, r3, r1
 2816 0138 0233     		adds	r3, r3, #2
 2817 013a 1B78     		ldrb	r3, [r3]	@ zero_extendqisi2
 2818 013c 1A46     		mov	r2, r3
 2819              		.loc 1 363 10
 2820 013e BB7F     		ldrb	r3, [r7, #30]	@ zero_extendqisi2
 2821 0140 42FA03F3 		asr	r3, r2, r3
 2822 0144 03F00103 		and	r3, r3, #1
 2823              		.loc 1 363 9
 2824 0148 002B     		cmp	r3, #0
 2825 014a 05D0     		beq	.L72
 2826              		.loc 1 363 39 discriminator 1
 2827 014c FA88     		ldrh	r2, [r7, #6]
 2828 014e B989     		ldrh	r1, [r7, #12]
 2829 0150 FB89     		ldrh	r3, [r7, #14]
 2830 0152 1846     		mov	r0, r3
 2831 0154 FFF7FEFF 		bl	LCD_DrawPoint
 2832              	.L72:
 364:Module/LCD/lcd.c **** 						x++;
 2833              		.loc 1 364 8
 2834 0158 FB89     		ldrh	r3, [r7, #14]
 2835 015a 0133     		adds	r3, r3, #1
 2836 015c FB81     		strh	r3, [r7, #14]	@ movhi
 365:Module/LCD/lcd.c **** 						if((x-x0)==sizey)
 2837              		.loc 1 365 12
 2838 015e FA89     		ldrh	r2, [r7, #14]
 2839 0160 3B8B     		ldrh	r3, [r7, #24]
 2840 0162 D21A     		subs	r2, r2, r3
 2841              		.loc 1 365 16
 2842 0164 97F83430 		ldrb	r3, [r7, #52]	@ zero_extendqisi2
 2843              		.loc 1 365 9
 2844 0168 9A42     		cmp	r2, r3
 2845 016a 05D1     		bne	.L70
ARM GAS  C:\Users\AURORA~1\AppData\Local\Temp\ccDd7T3c.s 			page 110


 366:Module/LCD/lcd.c **** 						{
 367:Module/LCD/lcd.c **** 							x=x0;
 2846              		.loc 1 367 9
 2847 016c 3B8B     		ldrh	r3, [r7, #24]	@ movhi
 2848 016e FB81     		strh	r3, [r7, #14]	@ movhi
 368:Module/LCD/lcd.c **** 							y++;
 2849              		.loc 1 368 9
 2850 0170 BB89     		ldrh	r3, [r7, #12]
 2851 0172 0133     		adds	r3, r3, #1
 2852 0174 BB81     		strh	r3, [r7, #12]	@ movhi
 369:Module/LCD/lcd.c **** 							break;
 2853              		.loc 1 369 8
 2854 0176 05E0     		b	.L71
 2855              	.L70:
 348:Module/LCD/lcd.c **** 				{	
 2856              		.loc 1 348 18 discriminator 2
 2857 0178 BB7F     		ldrb	r3, [r7, #30]	@ zero_extendqisi2
 2858 017a 0133     		adds	r3, r3, #1
 2859 017c BB77     		strb	r3, [r7, #30]
 2860              	.L66:
 348:Module/LCD/lcd.c **** 				{	
 2861              		.loc 1 348 14 discriminator 1
 2862 017e BB7F     		ldrb	r3, [r7, #30]	@ zero_extendqisi2
 2863 0180 072B     		cmp	r3, #7
 2864 0182 9FD9     		bls	.L73
 2865              	.L71:
 346:Module/LCD/lcd.c **** 			{
 2866              		.loc 1 346 27 discriminator 2
 2867 0184 FB7F     		ldrb	r3, [r7, #31]	@ zero_extendqisi2
 2868 0186 0133     		adds	r3, r3, #1
 2869 0188 FB77     		strb	r3, [r7, #31]
 2870              	.L65:
 346:Module/LCD/lcd.c **** 			{
 2871              		.loc 1 346 13 discriminator 1
 2872 018a FB7F     		ldrb	r3, [r7, #31]	@ zero_extendqisi2
 2873 018c 9BB2     		uxth	r3, r3
 2874 018e FA8A     		ldrh	r2, [r7, #22]
 2875 0190 9A42     		cmp	r2, r3
 2876 0192 94D8     		bhi	.L74
 2877              	.L77:
 370:Module/LCD/lcd.c **** 						}
 371:Module/LCD/lcd.c **** 					}
 372:Module/LCD/lcd.c **** 				}
 373:Module/LCD/lcd.c **** 			}
 374:Module/LCD/lcd.c **** 		}				  	
 375:Module/LCD/lcd.c **** 		continue;  //
 2878              		.loc 1 375 3
 2879 0194 00BF     		nop
 341:Module/LCD/lcd.c **** 	{
 2880              		.loc 1 341 19 discriminator 2
 2881 0196 7B8B     		ldrh	r3, [r7, #26]
 2882 0198 0133     		adds	r3, r3, #1
 2883 019a 7B83     		strh	r3, [r7, #26]	@ movhi
 2884              	.L63:
 341:Module/LCD/lcd.c **** 	{
 2885              		.loc 1 341 11 discriminator 1
 2886 019c 7A8B     		ldrh	r2, [r7, #26]
ARM GAS  C:\Users\AURORA~1\AppData\Local\Temp\ccDd7T3c.s 			page 111


 2887 019e BB8A     		ldrh	r3, [r7, #20]
 2888 01a0 9A42     		cmp	r2, r3
 2889 01a2 FFF458AF 		bcc	.L75
 376:Module/LCD/lcd.c **** 	}
 377:Module/LCD/lcd.c **** } 
 2890              		.loc 1 377 1
 2891 01a6 00BF     		nop
 2892 01a8 00BF     		nop
 2893 01aa 2437     		adds	r7, r7, #36
 2894              	.LCFI63:
 2895              		.cfi_def_cfa_offset 12
 2896 01ac BD46     		mov	sp, r7
 2897              	.LCFI64:
 2898              		.cfi_def_cfa_register 13
 2899              		@ sp needed
 2900 01ae 90BD     		pop	{r4, r7, pc}
 2901              	.L79:
 2902              		.align	2
 2903              	.L78:
 2904 01b0 00000000 		.word	tfont16
 2905              		.cfi_endproc
 2906              	.LFE144:
 2908              		.section	.text.LCD_ShowChinese24x24,"ax",%progbits
 2909              		.align	1
 2910              		.global	LCD_ShowChinese24x24
 2911              		.syntax unified
 2912              		.thumb
 2913              		.thumb_func
 2915              	LCD_ShowChinese24x24:
 2916              	.LFB145:
 378:Module/LCD/lcd.c **** 
 379:Module/LCD/lcd.c **** 
 380:Module/LCD/lcd.c **** /******************************************************************************
 381:Module/LCD/lcd.c ****       24x24
 382:Module/LCD/lcd.c ****       x,y
 383:Module/LCD/lcd.c ****                 *s 
 384:Module/LCD/lcd.c ****                 fc 
 385:Module/LCD/lcd.c ****                 bc 
 386:Module/LCD/lcd.c ****                 sizey 
 387:Module/LCD/lcd.c ****                 mode:  0  1
 388:Module/LCD/lcd.c ****         
 389:Module/LCD/lcd.c **** ******************************************************************************/
 390:Module/LCD/lcd.c **** void LCD_ShowChinese24x24(uint16_t x,uint16_t y,uint8_t *s,uint16_t fc,uint16_t bc,uint8_t sizey,ui
 391:Module/LCD/lcd.c **** {
 2917              		.loc 1 391 1
 2918              		.cfi_startproc
 2919              		@ args = 12, pretend = 0, frame = 32
 2920              		@ frame_needed = 1, uses_anonymous_args = 0
 2921 0000 90B5     		push	{r4, r7, lr}
 2922              	.LCFI65:
 2923              		.cfi_def_cfa_offset 12
 2924              		.cfi_offset 4, -12
 2925              		.cfi_offset 7, -8
 2926              		.cfi_offset 14, -4
 2927 0002 89B0     		sub	sp, sp, #36
 2928              	.LCFI66:
 2929              		.cfi_def_cfa_offset 48
ARM GAS  C:\Users\AURORA~1\AppData\Local\Temp\ccDd7T3c.s 			page 112


 2930 0004 00AF     		add	r7, sp, #0
 2931              	.LCFI67:
 2932              		.cfi_def_cfa_register 7
 2933 0006 BA60     		str	r2, [r7, #8]
 2934 0008 1A46     		mov	r2, r3
 2935 000a 0346     		mov	r3, r0	@ movhi
 2936 000c FB81     		strh	r3, [r7, #14]	@ movhi
 2937 000e 0B46     		mov	r3, r1	@ movhi
 2938 0010 BB81     		strh	r3, [r7, #12]	@ movhi
 2939 0012 1346     		mov	r3, r2	@ movhi
 2940 0014 FB80     		strh	r3, [r7, #6]	@ movhi
 392:Module/LCD/lcd.c **** 	uint8_t i,j,m=0;
 2941              		.loc 1 392 14
 2942 0016 0023     		movs	r3, #0
 2943 0018 7B77     		strb	r3, [r7, #29]
 393:Module/LCD/lcd.c **** 	uint16_t k;
 394:Module/LCD/lcd.c **** 	uint16_t HZnum;//
 395:Module/LCD/lcd.c **** 	uint16_t TypefaceNum;//
 396:Module/LCD/lcd.c **** 	uint16_t x0=x;
 2944              		.loc 1 396 11
 2945 001a FB89     		ldrh	r3, [r7, #14]	@ movhi
 2946 001c 3B83     		strh	r3, [r7, #24]	@ movhi
 397:Module/LCD/lcd.c **** 	TypefaceNum=(sizey/8+((sizey%8)?1:0))*sizey;
 2947              		.loc 1 397 20
 2948 001e 97F83430 		ldrb	r3, [r7, #52]	@ zero_extendqisi2
 2949 0022 DB08     		lsrs	r3, r3, #3
 2950 0024 DBB2     		uxtb	r3, r3
 2951 0026 1A46     		mov	r2, r3
 2952              		.loc 1 397 35
 2953 0028 97F83430 		ldrb	r3, [r7, #52]
 2954 002c 03F00703 		and	r3, r3, #7
 2955 0030 DBB2     		uxtb	r3, r3
 2956 0032 002B     		cmp	r3, #0
 2957 0034 14BF     		ite	ne
 2958 0036 0123     		movne	r3, #1
 2959 0038 0023     		moveq	r3, #0
 2960 003a DBB2     		uxtb	r3, r3
 2961              		.loc 1 397 22
 2962 003c 1344     		add	r3, r3, r2
 2963              		.loc 1 397 13
 2964 003e 9AB2     		uxth	r2, r3
 2965 0040 97F83430 		ldrb	r3, [r7, #52]	@ zero_extendqisi2
 2966 0044 9BB2     		uxth	r3, r3
 2967 0046 12FB03F3 		smulbb	r3, r2, r3
 2968 004a FB82     		strh	r3, [r7, #22]	@ movhi
 398:Module/LCD/lcd.c **** 	HZnum=sizeof(tfont24)/sizeof(typFNT_GB24);	//
 2969              		.loc 1 398 7
 2970 004c 0523     		movs	r3, #5
 2971 004e BB82     		strh	r3, [r7, #20]	@ movhi
 399:Module/LCD/lcd.c **** 	for(k=0;k<HZnum;k++) 
 2972              		.loc 1 399 7
 2973 0050 0023     		movs	r3, #0
 2974 0052 7B83     		strh	r3, [r7, #26]	@ movhi
 2975              		.loc 1 399 2
 2976 0054 9EE0     		b	.L81
 2977              	.L93:
 400:Module/LCD/lcd.c **** 	{
ARM GAS  C:\Users\AURORA~1\AppData\Local\Temp\ccDd7T3c.s 			page 113


 401:Module/LCD/lcd.c **** 		if ((tfont24[k].Index[0]==*(s))&&(tfont24[k].Index[1]==*(s+1)))
 2978              		.loc 1 401 24
 2979 0056 7B8B     		ldrh	r3, [r7, #26]
 2980 0058 534A     		ldr	r2, .L96
 2981 005a 4A21     		movs	r1, #74
 2982 005c 01FB03F3 		mul	r3, r1, r3
 2983 0060 1344     		add	r3, r3, r2
 2984 0062 1A78     		ldrb	r2, [r3]	@ zero_extendqisi2
 2985              		.loc 1 401 27
 2986 0064 BB68     		ldr	r3, [r7, #8]
 2987 0066 1B78     		ldrb	r3, [r3]	@ zero_extendqisi2
 2988              		.loc 1 401 6
 2989 0068 9A42     		cmp	r2, r3
 2990 006a 40F08F80 		bne	.L95
 2991              		.loc 1 401 53 discriminator 1
 2992 006e 7B8B     		ldrh	r3, [r7, #26]
 2993 0070 4D4A     		ldr	r2, .L96
 2994 0072 4A21     		movs	r1, #74
 2995 0074 01FB03F3 		mul	r3, r1, r3
 2996 0078 1344     		add	r3, r3, r2
 2997 007a 0133     		adds	r3, r3, #1
 2998 007c 1A78     		ldrb	r2, [r3]	@ zero_extendqisi2
 2999              		.loc 1 401 61 discriminator 1
 3000 007e BB68     		ldr	r3, [r7, #8]
 3001 0080 0133     		adds	r3, r3, #1
 3002              		.loc 1 401 56 discriminator 1
 3003 0082 1B78     		ldrb	r3, [r3]	@ zero_extendqisi2
 3004              		.loc 1 401 34 discriminator 1
 3005 0084 9A42     		cmp	r2, r3
 3006 0086 40F08180 		bne	.L95
 402:Module/LCD/lcd.c **** 		{ 	
 403:Module/LCD/lcd.c **** 			LCD_Address_Set(x,y,x+sizey-1,y+sizey-1);
 3007              		.loc 1 403 25
 3008 008a 97F83430 		ldrb	r3, [r7, #52]	@ zero_extendqisi2
 3009 008e 9AB2     		uxth	r2, r3
 3010 0090 FB89     		ldrh	r3, [r7, #14]	@ movhi
 3011 0092 1344     		add	r3, r3, r2
 3012 0094 9BB2     		uxth	r3, r3
 3013              		.loc 1 403 4
 3014 0096 013B     		subs	r3, r3, #1
 3015 0098 9CB2     		uxth	r4, r3
 3016              		.loc 1 403 35
 3017 009a 97F83430 		ldrb	r3, [r7, #52]	@ zero_extendqisi2
 3018 009e 9AB2     		uxth	r2, r3
 3019 00a0 BB89     		ldrh	r3, [r7, #12]	@ movhi
 3020 00a2 1344     		add	r3, r3, r2
 3021 00a4 9BB2     		uxth	r3, r3
 3022              		.loc 1 403 4
 3023 00a6 013B     		subs	r3, r3, #1
 3024 00a8 9BB2     		uxth	r3, r3
 3025 00aa B989     		ldrh	r1, [r7, #12]
 3026 00ac F889     		ldrh	r0, [r7, #14]
 3027 00ae 2246     		mov	r2, r4
 3028 00b0 FFF7FEFF 		bl	LCD_Address_Set
 404:Module/LCD/lcd.c **** 			for(i=0;i<TypefaceNum;i++)
 3029              		.loc 1 404 9
 3030 00b4 0023     		movs	r3, #0
ARM GAS  C:\Users\AURORA~1\AppData\Local\Temp\ccDd7T3c.s 			page 114


 3031 00b6 FB77     		strb	r3, [r7, #31]
 3032              		.loc 1 404 4
 3033 00b8 63E0     		b	.L83
 3034              	.L92:
 405:Module/LCD/lcd.c **** 			{
 406:Module/LCD/lcd.c **** 				for(j=0;j<8;j++)
 3035              		.loc 1 406 10
 3036 00ba 0023     		movs	r3, #0
 3037 00bc BB77     		strb	r3, [r7, #30]
 3038              		.loc 1 406 5
 3039 00be 5AE0     		b	.L84
 3040              	.L91:
 407:Module/LCD/lcd.c **** 				{	
 408:Module/LCD/lcd.c **** 					if(!mode)//
 3041              		.loc 1 408 8
 3042 00c0 97F83830 		ldrb	r3, [r7, #56]	@ zero_extendqisi2
 3043 00c4 002B     		cmp	r3, #0
 3044 00c6 2BD1     		bne	.L85
 409:Module/LCD/lcd.c **** 					{
 410:Module/LCD/lcd.c **** 						if(tfont24[k].Msk[i]&(0x01<<j))LCD_WR_DATA(fc);
 3045              		.loc 1 410 24
 3046 00c8 7A8B     		ldrh	r2, [r7, #26]
 3047 00ca FB7F     		ldrb	r3, [r7, #31]	@ zero_extendqisi2
 3048 00cc 3649     		ldr	r1, .L96
 3049 00ce 4A20     		movs	r0, #74
 3050 00d0 00FB02F2 		mul	r2, r0, r2
 3051 00d4 0A44     		add	r2, r2, r1
 3052 00d6 1344     		add	r3, r3, r2
 3053 00d8 0233     		adds	r3, r3, #2
 3054 00da 1B78     		ldrb	r3, [r3]	@ zero_extendqisi2
 3055 00dc 1A46     		mov	r2, r3
 3056              		.loc 1 410 10
 3057 00de BB7F     		ldrb	r3, [r7, #30]	@ zero_extendqisi2
 3058 00e0 42FA03F3 		asr	r3, r2, r3
 3059 00e4 03F00103 		and	r3, r3, #1
 3060              		.loc 1 410 9
 3061 00e8 002B     		cmp	r3, #0
 3062 00ea 04D0     		beq	.L86
 3063              		.loc 1 410 38 discriminator 1
 3064 00ec FB88     		ldrh	r3, [r7, #6]
 3065 00ee 1846     		mov	r0, r3
 3066 00f0 FFF7FEFF 		bl	LCD_WR_DATA
 3067 00f4 03E0     		b	.L87
 3068              	.L86:
 411:Module/LCD/lcd.c **** 						else LCD_WR_DATA(bc);
 3069              		.loc 1 411 12
 3070 00f6 3B8E     		ldrh	r3, [r7, #48]
 3071 00f8 1846     		mov	r0, r3
 3072 00fa FFF7FEFF 		bl	LCD_WR_DATA
 3073              	.L87:
 412:Module/LCD/lcd.c **** 						m++;
 3074              		.loc 1 412 8
 3075 00fe 7B7F     		ldrb	r3, [r7, #29]	@ zero_extendqisi2
 3076 0100 0133     		adds	r3, r3, #1
 3077 0102 7B77     		strb	r3, [r7, #29]
 413:Module/LCD/lcd.c **** 						if(m%sizey==0)
 3078              		.loc 1 413 17
ARM GAS  C:\Users\AURORA~1\AppData\Local\Temp\ccDd7T3c.s 			page 115


 3079 0104 7B7F     		ldrb	r3, [r7, #29]	@ zero_extendqisi2
 3080 0106 97F83420 		ldrb	r2, [r7, #52]	@ zero_extendqisi2
 3081 010a B3FBF2F1 		udiv	r1, r3, r2
 3082 010e 01FB02F2 		mul	r2, r1, r2
 3083 0112 9B1A     		subs	r3, r3, r2
 3084 0114 DBB2     		uxtb	r3, r3
 3085              		.loc 1 413 9
 3086 0116 002B     		cmp	r3, #0
 3087 0118 2AD1     		bne	.L88
 414:Module/LCD/lcd.c **** 						{
 415:Module/LCD/lcd.c **** 							m=0;
 3088              		.loc 1 415 9
 3089 011a 0023     		movs	r3, #0
 3090 011c 7B77     		strb	r3, [r7, #29]
 416:Module/LCD/lcd.c **** 							break;
 3091              		.loc 1 416 8
 3092 011e 2DE0     		b	.L89
 3093              	.L85:
 417:Module/LCD/lcd.c **** 						}
 418:Module/LCD/lcd.c **** 					}
 419:Module/LCD/lcd.c **** 					else//
 420:Module/LCD/lcd.c **** 					{
 421:Module/LCD/lcd.c **** 						if(tfont24[k].Msk[i]&(0x01<<j))	LCD_DrawPoint(x,y,fc);//
 3094              		.loc 1 421 24
 3095 0120 7A8B     		ldrh	r2, [r7, #26]
 3096 0122 FB7F     		ldrb	r3, [r7, #31]	@ zero_extendqisi2
 3097 0124 2049     		ldr	r1, .L96
 3098 0126 4A20     		movs	r0, #74
 3099 0128 00FB02F2 		mul	r2, r0, r2
 3100 012c 0A44     		add	r2, r2, r1
 3101 012e 1344     		add	r3, r3, r2
 3102 0130 0233     		adds	r3, r3, #2
 3103 0132 1B78     		ldrb	r3, [r3]	@ zero_extendqisi2
 3104 0134 1A46     		mov	r2, r3
 3105              		.loc 1 421 10
 3106 0136 BB7F     		ldrb	r3, [r7, #30]	@ zero_extendqisi2
 3107 0138 42FA03F3 		asr	r3, r2, r3
 3108 013c 03F00103 		and	r3, r3, #1
 3109              		.loc 1 421 9
 3110 0140 002B     		cmp	r3, #0
 3111 0142 05D0     		beq	.L90
 3112              		.loc 1 421 39 discriminator 1
 3113 0144 FA88     		ldrh	r2, [r7, #6]
 3114 0146 B989     		ldrh	r1, [r7, #12]
 3115 0148 FB89     		ldrh	r3, [r7, #14]
 3116 014a 1846     		mov	r0, r3
 3117 014c FFF7FEFF 		bl	LCD_DrawPoint
 3118              	.L90:
 422:Module/LCD/lcd.c **** 						x++;
 3119              		.loc 1 422 8
 3120 0150 FB89     		ldrh	r3, [r7, #14]
 3121 0152 0133     		adds	r3, r3, #1
 3122 0154 FB81     		strh	r3, [r7, #14]	@ movhi
 423:Module/LCD/lcd.c **** 						if((x-x0)==sizey)
 3123              		.loc 1 423 12
 3124 0156 FA89     		ldrh	r2, [r7, #14]
 3125 0158 3B8B     		ldrh	r3, [r7, #24]
ARM GAS  C:\Users\AURORA~1\AppData\Local\Temp\ccDd7T3c.s 			page 116


 3126 015a D21A     		subs	r2, r2, r3
 3127              		.loc 1 423 16
 3128 015c 97F83430 		ldrb	r3, [r7, #52]	@ zero_extendqisi2
 3129              		.loc 1 423 9
 3130 0160 9A42     		cmp	r2, r3
 3131 0162 05D1     		bne	.L88
 424:Module/LCD/lcd.c **** 						{
 425:Module/LCD/lcd.c **** 							x=x0;
 3132              		.loc 1 425 9
 3133 0164 3B8B     		ldrh	r3, [r7, #24]	@ movhi
 3134 0166 FB81     		strh	r3, [r7, #14]	@ movhi
 426:Module/LCD/lcd.c **** 							y++;
 3135              		.loc 1 426 9
 3136 0168 BB89     		ldrh	r3, [r7, #12]
 3137 016a 0133     		adds	r3, r3, #1
 3138 016c BB81     		strh	r3, [r7, #12]	@ movhi
 427:Module/LCD/lcd.c **** 							break;
 3139              		.loc 1 427 8
 3140 016e 05E0     		b	.L89
 3141              	.L88:
 406:Module/LCD/lcd.c **** 				{	
 3142              		.loc 1 406 18 discriminator 2
 3143 0170 BB7F     		ldrb	r3, [r7, #30]	@ zero_extendqisi2
 3144 0172 0133     		adds	r3, r3, #1
 3145 0174 BB77     		strb	r3, [r7, #30]
 3146              	.L84:
 406:Module/LCD/lcd.c **** 				{	
 3147              		.loc 1 406 14 discriminator 1
 3148 0176 BB7F     		ldrb	r3, [r7, #30]	@ zero_extendqisi2
 3149 0178 072B     		cmp	r3, #7
 3150 017a A1D9     		bls	.L91
 3151              	.L89:
 404:Module/LCD/lcd.c **** 			{
 3152              		.loc 1 404 27 discriminator 2
 3153 017c FB7F     		ldrb	r3, [r7, #31]	@ zero_extendqisi2
 3154 017e 0133     		adds	r3, r3, #1
 3155 0180 FB77     		strb	r3, [r7, #31]
 3156              	.L83:
 404:Module/LCD/lcd.c **** 			{
 3157              		.loc 1 404 13 discriminator 1
 3158 0182 FB7F     		ldrb	r3, [r7, #31]	@ zero_extendqisi2
 3159 0184 9BB2     		uxth	r3, r3
 3160 0186 FA8A     		ldrh	r2, [r7, #22]
 3161 0188 9A42     		cmp	r2, r3
 3162 018a 96D8     		bhi	.L92
 3163              	.L95:
 428:Module/LCD/lcd.c **** 						}
 429:Module/LCD/lcd.c **** 					}
 430:Module/LCD/lcd.c **** 				}
 431:Module/LCD/lcd.c **** 			}
 432:Module/LCD/lcd.c **** 		}				  	
 433:Module/LCD/lcd.c **** 		continue;  //
 3164              		.loc 1 433 3
 3165 018c 00BF     		nop
 399:Module/LCD/lcd.c **** 	{
 3166              		.loc 1 399 19 discriminator 2
 3167 018e 7B8B     		ldrh	r3, [r7, #26]
ARM GAS  C:\Users\AURORA~1\AppData\Local\Temp\ccDd7T3c.s 			page 117


 3168 0190 0133     		adds	r3, r3, #1
 3169 0192 7B83     		strh	r3, [r7, #26]	@ movhi
 3170              	.L81:
 399:Module/LCD/lcd.c **** 	{
 3171              		.loc 1 399 11 discriminator 1
 3172 0194 7A8B     		ldrh	r2, [r7, #26]
 3173 0196 BB8A     		ldrh	r3, [r7, #20]
 3174 0198 9A42     		cmp	r2, r3
 3175 019a FFF45CAF 		bcc	.L93
 434:Module/LCD/lcd.c **** 	}
 435:Module/LCD/lcd.c **** } 
 3176              		.loc 1 435 1
 3177 019e 00BF     		nop
 3178 01a0 00BF     		nop
 3179 01a2 2437     		adds	r7, r7, #36
 3180              	.LCFI68:
 3181              		.cfi_def_cfa_offset 12
 3182 01a4 BD46     		mov	sp, r7
 3183              	.LCFI69:
 3184              		.cfi_def_cfa_register 13
 3185              		@ sp needed
 3186 01a6 90BD     		pop	{r4, r7, pc}
 3187              	.L97:
 3188              		.align	2
 3189              	.L96:
 3190 01a8 00000000 		.word	tfont24
 3191              		.cfi_endproc
 3192              	.LFE145:
 3194              		.section	.text.LCD_ShowChinese32x32,"ax",%progbits
 3195              		.align	1
 3196              		.global	LCD_ShowChinese32x32
 3197              		.syntax unified
 3198              		.thumb
 3199              		.thumb_func
 3201              	LCD_ShowChinese32x32:
 3202              	.LFB146:
 436:Module/LCD/lcd.c **** 
 437:Module/LCD/lcd.c **** /******************************************************************************
 438:Module/LCD/lcd.c ****       32x32
 439:Module/LCD/lcd.c ****       x,y
 440:Module/LCD/lcd.c ****                 *s 
 441:Module/LCD/lcd.c ****                 fc 
 442:Module/LCD/lcd.c ****                 bc 
 443:Module/LCD/lcd.c ****                 sizey 
 444:Module/LCD/lcd.c ****                 mode:  0  1
 445:Module/LCD/lcd.c ****         
 446:Module/LCD/lcd.c **** ******************************************************************************/
 447:Module/LCD/lcd.c **** void LCD_ShowChinese32x32(uint16_t x,uint16_t y,uint8_t *s,uint16_t fc,uint16_t bc,uint8_t sizey,ui
 448:Module/LCD/lcd.c **** {
 3203              		.loc 1 448 1
 3204              		.cfi_startproc
 3205              		@ args = 12, pretend = 0, frame = 32
 3206              		@ frame_needed = 1, uses_anonymous_args = 0
 3207 0000 90B5     		push	{r4, r7, lr}
 3208              	.LCFI70:
 3209              		.cfi_def_cfa_offset 12
 3210              		.cfi_offset 4, -12
ARM GAS  C:\Users\AURORA~1\AppData\Local\Temp\ccDd7T3c.s 			page 118


 3211              		.cfi_offset 7, -8
 3212              		.cfi_offset 14, -4
 3213 0002 89B0     		sub	sp, sp, #36
 3214              	.LCFI71:
 3215              		.cfi_def_cfa_offset 48
 3216 0004 00AF     		add	r7, sp, #0
 3217              	.LCFI72:
 3218              		.cfi_def_cfa_register 7
 3219 0006 BA60     		str	r2, [r7, #8]
 3220 0008 1A46     		mov	r2, r3
 3221 000a 0346     		mov	r3, r0	@ movhi
 3222 000c FB81     		strh	r3, [r7, #14]	@ movhi
 3223 000e 0B46     		mov	r3, r1	@ movhi
 3224 0010 BB81     		strh	r3, [r7, #12]	@ movhi
 3225 0012 1346     		mov	r3, r2	@ movhi
 3226 0014 FB80     		strh	r3, [r7, #6]	@ movhi
 449:Module/LCD/lcd.c **** 	uint8_t i,j,m=0;
 3227              		.loc 1 449 14
 3228 0016 0023     		movs	r3, #0
 3229 0018 7B77     		strb	r3, [r7, #29]
 450:Module/LCD/lcd.c **** 	uint16_t k;
 451:Module/LCD/lcd.c **** 	uint16_t HZnum;//
 452:Module/LCD/lcd.c **** 	uint16_t TypefaceNum;//
 453:Module/LCD/lcd.c **** 	uint16_t x0=x;
 3230              		.loc 1 453 11
 3231 001a FB89     		ldrh	r3, [r7, #14]	@ movhi
 3232 001c 3B83     		strh	r3, [r7, #24]	@ movhi
 454:Module/LCD/lcd.c **** 	TypefaceNum=(sizey/8+((sizey%8)?1:0))*sizey;
 3233              		.loc 1 454 20
 3234 001e 97F83430 		ldrb	r3, [r7, #52]	@ zero_extendqisi2
 3235 0022 DB08     		lsrs	r3, r3, #3
 3236 0024 DBB2     		uxtb	r3, r3
 3237 0026 1A46     		mov	r2, r3
 3238              		.loc 1 454 35
 3239 0028 97F83430 		ldrb	r3, [r7, #52]
 3240 002c 03F00703 		and	r3, r3, #7
 3241 0030 DBB2     		uxtb	r3, r3
 3242 0032 002B     		cmp	r3, #0
 3243 0034 14BF     		ite	ne
 3244 0036 0123     		movne	r3, #1
 3245 0038 0023     		moveq	r3, #0
 3246 003a DBB2     		uxtb	r3, r3
 3247              		.loc 1 454 22
 3248 003c 1344     		add	r3, r3, r2
 3249              		.loc 1 454 13
 3250 003e 9AB2     		uxth	r2, r3
 3251 0040 97F83430 		ldrb	r3, [r7, #52]	@ zero_extendqisi2
 3252 0044 9BB2     		uxth	r3, r3
 3253 0046 12FB03F3 		smulbb	r3, r2, r3
 3254 004a FB82     		strh	r3, [r7, #22]	@ movhi
 455:Module/LCD/lcd.c **** 	HZnum=sizeof(tfont32)/sizeof(typFNT_GB32);	//
 3255              		.loc 1 455 7
 3256 004c 0523     		movs	r3, #5
 3257 004e BB82     		strh	r3, [r7, #20]	@ movhi
 456:Module/LCD/lcd.c **** 	for(k=0;k<HZnum;k++) 
 3258              		.loc 1 456 7
 3259 0050 0023     		movs	r3, #0
ARM GAS  C:\Users\AURORA~1\AppData\Local\Temp\ccDd7T3c.s 			page 119


 3260 0052 7B83     		strh	r3, [r7, #26]	@ movhi
 3261              		.loc 1 456 2
 3262 0054 A2E0     		b	.L99
 3263              	.L111:
 457:Module/LCD/lcd.c **** 	{
 458:Module/LCD/lcd.c **** 		if ((tfont32[k].Index[0]==*(s))&&(tfont32[k].Index[1]==*(s+1)))
 3264              		.loc 1 458 24
 3265 0056 7A8B     		ldrh	r2, [r7, #26]
 3266 0058 5549     		ldr	r1, .L114
 3267 005a 1346     		mov	r3, r2
 3268 005c 9B01     		lsls	r3, r3, #6
 3269 005e 1344     		add	r3, r3, r2
 3270 0060 5B00     		lsls	r3, r3, #1
 3271 0062 0B44     		add	r3, r3, r1
 3272 0064 1A78     		ldrb	r2, [r3]	@ zero_extendqisi2
 3273              		.loc 1 458 27
 3274 0066 BB68     		ldr	r3, [r7, #8]
 3275 0068 1B78     		ldrb	r3, [r3]	@ zero_extendqisi2
 3276              		.loc 1 458 6
 3277 006a 9A42     		cmp	r2, r3
 3278 006c 40F09280 		bne	.L113
 3279              		.loc 1 458 53 discriminator 1
 3280 0070 7A8B     		ldrh	r2, [r7, #26]
 3281 0072 4F49     		ldr	r1, .L114
 3282 0074 1346     		mov	r3, r2
 3283 0076 9B01     		lsls	r3, r3, #6
 3284 0078 1344     		add	r3, r3, r2
 3285 007a 5B00     		lsls	r3, r3, #1
 3286 007c 0B44     		add	r3, r3, r1
 3287 007e 0133     		adds	r3, r3, #1
 3288 0080 1A78     		ldrb	r2, [r3]	@ zero_extendqisi2
 3289              		.loc 1 458 61 discriminator 1
 3290 0082 BB68     		ldr	r3, [r7, #8]
 3291 0084 0133     		adds	r3, r3, #1
 3292              		.loc 1 458 56 discriminator 1
 3293 0086 1B78     		ldrb	r3, [r3]	@ zero_extendqisi2
 3294              		.loc 1 458 34 discriminator 1
 3295 0088 9A42     		cmp	r2, r3
 3296 008a 40F08380 		bne	.L113
 459:Module/LCD/lcd.c **** 		{ 	
 460:Module/LCD/lcd.c **** 			LCD_Address_Set(x,y,x+sizey-1,y+sizey-1);
 3297              		.loc 1 460 25
 3298 008e 97F83430 		ldrb	r3, [r7, #52]	@ zero_extendqisi2
 3299 0092 9AB2     		uxth	r2, r3
 3300 0094 FB89     		ldrh	r3, [r7, #14]	@ movhi
 3301 0096 1344     		add	r3, r3, r2
 3302 0098 9BB2     		uxth	r3, r3
 3303              		.loc 1 460 4
 3304 009a 013B     		subs	r3, r3, #1
 3305 009c 9CB2     		uxth	r4, r3
 3306              		.loc 1 460 35
 3307 009e 97F83430 		ldrb	r3, [r7, #52]	@ zero_extendqisi2
 3308 00a2 9AB2     		uxth	r2, r3
 3309 00a4 BB89     		ldrh	r3, [r7, #12]	@ movhi
 3310 00a6 1344     		add	r3, r3, r2
 3311 00a8 9BB2     		uxth	r3, r3
 3312              		.loc 1 460 4
ARM GAS  C:\Users\AURORA~1\AppData\Local\Temp\ccDd7T3c.s 			page 120


 3313 00aa 013B     		subs	r3, r3, #1
 3314 00ac 9BB2     		uxth	r3, r3
 3315 00ae B989     		ldrh	r1, [r7, #12]
 3316 00b0 F889     		ldrh	r0, [r7, #14]
 3317 00b2 2246     		mov	r2, r4
 3318 00b4 FFF7FEFF 		bl	LCD_Address_Set
 461:Module/LCD/lcd.c **** 			for(i=0;i<TypefaceNum;i++)
 3319              		.loc 1 461 9
 3320 00b8 0023     		movs	r3, #0
 3321 00ba FB77     		strb	r3, [r7, #31]
 3322              		.loc 1 461 4
 3323 00bc 65E0     		b	.L101
 3324              	.L110:
 462:Module/LCD/lcd.c **** 			{
 463:Module/LCD/lcd.c **** 				for(j=0;j<8;j++)
 3325              		.loc 1 463 10
 3326 00be 0023     		movs	r3, #0
 3327 00c0 BB77     		strb	r3, [r7, #30]
 3328              		.loc 1 463 5
 3329 00c2 5CE0     		b	.L102
 3330              	.L109:
 464:Module/LCD/lcd.c **** 				{	
 465:Module/LCD/lcd.c **** 					if(!mode)//
 3331              		.loc 1 465 8
 3332 00c4 97F83830 		ldrb	r3, [r7, #56]	@ zero_extendqisi2
 3333 00c8 002B     		cmp	r3, #0
 3334 00ca 2CD1     		bne	.L103
 466:Module/LCD/lcd.c **** 					{
 467:Module/LCD/lcd.c **** 						if(tfont32[k].Msk[i]&(0x01<<j))LCD_WR_DATA(fc);
 3335              		.loc 1 467 24
 3336 00cc 7A8B     		ldrh	r2, [r7, #26]
 3337 00ce F97F     		ldrb	r1, [r7, #31]	@ zero_extendqisi2
 3338 00d0 3748     		ldr	r0, .L114
 3339 00d2 1346     		mov	r3, r2
 3340 00d4 9B01     		lsls	r3, r3, #6
 3341 00d6 1344     		add	r3, r3, r2
 3342 00d8 5B00     		lsls	r3, r3, #1
 3343 00da 0344     		add	r3, r3, r0
 3344 00dc 0B44     		add	r3, r3, r1
 3345 00de 0233     		adds	r3, r3, #2
 3346 00e0 1B78     		ldrb	r3, [r3]	@ zero_extendqisi2
 3347 00e2 1A46     		mov	r2, r3
 3348              		.loc 1 467 10
 3349 00e4 BB7F     		ldrb	r3, [r7, #30]	@ zero_extendqisi2
 3350 00e6 42FA03F3 		asr	r3, r2, r3
 3351 00ea 03F00103 		and	r3, r3, #1
 3352              		.loc 1 467 9
 3353 00ee 002B     		cmp	r3, #0
 3354 00f0 04D0     		beq	.L104
 3355              		.loc 1 467 38 discriminator 1
 3356 00f2 FB88     		ldrh	r3, [r7, #6]
 3357 00f4 1846     		mov	r0, r3
 3358 00f6 FFF7FEFF 		bl	LCD_WR_DATA
 3359 00fa 03E0     		b	.L105
 3360              	.L104:
 468:Module/LCD/lcd.c **** 						else LCD_WR_DATA(bc);
 3361              		.loc 1 468 12
ARM GAS  C:\Users\AURORA~1\AppData\Local\Temp\ccDd7T3c.s 			page 121


 3362 00fc 3B8E     		ldrh	r3, [r7, #48]
 3363 00fe 1846     		mov	r0, r3
 3364 0100 FFF7FEFF 		bl	LCD_WR_DATA
 3365              	.L105:
 469:Module/LCD/lcd.c **** 						m++;
 3366              		.loc 1 469 8
 3367 0104 7B7F     		ldrb	r3, [r7, #29]	@ zero_extendqisi2
 3368 0106 0133     		adds	r3, r3, #1
 3369 0108 7B77     		strb	r3, [r7, #29]
 470:Module/LCD/lcd.c **** 						if(m%sizey==0)
 3370              		.loc 1 470 17
 3371 010a 7B7F     		ldrb	r3, [r7, #29]	@ zero_extendqisi2
 3372 010c 97F83420 		ldrb	r2, [r7, #52]	@ zero_extendqisi2
 3373 0110 B3FBF2F1 		udiv	r1, r3, r2
 3374 0114 01FB02F2 		mul	r2, r1, r2
 3375 0118 9B1A     		subs	r3, r3, r2
 3376 011a DBB2     		uxtb	r3, r3
 3377              		.loc 1 470 9
 3378 011c 002B     		cmp	r3, #0
 3379 011e 2BD1     		bne	.L106
 471:Module/LCD/lcd.c **** 						{
 472:Module/LCD/lcd.c **** 							m=0;
 3380              		.loc 1 472 9
 3381 0120 0023     		movs	r3, #0
 3382 0122 7B77     		strb	r3, [r7, #29]
 473:Module/LCD/lcd.c **** 							break;
 3383              		.loc 1 473 8
 3384 0124 2EE0     		b	.L107
 3385              	.L103:
 474:Module/LCD/lcd.c **** 						}
 475:Module/LCD/lcd.c **** 					}
 476:Module/LCD/lcd.c **** 					else//
 477:Module/LCD/lcd.c **** 					{
 478:Module/LCD/lcd.c **** 						if(tfont32[k].Msk[i]&(0x01<<j))	LCD_DrawPoint(x,y,fc);//
 3386              		.loc 1 478 24
 3387 0126 7A8B     		ldrh	r2, [r7, #26]
 3388 0128 F97F     		ldrb	r1, [r7, #31]	@ zero_extendqisi2
 3389 012a 2148     		ldr	r0, .L114
 3390 012c 1346     		mov	r3, r2
 3391 012e 9B01     		lsls	r3, r3, #6
 3392 0130 1344     		add	r3, r3, r2
 3393 0132 5B00     		lsls	r3, r3, #1
 3394 0134 0344     		add	r3, r3, r0
 3395 0136 0B44     		add	r3, r3, r1
 3396 0138 0233     		adds	r3, r3, #2
 3397 013a 1B78     		ldrb	r3, [r3]	@ zero_extendqisi2
 3398 013c 1A46     		mov	r2, r3
 3399              		.loc 1 478 10
 3400 013e BB7F     		ldrb	r3, [r7, #30]	@ zero_extendqisi2
 3401 0140 42FA03F3 		asr	r3, r2, r3
 3402 0144 03F00103 		and	r3, r3, #1
 3403              		.loc 1 478 9
 3404 0148 002B     		cmp	r3, #0
 3405 014a 05D0     		beq	.L108
 3406              		.loc 1 478 39 discriminator 1
 3407 014c FA88     		ldrh	r2, [r7, #6]
 3408 014e B989     		ldrh	r1, [r7, #12]
ARM GAS  C:\Users\AURORA~1\AppData\Local\Temp\ccDd7T3c.s 			page 122


 3409 0150 FB89     		ldrh	r3, [r7, #14]
 3410 0152 1846     		mov	r0, r3
 3411 0154 FFF7FEFF 		bl	LCD_DrawPoint
 3412              	.L108:
 479:Module/LCD/lcd.c **** 						x++;
 3413              		.loc 1 479 8
 3414 0158 FB89     		ldrh	r3, [r7, #14]
 3415 015a 0133     		adds	r3, r3, #1
 3416 015c FB81     		strh	r3, [r7, #14]	@ movhi
 480:Module/LCD/lcd.c **** 						if((x-x0)==sizey)
 3417              		.loc 1 480 12
 3418 015e FA89     		ldrh	r2, [r7, #14]
 3419 0160 3B8B     		ldrh	r3, [r7, #24]
 3420 0162 D21A     		subs	r2, r2, r3
 3421              		.loc 1 480 16
 3422 0164 97F83430 		ldrb	r3, [r7, #52]	@ zero_extendqisi2
 3423              		.loc 1 480 9
 3424 0168 9A42     		cmp	r2, r3
 3425 016a 05D1     		bne	.L106
 481:Module/LCD/lcd.c **** 						{
 482:Module/LCD/lcd.c **** 							x=x0;
 3426              		.loc 1 482 9
 3427 016c 3B8B     		ldrh	r3, [r7, #24]	@ movhi
 3428 016e FB81     		strh	r3, [r7, #14]	@ movhi
 483:Module/LCD/lcd.c **** 							y++;
 3429              		.loc 1 483 9
 3430 0170 BB89     		ldrh	r3, [r7, #12]
 3431 0172 0133     		adds	r3, r3, #1
 3432 0174 BB81     		strh	r3, [r7, #12]	@ movhi
 484:Module/LCD/lcd.c **** 							break;
 3433              		.loc 1 484 8
 3434 0176 05E0     		b	.L107
 3435              	.L106:
 463:Module/LCD/lcd.c **** 				{	
 3436              		.loc 1 463 18 discriminator 2
 3437 0178 BB7F     		ldrb	r3, [r7, #30]	@ zero_extendqisi2
 3438 017a 0133     		adds	r3, r3, #1
 3439 017c BB77     		strb	r3, [r7, #30]
 3440              	.L102:
 463:Module/LCD/lcd.c **** 				{	
 3441              		.loc 1 463 14 discriminator 1
 3442 017e BB7F     		ldrb	r3, [r7, #30]	@ zero_extendqisi2
 3443 0180 072B     		cmp	r3, #7
 3444 0182 9FD9     		bls	.L109
 3445              	.L107:
 461:Module/LCD/lcd.c **** 			{
 3446              		.loc 1 461 27 discriminator 2
 3447 0184 FB7F     		ldrb	r3, [r7, #31]	@ zero_extendqisi2
 3448 0186 0133     		adds	r3, r3, #1
 3449 0188 FB77     		strb	r3, [r7, #31]
 3450              	.L101:
 461:Module/LCD/lcd.c **** 			{
 3451              		.loc 1 461 13 discriminator 1
 3452 018a FB7F     		ldrb	r3, [r7, #31]	@ zero_extendqisi2
 3453 018c 9BB2     		uxth	r3, r3
 3454 018e FA8A     		ldrh	r2, [r7, #22]
 3455 0190 9A42     		cmp	r2, r3
ARM GAS  C:\Users\AURORA~1\AppData\Local\Temp\ccDd7T3c.s 			page 123


 3456 0192 94D8     		bhi	.L110
 3457              	.L113:
 485:Module/LCD/lcd.c **** 						}
 486:Module/LCD/lcd.c **** 					}
 487:Module/LCD/lcd.c **** 				}
 488:Module/LCD/lcd.c **** 			}
 489:Module/LCD/lcd.c **** 		}				  	
 490:Module/LCD/lcd.c **** 		continue;  //
 3458              		.loc 1 490 3
 3459 0194 00BF     		nop
 456:Module/LCD/lcd.c **** 	{
 3460              		.loc 1 456 19 discriminator 2
 3461 0196 7B8B     		ldrh	r3, [r7, #26]
 3462 0198 0133     		adds	r3, r3, #1
 3463 019a 7B83     		strh	r3, [r7, #26]	@ movhi
 3464              	.L99:
 456:Module/LCD/lcd.c **** 	{
 3465              		.loc 1 456 11 discriminator 1
 3466 019c 7A8B     		ldrh	r2, [r7, #26]
 3467 019e BB8A     		ldrh	r3, [r7, #20]
 3468 01a0 9A42     		cmp	r2, r3
 3469 01a2 FFF458AF 		bcc	.L111
 491:Module/LCD/lcd.c **** 	}
 492:Module/LCD/lcd.c **** }
 3470              		.loc 1 492 1
 3471 01a6 00BF     		nop
 3472 01a8 00BF     		nop
 3473 01aa 2437     		adds	r7, r7, #36
 3474              	.LCFI73:
 3475              		.cfi_def_cfa_offset 12
 3476 01ac BD46     		mov	sp, r7
 3477              	.LCFI74:
 3478              		.cfi_def_cfa_register 13
 3479              		@ sp needed
 3480 01ae 90BD     		pop	{r4, r7, pc}
 3481              	.L115:
 3482              		.align	2
 3483              	.L114:
 3484 01b0 00000000 		.word	tfont32
 3485              		.cfi_endproc
 3486              	.LFE146:
 3488              		.section	.text.LCD_ShowChar,"ax",%progbits
 3489              		.align	1
 3490              		.global	LCD_ShowChar
 3491              		.syntax unified
 3492              		.thumb
 3493              		.thumb_func
 3495              	LCD_ShowChar:
 3496              	.LFB147:
 493:Module/LCD/lcd.c **** 
 494:Module/LCD/lcd.c **** 
 495:Module/LCD/lcd.c **** /******************************************************************************
 496:Module/LCD/lcd.c ****       
 497:Module/LCD/lcd.c ****       x,y
 498:Module/LCD/lcd.c ****                 num 
 499:Module/LCD/lcd.c ****                 fc 
 500:Module/LCD/lcd.c ****                 bc 
ARM GAS  C:\Users\AURORA~1\AppData\Local\Temp\ccDd7T3c.s 			page 124


 501:Module/LCD/lcd.c ****                 sizey 
 502:Module/LCD/lcd.c ****                 mode:  0  1
 503:Module/LCD/lcd.c ****         
 504:Module/LCD/lcd.c **** ******************************************************************************/
 505:Module/LCD/lcd.c **** void LCD_ShowChar(uint16_t x,uint16_t y,uint8_t num,uint16_t fc,uint16_t bc,uint8_t sizey,uint8_t m
 506:Module/LCD/lcd.c **** {
 3497              		.loc 1 506 1
 3498              		.cfi_startproc
 3499              		@ args = 12, pretend = 0, frame = 24
 3500              		@ frame_needed = 1, uses_anonymous_args = 0
 3501 0000 90B5     		push	{r4, r7, lr}
 3502              	.LCFI75:
 3503              		.cfi_def_cfa_offset 12
 3504              		.cfi_offset 4, -12
 3505              		.cfi_offset 7, -8
 3506              		.cfi_offset 14, -4
 3507 0002 87B0     		sub	sp, sp, #28
 3508              	.LCFI76:
 3509              		.cfi_def_cfa_offset 40
 3510 0004 00AF     		add	r7, sp, #0
 3511              	.LCFI77:
 3512              		.cfi_def_cfa_register 7
 3513 0006 0446     		mov	r4, r0
 3514 0008 0846     		mov	r0, r1
 3515 000a 1146     		mov	r1, r2
 3516 000c 1A46     		mov	r2, r3
 3517 000e 2346     		mov	r3, r4	@ movhi
 3518 0010 FB80     		strh	r3, [r7, #6]	@ movhi
 3519 0012 0346     		mov	r3, r0	@ movhi
 3520 0014 BB80     		strh	r3, [r7, #4]	@ movhi
 3521 0016 0B46     		mov	r3, r1
 3522 0018 FB70     		strb	r3, [r7, #3]
 3523 001a 1346     		mov	r3, r2	@ movhi
 3524 001c 3B80     		strh	r3, [r7]	@ movhi
 507:Module/LCD/lcd.c **** 	uint8_t temp,sizex,t,m=0;
 3525              		.loc 1 507 23
 3526 001e 0023     		movs	r3, #0
 3527 0020 7B75     		strb	r3, [r7, #21]
 508:Module/LCD/lcd.c **** 	uint16_t i,TypefaceNum;//
 509:Module/LCD/lcd.c **** 	uint16_t x0=x;
 3528              		.loc 1 509 11
 3529 0022 FB88     		ldrh	r3, [r7, #6]	@ movhi
 3530 0024 3B82     		strh	r3, [r7, #16]	@ movhi
 510:Module/LCD/lcd.c **** 	sizex=sizey/2;
 3531              		.loc 1 510 7
 3532 0026 97F82C30 		ldrb	r3, [r7, #44]	@ zero_extendqisi2
 3533 002a 5B08     		lsrs	r3, r3, #1
 3534 002c FB73     		strb	r3, [r7, #15]
 511:Module/LCD/lcd.c **** 	TypefaceNum=(sizex/8+((sizex%8)?1:0))*sizey;
 3535              		.loc 1 511 20
 3536 002e FB7B     		ldrb	r3, [r7, #15]	@ zero_extendqisi2
 3537 0030 DB08     		lsrs	r3, r3, #3
 3538 0032 DBB2     		uxtb	r3, r3
 3539 0034 1A46     		mov	r2, r3
 3540              		.loc 1 511 35
 3541 0036 FB7B     		ldrb	r3, [r7, #15]
 3542 0038 03F00703 		and	r3, r3, #7
ARM GAS  C:\Users\AURORA~1\AppData\Local\Temp\ccDd7T3c.s 			page 125


 3543 003c DBB2     		uxtb	r3, r3
 3544 003e 002B     		cmp	r3, #0
 3545 0040 14BF     		ite	ne
 3546 0042 0123     		movne	r3, #1
 3547 0044 0023     		moveq	r3, #0
 3548 0046 DBB2     		uxtb	r3, r3
 3549              		.loc 1 511 22
 3550 0048 1344     		add	r3, r3, r2
 3551              		.loc 1 511 13
 3552 004a 9AB2     		uxth	r2, r3
 3553 004c 97F82C30 		ldrb	r3, [r7, #44]	@ zero_extendqisi2
 3554 0050 9BB2     		uxth	r3, r3
 3555 0052 12FB03F3 		smulbb	r3, r2, r3
 3556 0056 BB81     		strh	r3, [r7, #12]	@ movhi
 512:Module/LCD/lcd.c **** 	num=num-' ';    //
 3557              		.loc 1 512 5
 3558 0058 FB78     		ldrb	r3, [r7, #3]
 3559 005a 203B     		subs	r3, r3, #32
 3560 005c FB70     		strb	r3, [r7, #3]
 513:Module/LCD/lcd.c **** 	LCD_Address_Set(x,y,x+sizex-1,y+sizey-1);  // 
 3561              		.loc 1 513 23
 3562 005e FB7B     		ldrb	r3, [r7, #15]	@ zero_extendqisi2
 3563 0060 9AB2     		uxth	r2, r3
 3564 0062 FB88     		ldrh	r3, [r7, #6]	@ movhi
 3565 0064 1344     		add	r3, r3, r2
 3566 0066 9BB2     		uxth	r3, r3
 3567              		.loc 1 513 2
 3568 0068 013B     		subs	r3, r3, #1
 3569 006a 9CB2     		uxth	r4, r3
 3570              		.loc 1 513 33
 3571 006c 97F82C30 		ldrb	r3, [r7, #44]	@ zero_extendqisi2
 3572 0070 9AB2     		uxth	r2, r3
 3573 0072 BB88     		ldrh	r3, [r7, #4]	@ movhi
 3574 0074 1344     		add	r3, r3, r2
 3575 0076 9BB2     		uxth	r3, r3
 3576              		.loc 1 513 2
 3577 0078 013B     		subs	r3, r3, #1
 3578 007a 9BB2     		uxth	r3, r3
 3579 007c B988     		ldrh	r1, [r7, #4]
 3580 007e F888     		ldrh	r0, [r7, #6]
 3581 0080 2246     		mov	r2, r4
 3582 0082 FFF7FEFF 		bl	LCD_Address_Set
 514:Module/LCD/lcd.c **** 	for(i=0;i<TypefaceNum;i++)
 3583              		.loc 1 514 7
 3584 0086 0023     		movs	r3, #0
 3585 0088 7B82     		strh	r3, [r7, #18]	@ movhi
 3586              		.loc 1 514 2
 3587 008a 86E0     		b	.L117
 3588              	.L132:
 515:Module/LCD/lcd.c **** 	{ 
 516:Module/LCD/lcd.c **** 		if(sizey==12)temp=ascii_1206[num][i];		       //6x12
 3589              		.loc 1 516 5
 3590 008c 97F82C30 		ldrb	r3, [r7, #44]	@ zero_extendqisi2
 3591 0090 0C2B     		cmp	r3, #12
 3592 0092 0BD1     		bne	.L118
 3593              		.loc 1 516 36 discriminator 1
 3594 0094 FA78     		ldrb	r2, [r7, #3]	@ zero_extendqisi2
ARM GAS  C:\Users\AURORA~1\AppData\Local\Temp\ccDd7T3c.s 			page 126


 3595 0096 798A     		ldrh	r1, [r7, #18]
 3596              		.loc 1 516 20 discriminator 1
 3597 0098 4548     		ldr	r0, .L134
 3598 009a 1346     		mov	r3, r2
 3599 009c 5B00     		lsls	r3, r3, #1
 3600 009e 1344     		add	r3, r3, r2
 3601 00a0 9B00     		lsls	r3, r3, #2
 3602 00a2 0344     		add	r3, r3, r0
 3603 00a4 0B44     		add	r3, r3, r1
 3604 00a6 1B78     		ldrb	r3, [r3]
 3605 00a8 FB75     		strb	r3, [r7, #23]
 3606 00aa 28E0     		b	.L119
 3607              	.L118:
 517:Module/LCD/lcd.c **** 		else if(sizey==16)temp=ascii_1608[num][i];		 //8x16
 3608              		.loc 1 517 10
 3609 00ac 97F82C30 		ldrb	r3, [r7, #44]	@ zero_extendqisi2
 3610 00b0 102B     		cmp	r3, #16
 3611 00b2 08D1     		bne	.L120
 3612              		.loc 1 517 41 discriminator 1
 3613 00b4 FA78     		ldrb	r2, [r7, #3]	@ zero_extendqisi2
 3614 00b6 7B8A     		ldrh	r3, [r7, #18]
 3615              		.loc 1 517 25 discriminator 1
 3616 00b8 3E49     		ldr	r1, .L134+4
 3617 00ba 1201     		lsls	r2, r2, #4
 3618 00bc 0A44     		add	r2, r2, r1
 3619 00be 1344     		add	r3, r3, r2
 3620 00c0 1B78     		ldrb	r3, [r3]
 3621 00c2 FB75     		strb	r3, [r7, #23]
 3622 00c4 1BE0     		b	.L119
 3623              	.L120:
 518:Module/LCD/lcd.c **** 		else if(sizey==24)temp=ascii_2412[num][i];		 //12x24
 3624              		.loc 1 518 10
 3625 00c6 97F82C30 		ldrb	r3, [r7, #44]	@ zero_extendqisi2
 3626 00ca 182B     		cmp	r3, #24
 3627 00cc 0BD1     		bne	.L121
 3628              		.loc 1 518 41 discriminator 1
 3629 00ce FA78     		ldrb	r2, [r7, #3]	@ zero_extendqisi2
 3630 00d0 798A     		ldrh	r1, [r7, #18]
 3631              		.loc 1 518 25 discriminator 1
 3632 00d2 3948     		ldr	r0, .L134+8
 3633 00d4 1346     		mov	r3, r2
 3634 00d6 5B00     		lsls	r3, r3, #1
 3635 00d8 1344     		add	r3, r3, r2
 3636 00da 1B01     		lsls	r3, r3, #4
 3637 00dc 0344     		add	r3, r3, r0
 3638 00de 0B44     		add	r3, r3, r1
 3639 00e0 1B78     		ldrb	r3, [r3]
 3640 00e2 FB75     		strb	r3, [r7, #23]
 3641 00e4 0BE0     		b	.L119
 3642              	.L121:
 519:Module/LCD/lcd.c **** 		else if(sizey==32)temp=ascii_3216[num][i];		 //16x32
 3643              		.loc 1 519 10
 3644 00e6 97F82C30 		ldrb	r3, [r7, #44]	@ zero_extendqisi2
 3645 00ea 202B     		cmp	r3, #32
 3646 00ec 5BD1     		bne	.L133
 3647              		.loc 1 519 41 discriminator 1
 3648 00ee FA78     		ldrb	r2, [r7, #3]	@ zero_extendqisi2
ARM GAS  C:\Users\AURORA~1\AppData\Local\Temp\ccDd7T3c.s 			page 127


 3649 00f0 7B8A     		ldrh	r3, [r7, #18]
 3650              		.loc 1 519 25 discriminator 1
 3651 00f2 3249     		ldr	r1, .L134+12
 3652 00f4 9201     		lsls	r2, r2, #6
 3653 00f6 0A44     		add	r2, r2, r1
 3654 00f8 1344     		add	r3, r3, r2
 3655 00fa 1B78     		ldrb	r3, [r3]
 3656 00fc FB75     		strb	r3, [r7, #23]
 3657              	.L119:
 520:Module/LCD/lcd.c **** 		else return;
 521:Module/LCD/lcd.c **** 		for(t=0;t<8;t++)
 3658              		.loc 1 521 8
 3659 00fe 0023     		movs	r3, #0
 3660 0100 BB75     		strb	r3, [r7, #22]
 3661              		.loc 1 521 3
 3662 0102 44E0     		b	.L124
 3663              	.L131:
 522:Module/LCD/lcd.c **** 		{
 523:Module/LCD/lcd.c **** 			if(!mode)//
 3664              		.loc 1 523 6
 3665 0104 97F83030 		ldrb	r3, [r7, #48]	@ zero_extendqisi2
 3666 0108 002B     		cmp	r3, #0
 3667 010a 20D1     		bne	.L125
 524:Module/LCD/lcd.c **** 			{
 525:Module/LCD/lcd.c **** 				if(temp&(0x01<<t))LCD_WR_DATA(fc);
 3668              		.loc 1 525 8
 3669 010c FA7D     		ldrb	r2, [r7, #23]	@ zero_extendqisi2
 3670 010e BB7D     		ldrb	r3, [r7, #22]	@ zero_extendqisi2
 3671 0110 42FA03F3 		asr	r3, r2, r3
 3672 0114 03F00103 		and	r3, r3, #1
 3673              		.loc 1 525 7
 3674 0118 002B     		cmp	r3, #0
 3675 011a 04D0     		beq	.L126
 3676              		.loc 1 525 23 discriminator 1
 3677 011c 3B88     		ldrh	r3, [r7]
 3678 011e 1846     		mov	r0, r3
 3679 0120 FFF7FEFF 		bl	LCD_WR_DATA
 3680 0124 03E0     		b	.L127
 3681              	.L126:
 526:Module/LCD/lcd.c **** 				else LCD_WR_DATA(bc);
 3682              		.loc 1 526 10
 3683 0126 3B8D     		ldrh	r3, [r7, #40]
 3684 0128 1846     		mov	r0, r3
 3685 012a FFF7FEFF 		bl	LCD_WR_DATA
 3686              	.L127:
 527:Module/LCD/lcd.c **** 				m++;
 3687              		.loc 1 527 6
 3688 012e 7B7D     		ldrb	r3, [r7, #21]	@ zero_extendqisi2
 3689 0130 0133     		adds	r3, r3, #1
 3690 0132 7B75     		strb	r3, [r7, #21]
 528:Module/LCD/lcd.c **** 				if(m%sizex==0)
 3691              		.loc 1 528 15
 3692 0134 7B7D     		ldrb	r3, [r7, #21]	@ zero_extendqisi2
 3693 0136 FA7B     		ldrb	r2, [r7, #15]	@ zero_extendqisi2
 3694 0138 B3FBF2F1 		udiv	r1, r3, r2
 3695 013c 01FB02F2 		mul	r2, r1, r2
 3696 0140 9B1A     		subs	r3, r3, r2
ARM GAS  C:\Users\AURORA~1\AppData\Local\Temp\ccDd7T3c.s 			page 128


 3697 0142 DBB2     		uxtb	r3, r3
 3698              		.loc 1 528 7
 3699 0144 002B     		cmp	r3, #0
 3700 0146 1FD1     		bne	.L128
 529:Module/LCD/lcd.c **** 				{
 530:Module/LCD/lcd.c **** 					m=0;
 3701              		.loc 1 530 7
 3702 0148 0023     		movs	r3, #0
 3703 014a 7B75     		strb	r3, [r7, #21]
 531:Module/LCD/lcd.c **** 					break;
 3704              		.loc 1 531 6
 3705 014c 22E0     		b	.L129
 3706              	.L125:
 532:Module/LCD/lcd.c **** 				}
 533:Module/LCD/lcd.c **** 			}
 534:Module/LCD/lcd.c **** 			else//
 535:Module/LCD/lcd.c **** 			{
 536:Module/LCD/lcd.c **** 				if(temp&(0x01<<t))LCD_DrawPoint(x,y,fc);//
 3707              		.loc 1 536 8
 3708 014e FA7D     		ldrb	r2, [r7, #23]	@ zero_extendqisi2
 3709 0150 BB7D     		ldrb	r3, [r7, #22]	@ zero_extendqisi2
 3710 0152 42FA03F3 		asr	r3, r2, r3
 3711 0156 03F00103 		and	r3, r3, #1
 3712              		.loc 1 536 7
 3713 015a 002B     		cmp	r3, #0
 3714 015c 05D0     		beq	.L130
 3715              		.loc 1 536 23 discriminator 1
 3716 015e 3A88     		ldrh	r2, [r7]
 3717 0160 B988     		ldrh	r1, [r7, #4]
 3718 0162 FB88     		ldrh	r3, [r7, #6]
 3719 0164 1846     		mov	r0, r3
 3720 0166 FFF7FEFF 		bl	LCD_DrawPoint
 3721              	.L130:
 537:Module/LCD/lcd.c **** 				x++;
 3722              		.loc 1 537 6
 3723 016a FB88     		ldrh	r3, [r7, #6]
 3724 016c 0133     		adds	r3, r3, #1
 3725 016e FB80     		strh	r3, [r7, #6]	@ movhi
 538:Module/LCD/lcd.c **** 				if((x-x0)==sizex)
 3726              		.loc 1 538 10
 3727 0170 FA88     		ldrh	r2, [r7, #6]
 3728 0172 3B8A     		ldrh	r3, [r7, #16]
 3729 0174 D21A     		subs	r2, r2, r3
 3730              		.loc 1 538 14
 3731 0176 FB7B     		ldrb	r3, [r7, #15]	@ zero_extendqisi2
 3732              		.loc 1 538 7
 3733 0178 9A42     		cmp	r2, r3
 3734 017a 05D1     		bne	.L128
 539:Module/LCD/lcd.c **** 				{
 540:Module/LCD/lcd.c **** 					x=x0;
 3735              		.loc 1 540 7
 3736 017c 3B8A     		ldrh	r3, [r7, #16]	@ movhi
 3737 017e FB80     		strh	r3, [r7, #6]	@ movhi
 541:Module/LCD/lcd.c **** 					y++;
 3738              		.loc 1 541 7
 3739 0180 BB88     		ldrh	r3, [r7, #4]
 3740 0182 0133     		adds	r3, r3, #1
ARM GAS  C:\Users\AURORA~1\AppData\Local\Temp\ccDd7T3c.s 			page 129


 3741 0184 BB80     		strh	r3, [r7, #4]	@ movhi
 542:Module/LCD/lcd.c **** 					break;
 3742              		.loc 1 542 6
 3743 0186 05E0     		b	.L129
 3744              	.L128:
 521:Module/LCD/lcd.c **** 		{
 3745              		.loc 1 521 16 discriminator 2
 3746 0188 BB7D     		ldrb	r3, [r7, #22]	@ zero_extendqisi2
 3747 018a 0133     		adds	r3, r3, #1
 3748 018c BB75     		strb	r3, [r7, #22]
 3749              	.L124:
 521:Module/LCD/lcd.c **** 		{
 3750              		.loc 1 521 12 discriminator 1
 3751 018e BB7D     		ldrb	r3, [r7, #22]	@ zero_extendqisi2
 3752 0190 072B     		cmp	r3, #7
 3753 0192 B7D9     		bls	.L131
 3754              	.L129:
 514:Module/LCD/lcd.c **** 	{ 
 3755              		.loc 1 514 25 discriminator 2
 3756 0194 7B8A     		ldrh	r3, [r7, #18]
 3757 0196 0133     		adds	r3, r3, #1
 3758 0198 7B82     		strh	r3, [r7, #18]	@ movhi
 3759              	.L117:
 514:Module/LCD/lcd.c **** 	{ 
 3760              		.loc 1 514 11 discriminator 1
 3761 019a 7A8A     		ldrh	r2, [r7, #18]
 3762 019c BB89     		ldrh	r3, [r7, #12]
 3763 019e 9A42     		cmp	r2, r3
 3764 01a0 FFF474AF 		bcc	.L132
 3765 01a4 00E0     		b	.L116
 3766              	.L133:
 520:Module/LCD/lcd.c **** 		for(t=0;t<8;t++)
 3767              		.loc 1 520 8
 3768 01a6 00BF     		nop
 3769              	.L116:
 543:Module/LCD/lcd.c **** 				}
 544:Module/LCD/lcd.c **** 			}
 545:Module/LCD/lcd.c **** 		}
 546:Module/LCD/lcd.c **** 	}   	 	  
 547:Module/LCD/lcd.c **** }
 3770              		.loc 1 547 1
 3771 01a8 1C37     		adds	r7, r7, #28
 3772              	.LCFI78:
 3773              		.cfi_def_cfa_offset 12
 3774 01aa BD46     		mov	sp, r7
 3775              	.LCFI79:
 3776              		.cfi_def_cfa_register 13
 3777              		@ sp needed
 3778 01ac 90BD     		pop	{r4, r7, pc}
 3779              	.L135:
 3780 01ae 00BF     		.align	2
 3781              	.L134:
 3782 01b0 00000000 		.word	ascii_1206
 3783 01b4 00000000 		.word	ascii_1608
 3784 01b8 00000000 		.word	ascii_2412
 3785 01bc 00000000 		.word	ascii_3216
 3786              		.cfi_endproc
ARM GAS  C:\Users\AURORA~1\AppData\Local\Temp\ccDd7T3c.s 			page 130


 3787              	.LFE147:
 3789              		.section	.text.LCD_ShowString,"ax",%progbits
 3790              		.align	1
 3791              		.global	LCD_ShowString
 3792              		.syntax unified
 3793              		.thumb
 3794              		.thumb_func
 3796              	LCD_ShowString:
 3797              	.LFB148:
 548:Module/LCD/lcd.c **** 
 549:Module/LCD/lcd.c **** 
 550:Module/LCD/lcd.c **** /******************************************************************************
 551:Module/LCD/lcd.c ****       
 552:Module/LCD/lcd.c ****       x,y
 553:Module/LCD/lcd.c ****                 *p 
 554:Module/LCD/lcd.c ****                 fc 
 555:Module/LCD/lcd.c ****                 bc 
 556:Module/LCD/lcd.c ****                 sizey 
 557:Module/LCD/lcd.c ****                 mode:  0  1
 558:Module/LCD/lcd.c ****         
 559:Module/LCD/lcd.c **** ******************************************************************************/
 560:Module/LCD/lcd.c **** void LCD_ShowString(uint16_t x,uint16_t y,const uint8_t *p,uint16_t fc,uint16_t bc,uint8_t sizey,ui
 561:Module/LCD/lcd.c **** {         
 3798              		.loc 1 561 1
 3799              		.cfi_startproc
 3800              		@ args = 12, pretend = 0, frame = 16
 3801              		@ frame_needed = 1, uses_anonymous_args = 0
 3802 0000 90B5     		push	{r4, r7, lr}
 3803              	.LCFI80:
 3804              		.cfi_def_cfa_offset 12
 3805              		.cfi_offset 4, -12
 3806              		.cfi_offset 7, -8
 3807              		.cfi_offset 14, -4
 3808 0002 89B0     		sub	sp, sp, #36
 3809              	.LCFI81:
 3810              		.cfi_def_cfa_offset 48
 3811 0004 04AF     		add	r7, sp, #16
 3812              	.LCFI82:
 3813              		.cfi_def_cfa 7, 32
 3814 0006 BA60     		str	r2, [r7, #8]
 3815 0008 1A46     		mov	r2, r3
 3816 000a 0346     		mov	r3, r0	@ movhi
 3817 000c FB81     		strh	r3, [r7, #14]	@ movhi
 3818 000e 0B46     		mov	r3, r1	@ movhi
 3819 0010 BB81     		strh	r3, [r7, #12]	@ movhi
 3820 0012 1346     		mov	r3, r2	@ movhi
 3821 0014 FB80     		strh	r3, [r7, #6]	@ movhi
 562:Module/LCD/lcd.c **** 	while(*p!='\0')
 3822              		.loc 1 562 7
 3823 0016 1AE0     		b	.L137
 3824              	.L138:
 563:Module/LCD/lcd.c **** 	{       
 564:Module/LCD/lcd.c **** 		LCD_ShowChar(x,y,*p,fc,bc,sizey,mode);
 3825              		.loc 1 564 3
 3826 0018 BB68     		ldr	r3, [r7, #8]
 3827 001a 1A78     		ldrb	r2, [r3]	@ zero_extendqisi2
 3828 001c FC88     		ldrh	r4, [r7, #6]
ARM GAS  C:\Users\AURORA~1\AppData\Local\Temp\ccDd7T3c.s 			page 131


 3829 001e B989     		ldrh	r1, [r7, #12]
 3830 0020 F889     		ldrh	r0, [r7, #14]
 3831 0022 97F82830 		ldrb	r3, [r7, #40]	@ zero_extendqisi2
 3832 0026 0293     		str	r3, [sp, #8]
 3833 0028 97F82430 		ldrb	r3, [r7, #36]	@ zero_extendqisi2
 3834 002c 0193     		str	r3, [sp, #4]
 3835 002e 3B8C     		ldrh	r3, [r7, #32]
 3836 0030 0093     		str	r3, [sp]
 3837 0032 2346     		mov	r3, r4
 3838 0034 FFF7FEFF 		bl	LCD_ShowChar
 565:Module/LCD/lcd.c **** 		x+=sizey/2;
 3839              		.loc 1 565 4
 3840 0038 97F82430 		ldrb	r3, [r7, #36]	@ zero_extendqisi2
 3841 003c 5B08     		lsrs	r3, r3, #1
 3842 003e DBB2     		uxtb	r3, r3
 3843 0040 1A46     		mov	r2, r3
 3844 0042 FB89     		ldrh	r3, [r7, #14]	@ movhi
 3845 0044 1344     		add	r3, r3, r2
 3846 0046 FB81     		strh	r3, [r7, #14]	@ movhi
 566:Module/LCD/lcd.c **** 		p++;
 3847              		.loc 1 566 4
 3848 0048 BB68     		ldr	r3, [r7, #8]
 3849 004a 0133     		adds	r3, r3, #1
 3850 004c BB60     		str	r3, [r7, #8]
 3851              	.L137:
 562:Module/LCD/lcd.c **** 	{       
 3852              		.loc 1 562 8
 3853 004e BB68     		ldr	r3, [r7, #8]
 3854 0050 1B78     		ldrb	r3, [r3]	@ zero_extendqisi2
 562:Module/LCD/lcd.c **** 	{       
 3855              		.loc 1 562 10
 3856 0052 002B     		cmp	r3, #0
 3857 0054 E0D1     		bne	.L138
 567:Module/LCD/lcd.c **** 	}  
 568:Module/LCD/lcd.c **** }
 3858              		.loc 1 568 1
 3859 0056 00BF     		nop
 3860 0058 00BF     		nop
 3861 005a 1437     		adds	r7, r7, #20
 3862              	.LCFI83:
 3863              		.cfi_def_cfa_offset 12
 3864 005c BD46     		mov	sp, r7
 3865              	.LCFI84:
 3866              		.cfi_def_cfa_register 13
 3867              		@ sp needed
 3868 005e 90BD     		pop	{r4, r7, pc}
 3869              		.cfi_endproc
 3870              	.LFE148:
 3872              		.section	.text.mypow,"ax",%progbits
 3873              		.align	1
 3874              		.global	mypow
 3875              		.syntax unified
 3876              		.thumb
 3877              		.thumb_func
 3879              	mypow:
 3880              	.LFB149:
 569:Module/LCD/lcd.c **** 
ARM GAS  C:\Users\AURORA~1\AppData\Local\Temp\ccDd7T3c.s 			page 132


 570:Module/LCD/lcd.c **** 
 571:Module/LCD/lcd.c **** /******************************************************************************
 572:Module/LCD/lcd.c ****       
 573:Module/LCD/lcd.c ****       mn
 574:Module/LCD/lcd.c ****         
 575:Module/LCD/lcd.c **** ******************************************************************************/
 576:Module/LCD/lcd.c **** uint32_t mypow(uint8_t m,uint8_t n)
 577:Module/LCD/lcd.c **** {
 3881              		.loc 1 577 1
 3882              		.cfi_startproc
 3883              		@ args = 0, pretend = 0, frame = 16
 3884              		@ frame_needed = 1, uses_anonymous_args = 0
 3885              		@ link register save eliminated.
 3886 0000 80B4     		push	{r7}
 3887              	.LCFI85:
 3888              		.cfi_def_cfa_offset 4
 3889              		.cfi_offset 7, -4
 3890 0002 85B0     		sub	sp, sp, #20
 3891              	.LCFI86:
 3892              		.cfi_def_cfa_offset 24
 3893 0004 00AF     		add	r7, sp, #0
 3894              	.LCFI87:
 3895              		.cfi_def_cfa_register 7
 3896 0006 0346     		mov	r3, r0
 3897 0008 0A46     		mov	r2, r1
 3898 000a FB71     		strb	r3, [r7, #7]
 3899 000c 1346     		mov	r3, r2
 3900 000e BB71     		strb	r3, [r7, #6]
 578:Module/LCD/lcd.c **** 	uint32_t result=1;	 
 3901              		.loc 1 578 11
 3902 0010 0123     		movs	r3, #1
 3903 0012 FB60     		str	r3, [r7, #12]
 579:Module/LCD/lcd.c **** 	while(n--)result*=m;
 3904              		.loc 1 579 7
 3905 0014 04E0     		b	.L140
 3906              	.L141:
 3907              		.loc 1 579 18 discriminator 2
 3908 0016 FA79     		ldrb	r2, [r7, #7]	@ zero_extendqisi2
 3909 0018 FB68     		ldr	r3, [r7, #12]
 3910 001a 02FB03F3 		mul	r3, r2, r3
 3911 001e FB60     		str	r3, [r7, #12]
 3912              	.L140:
 3913              		.loc 1 579 9 discriminator 1
 3914 0020 BB79     		ldrb	r3, [r7, #6]	@ zero_extendqisi2
 3915 0022 5A1E     		subs	r2, r3, #1
 3916 0024 BA71     		strb	r2, [r7, #6]
 3917              		.loc 1 579 8 discriminator 1
 3918 0026 002B     		cmp	r3, #0
 3919 0028 F5D1     		bne	.L141
 580:Module/LCD/lcd.c **** 	return result;
 3920              		.loc 1 580 9
 3921 002a FB68     		ldr	r3, [r7, #12]
 581:Module/LCD/lcd.c **** }
 3922              		.loc 1 581 1
 3923 002c 1846     		mov	r0, r3
 3924 002e 1437     		adds	r7, r7, #20
 3925              	.LCFI88:
ARM GAS  C:\Users\AURORA~1\AppData\Local\Temp\ccDd7T3c.s 			page 133


 3926              		.cfi_def_cfa_offset 4
 3927 0030 BD46     		mov	sp, r7
 3928              	.LCFI89:
 3929              		.cfi_def_cfa_register 13
 3930              		@ sp needed
 3931 0032 5DF8047B 		ldr	r7, [sp], #4
 3932              	.LCFI90:
 3933              		.cfi_restore 7
 3934              		.cfi_def_cfa_offset 0
 3935 0036 7047     		bx	lr
 3936              		.cfi_endproc
 3937              	.LFE149:
 3939              		.section	.text.LCD_ShowIntNum,"ax",%progbits
 3940              		.align	1
 3941              		.global	LCD_ShowIntNum
 3942              		.syntax unified
 3943              		.thumb
 3944              		.thumb_func
 3946              	LCD_ShowIntNum:
 3947              	.LFB150:
 582:Module/LCD/lcd.c **** 
 583:Module/LCD/lcd.c **** 
 584:Module/LCD/lcd.c **** /******************************************************************************
 585:Module/LCD/lcd.c ****       
 586:Module/LCD/lcd.c ****       x,y
 587:Module/LCD/lcd.c ****                 num 
 588:Module/LCD/lcd.c ****                 len 
 589:Module/LCD/lcd.c ****                 fc 
 590:Module/LCD/lcd.c ****                 bc 
 591:Module/LCD/lcd.c ****                 sizey 
 592:Module/LCD/lcd.c ****         
 593:Module/LCD/lcd.c **** ******************************************************************************/
 594:Module/LCD/lcd.c **** void LCD_ShowIntNum(uint16_t x,uint16_t y,uint16_t num,uint8_t len,uint16_t fc,uint16_t bc,uint8_t 
 595:Module/LCD/lcd.c **** {         	
 3948              		.loc 1 595 1
 3949              		.cfi_startproc
 3950              		@ args = 12, pretend = 0, frame = 16
 3951              		@ frame_needed = 1, uses_anonymous_args = 0
 3952 0000 90B5     		push	{r4, r7, lr}
 3953              	.LCFI91:
 3954              		.cfi_def_cfa_offset 12
 3955              		.cfi_offset 4, -12
 3956              		.cfi_offset 7, -8
 3957              		.cfi_offset 14, -4
 3958 0002 89B0     		sub	sp, sp, #36
 3959              	.LCFI92:
 3960              		.cfi_def_cfa_offset 48
 3961 0004 04AF     		add	r7, sp, #16
 3962              	.LCFI93:
 3963              		.cfi_def_cfa 7, 32
 3964 0006 0446     		mov	r4, r0
 3965 0008 0846     		mov	r0, r1
 3966 000a 1146     		mov	r1, r2
 3967 000c 1A46     		mov	r2, r3
 3968 000e 2346     		mov	r3, r4	@ movhi
 3969 0010 FB80     		strh	r3, [r7, #6]	@ movhi
 3970 0012 0346     		mov	r3, r0	@ movhi
ARM GAS  C:\Users\AURORA~1\AppData\Local\Temp\ccDd7T3c.s 			page 134


 3971 0014 BB80     		strh	r3, [r7, #4]	@ movhi
 3972 0016 0B46     		mov	r3, r1	@ movhi
 3973 0018 7B80     		strh	r3, [r7, #2]	@ movhi
 3974 001a 1346     		mov	r3, r2
 3975 001c 7B70     		strb	r3, [r7, #1]
 596:Module/LCD/lcd.c **** 	uint8_t t,temp;
 597:Module/LCD/lcd.c **** 	uint8_t enshow=0;
 3976              		.loc 1 597 10
 3977 001e 0023     		movs	r3, #0
 3978 0020 BB73     		strb	r3, [r7, #14]
 598:Module/LCD/lcd.c **** 	uint8_t sizex=sizey/2;
 3979              		.loc 1 598 10
 3980 0022 97F82830 		ldrb	r3, [r7, #40]	@ zero_extendqisi2
 3981 0026 5B08     		lsrs	r3, r3, #1
 3982 0028 7B73     		strb	r3, [r7, #13]
 599:Module/LCD/lcd.c **** 	for(t=0;t<len;t++)
 3983              		.loc 1 599 7
 3984 002a 0023     		movs	r3, #0
 3985 002c FB73     		strb	r3, [r7, #15]
 3986              		.loc 1 599 2
 3987 002e 59E0     		b	.L144
 3988              	.L148:
 600:Module/LCD/lcd.c **** 	{
 601:Module/LCD/lcd.c **** 		temp=(num/mypow(10,len-t-1))%10;
 3989              		.loc 1 601 12
 3990 0030 7C88     		ldrh	r4, [r7, #2]
 3991              		.loc 1 601 25
 3992 0032 7A78     		ldrb	r2, [r7, #1]
 3993 0034 FB7B     		ldrb	r3, [r7, #15]
 3994 0036 D31A     		subs	r3, r2, r3
 3995 0038 DBB2     		uxtb	r3, r3
 3996              		.loc 1 601 13
 3997 003a 013B     		subs	r3, r3, #1
 3998 003c DBB2     		uxtb	r3, r3
 3999 003e 1946     		mov	r1, r3
 4000 0040 0A20     		movs	r0, #10
 4001 0042 FFF7FEFF 		bl	mypow
 4002 0046 0346     		mov	r3, r0
 4003              		.loc 1 601 12 discriminator 1
 4004 0048 B4FBF3F1 		udiv	r1, r4, r3
 4005              		.loc 1 601 31 discriminator 1
 4006 004c 2A4B     		ldr	r3, .L149
 4007 004e A3FB0123 		umull	r2, r3, r3, r1
 4008 0052 DA08     		lsrs	r2, r3, #3
 4009 0054 1346     		mov	r3, r2
 4010 0056 9B00     		lsls	r3, r3, #2
 4011 0058 1344     		add	r3, r3, r2
 4012 005a 5B00     		lsls	r3, r3, #1
 4013 005c CA1A     		subs	r2, r1, r3
 4014              		.loc 1 601 7 discriminator 1
 4015 005e 1346     		mov	r3, r2
 4016 0060 3B73     		strb	r3, [r7, #12]
 602:Module/LCD/lcd.c **** 		if(enshow==0&&t<(len-1))
 4017              		.loc 1 602 5
 4018 0062 BB7B     		ldrb	r3, [r7, #14]	@ zero_extendqisi2
 4019 0064 002B     		cmp	r3, #0
 4020 0066 21D1     		bne	.L145
ARM GAS  C:\Users\AURORA~1\AppData\Local\Temp\ccDd7T3c.s 			page 135


 4021              		.loc 1 602 18 discriminator 1
 4022 0068 FA7B     		ldrb	r2, [r7, #15]	@ zero_extendqisi2
 4023              		.loc 1 602 23 discriminator 1
 4024 006a 7B78     		ldrb	r3, [r7, #1]	@ zero_extendqisi2
 4025 006c 013B     		subs	r3, r3, #1
 4026              		.loc 1 602 15 discriminator 1
 4027 006e 9A42     		cmp	r2, r3
 4028 0070 1CDA     		bge	.L145
 603:Module/LCD/lcd.c **** 		{
 604:Module/LCD/lcd.c **** 			if(temp==0)
 4029              		.loc 1 604 6
 4030 0072 3B7B     		ldrb	r3, [r7, #12]	@ zero_extendqisi2
 4031 0074 002B     		cmp	r3, #0
 4032 0076 17D1     		bne	.L146
 605:Module/LCD/lcd.c **** 			{
 606:Module/LCD/lcd.c **** 				LCD_ShowChar(x+t*sizex,y,' ',fc,bc,sizey,0);
 4033              		.loc 1 606 21
 4034 0078 FB7B     		ldrb	r3, [r7, #15]	@ zero_extendqisi2
 4035 007a 9AB2     		uxth	r2, r3
 4036 007c 7B7B     		ldrb	r3, [r7, #13]	@ zero_extendqisi2
 4037 007e 9BB2     		uxth	r3, r3
 4038 0080 12FB03F3 		smulbb	r3, r2, r3
 4039 0084 9AB2     		uxth	r2, r3
 4040              		.loc 1 606 5
 4041 0086 FB88     		ldrh	r3, [r7, #6]	@ movhi
 4042 0088 1344     		add	r3, r3, r2
 4043 008a 98B2     		uxth	r0, r3
 4044 008c 3A8C     		ldrh	r2, [r7, #32]
 4045 008e B988     		ldrh	r1, [r7, #4]
 4046 0090 0023     		movs	r3, #0
 4047 0092 0293     		str	r3, [sp, #8]
 4048 0094 97F82830 		ldrb	r3, [r7, #40]	@ zero_extendqisi2
 4049 0098 0193     		str	r3, [sp, #4]
 4050 009a BB8C     		ldrh	r3, [r7, #36]
 4051 009c 0093     		str	r3, [sp]
 4052 009e 1346     		mov	r3, r2
 4053 00a0 2022     		movs	r2, #32
 4054 00a2 FFF7FEFF 		bl	LCD_ShowChar
 607:Module/LCD/lcd.c **** 				continue;
 4055              		.loc 1 607 5
 4056 00a6 1AE0     		b	.L147
 4057              	.L146:
 608:Module/LCD/lcd.c **** 			}else enshow=1; 
 4058              		.loc 1 608 16
 4059 00a8 0123     		movs	r3, #1
 4060 00aa BB73     		strb	r3, [r7, #14]
 4061              	.L145:
 609:Module/LCD/lcd.c **** 		 	 
 610:Module/LCD/lcd.c **** 		}
 611:Module/LCD/lcd.c **** 	 	LCD_ShowChar(x+t*sizex,y,temp+48,fc,bc,sizey,0);
 4062              		.loc 1 611 20
 4063 00ac FB7B     		ldrb	r3, [r7, #15]	@ zero_extendqisi2
 4064 00ae 9AB2     		uxth	r2, r3
 4065 00b0 7B7B     		ldrb	r3, [r7, #13]	@ zero_extendqisi2
 4066 00b2 9BB2     		uxth	r3, r3
 4067 00b4 12FB03F3 		smulbb	r3, r2, r3
 4068 00b8 9AB2     		uxth	r2, r3
ARM GAS  C:\Users\AURORA~1\AppData\Local\Temp\ccDd7T3c.s 			page 136


 4069              		.loc 1 611 4
 4070 00ba FB88     		ldrh	r3, [r7, #6]	@ movhi
 4071 00bc 1344     		add	r3, r3, r2
 4072 00be 98B2     		uxth	r0, r3
 4073 00c0 3B7B     		ldrb	r3, [r7, #12]
 4074 00c2 3033     		adds	r3, r3, #48
 4075 00c4 DAB2     		uxtb	r2, r3
 4076 00c6 3C8C     		ldrh	r4, [r7, #32]
 4077 00c8 B988     		ldrh	r1, [r7, #4]
 4078 00ca 0023     		movs	r3, #0
 4079 00cc 0293     		str	r3, [sp, #8]
 4080 00ce 97F82830 		ldrb	r3, [r7, #40]	@ zero_extendqisi2
 4081 00d2 0193     		str	r3, [sp, #4]
 4082 00d4 BB8C     		ldrh	r3, [r7, #36]
 4083 00d6 0093     		str	r3, [sp]
 4084 00d8 2346     		mov	r3, r4
 4085 00da FFF7FEFF 		bl	LCD_ShowChar
 4086              	.L147:
 599:Module/LCD/lcd.c **** 	{
 4087              		.loc 1 599 17 discriminator 2
 4088 00de FB7B     		ldrb	r3, [r7, #15]	@ zero_extendqisi2
 4089 00e0 0133     		adds	r3, r3, #1
 4090 00e2 FB73     		strb	r3, [r7, #15]
 4091              	.L144:
 599:Module/LCD/lcd.c **** 	{
 4092              		.loc 1 599 11 discriminator 1
 4093 00e4 FA7B     		ldrb	r2, [r7, #15]	@ zero_extendqisi2
 4094 00e6 7B78     		ldrb	r3, [r7, #1]	@ zero_extendqisi2
 4095 00e8 9A42     		cmp	r2, r3
 4096 00ea A1D3     		bcc	.L148
 612:Module/LCD/lcd.c **** 	}
 613:Module/LCD/lcd.c **** } 
 4097              		.loc 1 613 1
 4098 00ec 00BF     		nop
 4099 00ee 00BF     		nop
 4100 00f0 1437     		adds	r7, r7, #20
 4101              	.LCFI94:
 4102              		.cfi_def_cfa_offset 12
 4103 00f2 BD46     		mov	sp, r7
 4104              	.LCFI95:
 4105              		.cfi_def_cfa_register 13
 4106              		@ sp needed
 4107 00f4 90BD     		pop	{r4, r7, pc}
 4108              	.L150:
 4109 00f6 00BF     		.align	2
 4110              	.L149:
 4111 00f8 CDCCCCCC 		.word	-858993459
 4112              		.cfi_endproc
 4113              	.LFE150:
 4115              		.section	.text.LCD_ShowFloatNum1,"ax",%progbits
 4116              		.align	1
 4117              		.global	LCD_ShowFloatNum1
 4118              		.syntax unified
 4119              		.thumb
 4120              		.thumb_func
 4122              	LCD_ShowFloatNum1:
 4123              	.LFB151:
ARM GAS  C:\Users\AURORA~1\AppData\Local\Temp\ccDd7T3c.s 			page 137


 614:Module/LCD/lcd.c **** 
 615:Module/LCD/lcd.c **** 
 616:Module/LCD/lcd.c **** /******************************************************************************
 617:Module/LCD/lcd.c ****       
 618:Module/LCD/lcd.c ****       x,y
 619:Module/LCD/lcd.c ****                 num 
 620:Module/LCD/lcd.c ****                 len 
 621:Module/LCD/lcd.c ****                 fc 
 622:Module/LCD/lcd.c ****                 bc 
 623:Module/LCD/lcd.c ****                 sizey 
 624:Module/LCD/lcd.c ****         
 625:Module/LCD/lcd.c **** ******************************************************************************/
 626:Module/LCD/lcd.c **** void LCD_ShowFloatNum1(uint16_t x,uint16_t y,float num,uint8_t len,uint16_t fc,uint16_t bc,uint8_t 
 627:Module/LCD/lcd.c **** {         	
 4124              		.loc 1 627 1
 4125              		.cfi_startproc
 4126              		@ args = 8, pretend = 0, frame = 24
 4127              		@ frame_needed = 1, uses_anonymous_args = 0
 4128 0000 90B5     		push	{r4, r7, lr}
 4129              	.LCFI96:
 4130              		.cfi_def_cfa_offset 12
 4131              		.cfi_offset 4, -12
 4132              		.cfi_offset 7, -8
 4133              		.cfi_offset 14, -4
 4134 0002 8BB0     		sub	sp, sp, #44
 4135              	.LCFI97:
 4136              		.cfi_def_cfa_offset 56
 4137 0004 04AF     		add	r7, sp, #16
 4138              	.LCFI98:
 4139              		.cfi_def_cfa 7, 40
 4140 0006 0446     		mov	r4, r0
 4141 0008 0846     		mov	r0, r1
 4142 000a 87ED020A 		vstr.32	s0, [r7, #8]
 4143 000e 1146     		mov	r1, r2
 4144 0010 1A46     		mov	r2, r3
 4145 0012 2346     		mov	r3, r4	@ movhi
 4146 0014 FB81     		strh	r3, [r7, #14]	@ movhi
 4147 0016 0346     		mov	r3, r0	@ movhi
 4148 0018 BB81     		strh	r3, [r7, #12]	@ movhi
 4149 001a 0B46     		mov	r3, r1
 4150 001c FB71     		strb	r3, [r7, #7]
 4151 001e 1346     		mov	r3, r2	@ movhi
 4152 0020 BB80     		strh	r3, [r7, #4]	@ movhi
 628:Module/LCD/lcd.c **** 	uint8_t t,temp,sizex;
 629:Module/LCD/lcd.c **** 	uint16_t num1;
 630:Module/LCD/lcd.c **** 	sizex=sizey/2;
 4153              		.loc 1 630 7
 4154 0022 97F82C30 		ldrb	r3, [r7, #44]	@ zero_extendqisi2
 4155 0026 5B08     		lsrs	r3, r3, #1
 4156 0028 BB75     		strb	r3, [r7, #22]
 631:Module/LCD/lcd.c **** 	num1=num*100;
 4157              		.loc 1 631 10
 4158 002a D7ED027A 		vldr.32	s15, [r7, #8]
 4159 002e 9FED367A 		vldr.32	s14, .L155
 4160 0032 67EE877A 		vmul.f32	s15, s15, s14
 4161              		.loc 1 631 6
 4162 0036 FCEEE77A 		vcvt.u32.f32	s15, s15
ARM GAS  C:\Users\AURORA~1\AppData\Local\Temp\ccDd7T3c.s 			page 138


 4163 003a 17EE903A 		vmov	r3, s15	@ int
 4164 003e BB82     		strh	r3, [r7, #20]	@ movhi
 632:Module/LCD/lcd.c **** 	for(t=0;t<len;t++)
 4165              		.loc 1 632 7
 4166 0040 0023     		movs	r3, #0
 4167 0042 FB75     		strb	r3, [r7, #23]
 4168              		.loc 1 632 2
 4169 0044 57E0     		b	.L152
 4170              	.L154:
 633:Module/LCD/lcd.c **** 	{
 634:Module/LCD/lcd.c **** 		temp=(num1/mypow(10,len-t-1))%10;
 4171              		.loc 1 634 13
 4172 0046 BC8A     		ldrh	r4, [r7, #20]
 4173              		.loc 1 634 26
 4174 0048 FA79     		ldrb	r2, [r7, #7]
 4175 004a FB7D     		ldrb	r3, [r7, #23]
 4176 004c D31A     		subs	r3, r2, r3
 4177 004e DBB2     		uxtb	r3, r3
 4178              		.loc 1 634 14
 4179 0050 013B     		subs	r3, r3, #1
 4180 0052 DBB2     		uxtb	r3, r3
 4181 0054 1946     		mov	r1, r3
 4182 0056 0A20     		movs	r0, #10
 4183 0058 FFF7FEFF 		bl	mypow
 4184 005c 0346     		mov	r3, r0
 4185              		.loc 1 634 13 discriminator 1
 4186 005e B4FBF3F1 		udiv	r1, r4, r3
 4187              		.loc 1 634 32 discriminator 1
 4188 0062 2A4B     		ldr	r3, .L155+4
 4189 0064 A3FB0123 		umull	r2, r3, r3, r1
 4190 0068 DA08     		lsrs	r2, r3, #3
 4191 006a 1346     		mov	r3, r2
 4192 006c 9B00     		lsls	r3, r3, #2
 4193 006e 1344     		add	r3, r3, r2
 4194 0070 5B00     		lsls	r3, r3, #1
 4195 0072 CA1A     		subs	r2, r1, r3
 4196              		.loc 1 634 7 discriminator 1
 4197 0074 1346     		mov	r3, r2
 4198 0076 FB74     		strb	r3, [r7, #19]
 635:Module/LCD/lcd.c **** 		if(t==(len-2))
 4199              		.loc 1 635 7
 4200 0078 FA7D     		ldrb	r2, [r7, #23]	@ zero_extendqisi2
 4201              		.loc 1 635 13
 4202 007a FB79     		ldrb	r3, [r7, #7]	@ zero_extendqisi2
 4203 007c 023B     		subs	r3, r3, #2
 4204              		.loc 1 635 5
 4205 007e 9A42     		cmp	r2, r3
 4206 0080 1DD1     		bne	.L153
 636:Module/LCD/lcd.c **** 		{
 637:Module/LCD/lcd.c **** 			LCD_ShowChar(x+(len-2)*sizex,y,'.',fc,bc,sizey,0);
 4207              		.loc 1 637 23
 4208 0082 FB79     		ldrb	r3, [r7, #7]	@ zero_extendqisi2
 4209 0084 023B     		subs	r3, r3, #2
 4210              		.loc 1 637 4
 4211 0086 9AB2     		uxth	r2, r3
 4212 0088 BB7D     		ldrb	r3, [r7, #22]	@ zero_extendqisi2
 4213 008a 9BB2     		uxth	r3, r3
ARM GAS  C:\Users\AURORA~1\AppData\Local\Temp\ccDd7T3c.s 			page 139


 4214 008c 12FB03F3 		smulbb	r3, r2, r3
 4215 0090 9AB2     		uxth	r2, r3
 4216 0092 FB89     		ldrh	r3, [r7, #14]	@ movhi
 4217 0094 1344     		add	r3, r3, r2
 4218 0096 98B2     		uxth	r0, r3
 4219 0098 BA88     		ldrh	r2, [r7, #4]
 4220 009a B989     		ldrh	r1, [r7, #12]
 4221 009c 0023     		movs	r3, #0
 4222 009e 0293     		str	r3, [sp, #8]
 4223 00a0 97F82C30 		ldrb	r3, [r7, #44]	@ zero_extendqisi2
 4224 00a4 0193     		str	r3, [sp, #4]
 4225 00a6 3B8D     		ldrh	r3, [r7, #40]
 4226 00a8 0093     		str	r3, [sp]
 4227 00aa 1346     		mov	r3, r2
 4228 00ac 2E22     		movs	r2, #46
 4229 00ae FFF7FEFF 		bl	LCD_ShowChar
 638:Module/LCD/lcd.c **** 			t++;
 4230              		.loc 1 638 5
 4231 00b2 FB7D     		ldrb	r3, [r7, #23]	@ zero_extendqisi2
 4232 00b4 0133     		adds	r3, r3, #1
 4233 00b6 FB75     		strb	r3, [r7, #23]
 639:Module/LCD/lcd.c **** 			len+=1;
 4234              		.loc 1 639 7
 4235 00b8 FB79     		ldrb	r3, [r7, #7]
 4236 00ba 0133     		adds	r3, r3, #1
 4237 00bc FB71     		strb	r3, [r7, #7]
 4238              	.L153:
 640:Module/LCD/lcd.c **** 		}
 641:Module/LCD/lcd.c **** 	 	LCD_ShowChar(x+t*sizex,y,temp+48,fc,bc,sizey,0);
 4239              		.loc 1 641 20
 4240 00be FB7D     		ldrb	r3, [r7, #23]	@ zero_extendqisi2
 4241 00c0 9AB2     		uxth	r2, r3
 4242 00c2 BB7D     		ldrb	r3, [r7, #22]	@ zero_extendqisi2
 4243 00c4 9BB2     		uxth	r3, r3
 4244 00c6 12FB03F3 		smulbb	r3, r2, r3
 4245 00ca 9AB2     		uxth	r2, r3
 4246              		.loc 1 641 4
 4247 00cc FB89     		ldrh	r3, [r7, #14]	@ movhi
 4248 00ce 1344     		add	r3, r3, r2
 4249 00d0 98B2     		uxth	r0, r3
 4250 00d2 FB7C     		ldrb	r3, [r7, #19]
 4251 00d4 3033     		adds	r3, r3, #48
 4252 00d6 DAB2     		uxtb	r2, r3
 4253 00d8 BC88     		ldrh	r4, [r7, #4]
 4254 00da B989     		ldrh	r1, [r7, #12]
 4255 00dc 0023     		movs	r3, #0
 4256 00de 0293     		str	r3, [sp, #8]
 4257 00e0 97F82C30 		ldrb	r3, [r7, #44]	@ zero_extendqisi2
 4258 00e4 0193     		str	r3, [sp, #4]
 4259 00e6 3B8D     		ldrh	r3, [r7, #40]
 4260 00e8 0093     		str	r3, [sp]
 4261 00ea 2346     		mov	r3, r4
 4262 00ec FFF7FEFF 		bl	LCD_ShowChar
 632:Module/LCD/lcd.c **** 	{
 4263              		.loc 1 632 17 discriminator 2
 4264 00f0 FB7D     		ldrb	r3, [r7, #23]	@ zero_extendqisi2
 4265 00f2 0133     		adds	r3, r3, #1
ARM GAS  C:\Users\AURORA~1\AppData\Local\Temp\ccDd7T3c.s 			page 140


 4266 00f4 FB75     		strb	r3, [r7, #23]
 4267              	.L152:
 632:Module/LCD/lcd.c **** 	{
 4268              		.loc 1 632 11 discriminator 1
 4269 00f6 FA7D     		ldrb	r2, [r7, #23]	@ zero_extendqisi2
 4270 00f8 FB79     		ldrb	r3, [r7, #7]	@ zero_extendqisi2
 4271 00fa 9A42     		cmp	r2, r3
 4272 00fc A3D3     		bcc	.L154
 642:Module/LCD/lcd.c **** 	}
 643:Module/LCD/lcd.c **** }
 4273              		.loc 1 643 1
 4274 00fe 00BF     		nop
 4275 0100 00BF     		nop
 4276 0102 1C37     		adds	r7, r7, #28
 4277              	.LCFI99:
 4278              		.cfi_def_cfa_offset 12
 4279 0104 BD46     		mov	sp, r7
 4280              	.LCFI100:
 4281              		.cfi_def_cfa_register 13
 4282              		@ sp needed
 4283 0106 90BD     		pop	{r4, r7, pc}
 4284              	.L156:
 4285              		.align	2
 4286              	.L155:
 4287 0108 0000C842 		.word	1120403456
 4288 010c CDCCCCCC 		.word	-858993459
 4289              		.cfi_endproc
 4290              	.LFE151:
 4292              		.section	.text.LCD_ShowPicture,"ax",%progbits
 4293              		.align	1
 4294              		.global	LCD_ShowPicture
 4295              		.syntax unified
 4296              		.thumb
 4297              		.thumb_func
 4299              	LCD_ShowPicture:
 4300              	.LFB152:
 644:Module/LCD/lcd.c **** 
 645:Module/LCD/lcd.c **** 
 646:Module/LCD/lcd.c **** /******************************************************************************
 647:Module/LCD/lcd.c ****       
 648:Module/LCD/lcd.c ****       x,y
 649:Module/LCD/lcd.c ****                 length 
 650:Module/LCD/lcd.c ****                 width  
 651:Module/LCD/lcd.c ****                 pic[]      
 652:Module/LCD/lcd.c ****         
 653:Module/LCD/lcd.c **** ******************************************************************************/
 654:Module/LCD/lcd.c **** void LCD_ShowPicture(uint16_t x,uint16_t y,uint16_t length,uint16_t width,const uint8_t pic[])
 655:Module/LCD/lcd.c **** {
 4301              		.loc 1 655 1
 4302              		.cfi_startproc
 4303              		@ args = 4, pretend = 0, frame = 16
 4304              		@ frame_needed = 1, uses_anonymous_args = 0
 4305 0000 90B5     		push	{r4, r7, lr}
 4306              	.LCFI101:
 4307              		.cfi_def_cfa_offset 12
 4308              		.cfi_offset 4, -12
 4309              		.cfi_offset 7, -8
ARM GAS  C:\Users\AURORA~1\AppData\Local\Temp\ccDd7T3c.s 			page 141


 4310              		.cfi_offset 14, -4
 4311 0002 85B0     		sub	sp, sp, #20
 4312              	.LCFI102:
 4313              		.cfi_def_cfa_offset 32
 4314 0004 00AF     		add	r7, sp, #0
 4315              	.LCFI103:
 4316              		.cfi_def_cfa_register 7
 4317 0006 0446     		mov	r4, r0
 4318 0008 0846     		mov	r0, r1
 4319 000a 1146     		mov	r1, r2
 4320 000c 1A46     		mov	r2, r3
 4321 000e 2346     		mov	r3, r4	@ movhi
 4322 0010 FB80     		strh	r3, [r7, #6]	@ movhi
 4323 0012 0346     		mov	r3, r0	@ movhi
 4324 0014 BB80     		strh	r3, [r7, #4]	@ movhi
 4325 0016 0B46     		mov	r3, r1	@ movhi
 4326 0018 7B80     		strh	r3, [r7, #2]	@ movhi
 4327 001a 1346     		mov	r3, r2	@ movhi
 4328 001c 3B80     		strh	r3, [r7]	@ movhi
 656:Module/LCD/lcd.c **** 	uint16_t i,j;
 657:Module/LCD/lcd.c **** 	uint32_t k=0;
 4329              		.loc 1 657 11
 4330 001e 0023     		movs	r3, #0
 4331 0020 BB60     		str	r3, [r7, #8]
 658:Module/LCD/lcd.c **** 	LCD_Address_Set(x,y,x+length-1,y+width-1);
 4332              		.loc 1 658 23
 4333 0022 FA88     		ldrh	r2, [r7, #6]	@ movhi
 4334 0024 7B88     		ldrh	r3, [r7, #2]	@ movhi
 4335 0026 1344     		add	r3, r3, r2
 4336 0028 9BB2     		uxth	r3, r3
 4337              		.loc 1 658 2
 4338 002a 013B     		subs	r3, r3, #1
 4339 002c 9CB2     		uxth	r4, r3
 4340              		.loc 1 658 34
 4341 002e BA88     		ldrh	r2, [r7, #4]	@ movhi
 4342 0030 3B88     		ldrh	r3, [r7]	@ movhi
 4343 0032 1344     		add	r3, r3, r2
 4344 0034 9BB2     		uxth	r3, r3
 4345              		.loc 1 658 2
 4346 0036 013B     		subs	r3, r3, #1
 4347 0038 9BB2     		uxth	r3, r3
 4348 003a B988     		ldrh	r1, [r7, #4]
 4349 003c F888     		ldrh	r0, [r7, #6]
 4350 003e 2246     		mov	r2, r4
 4351 0040 FFF7FEFF 		bl	LCD_Address_Set
 659:Module/LCD/lcd.c **** 	for(i=0;i<length;i++)
 4352              		.loc 1 659 7
 4353 0044 0023     		movs	r3, #0
 4354 0046 FB81     		strh	r3, [r7, #14]	@ movhi
 4355              		.loc 1 659 2
 4356 0048 20E0     		b	.L158
 4357              	.L161:
 660:Module/LCD/lcd.c **** 	{
 661:Module/LCD/lcd.c **** 		for(j=0;j<width;j++)
 4358              		.loc 1 661 8
 4359 004a 0023     		movs	r3, #0
 4360 004c BB81     		strh	r3, [r7, #12]	@ movhi
ARM GAS  C:\Users\AURORA~1\AppData\Local\Temp\ccDd7T3c.s 			page 142


 4361              		.loc 1 661 3
 4362 004e 16E0     		b	.L159
 4363              	.L160:
 662:Module/LCD/lcd.c **** 		{
 663:Module/LCD/lcd.c **** 			LCD_WR_DATA8(pic[k*2]);
 4364              		.loc 1 663 22
 4365 0050 BB68     		ldr	r3, [r7, #8]
 4366 0052 5B00     		lsls	r3, r3, #1
 4367              		.loc 1 663 20
 4368 0054 3A6A     		ldr	r2, [r7, #32]
 4369 0056 1344     		add	r3, r3, r2
 4370              		.loc 1 663 4
 4371 0058 1B78     		ldrb	r3, [r3]	@ zero_extendqisi2
 4372 005a 1846     		mov	r0, r3
 4373 005c FFF7FEFF 		bl	LCD_WR_DATA8
 664:Module/LCD/lcd.c **** 			LCD_WR_DATA8(pic[k*2+1]);
 4374              		.loc 1 664 22
 4375 0060 BB68     		ldr	r3, [r7, #8]
 4376 0062 5B00     		lsls	r3, r3, #1
 4377              		.loc 1 664 20
 4378 0064 0133     		adds	r3, r3, #1
 4379 0066 3A6A     		ldr	r2, [r7, #32]
 4380 0068 1344     		add	r3, r3, r2
 4381              		.loc 1 664 4
 4382 006a 1B78     		ldrb	r3, [r3]	@ zero_extendqisi2
 4383 006c 1846     		mov	r0, r3
 4384 006e FFF7FEFF 		bl	LCD_WR_DATA8
 665:Module/LCD/lcd.c **** 			k++;
 4385              		.loc 1 665 5
 4386 0072 BB68     		ldr	r3, [r7, #8]
 4387 0074 0133     		adds	r3, r3, #1
 4388 0076 BB60     		str	r3, [r7, #8]
 661:Module/LCD/lcd.c **** 		{
 4389              		.loc 1 661 20 discriminator 3
 4390 0078 BB89     		ldrh	r3, [r7, #12]
 4391 007a 0133     		adds	r3, r3, #1
 4392 007c BB81     		strh	r3, [r7, #12]	@ movhi
 4393              	.L159:
 661:Module/LCD/lcd.c **** 		{
 4394              		.loc 1 661 12 discriminator 1
 4395 007e BA89     		ldrh	r2, [r7, #12]
 4396 0080 3B88     		ldrh	r3, [r7]
 4397 0082 9A42     		cmp	r2, r3
 4398 0084 E4D3     		bcc	.L160
 659:Module/LCD/lcd.c **** 	{
 4399              		.loc 1 659 20 discriminator 2
 4400 0086 FB89     		ldrh	r3, [r7, #14]
 4401 0088 0133     		adds	r3, r3, #1
 4402 008a FB81     		strh	r3, [r7, #14]	@ movhi
 4403              	.L158:
 659:Module/LCD/lcd.c **** 	{
 4404              		.loc 1 659 11 discriminator 1
 4405 008c FA89     		ldrh	r2, [r7, #14]
 4406 008e 7B88     		ldrh	r3, [r7, #2]
 4407 0090 9A42     		cmp	r2, r3
 4408 0092 DAD3     		bcc	.L161
 666:Module/LCD/lcd.c **** 		}
ARM GAS  C:\Users\AURORA~1\AppData\Local\Temp\ccDd7T3c.s 			page 143


 667:Module/LCD/lcd.c **** 	}			
 668:Module/LCD/lcd.c **** }
 4409              		.loc 1 668 1
 4410 0094 00BF     		nop
 4411 0096 00BF     		nop
 4412 0098 1437     		adds	r7, r7, #20
 4413              	.LCFI104:
 4414              		.cfi_def_cfa_offset 12
 4415 009a BD46     		mov	sp, r7
 4416              	.LCFI105:
 4417              		.cfi_def_cfa_register 13
 4418              		@ sp needed
 4419 009c 90BD     		pop	{r4, r7, pc}
 4420              		.cfi_endproc
 4421              	.LFE152:
 4423              		.section	.text.LCD_Init,"ax",%progbits
 4424              		.align	1
 4425              		.global	LCD_Init
 4426              		.syntax unified
 4427              		.thumb
 4428              		.thumb_func
 4430              	LCD_Init:
 4431              	.LFB153:
 669:Module/LCD/lcd.c **** 
 670:Module/LCD/lcd.c **** void LCD_Init(void)
 671:Module/LCD/lcd.c **** {
 4432              		.loc 1 671 1
 4433              		.cfi_startproc
 4434              		@ args = 0, pretend = 0, frame = 0
 4435              		@ frame_needed = 1, uses_anonymous_args = 0
 4436 0000 80B5     		push	{r7, lr}
 4437              	.LCFI106:
 4438              		.cfi_def_cfa_offset 8
 4439              		.cfi_offset 7, -8
 4440              		.cfi_offset 14, -4
 4441 0002 00AF     		add	r7, sp, #0
 4442              	.LCFI107:
 4443              		.cfi_def_cfa_register 7
 672:Module/LCD/lcd.c **** 	LCD_RES_Clr();//
 4444              		.loc 1 672 2
 4445 0004 0022     		movs	r2, #0
 4446 0006 4FF40041 		mov	r1, #32768
 4447 000a 4FF09040 		mov	r0, #1207959552
 4448 000e FFF7FEFF 		bl	HAL_GPIO_WritePin
 673:Module/LCD/lcd.c **** 	HAL_Delay(100);
 4449              		.loc 1 673 2
 4450 0012 6420     		movs	r0, #100
 4451 0014 FFF7FEFF 		bl	HAL_Delay
 674:Module/LCD/lcd.c **** 	LCD_RES_Set();
 4452              		.loc 1 674 2
 4453 0018 0122     		movs	r2, #1
 4454 001a 4FF40041 		mov	r1, #32768
 4455 001e 4FF09040 		mov	r0, #1207959552
 4456 0022 FFF7FEFF 		bl	HAL_GPIO_WritePin
 675:Module/LCD/lcd.c **** 	HAL_Delay(100);
 4457              		.loc 1 675 2
 4458 0026 6420     		movs	r0, #100
ARM GAS  C:\Users\AURORA~1\AppData\Local\Temp\ccDd7T3c.s 			page 144


 4459 0028 FFF7FEFF 		bl	HAL_Delay
 676:Module/LCD/lcd.c **** 	
 677:Module/LCD/lcd.c **** 	LCD_BLK_Set();//
 4460              		.loc 1 677 2
 4461 002c 0122     		movs	r2, #1
 4462 002e 8021     		movs	r1, #128
 4463 0030 5F48     		ldr	r0, .L163
 4464 0032 FFF7FEFF 		bl	HAL_GPIO_WritePin
 678:Module/LCD/lcd.c ****   HAL_Delay(100);
 4465              		.loc 1 678 3
 4466 0036 6420     		movs	r0, #100
 4467 0038 FFF7FEFF 		bl	HAL_Delay
 679:Module/LCD/lcd.c **** 	
 680:Module/LCD/lcd.c **** 	LCD_WR_REG(0x11); 
 4468              		.loc 1 680 2
 4469 003c 1120     		movs	r0, #17
 4470 003e FFF7FEFF 		bl	LCD_WR_REG
 681:Module/LCD/lcd.c **** 	HAL_Delay(120); 
 4471              		.loc 1 681 2
 4472 0042 7820     		movs	r0, #120
 4473 0044 FFF7FEFF 		bl	HAL_Delay
 682:Module/LCD/lcd.c **** 	LCD_WR_REG(0x36); 
 4474              		.loc 1 682 2
 4475 0048 3620     		movs	r0, #54
 4476 004a FFF7FEFF 		bl	LCD_WR_REG
 683:Module/LCD/lcd.c **** 	if(USE_HORIZONTAL==0)LCD_WR_DATA8(0x00);
 684:Module/LCD/lcd.c **** 	else if(USE_HORIZONTAL==1)LCD_WR_DATA8(0xC0);
 685:Module/LCD/lcd.c **** 	else if(USE_HORIZONTAL==2)LCD_WR_DATA8(0x70);
 686:Module/LCD/lcd.c **** 	else LCD_WR_DATA8(0xA0);
 4477              		.loc 1 686 7
 4478 004e A020     		movs	r0, #160
 4479 0050 FFF7FEFF 		bl	LCD_WR_DATA8
 687:Module/LCD/lcd.c **** 
 688:Module/LCD/lcd.c **** 	LCD_WR_REG(0x3A);
 4480              		.loc 1 688 2
 4481 0054 3A20     		movs	r0, #58
 4482 0056 FFF7FEFF 		bl	LCD_WR_REG
 689:Module/LCD/lcd.c **** 	LCD_WR_DATA8(0x05);
 4483              		.loc 1 689 2
 4484 005a 0520     		movs	r0, #5
 4485 005c FFF7FEFF 		bl	LCD_WR_DATA8
 690:Module/LCD/lcd.c **** 
 691:Module/LCD/lcd.c **** 	LCD_WR_REG(0xB2);
 4486              		.loc 1 691 2
 4487 0060 B220     		movs	r0, #178
 4488 0062 FFF7FEFF 		bl	LCD_WR_REG
 692:Module/LCD/lcd.c **** 	LCD_WR_DATA8(0x0C);
 4489              		.loc 1 692 2
 4490 0066 0C20     		movs	r0, #12
 4491 0068 FFF7FEFF 		bl	LCD_WR_DATA8
 693:Module/LCD/lcd.c **** 	LCD_WR_DATA8(0x0C);
 4492              		.loc 1 693 2
 4493 006c 0C20     		movs	r0, #12
 4494 006e FFF7FEFF 		bl	LCD_WR_DATA8
 694:Module/LCD/lcd.c **** 	LCD_WR_DATA8(0x00);
 4495              		.loc 1 694 2
 4496 0072 0020     		movs	r0, #0
ARM GAS  C:\Users\AURORA~1\AppData\Local\Temp\ccDd7T3c.s 			page 145


 4497 0074 FFF7FEFF 		bl	LCD_WR_DATA8
 695:Module/LCD/lcd.c **** 	LCD_WR_DATA8(0x33);
 4498              		.loc 1 695 2
 4499 0078 3320     		movs	r0, #51
 4500 007a FFF7FEFF 		bl	LCD_WR_DATA8
 696:Module/LCD/lcd.c **** 	LCD_WR_DATA8(0x33); 
 4501              		.loc 1 696 2
 4502 007e 3320     		movs	r0, #51
 4503 0080 FFF7FEFF 		bl	LCD_WR_DATA8
 697:Module/LCD/lcd.c **** 
 698:Module/LCD/lcd.c **** 	LCD_WR_REG(0xB7); 
 4504              		.loc 1 698 2
 4505 0084 B720     		movs	r0, #183
 4506 0086 FFF7FEFF 		bl	LCD_WR_REG
 699:Module/LCD/lcd.c **** 	LCD_WR_DATA8(0x35);  
 4507              		.loc 1 699 2
 4508 008a 3520     		movs	r0, #53
 4509 008c FFF7FEFF 		bl	LCD_WR_DATA8
 700:Module/LCD/lcd.c **** 
 701:Module/LCD/lcd.c **** 	LCD_WR_REG(0xBB);
 4510              		.loc 1 701 2
 4511 0090 BB20     		movs	r0, #187
 4512 0092 FFF7FEFF 		bl	LCD_WR_REG
 702:Module/LCD/lcd.c **** 	LCD_WR_DATA8(0x19);
 4513              		.loc 1 702 2
 4514 0096 1920     		movs	r0, #25
 4515 0098 FFF7FEFF 		bl	LCD_WR_DATA8
 703:Module/LCD/lcd.c **** 
 704:Module/LCD/lcd.c **** 	LCD_WR_REG(0xC0);
 4516              		.loc 1 704 2
 4517 009c C020     		movs	r0, #192
 4518 009e FFF7FEFF 		bl	LCD_WR_REG
 705:Module/LCD/lcd.c **** 	LCD_WR_DATA8(0x2C);
 4519              		.loc 1 705 2
 4520 00a2 2C20     		movs	r0, #44
 4521 00a4 FFF7FEFF 		bl	LCD_WR_DATA8
 706:Module/LCD/lcd.c **** 
 707:Module/LCD/lcd.c **** 	LCD_WR_REG(0xC2);
 4522              		.loc 1 707 2
 4523 00a8 C220     		movs	r0, #194
 4524 00aa FFF7FEFF 		bl	LCD_WR_REG
 708:Module/LCD/lcd.c **** 	LCD_WR_DATA8(0x01);
 4525              		.loc 1 708 2
 4526 00ae 0120     		movs	r0, #1
 4527 00b0 FFF7FEFF 		bl	LCD_WR_DATA8
 709:Module/LCD/lcd.c **** 
 710:Module/LCD/lcd.c **** 	LCD_WR_REG(0xC3);
 4528              		.loc 1 710 2
 4529 00b4 C320     		movs	r0, #195
 4530 00b6 FFF7FEFF 		bl	LCD_WR_REG
 711:Module/LCD/lcd.c **** 	LCD_WR_DATA8(0x12);   
 4531              		.loc 1 711 2
 4532 00ba 1220     		movs	r0, #18
 4533 00bc FFF7FEFF 		bl	LCD_WR_DATA8
 712:Module/LCD/lcd.c **** 
 713:Module/LCD/lcd.c **** 	LCD_WR_REG(0xC4);
 4534              		.loc 1 713 2
ARM GAS  C:\Users\AURORA~1\AppData\Local\Temp\ccDd7T3c.s 			page 146


 4535 00c0 C420     		movs	r0, #196
 4536 00c2 FFF7FEFF 		bl	LCD_WR_REG
 714:Module/LCD/lcd.c **** 	LCD_WR_DATA8(0x20);  
 4537              		.loc 1 714 2
 4538 00c6 2020     		movs	r0, #32
 4539 00c8 FFF7FEFF 		bl	LCD_WR_DATA8
 715:Module/LCD/lcd.c **** 
 716:Module/LCD/lcd.c **** 	LCD_WR_REG(0xC6); 
 4540              		.loc 1 716 2
 4541 00cc C620     		movs	r0, #198
 4542 00ce FFF7FEFF 		bl	LCD_WR_REG
 717:Module/LCD/lcd.c **** 	LCD_WR_DATA8(0x0F);    
 4543              		.loc 1 717 2
 4544 00d2 0F20     		movs	r0, #15
 4545 00d4 FFF7FEFF 		bl	LCD_WR_DATA8
 718:Module/LCD/lcd.c **** 
 719:Module/LCD/lcd.c **** 	LCD_WR_REG(0xD0); 
 4546              		.loc 1 719 2
 4547 00d8 D020     		movs	r0, #208
 4548 00da FFF7FEFF 		bl	LCD_WR_REG
 720:Module/LCD/lcd.c **** 	LCD_WR_DATA8(0xA4);
 4549              		.loc 1 720 2
 4550 00de A420     		movs	r0, #164
 4551 00e0 FFF7FEFF 		bl	LCD_WR_DATA8
 721:Module/LCD/lcd.c **** 	LCD_WR_DATA8(0xA1);
 4552              		.loc 1 721 2
 4553 00e4 A120     		movs	r0, #161
 4554 00e6 FFF7FEFF 		bl	LCD_WR_DATA8
 722:Module/LCD/lcd.c **** 
 723:Module/LCD/lcd.c **** 	LCD_WR_REG(0xE0);
 4555              		.loc 1 723 2
 4556 00ea E020     		movs	r0, #224
 4557 00ec FFF7FEFF 		bl	LCD_WR_REG
 724:Module/LCD/lcd.c **** 	LCD_WR_DATA8(0xD0);
 4558              		.loc 1 724 2
 4559 00f0 D020     		movs	r0, #208
 4560 00f2 FFF7FEFF 		bl	LCD_WR_DATA8
 725:Module/LCD/lcd.c **** 	LCD_WR_DATA8(0x04);
 4561              		.loc 1 725 2
 4562 00f6 0420     		movs	r0, #4
 4563 00f8 FFF7FEFF 		bl	LCD_WR_DATA8
 726:Module/LCD/lcd.c **** 	LCD_WR_DATA8(0x0D);
 4564              		.loc 1 726 2
 4565 00fc 0D20     		movs	r0, #13
 4566 00fe FFF7FEFF 		bl	LCD_WR_DATA8
 727:Module/LCD/lcd.c **** 	LCD_WR_DATA8(0x11);
 4567              		.loc 1 727 2
 4568 0102 1120     		movs	r0, #17
 4569 0104 FFF7FEFF 		bl	LCD_WR_DATA8
 728:Module/LCD/lcd.c **** 	LCD_WR_DATA8(0x13);
 4570              		.loc 1 728 2
 4571 0108 1320     		movs	r0, #19
 4572 010a FFF7FEFF 		bl	LCD_WR_DATA8
 729:Module/LCD/lcd.c **** 	LCD_WR_DATA8(0x2B);
 4573              		.loc 1 729 2
 4574 010e 2B20     		movs	r0, #43
 4575 0110 FFF7FEFF 		bl	LCD_WR_DATA8
ARM GAS  C:\Users\AURORA~1\AppData\Local\Temp\ccDd7T3c.s 			page 147


 730:Module/LCD/lcd.c **** 	LCD_WR_DATA8(0x3F);
 4576              		.loc 1 730 2
 4577 0114 3F20     		movs	r0, #63
 4578 0116 FFF7FEFF 		bl	LCD_WR_DATA8
 731:Module/LCD/lcd.c **** 	LCD_WR_DATA8(0x54);
 4579              		.loc 1 731 2
 4580 011a 5420     		movs	r0, #84
 4581 011c FFF7FEFF 		bl	LCD_WR_DATA8
 732:Module/LCD/lcd.c **** 	LCD_WR_DATA8(0x4C);
 4582              		.loc 1 732 2
 4583 0120 4C20     		movs	r0, #76
 4584 0122 FFF7FEFF 		bl	LCD_WR_DATA8
 733:Module/LCD/lcd.c **** 	LCD_WR_DATA8(0x18);
 4585              		.loc 1 733 2
 4586 0126 1820     		movs	r0, #24
 4587 0128 FFF7FEFF 		bl	LCD_WR_DATA8
 734:Module/LCD/lcd.c **** 	LCD_WR_DATA8(0x0D);
 4588              		.loc 1 734 2
 4589 012c 0D20     		movs	r0, #13
 4590 012e FFF7FEFF 		bl	LCD_WR_DATA8
 735:Module/LCD/lcd.c **** 	LCD_WR_DATA8(0x0B);
 4591              		.loc 1 735 2
 4592 0132 0B20     		movs	r0, #11
 4593 0134 FFF7FEFF 		bl	LCD_WR_DATA8
 736:Module/LCD/lcd.c **** 	LCD_WR_DATA8(0x1F);
 4594              		.loc 1 736 2
 4595 0138 1F20     		movs	r0, #31
 4596 013a FFF7FEFF 		bl	LCD_WR_DATA8
 737:Module/LCD/lcd.c **** 	LCD_WR_DATA8(0x23);
 4597              		.loc 1 737 2
 4598 013e 2320     		movs	r0, #35
 4599 0140 FFF7FEFF 		bl	LCD_WR_DATA8
 738:Module/LCD/lcd.c **** 
 739:Module/LCD/lcd.c **** 	LCD_WR_REG(0xE1);
 4600              		.loc 1 739 2
 4601 0144 E120     		movs	r0, #225
 4602 0146 FFF7FEFF 		bl	LCD_WR_REG
 740:Module/LCD/lcd.c **** 	LCD_WR_DATA8(0xD0);
 4603              		.loc 1 740 2
 4604 014a D020     		movs	r0, #208
 4605 014c FFF7FEFF 		bl	LCD_WR_DATA8
 741:Module/LCD/lcd.c **** 	LCD_WR_DATA8(0x04);
 4606              		.loc 1 741 2
 4607 0150 0420     		movs	r0, #4
 4608 0152 FFF7FEFF 		bl	LCD_WR_DATA8
 742:Module/LCD/lcd.c **** 	LCD_WR_DATA8(0x0C);
 4609              		.loc 1 742 2
 4610 0156 0C20     		movs	r0, #12
 4611 0158 FFF7FEFF 		bl	LCD_WR_DATA8
 743:Module/LCD/lcd.c **** 	LCD_WR_DATA8(0x11);
 4612              		.loc 1 743 2
 4613 015c 1120     		movs	r0, #17
 4614 015e FFF7FEFF 		bl	LCD_WR_DATA8
 744:Module/LCD/lcd.c **** 	LCD_WR_DATA8(0x13);
 4615              		.loc 1 744 2
 4616 0162 1320     		movs	r0, #19
 4617 0164 FFF7FEFF 		bl	LCD_WR_DATA8
ARM GAS  C:\Users\AURORA~1\AppData\Local\Temp\ccDd7T3c.s 			page 148


 745:Module/LCD/lcd.c **** 	LCD_WR_DATA8(0x2C);
 4618              		.loc 1 745 2
 4619 0168 2C20     		movs	r0, #44
 4620 016a FFF7FEFF 		bl	LCD_WR_DATA8
 746:Module/LCD/lcd.c **** 	LCD_WR_DATA8(0x3F);
 4621              		.loc 1 746 2
 4622 016e 3F20     		movs	r0, #63
 4623 0170 FFF7FEFF 		bl	LCD_WR_DATA8
 747:Module/LCD/lcd.c **** 	LCD_WR_DATA8(0x44);
 4624              		.loc 1 747 2
 4625 0174 4420     		movs	r0, #68
 4626 0176 FFF7FEFF 		bl	LCD_WR_DATA8
 748:Module/LCD/lcd.c **** 	LCD_WR_DATA8(0x51);
 4627              		.loc 1 748 2
 4628 017a 5120     		movs	r0, #81
 4629 017c FFF7FEFF 		bl	LCD_WR_DATA8
 749:Module/LCD/lcd.c **** 	LCD_WR_DATA8(0x2F);
 4630              		.loc 1 749 2
 4631 0180 2F20     		movs	r0, #47
 4632 0182 FFF7FEFF 		bl	LCD_WR_DATA8
 750:Module/LCD/lcd.c **** 	LCD_WR_DATA8(0x1F);
 4633              		.loc 1 750 2
 4634 0186 1F20     		movs	r0, #31
 4635 0188 FFF7FEFF 		bl	LCD_WR_DATA8
 751:Module/LCD/lcd.c **** 	LCD_WR_DATA8(0x1F);
 4636              		.loc 1 751 2
 4637 018c 1F20     		movs	r0, #31
 4638 018e FFF7FEFF 		bl	LCD_WR_DATA8
 752:Module/LCD/lcd.c **** 	LCD_WR_DATA8(0x20);
 4639              		.loc 1 752 2
 4640 0192 2020     		movs	r0, #32
 4641 0194 FFF7FEFF 		bl	LCD_WR_DATA8
 753:Module/LCD/lcd.c **** 	LCD_WR_DATA8(0x23);
 4642              		.loc 1 753 2
 4643 0198 2320     		movs	r0, #35
 4644 019a FFF7FEFF 		bl	LCD_WR_DATA8
 754:Module/LCD/lcd.c **** 
 755:Module/LCD/lcd.c **** 	LCD_WR_REG(0x21); 
 4645              		.loc 1 755 2
 4646 019e 2120     		movs	r0, #33
 4647 01a0 FFF7FEFF 		bl	LCD_WR_REG
 756:Module/LCD/lcd.c **** 
 757:Module/LCD/lcd.c **** 	LCD_WR_REG(0x29); 
 4648              		.loc 1 757 2
 4649 01a4 2920     		movs	r0, #41
 4650 01a6 FFF7FEFF 		bl	LCD_WR_REG
 758:Module/LCD/lcd.c **** }
 4651              		.loc 1 758 1
 4652 01aa 00BF     		nop
 4653 01ac 80BD     		pop	{r7, pc}
 4654              	.L164:
 4655 01ae 00BF     		.align	2
 4656              	.L163:
 4657 01b0 00040048 		.word	1207960576
 4658              		.cfi_endproc
 4659              	.LFE153:
 4661              		.text
ARM GAS  C:\Users\AURORA~1\AppData\Local\Temp\ccDd7T3c.s 			page 149


 4662              	.Letext0:
 4663              		.file 2 "D:/msys64/mingw64/arm-none-eabi/include/machine/_default_types.h"
 4664              		.file 3 "D:/msys64/mingw64/arm-none-eabi/include/sys/_stdint.h"
 4665              		.file 4 "Drivers/CMSIS/Device/ST/STM32G4xx/Include/stm32g474xx.h"
 4666              		.file 5 "Drivers/STM32G4xx_HAL_Driver/Inc/stm32g4xx_hal_def.h"
 4667              		.file 6 "Drivers/STM32G4xx_HAL_Driver/Inc/stm32g4xx_hal_gpio.h"
 4668              		.file 7 "Drivers/STM32G4xx_HAL_Driver/Inc/stm32g4xx_hal_dma.h"
 4669              		.file 8 "Drivers/STM32G4xx_HAL_Driver/Inc/stm32g4xx_hal_spi.h"
 4670              		.file 9 "Core/Inc/spi.h"
 4671              		.file 10 "Module/LCD/lcdfont.h"
 4672              		.file 11 "Drivers/STM32G4xx_HAL_Driver/Inc/stm32g4xx_hal.h"
ARM GAS  C:\Users\AURORA~1\AppData\Local\Temp\ccDd7T3c.s 			page 150


DEFINED SYMBOLS
                            *ABS*:00000000 lcd.c
C:\Users\AURORA~1\AppData\Local\Temp\ccDd7T3c.s:25     .rodata.ascii_1206:00000000 ascii_1206
C:\Users\AURORA~1\AppData\Local\Temp\ccDd7T3c.s:22     .rodata.ascii_1206:00000000 $d
C:\Users\AURORA~1\AppData\Local\Temp\ccDd7T3c.s:126    .rodata.ascii_1608:00000000 ascii_1608
C:\Users\AURORA~1\AppData\Local\Temp\ccDd7T3c.s:123    .rodata.ascii_1608:00000000 $d
C:\Users\AURORA~1\AppData\Local\Temp\ccDd7T3c.s:267    .rodata.ascii_2412:00000000 ascii_2412
C:\Users\AURORA~1\AppData\Local\Temp\ccDd7T3c.s:264    .rodata.ascii_2412:00000000 $d
C:\Users\AURORA~1\AppData\Local\Temp\ccDd7T3c.s:638    .rodata.ascii_3216:00000000 ascii_3216
C:\Users\AURORA~1\AppData\Local\Temp\ccDd7T3c.s:635    .rodata.ascii_3216:00000000 $d
C:\Users\AURORA~1\AppData\Local\Temp\ccDd7T3c.s:1107   .rodata.tfont12:00000000 tfont12
C:\Users\AURORA~1\AppData\Local\Temp\ccDd7T3c.s:1104   .rodata.tfont12:00000000 $d
C:\Users\AURORA~1\AppData\Local\Temp\ccDd7T3c.s:1128   .rodata.tfont16:00000000 tfont16
C:\Users\AURORA~1\AppData\Local\Temp\ccDd7T3c.s:1125   .rodata.tfont16:00000000 $d
C:\Users\AURORA~1\AppData\Local\Temp\ccDd7T3c.s:1153   .rodata.tfont24:00000000 tfont24
C:\Users\AURORA~1\AppData\Local\Temp\ccDd7T3c.s:1150   .rodata.tfont24:00000000 $d
C:\Users\AURORA~1\AppData\Local\Temp\ccDd7T3c.s:1192   .rodata.tfont32:00000000 tfont32
C:\Users\AURORA~1\AppData\Local\Temp\ccDd7T3c.s:1189   .rodata.tfont32:00000000 $d
C:\Users\AURORA~1\AppData\Local\Temp\ccDd7T3c.s:1247   .text.LCD_Writ_Bus:00000000 $t
C:\Users\AURORA~1\AppData\Local\Temp\ccDd7T3c.s:1253   .text.LCD_Writ_Bus:00000000 LCD_Writ_Bus
C:\Users\AURORA~1\AppData\Local\Temp\ccDd7T3c.s:1301   .text.LCD_Writ_Bus:00000034 $d
C:\Users\AURORA~1\AppData\Local\Temp\ccDd7T3c.s:1307   .text.LCD_WR_DATA8:00000000 $t
C:\Users\AURORA~1\AppData\Local\Temp\ccDd7T3c.s:1313   .text.LCD_WR_DATA8:00000000 LCD_WR_DATA8
C:\Users\AURORA~1\AppData\Local\Temp\ccDd7T3c.s:1350   .text.LCD_WR_DATA:00000000 $t
C:\Users\AURORA~1\AppData\Local\Temp\ccDd7T3c.s:1356   .text.LCD_WR_DATA:00000000 LCD_WR_DATA
C:\Users\AURORA~1\AppData\Local\Temp\ccDd7T3c.s:1401   .text.LCD_WR_REG:00000000 $t
C:\Users\AURORA~1\AppData\Local\Temp\ccDd7T3c.s:1407   .text.LCD_WR_REG:00000000 LCD_WR_REG
C:\Users\AURORA~1\AppData\Local\Temp\ccDd7T3c.s:1453   .text.LCD_WR_REG:00000034 $d
C:\Users\AURORA~1\AppData\Local\Temp\ccDd7T3c.s:1458   .text.LCD_Address_Set:00000000 $t
C:\Users\AURORA~1\AppData\Local\Temp\ccDd7T3c.s:1464   .text.LCD_Address_Set:00000000 LCD_Address_Set
C:\Users\AURORA~1\AppData\Local\Temp\ccDd7T3c.s:1541   .text.LCD_Fill:00000000 $t
C:\Users\AURORA~1\AppData\Local\Temp\ccDd7T3c.s:1547   .text.LCD_Fill:00000000 LCD_Fill
C:\Users\AURORA~1\AppData\Local\Temp\ccDd7T3c.s:1638   .text.LCD_DrawPoint:00000000 $t
C:\Users\AURORA~1\AppData\Local\Temp\ccDd7T3c.s:1644   .text.LCD_DrawPoint:00000000 LCD_DrawPoint
C:\Users\AURORA~1\AppData\Local\Temp\ccDd7T3c.s:1691   .text.LCD_DrawLine:00000000 $t
C:\Users\AURORA~1\AppData\Local\Temp\ccDd7T3c.s:1697   .text.LCD_DrawLine:00000000 LCD_DrawLine
C:\Users\AURORA~1\AppData\Local\Temp\ccDd7T3c.s:1898   .text.LCD_DrawRectangle:00000000 $t
C:\Users\AURORA~1\AppData\Local\Temp\ccDd7T3c.s:1904   .text.LCD_DrawRectangle:00000000 LCD_DrawRectangle
C:\Users\AURORA~1\AppData\Local\Temp\ccDd7T3c.s:1984   .text.Draw_Circle:00000000 $t
C:\Users\AURORA~1\AppData\Local\Temp\ccDd7T3c.s:1990   .text.Draw_Circle:00000000 Draw_Circle
C:\Users\AURORA~1\AppData\Local\Temp\ccDd7T3c.s:2185   .text.LCD_ShowChinese:00000000 $t
C:\Users\AURORA~1\AppData\Local\Temp\ccDd7T3c.s:2191   .text.LCD_ShowChinese:00000000 LCD_ShowChinese
C:\Users\AURORA~1\AppData\Local\Temp\ccDd7T3c.s:2335   .text.LCD_ShowChinese12x12:00000000 LCD_ShowChinese12x12
C:\Users\AURORA~1\AppData\Local\Temp\ccDd7T3c.s:2621   .text.LCD_ShowChinese16x16:00000000 LCD_ShowChinese16x16
C:\Users\AURORA~1\AppData\Local\Temp\ccDd7T3c.s:2915   .text.LCD_ShowChinese24x24:00000000 LCD_ShowChinese24x24
C:\Users\AURORA~1\AppData\Local\Temp\ccDd7T3c.s:3201   .text.LCD_ShowChinese32x32:00000000 LCD_ShowChinese32x32
C:\Users\AURORA~1\AppData\Local\Temp\ccDd7T3c.s:2329   .text.LCD_ShowChinese12x12:00000000 $t
C:\Users\AURORA~1\AppData\Local\Temp\ccDd7T3c.s:2610   .text.LCD_ShowChinese12x12:000001a8 $d
C:\Users\AURORA~1\AppData\Local\Temp\ccDd7T3c.s:2615   .text.LCD_ShowChinese16x16:00000000 $t
C:\Users\AURORA~1\AppData\Local\Temp\ccDd7T3c.s:2904   .text.LCD_ShowChinese16x16:000001b0 $d
C:\Users\AURORA~1\AppData\Local\Temp\ccDd7T3c.s:2909   .text.LCD_ShowChinese24x24:00000000 $t
C:\Users\AURORA~1\AppData\Local\Temp\ccDd7T3c.s:3190   .text.LCD_ShowChinese24x24:000001a8 $d
C:\Users\AURORA~1\AppData\Local\Temp\ccDd7T3c.s:3195   .text.LCD_ShowChinese32x32:00000000 $t
C:\Users\AURORA~1\AppData\Local\Temp\ccDd7T3c.s:3484   .text.LCD_ShowChinese32x32:000001b0 $d
C:\Users\AURORA~1\AppData\Local\Temp\ccDd7T3c.s:3489   .text.LCD_ShowChar:00000000 $t
C:\Users\AURORA~1\AppData\Local\Temp\ccDd7T3c.s:3495   .text.LCD_ShowChar:00000000 LCD_ShowChar
C:\Users\AURORA~1\AppData\Local\Temp\ccDd7T3c.s:3782   .text.LCD_ShowChar:000001b0 $d
ARM GAS  C:\Users\AURORA~1\AppData\Local\Temp\ccDd7T3c.s 			page 151


C:\Users\AURORA~1\AppData\Local\Temp\ccDd7T3c.s:3790   .text.LCD_ShowString:00000000 $t
C:\Users\AURORA~1\AppData\Local\Temp\ccDd7T3c.s:3796   .text.LCD_ShowString:00000000 LCD_ShowString
C:\Users\AURORA~1\AppData\Local\Temp\ccDd7T3c.s:3873   .text.mypow:00000000 $t
C:\Users\AURORA~1\AppData\Local\Temp\ccDd7T3c.s:3879   .text.mypow:00000000 mypow
C:\Users\AURORA~1\AppData\Local\Temp\ccDd7T3c.s:3940   .text.LCD_ShowIntNum:00000000 $t
C:\Users\AURORA~1\AppData\Local\Temp\ccDd7T3c.s:3946   .text.LCD_ShowIntNum:00000000 LCD_ShowIntNum
C:\Users\AURORA~1\AppData\Local\Temp\ccDd7T3c.s:4111   .text.LCD_ShowIntNum:000000f8 $d
C:\Users\AURORA~1\AppData\Local\Temp\ccDd7T3c.s:4116   .text.LCD_ShowFloatNum1:00000000 $t
C:\Users\AURORA~1\AppData\Local\Temp\ccDd7T3c.s:4122   .text.LCD_ShowFloatNum1:00000000 LCD_ShowFloatNum1
C:\Users\AURORA~1\AppData\Local\Temp\ccDd7T3c.s:4287   .text.LCD_ShowFloatNum1:00000108 $d
C:\Users\AURORA~1\AppData\Local\Temp\ccDd7T3c.s:4293   .text.LCD_ShowPicture:00000000 $t
C:\Users\AURORA~1\AppData\Local\Temp\ccDd7T3c.s:4299   .text.LCD_ShowPicture:00000000 LCD_ShowPicture
C:\Users\AURORA~1\AppData\Local\Temp\ccDd7T3c.s:4424   .text.LCD_Init:00000000 $t
C:\Users\AURORA~1\AppData\Local\Temp\ccDd7T3c.s:4430   .text.LCD_Init:00000000 LCD_Init
C:\Users\AURORA~1\AppData\Local\Temp\ccDd7T3c.s:4657   .text.LCD_Init:000001b0 $d

UNDEFINED SYMBOLS
HAL_GPIO_WritePin
HAL_SPI_Transmit
hspi3
HAL_Delay
