ARM GAS  C:\Users\AURORA~1\AppData\Local\Temp\ccEbooPs.s 			page 1


   1              		.cpu cortex-m4
   2              		.arch armv7e-m
   3              		.fpu fpv4-sp-d16
   4              		.eabi_attribute 27, 1
   5              		.eabi_attribute 28, 1
   6              		.eabi_attribute 20, 1
   7              		.eabi_attribute 21, 1
   8              		.eabi_attribute 23, 3
   9              		.eabi_attribute 24, 1
  10              		.eabi_attribute 25, 1
  11              		.eabi_attribute 26, 1
  12              		.eabi_attribute 30, 6
  13              		.eabi_attribute 34, 1
  14              		.eabi_attribute 18, 4
  15              		.file	"stm32g4xx_hal_fdcan.c"
  16              		.text
  17              	.Ltext0:
  18              		.cfi_sections	.debug_frame
  19              		.file 1 "Drivers/STM32G4xx_HAL_Driver/Src/stm32g4xx_hal_fdcan.c"
  20              		.section	.rodata.DLCtoBytes,"a"
  21              		.align	2
  24              	DLCtoBytes:
  25 0000 00010203 		.ascii	"\000\001\002\003\004\005\006\007\010\014\020\024\030"
  25      04050607 
  25      080C1014 
  25      18
  26 000d 203040   		.ascii	" 0@"
  27              		.section	.text.HAL_FDCAN_Init,"ax",%progbits
  28              		.align	1
  29              		.global	HAL_FDCAN_Init
  30              		.syntax unified
  31              		.thumb
  32              		.thumb_func
  34              	HAL_FDCAN_Init:
  35              	.LFB132:
   1:Drivers/STM32G4xx_HAL_Driver/Src/stm32g4xx_hal_fdcan.c **** /**
   2:Drivers/STM32G4xx_HAL_Driver/Src/stm32g4xx_hal_fdcan.c ****   ******************************************************************************
   3:Drivers/STM32G4xx_HAL_Driver/Src/stm32g4xx_hal_fdcan.c ****   * @file    stm32g4xx_hal_fdcan.c
   4:Drivers/STM32G4xx_HAL_Driver/Src/stm32g4xx_hal_fdcan.c ****   * @author  MCD Application Team
   5:Drivers/STM32G4xx_HAL_Driver/Src/stm32g4xx_hal_fdcan.c ****   * @brief   FDCAN HAL module driver.
   6:Drivers/STM32G4xx_HAL_Driver/Src/stm32g4xx_hal_fdcan.c ****   *          This file provides firmware functions to manage the following
   7:Drivers/STM32G4xx_HAL_Driver/Src/stm32g4xx_hal_fdcan.c ****   *          functionalities of the Flexible DataRate Controller Area Network
   8:Drivers/STM32G4xx_HAL_Driver/Src/stm32g4xx_hal_fdcan.c ****   *          (FDCAN) peripheral:
   9:Drivers/STM32G4xx_HAL_Driver/Src/stm32g4xx_hal_fdcan.c ****   *           + Initialization and de-initialization functions
  10:Drivers/STM32G4xx_HAL_Driver/Src/stm32g4xx_hal_fdcan.c ****   *           + IO operation functions
  11:Drivers/STM32G4xx_HAL_Driver/Src/stm32g4xx_hal_fdcan.c ****   *           + Peripheral Configuration and Control functions
  12:Drivers/STM32G4xx_HAL_Driver/Src/stm32g4xx_hal_fdcan.c ****   *           + Peripheral State and Error functions
  13:Drivers/STM32G4xx_HAL_Driver/Src/stm32g4xx_hal_fdcan.c ****   ******************************************************************************
  14:Drivers/STM32G4xx_HAL_Driver/Src/stm32g4xx_hal_fdcan.c ****   * @attention
  15:Drivers/STM32G4xx_HAL_Driver/Src/stm32g4xx_hal_fdcan.c ****   *
  16:Drivers/STM32G4xx_HAL_Driver/Src/stm32g4xx_hal_fdcan.c ****   * Copyright (c) 2019 STMicroelectronics.
  17:Drivers/STM32G4xx_HAL_Driver/Src/stm32g4xx_hal_fdcan.c ****   * All rights reserved.
  18:Drivers/STM32G4xx_HAL_Driver/Src/stm32g4xx_hal_fdcan.c ****   *
  19:Drivers/STM32G4xx_HAL_Driver/Src/stm32g4xx_hal_fdcan.c ****   * This software is licensed under terms that can be found in the LICENSE file
  20:Drivers/STM32G4xx_HAL_Driver/Src/stm32g4xx_hal_fdcan.c ****   * in the root directory of this software component.
  21:Drivers/STM32G4xx_HAL_Driver/Src/stm32g4xx_hal_fdcan.c ****   * If no LICENSE file comes with this software, it is provided AS-IS.
  22:Drivers/STM32G4xx_HAL_Driver/Src/stm32g4xx_hal_fdcan.c ****   *
ARM GAS  C:\Users\AURORA~1\AppData\Local\Temp\ccEbooPs.s 			page 2


  23:Drivers/STM32G4xx_HAL_Driver/Src/stm32g4xx_hal_fdcan.c ****   ******************************************************************************
  24:Drivers/STM32G4xx_HAL_Driver/Src/stm32g4xx_hal_fdcan.c ****   @verbatim
  25:Drivers/STM32G4xx_HAL_Driver/Src/stm32g4xx_hal_fdcan.c ****   ==============================================================================
  26:Drivers/STM32G4xx_HAL_Driver/Src/stm32g4xx_hal_fdcan.c ****                         ##### How to use this driver #####
  27:Drivers/STM32G4xx_HAL_Driver/Src/stm32g4xx_hal_fdcan.c ****   ==============================================================================
  28:Drivers/STM32G4xx_HAL_Driver/Src/stm32g4xx_hal_fdcan.c ****     [..]
  29:Drivers/STM32G4xx_HAL_Driver/Src/stm32g4xx_hal_fdcan.c ****       (#) Initialize the FDCAN peripheral using HAL_FDCAN_Init function.
  30:Drivers/STM32G4xx_HAL_Driver/Src/stm32g4xx_hal_fdcan.c **** 
  31:Drivers/STM32G4xx_HAL_Driver/Src/stm32g4xx_hal_fdcan.c ****       (#) If needed , configure the reception filters and optional features using
  32:Drivers/STM32G4xx_HAL_Driver/Src/stm32g4xx_hal_fdcan.c ****           the following configuration functions:
  33:Drivers/STM32G4xx_HAL_Driver/Src/stm32g4xx_hal_fdcan.c ****             (++) HAL_FDCAN_ConfigFilter
  34:Drivers/STM32G4xx_HAL_Driver/Src/stm32g4xx_hal_fdcan.c ****             (++) HAL_FDCAN_ConfigGlobalFilter
  35:Drivers/STM32G4xx_HAL_Driver/Src/stm32g4xx_hal_fdcan.c ****             (++) HAL_FDCAN_ConfigExtendedIdMask
  36:Drivers/STM32G4xx_HAL_Driver/Src/stm32g4xx_hal_fdcan.c ****             (++) HAL_FDCAN_ConfigRxFifoOverwrite
  37:Drivers/STM32G4xx_HAL_Driver/Src/stm32g4xx_hal_fdcan.c ****             (++) HAL_FDCAN_ConfigRamWatchdog
  38:Drivers/STM32G4xx_HAL_Driver/Src/stm32g4xx_hal_fdcan.c ****             (++) HAL_FDCAN_ConfigTimestampCounter
  39:Drivers/STM32G4xx_HAL_Driver/Src/stm32g4xx_hal_fdcan.c ****             (++) HAL_FDCAN_EnableTimestampCounter
  40:Drivers/STM32G4xx_HAL_Driver/Src/stm32g4xx_hal_fdcan.c ****             (++) HAL_FDCAN_DisableTimestampCounter
  41:Drivers/STM32G4xx_HAL_Driver/Src/stm32g4xx_hal_fdcan.c ****             (++) HAL_FDCAN_ConfigTimeoutCounter
  42:Drivers/STM32G4xx_HAL_Driver/Src/stm32g4xx_hal_fdcan.c ****             (++) HAL_FDCAN_EnableTimeoutCounter
  43:Drivers/STM32G4xx_HAL_Driver/Src/stm32g4xx_hal_fdcan.c ****             (++) HAL_FDCAN_DisableTimeoutCounter
  44:Drivers/STM32G4xx_HAL_Driver/Src/stm32g4xx_hal_fdcan.c ****             (++) HAL_FDCAN_ConfigTxDelayCompensation
  45:Drivers/STM32G4xx_HAL_Driver/Src/stm32g4xx_hal_fdcan.c ****             (++) HAL_FDCAN_EnableTxDelayCompensation
  46:Drivers/STM32G4xx_HAL_Driver/Src/stm32g4xx_hal_fdcan.c ****             (++) HAL_FDCAN_DisableTxDelayCompensation
  47:Drivers/STM32G4xx_HAL_Driver/Src/stm32g4xx_hal_fdcan.c ****             (++) HAL_FDCAN_EnableISOMode
  48:Drivers/STM32G4xx_HAL_Driver/Src/stm32g4xx_hal_fdcan.c ****             (++) HAL_FDCAN_DisableISOMode
  49:Drivers/STM32G4xx_HAL_Driver/Src/stm32g4xx_hal_fdcan.c ****             (++) HAL_FDCAN_EnableEdgeFiltering
  50:Drivers/STM32G4xx_HAL_Driver/Src/stm32g4xx_hal_fdcan.c ****             (++) HAL_FDCAN_DisableEdgeFiltering
  51:Drivers/STM32G4xx_HAL_Driver/Src/stm32g4xx_hal_fdcan.c **** 
  52:Drivers/STM32G4xx_HAL_Driver/Src/stm32g4xx_hal_fdcan.c ****       (#) Start the FDCAN module using HAL_FDCAN_Start function. At this level
  53:Drivers/STM32G4xx_HAL_Driver/Src/stm32g4xx_hal_fdcan.c ****           the node is active on the bus: it can send and receive messages.
  54:Drivers/STM32G4xx_HAL_Driver/Src/stm32g4xx_hal_fdcan.c **** 
  55:Drivers/STM32G4xx_HAL_Driver/Src/stm32g4xx_hal_fdcan.c ****       (#) The following Tx control functions can only be called when the FDCAN
  56:Drivers/STM32G4xx_HAL_Driver/Src/stm32g4xx_hal_fdcan.c ****           module is started:
  57:Drivers/STM32G4xx_HAL_Driver/Src/stm32g4xx_hal_fdcan.c ****             (++) HAL_FDCAN_AddMessageToTxFifoQ
  58:Drivers/STM32G4xx_HAL_Driver/Src/stm32g4xx_hal_fdcan.c ****             (++) HAL_FDCAN_AbortTxRequest
  59:Drivers/STM32G4xx_HAL_Driver/Src/stm32g4xx_hal_fdcan.c **** 
  60:Drivers/STM32G4xx_HAL_Driver/Src/stm32g4xx_hal_fdcan.c ****       (#) After having submitted a Tx request in Tx Fifo or Queue, it is possible to
  61:Drivers/STM32G4xx_HAL_Driver/Src/stm32g4xx_hal_fdcan.c ****           get Tx buffer location used to place the Tx request thanks to
  62:Drivers/STM32G4xx_HAL_Driver/Src/stm32g4xx_hal_fdcan.c ****           HAL_FDCAN_GetLatestTxFifoQRequestBuffer API.
  63:Drivers/STM32G4xx_HAL_Driver/Src/stm32g4xx_hal_fdcan.c ****           It is then possible to abort later on the corresponding Tx Request using
  64:Drivers/STM32G4xx_HAL_Driver/Src/stm32g4xx_hal_fdcan.c ****           HAL_FDCAN_AbortTxRequest API.
  65:Drivers/STM32G4xx_HAL_Driver/Src/stm32g4xx_hal_fdcan.c **** 
  66:Drivers/STM32G4xx_HAL_Driver/Src/stm32g4xx_hal_fdcan.c ****       (#) When a message is received into the FDCAN message RAM, it can be
  67:Drivers/STM32G4xx_HAL_Driver/Src/stm32g4xx_hal_fdcan.c ****           retrieved using the HAL_FDCAN_GetRxMessage function.
  68:Drivers/STM32G4xx_HAL_Driver/Src/stm32g4xx_hal_fdcan.c **** 
  69:Drivers/STM32G4xx_HAL_Driver/Src/stm32g4xx_hal_fdcan.c ****       (#) Calling the HAL_FDCAN_Stop function stops the FDCAN module by entering
  70:Drivers/STM32G4xx_HAL_Driver/Src/stm32g4xx_hal_fdcan.c ****           it to initialization mode and re-enabling access to configuration
  71:Drivers/STM32G4xx_HAL_Driver/Src/stm32g4xx_hal_fdcan.c ****           registers through the configuration functions listed here above.
  72:Drivers/STM32G4xx_HAL_Driver/Src/stm32g4xx_hal_fdcan.c **** 
  73:Drivers/STM32G4xx_HAL_Driver/Src/stm32g4xx_hal_fdcan.c ****       (#) All other control functions can be called any time after initialization
  74:Drivers/STM32G4xx_HAL_Driver/Src/stm32g4xx_hal_fdcan.c ****           phase, no matter if the FDCAN module is started or stopped.
  75:Drivers/STM32G4xx_HAL_Driver/Src/stm32g4xx_hal_fdcan.c **** 
  76:Drivers/STM32G4xx_HAL_Driver/Src/stm32g4xx_hal_fdcan.c ****       *** Polling mode operation ***
  77:Drivers/STM32G4xx_HAL_Driver/Src/stm32g4xx_hal_fdcan.c ****       ==============================
  78:Drivers/STM32G4xx_HAL_Driver/Src/stm32g4xx_hal_fdcan.c ****     [..]
  79:Drivers/STM32G4xx_HAL_Driver/Src/stm32g4xx_hal_fdcan.c ****         (#) Reception and transmission states can be monitored via the following
ARM GAS  C:\Users\AURORA~1\AppData\Local\Temp\ccEbooPs.s 			page 3


  80:Drivers/STM32G4xx_HAL_Driver/Src/stm32g4xx_hal_fdcan.c ****             functions:
  81:Drivers/STM32G4xx_HAL_Driver/Src/stm32g4xx_hal_fdcan.c ****               (++) HAL_FDCAN_IsTxBufferMessagePending
  82:Drivers/STM32G4xx_HAL_Driver/Src/stm32g4xx_hal_fdcan.c ****               (++) HAL_FDCAN_GetRxFifoFillLevel
  83:Drivers/STM32G4xx_HAL_Driver/Src/stm32g4xx_hal_fdcan.c ****               (++) HAL_FDCAN_GetTxFifoFreeLevel
  84:Drivers/STM32G4xx_HAL_Driver/Src/stm32g4xx_hal_fdcan.c **** 
  85:Drivers/STM32G4xx_HAL_Driver/Src/stm32g4xx_hal_fdcan.c ****       *** Interrupt mode operation ***
  86:Drivers/STM32G4xx_HAL_Driver/Src/stm32g4xx_hal_fdcan.c ****       ================================
  87:Drivers/STM32G4xx_HAL_Driver/Src/stm32g4xx_hal_fdcan.c ****       [..]
  88:Drivers/STM32G4xx_HAL_Driver/Src/stm32g4xx_hal_fdcan.c ****         (#) There are two interrupt lines: line 0 and 1.
  89:Drivers/STM32G4xx_HAL_Driver/Src/stm32g4xx_hal_fdcan.c ****             By default, all interrupts are assigned to line 0. Interrupt lines
  90:Drivers/STM32G4xx_HAL_Driver/Src/stm32g4xx_hal_fdcan.c ****             can be configured using HAL_FDCAN_ConfigInterruptLines function.
  91:Drivers/STM32G4xx_HAL_Driver/Src/stm32g4xx_hal_fdcan.c **** 
  92:Drivers/STM32G4xx_HAL_Driver/Src/stm32g4xx_hal_fdcan.c ****         (#) Notifications are activated using HAL_FDCAN_ActivateNotification
  93:Drivers/STM32G4xx_HAL_Driver/Src/stm32g4xx_hal_fdcan.c ****             function. Then, the process can be controlled through one of the
  94:Drivers/STM32G4xx_HAL_Driver/Src/stm32g4xx_hal_fdcan.c ****             available user callbacks: HAL_FDCAN_xxxCallback.
  95:Drivers/STM32G4xx_HAL_Driver/Src/stm32g4xx_hal_fdcan.c **** 
  96:Drivers/STM32G4xx_HAL_Driver/Src/stm32g4xx_hal_fdcan.c ****   *** Callback registration ***
  97:Drivers/STM32G4xx_HAL_Driver/Src/stm32g4xx_hal_fdcan.c ****   =============================================
  98:Drivers/STM32G4xx_HAL_Driver/Src/stm32g4xx_hal_fdcan.c **** 
  99:Drivers/STM32G4xx_HAL_Driver/Src/stm32g4xx_hal_fdcan.c ****   The compilation define USE_HAL_FDCAN_REGISTER_CALLBACKS when set to 1
 100:Drivers/STM32G4xx_HAL_Driver/Src/stm32g4xx_hal_fdcan.c ****   allows the user to configure dynamically the driver callbacks.
 101:Drivers/STM32G4xx_HAL_Driver/Src/stm32g4xx_hal_fdcan.c ****   Use Function HAL_FDCAN_RegisterCallback() or HAL_FDCAN_RegisterXXXCallback()
 102:Drivers/STM32G4xx_HAL_Driver/Src/stm32g4xx_hal_fdcan.c ****   to register an interrupt callback.
 103:Drivers/STM32G4xx_HAL_Driver/Src/stm32g4xx_hal_fdcan.c **** 
 104:Drivers/STM32G4xx_HAL_Driver/Src/stm32g4xx_hal_fdcan.c ****   Function HAL_FDCAN_RegisterCallback() allows to register following callbacks:
 105:Drivers/STM32G4xx_HAL_Driver/Src/stm32g4xx_hal_fdcan.c ****     (+) TxFifoEmptyCallback          : Tx Fifo Empty Callback.
 106:Drivers/STM32G4xx_HAL_Driver/Src/stm32g4xx_hal_fdcan.c ****     (+) HighPriorityMessageCallback  : High Priority Message Callback.
 107:Drivers/STM32G4xx_HAL_Driver/Src/stm32g4xx_hal_fdcan.c ****     (+) TimestampWraparoundCallback  : Timestamp Wraparound Callback.
 108:Drivers/STM32G4xx_HAL_Driver/Src/stm32g4xx_hal_fdcan.c ****     (+) TimeoutOccurredCallback      : Timeout Occurred Callback.
 109:Drivers/STM32G4xx_HAL_Driver/Src/stm32g4xx_hal_fdcan.c ****     (+) ErrorCallback                : Error Callback.
 110:Drivers/STM32G4xx_HAL_Driver/Src/stm32g4xx_hal_fdcan.c ****     (+) MspInitCallback              : FDCAN MspInit.
 111:Drivers/STM32G4xx_HAL_Driver/Src/stm32g4xx_hal_fdcan.c ****     (+) MspDeInitCallback            : FDCAN MspDeInit.
 112:Drivers/STM32G4xx_HAL_Driver/Src/stm32g4xx_hal_fdcan.c ****   This function takes as parameters the HAL peripheral handle, the Callback ID
 113:Drivers/STM32G4xx_HAL_Driver/Src/stm32g4xx_hal_fdcan.c ****   and a pointer to the user callback function.
 114:Drivers/STM32G4xx_HAL_Driver/Src/stm32g4xx_hal_fdcan.c **** 
 115:Drivers/STM32G4xx_HAL_Driver/Src/stm32g4xx_hal_fdcan.c ****   For specific callbacks TxEventFifoCallback, RxFifo0Callback, RxFifo1Callback,
 116:Drivers/STM32G4xx_HAL_Driver/Src/stm32g4xx_hal_fdcan.c ****   TxBufferCompleteCallback, TxBufferAbortCallback and ErrorStatusCallback use dedicated
 117:Drivers/STM32G4xx_HAL_Driver/Src/stm32g4xx_hal_fdcan.c ****   register callbacks: respectively HAL_FDCAN_RegisterTxEventFifoCallback(),
 118:Drivers/STM32G4xx_HAL_Driver/Src/stm32g4xx_hal_fdcan.c ****   HAL_FDCAN_RegisterRxFifo0Callback(), HAL_FDCAN_RegisterRxFifo1Callback(),
 119:Drivers/STM32G4xx_HAL_Driver/Src/stm32g4xx_hal_fdcan.c ****   HAL_FDCAN_RegisterTxBufferCompleteCallback(), HAL_FDCAN_RegisterTxBufferAbortCallback()
 120:Drivers/STM32G4xx_HAL_Driver/Src/stm32g4xx_hal_fdcan.c ****   and HAL_FDCAN_RegisterErrorStatusCallback().
 121:Drivers/STM32G4xx_HAL_Driver/Src/stm32g4xx_hal_fdcan.c **** 
 122:Drivers/STM32G4xx_HAL_Driver/Src/stm32g4xx_hal_fdcan.c ****   Use function HAL_FDCAN_UnRegisterCallback() to reset a callback to the default
 123:Drivers/STM32G4xx_HAL_Driver/Src/stm32g4xx_hal_fdcan.c ****   weak function.
 124:Drivers/STM32G4xx_HAL_Driver/Src/stm32g4xx_hal_fdcan.c ****   HAL_FDCAN_UnRegisterCallback takes as parameters the HAL peripheral handle,
 125:Drivers/STM32G4xx_HAL_Driver/Src/stm32g4xx_hal_fdcan.c ****   and the Callback ID.
 126:Drivers/STM32G4xx_HAL_Driver/Src/stm32g4xx_hal_fdcan.c ****   This function allows to reset following callbacks:
 127:Drivers/STM32G4xx_HAL_Driver/Src/stm32g4xx_hal_fdcan.c ****     (+) TxFifoEmptyCallback          : Tx Fifo Empty Callback.
 128:Drivers/STM32G4xx_HAL_Driver/Src/stm32g4xx_hal_fdcan.c ****     (+) HighPriorityMessageCallback  : High Priority Message Callback.
 129:Drivers/STM32G4xx_HAL_Driver/Src/stm32g4xx_hal_fdcan.c ****     (+) TimestampWraparoundCallback  : Timestamp Wraparound Callback.
 130:Drivers/STM32G4xx_HAL_Driver/Src/stm32g4xx_hal_fdcan.c ****     (+) TimeoutOccurredCallback      : Timeout Occurred Callback.
 131:Drivers/STM32G4xx_HAL_Driver/Src/stm32g4xx_hal_fdcan.c ****     (+) ErrorCallback                : Error Callback.
 132:Drivers/STM32G4xx_HAL_Driver/Src/stm32g4xx_hal_fdcan.c ****     (+) MspInitCallback              : FDCAN MspInit.
 133:Drivers/STM32G4xx_HAL_Driver/Src/stm32g4xx_hal_fdcan.c ****     (+) MspDeInitCallback            : FDCAN MspDeInit.
 134:Drivers/STM32G4xx_HAL_Driver/Src/stm32g4xx_hal_fdcan.c **** 
 135:Drivers/STM32G4xx_HAL_Driver/Src/stm32g4xx_hal_fdcan.c ****   For specific callbacks TxEventFifoCallback, RxFifo0Callback, RxFifo1Callback,
 136:Drivers/STM32G4xx_HAL_Driver/Src/stm32g4xx_hal_fdcan.c ****   TxBufferCompleteCallback and TxBufferAbortCallback, use dedicated
ARM GAS  C:\Users\AURORA~1\AppData\Local\Temp\ccEbooPs.s 			page 4


 137:Drivers/STM32G4xx_HAL_Driver/Src/stm32g4xx_hal_fdcan.c ****   unregister callbacks: respectively HAL_FDCAN_UnRegisterTxEventFifoCallback(),
 138:Drivers/STM32G4xx_HAL_Driver/Src/stm32g4xx_hal_fdcan.c ****   HAL_FDCAN_UnRegisterRxFifo0Callback(), HAL_FDCAN_UnRegisterRxFifo1Callback(),
 139:Drivers/STM32G4xx_HAL_Driver/Src/stm32g4xx_hal_fdcan.c ****   HAL_FDCAN_UnRegisterTxBufferCompleteCallback(), HAL_FDCAN_UnRegisterTxBufferAbortCallback()
 140:Drivers/STM32G4xx_HAL_Driver/Src/stm32g4xx_hal_fdcan.c ****   and HAL_FDCAN_UnRegisterErrorStatusCallback().
 141:Drivers/STM32G4xx_HAL_Driver/Src/stm32g4xx_hal_fdcan.c **** 
 142:Drivers/STM32G4xx_HAL_Driver/Src/stm32g4xx_hal_fdcan.c ****   By default, after the HAL_FDCAN_Init() and when the state is HAL_FDCAN_STATE_RESET,
 143:Drivers/STM32G4xx_HAL_Driver/Src/stm32g4xx_hal_fdcan.c ****   all callbacks are set to the corresponding weak functions:
 144:Drivers/STM32G4xx_HAL_Driver/Src/stm32g4xx_hal_fdcan.c ****   examples HAL_FDCAN_ErrorCallback().
 145:Drivers/STM32G4xx_HAL_Driver/Src/stm32g4xx_hal_fdcan.c ****   Exception done for MspInit and MspDeInit functions that are
 146:Drivers/STM32G4xx_HAL_Driver/Src/stm32g4xx_hal_fdcan.c ****   reset to the legacy weak function in the HAL_FDCAN_Init()/ HAL_FDCAN_DeInit() only when
 147:Drivers/STM32G4xx_HAL_Driver/Src/stm32g4xx_hal_fdcan.c ****   these callbacks are null (not registered beforehand).
 148:Drivers/STM32G4xx_HAL_Driver/Src/stm32g4xx_hal_fdcan.c ****   if not, MspInit or MspDeInit are not null, the HAL_FDCAN_Init()/ HAL_FDCAN_DeInit()
 149:Drivers/STM32G4xx_HAL_Driver/Src/stm32g4xx_hal_fdcan.c ****   keep and use the user MspInit/MspDeInit callbacks (registered beforehand)
 150:Drivers/STM32G4xx_HAL_Driver/Src/stm32g4xx_hal_fdcan.c **** 
 151:Drivers/STM32G4xx_HAL_Driver/Src/stm32g4xx_hal_fdcan.c ****   Callbacks can be registered/unregistered in HAL_FDCAN_STATE_READY state only.
 152:Drivers/STM32G4xx_HAL_Driver/Src/stm32g4xx_hal_fdcan.c ****   Exception done MspInit/MspDeInit that can be registered/unregistered
 153:Drivers/STM32G4xx_HAL_Driver/Src/stm32g4xx_hal_fdcan.c ****   in HAL_FDCAN_STATE_READY or HAL_FDCAN_STATE_RESET state,
 154:Drivers/STM32G4xx_HAL_Driver/Src/stm32g4xx_hal_fdcan.c ****   thus registered (user) MspInit/DeInit callbacks can be used during the Init/DeInit.
 155:Drivers/STM32G4xx_HAL_Driver/Src/stm32g4xx_hal_fdcan.c ****   In that case first register the MspInit/MspDeInit user callbacks
 156:Drivers/STM32G4xx_HAL_Driver/Src/stm32g4xx_hal_fdcan.c ****   using HAL_FDCAN_RegisterCallback() before calling HAL_FDCAN_DeInit()
 157:Drivers/STM32G4xx_HAL_Driver/Src/stm32g4xx_hal_fdcan.c ****   or HAL_FDCAN_Init() function.
 158:Drivers/STM32G4xx_HAL_Driver/Src/stm32g4xx_hal_fdcan.c **** 
 159:Drivers/STM32G4xx_HAL_Driver/Src/stm32g4xx_hal_fdcan.c ****   When The compilation define USE_HAL_FDCAN_REGISTER_CALLBACKS is set to 0 or
 160:Drivers/STM32G4xx_HAL_Driver/Src/stm32g4xx_hal_fdcan.c ****   not defined, the callback registration feature is not available and all callbacks
 161:Drivers/STM32G4xx_HAL_Driver/Src/stm32g4xx_hal_fdcan.c ****   are set to the corresponding weak functions.
 162:Drivers/STM32G4xx_HAL_Driver/Src/stm32g4xx_hal_fdcan.c **** 
 163:Drivers/STM32G4xx_HAL_Driver/Src/stm32g4xx_hal_fdcan.c ****   @endverbatim
 164:Drivers/STM32G4xx_HAL_Driver/Src/stm32g4xx_hal_fdcan.c ****   ******************************************************************************
 165:Drivers/STM32G4xx_HAL_Driver/Src/stm32g4xx_hal_fdcan.c ****   */
 166:Drivers/STM32G4xx_HAL_Driver/Src/stm32g4xx_hal_fdcan.c **** 
 167:Drivers/STM32G4xx_HAL_Driver/Src/stm32g4xx_hal_fdcan.c **** /* Includes ------------------------------------------------------------------*/
 168:Drivers/STM32G4xx_HAL_Driver/Src/stm32g4xx_hal_fdcan.c **** #include "stm32g4xx_hal.h"
 169:Drivers/STM32G4xx_HAL_Driver/Src/stm32g4xx_hal_fdcan.c **** 
 170:Drivers/STM32G4xx_HAL_Driver/Src/stm32g4xx_hal_fdcan.c **** #if defined(FDCAN1)
 171:Drivers/STM32G4xx_HAL_Driver/Src/stm32g4xx_hal_fdcan.c **** 
 172:Drivers/STM32G4xx_HAL_Driver/Src/stm32g4xx_hal_fdcan.c **** /** @addtogroup STM32G4xx_HAL_Driver
 173:Drivers/STM32G4xx_HAL_Driver/Src/stm32g4xx_hal_fdcan.c ****   * @{
 174:Drivers/STM32G4xx_HAL_Driver/Src/stm32g4xx_hal_fdcan.c ****   */
 175:Drivers/STM32G4xx_HAL_Driver/Src/stm32g4xx_hal_fdcan.c **** 
 176:Drivers/STM32G4xx_HAL_Driver/Src/stm32g4xx_hal_fdcan.c **** /** @defgroup FDCAN FDCAN
 177:Drivers/STM32G4xx_HAL_Driver/Src/stm32g4xx_hal_fdcan.c ****   * @brief FDCAN HAL module driver
 178:Drivers/STM32G4xx_HAL_Driver/Src/stm32g4xx_hal_fdcan.c ****   * @{
 179:Drivers/STM32G4xx_HAL_Driver/Src/stm32g4xx_hal_fdcan.c ****   */
 180:Drivers/STM32G4xx_HAL_Driver/Src/stm32g4xx_hal_fdcan.c **** 
 181:Drivers/STM32G4xx_HAL_Driver/Src/stm32g4xx_hal_fdcan.c **** #ifdef HAL_FDCAN_MODULE_ENABLED
 182:Drivers/STM32G4xx_HAL_Driver/Src/stm32g4xx_hal_fdcan.c **** 
 183:Drivers/STM32G4xx_HAL_Driver/Src/stm32g4xx_hal_fdcan.c **** /* Private typedef -----------------------------------------------------------*/
 184:Drivers/STM32G4xx_HAL_Driver/Src/stm32g4xx_hal_fdcan.c **** /* Private define ------------------------------------------------------------*/
 185:Drivers/STM32G4xx_HAL_Driver/Src/stm32g4xx_hal_fdcan.c **** /** @addtogroup FDCAN_Private_Constants
 186:Drivers/STM32G4xx_HAL_Driver/Src/stm32g4xx_hal_fdcan.c ****   * @{
 187:Drivers/STM32G4xx_HAL_Driver/Src/stm32g4xx_hal_fdcan.c ****   */
 188:Drivers/STM32G4xx_HAL_Driver/Src/stm32g4xx_hal_fdcan.c **** #define FDCAN_TIMEOUT_VALUE 10U
 189:Drivers/STM32G4xx_HAL_Driver/Src/stm32g4xx_hal_fdcan.c **** 
 190:Drivers/STM32G4xx_HAL_Driver/Src/stm32g4xx_hal_fdcan.c **** #define FDCAN_TX_EVENT_FIFO_MASK (FDCAN_IR_TEFL | FDCAN_IR_TEFF | FDCAN_IR_TEFN)
 191:Drivers/STM32G4xx_HAL_Driver/Src/stm32g4xx_hal_fdcan.c **** #define FDCAN_RX_FIFO0_MASK (FDCAN_IR_RF0L | FDCAN_IR_RF0F | FDCAN_IR_RF0N)
 192:Drivers/STM32G4xx_HAL_Driver/Src/stm32g4xx_hal_fdcan.c **** #define FDCAN_RX_FIFO1_MASK (FDCAN_IR_RF1L | FDCAN_IR_RF1F | FDCAN_IR_RF1N)
 193:Drivers/STM32G4xx_HAL_Driver/Src/stm32g4xx_hal_fdcan.c **** #define FDCAN_ERROR_MASK (FDCAN_IR_ELO | FDCAN_IR_WDI | FDCAN_IR_PEA | FDCAN_IR_PED | FDCAN_IR_ARA)
ARM GAS  C:\Users\AURORA~1\AppData\Local\Temp\ccEbooPs.s 			page 5


 194:Drivers/STM32G4xx_HAL_Driver/Src/stm32g4xx_hal_fdcan.c **** #define FDCAN_ERROR_STATUS_MASK (FDCAN_IR_EP | FDCAN_IR_EW | FDCAN_IR_BO)
 195:Drivers/STM32G4xx_HAL_Driver/Src/stm32g4xx_hal_fdcan.c **** 
 196:Drivers/STM32G4xx_HAL_Driver/Src/stm32g4xx_hal_fdcan.c **** #define FDCAN_ELEMENT_MASK_STDID ((uint32_t)0x1FFC0000U) /* Standard Identifier         */
 197:Drivers/STM32G4xx_HAL_Driver/Src/stm32g4xx_hal_fdcan.c **** #define FDCAN_ELEMENT_MASK_EXTID ((uint32_t)0x1FFFFFFFU) /* Extended Identifier         */
 198:Drivers/STM32G4xx_HAL_Driver/Src/stm32g4xx_hal_fdcan.c **** #define FDCAN_ELEMENT_MASK_RTR   ((uint32_t)0x20000000U) /* Remote Transmission Request */
 199:Drivers/STM32G4xx_HAL_Driver/Src/stm32g4xx_hal_fdcan.c **** #define FDCAN_ELEMENT_MASK_XTD   ((uint32_t)0x40000000U) /* Extended Identifier         */
 200:Drivers/STM32G4xx_HAL_Driver/Src/stm32g4xx_hal_fdcan.c **** #define FDCAN_ELEMENT_MASK_ESI   ((uint32_t)0x80000000U) /* Error State Indicator       */
 201:Drivers/STM32G4xx_HAL_Driver/Src/stm32g4xx_hal_fdcan.c **** #define FDCAN_ELEMENT_MASK_TS    ((uint32_t)0x0000FFFFU) /* Timestamp                   */
 202:Drivers/STM32G4xx_HAL_Driver/Src/stm32g4xx_hal_fdcan.c **** #define FDCAN_ELEMENT_MASK_DLC   ((uint32_t)0x000F0000U) /* Data Length Code            */
 203:Drivers/STM32G4xx_HAL_Driver/Src/stm32g4xx_hal_fdcan.c **** #define FDCAN_ELEMENT_MASK_BRS   ((uint32_t)0x00100000U) /* Bit Rate Switch             */
 204:Drivers/STM32G4xx_HAL_Driver/Src/stm32g4xx_hal_fdcan.c **** #define FDCAN_ELEMENT_MASK_FDF   ((uint32_t)0x00200000U) /* FD Format                   */
 205:Drivers/STM32G4xx_HAL_Driver/Src/stm32g4xx_hal_fdcan.c **** #define FDCAN_ELEMENT_MASK_EFC   ((uint32_t)0x00800000U) /* Event FIFO Control          */
 206:Drivers/STM32G4xx_HAL_Driver/Src/stm32g4xx_hal_fdcan.c **** #define FDCAN_ELEMENT_MASK_MM    ((uint32_t)0xFF000000U) /* Message Marker              */
 207:Drivers/STM32G4xx_HAL_Driver/Src/stm32g4xx_hal_fdcan.c **** #define FDCAN_ELEMENT_MASK_FIDX  ((uint32_t)0x7F000000U) /* Filter Index                */
 208:Drivers/STM32G4xx_HAL_Driver/Src/stm32g4xx_hal_fdcan.c **** #define FDCAN_ELEMENT_MASK_ANMF  ((uint32_t)0x80000000U) /* Accepted Non-matching Frame */
 209:Drivers/STM32G4xx_HAL_Driver/Src/stm32g4xx_hal_fdcan.c **** #define FDCAN_ELEMENT_MASK_ET    ((uint32_t)0x00C00000U) /* Event type                  */
 210:Drivers/STM32G4xx_HAL_Driver/Src/stm32g4xx_hal_fdcan.c **** 
 211:Drivers/STM32G4xx_HAL_Driver/Src/stm32g4xx_hal_fdcan.c **** #define SRAMCAN_FLS_NBR                  (28U)         /* Max. Filter List Standard Number      */
 212:Drivers/STM32G4xx_HAL_Driver/Src/stm32g4xx_hal_fdcan.c **** #define SRAMCAN_FLE_NBR                  ( 8U)         /* Max. Filter List Extended Number      */
 213:Drivers/STM32G4xx_HAL_Driver/Src/stm32g4xx_hal_fdcan.c **** #define SRAMCAN_RF0_NBR                  ( 3U)         /* RX FIFO 0 Elements Number             */
 214:Drivers/STM32G4xx_HAL_Driver/Src/stm32g4xx_hal_fdcan.c **** #define SRAMCAN_RF1_NBR                  ( 3U)         /* RX FIFO 1 Elements Number             */
 215:Drivers/STM32G4xx_HAL_Driver/Src/stm32g4xx_hal_fdcan.c **** #define SRAMCAN_TEF_NBR                  ( 3U)         /* TX Event FIFO Elements Number         */
 216:Drivers/STM32G4xx_HAL_Driver/Src/stm32g4xx_hal_fdcan.c **** #define SRAMCAN_TFQ_NBR                  ( 3U)         /* TX FIFO/Queue Elements Number         */
 217:Drivers/STM32G4xx_HAL_Driver/Src/stm32g4xx_hal_fdcan.c **** 
 218:Drivers/STM32G4xx_HAL_Driver/Src/stm32g4xx_hal_fdcan.c **** #define SRAMCAN_FLS_SIZE            ( 1U * 4U)         /* Filter Standard Element Size in bytes */
 219:Drivers/STM32G4xx_HAL_Driver/Src/stm32g4xx_hal_fdcan.c **** #define SRAMCAN_FLE_SIZE            ( 2U * 4U)         /* Filter Extended Element Size in bytes */
 220:Drivers/STM32G4xx_HAL_Driver/Src/stm32g4xx_hal_fdcan.c **** #define SRAMCAN_RF0_SIZE            (18U * 4U)         /* RX FIFO 0 Elements Size in bytes      */
 221:Drivers/STM32G4xx_HAL_Driver/Src/stm32g4xx_hal_fdcan.c **** #define SRAMCAN_RF1_SIZE            (18U * 4U)         /* RX FIFO 1 Elements Size in bytes      */
 222:Drivers/STM32G4xx_HAL_Driver/Src/stm32g4xx_hal_fdcan.c **** #define SRAMCAN_TEF_SIZE            ( 2U * 4U)         /* TX Event FIFO Elements Size in bytes  */
 223:Drivers/STM32G4xx_HAL_Driver/Src/stm32g4xx_hal_fdcan.c **** #define SRAMCAN_TFQ_SIZE            (18U * 4U)         /* TX FIFO/Queue Elements Size in bytes  */
 224:Drivers/STM32G4xx_HAL_Driver/Src/stm32g4xx_hal_fdcan.c **** 
 225:Drivers/STM32G4xx_HAL_Driver/Src/stm32g4xx_hal_fdcan.c **** #define SRAMCAN_FLSSA ((uint32_t)0)                                                      /* Filter 
 226:Drivers/STM32G4xx_HAL_Driver/Src/stm32g4xx_hal_fdcan.c ****                                                                                             Address
 227:Drivers/STM32G4xx_HAL_Driver/Src/stm32g4xx_hal_fdcan.c **** #define SRAMCAN_FLESA ((uint32_t)(SRAMCAN_FLSSA + (SRAMCAN_FLS_NBR * SRAMCAN_FLS_SIZE))) /* Filter 
 228:Drivers/STM32G4xx_HAL_Driver/Src/stm32g4xx_hal_fdcan.c ****                                                                                             Address
 229:Drivers/STM32G4xx_HAL_Driver/Src/stm32g4xx_hal_fdcan.c **** #define SRAMCAN_RF0SA ((uint32_t)(SRAMCAN_FLESA + (SRAMCAN_FLE_NBR * SRAMCAN_FLE_SIZE))) /* Rx FIFO
 230:Drivers/STM32G4xx_HAL_Driver/Src/stm32g4xx_hal_fdcan.c **** #define SRAMCAN_RF1SA ((uint32_t)(SRAMCAN_RF0SA + (SRAMCAN_RF0_NBR * SRAMCAN_RF0_SIZE))) /* Rx FIFO
 231:Drivers/STM32G4xx_HAL_Driver/Src/stm32g4xx_hal_fdcan.c **** #define SRAMCAN_TEFSA ((uint32_t)(SRAMCAN_RF1SA + (SRAMCAN_RF1_NBR * SRAMCAN_RF1_SIZE))) /* Tx Even
 232:Drivers/STM32G4xx_HAL_Driver/Src/stm32g4xx_hal_fdcan.c ****                                                                                             Address
 233:Drivers/STM32G4xx_HAL_Driver/Src/stm32g4xx_hal_fdcan.c **** #define SRAMCAN_TFQSA ((uint32_t)(SRAMCAN_TEFSA + (SRAMCAN_TEF_NBR * SRAMCAN_TEF_SIZE))) /* Tx FIFO
 234:Drivers/STM32G4xx_HAL_Driver/Src/stm32g4xx_hal_fdcan.c ****                                                                                             Address
 235:Drivers/STM32G4xx_HAL_Driver/Src/stm32g4xx_hal_fdcan.c **** #define SRAMCAN_SIZE  ((uint32_t)(SRAMCAN_TFQSA + (SRAMCAN_TFQ_NBR * SRAMCAN_TFQ_SIZE))) /* Message
 236:Drivers/STM32G4xx_HAL_Driver/Src/stm32g4xx_hal_fdcan.c **** 
 237:Drivers/STM32G4xx_HAL_Driver/Src/stm32g4xx_hal_fdcan.c **** /**
 238:Drivers/STM32G4xx_HAL_Driver/Src/stm32g4xx_hal_fdcan.c ****   * @}
 239:Drivers/STM32G4xx_HAL_Driver/Src/stm32g4xx_hal_fdcan.c ****   */
 240:Drivers/STM32G4xx_HAL_Driver/Src/stm32g4xx_hal_fdcan.c **** 
 241:Drivers/STM32G4xx_HAL_Driver/Src/stm32g4xx_hal_fdcan.c **** /* Private macro -------------------------------------------------------------*/
 242:Drivers/STM32G4xx_HAL_Driver/Src/stm32g4xx_hal_fdcan.c **** /* Private variables ---------------------------------------------------------*/
 243:Drivers/STM32G4xx_HAL_Driver/Src/stm32g4xx_hal_fdcan.c **** /** @addtogroup FDCAN_Private_Variables
 244:Drivers/STM32G4xx_HAL_Driver/Src/stm32g4xx_hal_fdcan.c ****   * @{
 245:Drivers/STM32G4xx_HAL_Driver/Src/stm32g4xx_hal_fdcan.c ****   */
 246:Drivers/STM32G4xx_HAL_Driver/Src/stm32g4xx_hal_fdcan.c **** static const uint8_t DLCtoBytes[] = {0, 1, 2, 3, 4, 5, 6, 7, 8, 12, 16, 20, 24, 32, 48, 64};
 247:Drivers/STM32G4xx_HAL_Driver/Src/stm32g4xx_hal_fdcan.c **** /**
 248:Drivers/STM32G4xx_HAL_Driver/Src/stm32g4xx_hal_fdcan.c ****   * @}
 249:Drivers/STM32G4xx_HAL_Driver/Src/stm32g4xx_hal_fdcan.c ****   */
 250:Drivers/STM32G4xx_HAL_Driver/Src/stm32g4xx_hal_fdcan.c **** 
ARM GAS  C:\Users\AURORA~1\AppData\Local\Temp\ccEbooPs.s 			page 6


 251:Drivers/STM32G4xx_HAL_Driver/Src/stm32g4xx_hal_fdcan.c **** /* Private function prototypes -----------------------------------------------*/
 252:Drivers/STM32G4xx_HAL_Driver/Src/stm32g4xx_hal_fdcan.c **** /** @addtogroup FDCAN_Private_Functions_Prototypes
 253:Drivers/STM32G4xx_HAL_Driver/Src/stm32g4xx_hal_fdcan.c ****   * @{
 254:Drivers/STM32G4xx_HAL_Driver/Src/stm32g4xx_hal_fdcan.c ****   */
 255:Drivers/STM32G4xx_HAL_Driver/Src/stm32g4xx_hal_fdcan.c **** static void FDCAN_CalcultateRamBlockAddresses(FDCAN_HandleTypeDef *hfdcan);
 256:Drivers/STM32G4xx_HAL_Driver/Src/stm32g4xx_hal_fdcan.c **** static void FDCAN_CopyMessageToRAM(const FDCAN_HandleTypeDef *hfdcan, const FDCAN_TxHeaderTypeDef *
 257:Drivers/STM32G4xx_HAL_Driver/Src/stm32g4xx_hal_fdcan.c ****                                    const uint8_t *pTxData, uint32_t BufferIndex);
 258:Drivers/STM32G4xx_HAL_Driver/Src/stm32g4xx_hal_fdcan.c **** /**
 259:Drivers/STM32G4xx_HAL_Driver/Src/stm32g4xx_hal_fdcan.c ****   * @}
 260:Drivers/STM32G4xx_HAL_Driver/Src/stm32g4xx_hal_fdcan.c ****   */
 261:Drivers/STM32G4xx_HAL_Driver/Src/stm32g4xx_hal_fdcan.c **** 
 262:Drivers/STM32G4xx_HAL_Driver/Src/stm32g4xx_hal_fdcan.c **** /* Exported functions --------------------------------------------------------*/
 263:Drivers/STM32G4xx_HAL_Driver/Src/stm32g4xx_hal_fdcan.c **** /** @defgroup FDCAN_Exported_Functions FDCAN Exported Functions
 264:Drivers/STM32G4xx_HAL_Driver/Src/stm32g4xx_hal_fdcan.c ****   * @{
 265:Drivers/STM32G4xx_HAL_Driver/Src/stm32g4xx_hal_fdcan.c ****   */
 266:Drivers/STM32G4xx_HAL_Driver/Src/stm32g4xx_hal_fdcan.c **** 
 267:Drivers/STM32G4xx_HAL_Driver/Src/stm32g4xx_hal_fdcan.c **** /** @defgroup FDCAN_Exported_Functions_Group1 Initialization and de-initialization functions
 268:Drivers/STM32G4xx_HAL_Driver/Src/stm32g4xx_hal_fdcan.c ****   *  @brief    Initialization and Configuration functions
 269:Drivers/STM32G4xx_HAL_Driver/Src/stm32g4xx_hal_fdcan.c ****   *
 270:Drivers/STM32G4xx_HAL_Driver/Src/stm32g4xx_hal_fdcan.c **** @verbatim
 271:Drivers/STM32G4xx_HAL_Driver/Src/stm32g4xx_hal_fdcan.c ****   ==============================================================================
 272:Drivers/STM32G4xx_HAL_Driver/Src/stm32g4xx_hal_fdcan.c ****               ##### Initialization and de-initialization functions #####
 273:Drivers/STM32G4xx_HAL_Driver/Src/stm32g4xx_hal_fdcan.c ****   ==============================================================================
 274:Drivers/STM32G4xx_HAL_Driver/Src/stm32g4xx_hal_fdcan.c ****     [..]  This section provides functions allowing to:
 275:Drivers/STM32G4xx_HAL_Driver/Src/stm32g4xx_hal_fdcan.c ****       (+) Initialize and configure the FDCAN.
 276:Drivers/STM32G4xx_HAL_Driver/Src/stm32g4xx_hal_fdcan.c ****       (+) De-initialize the FDCAN.
 277:Drivers/STM32G4xx_HAL_Driver/Src/stm32g4xx_hal_fdcan.c ****       (+) Enter FDCAN peripheral in power down mode.
 278:Drivers/STM32G4xx_HAL_Driver/Src/stm32g4xx_hal_fdcan.c ****       (+) Exit power down mode.
 279:Drivers/STM32G4xx_HAL_Driver/Src/stm32g4xx_hal_fdcan.c ****       (+) Register callbacks.
 280:Drivers/STM32G4xx_HAL_Driver/Src/stm32g4xx_hal_fdcan.c ****       (+) Unregister callbacks.
 281:Drivers/STM32G4xx_HAL_Driver/Src/stm32g4xx_hal_fdcan.c **** 
 282:Drivers/STM32G4xx_HAL_Driver/Src/stm32g4xx_hal_fdcan.c **** @endverbatim
 283:Drivers/STM32G4xx_HAL_Driver/Src/stm32g4xx_hal_fdcan.c ****   * @{
 284:Drivers/STM32G4xx_HAL_Driver/Src/stm32g4xx_hal_fdcan.c ****   */
 285:Drivers/STM32G4xx_HAL_Driver/Src/stm32g4xx_hal_fdcan.c **** 
 286:Drivers/STM32G4xx_HAL_Driver/Src/stm32g4xx_hal_fdcan.c **** /**
 287:Drivers/STM32G4xx_HAL_Driver/Src/stm32g4xx_hal_fdcan.c ****   * @brief  Initializes the FDCAN peripheral according to the specified
 288:Drivers/STM32G4xx_HAL_Driver/Src/stm32g4xx_hal_fdcan.c ****   *         parameters in the FDCAN_InitTypeDef structure.
 289:Drivers/STM32G4xx_HAL_Driver/Src/stm32g4xx_hal_fdcan.c ****   * @param  hfdcan pointer to an FDCAN_HandleTypeDef structure that contains
 290:Drivers/STM32G4xx_HAL_Driver/Src/stm32g4xx_hal_fdcan.c ****   *         the configuration information for the specified FDCAN.
 291:Drivers/STM32G4xx_HAL_Driver/Src/stm32g4xx_hal_fdcan.c ****   * @retval HAL status
 292:Drivers/STM32G4xx_HAL_Driver/Src/stm32g4xx_hal_fdcan.c ****   */
 293:Drivers/STM32G4xx_HAL_Driver/Src/stm32g4xx_hal_fdcan.c **** HAL_StatusTypeDef HAL_FDCAN_Init(FDCAN_HandleTypeDef *hfdcan)
 294:Drivers/STM32G4xx_HAL_Driver/Src/stm32g4xx_hal_fdcan.c **** {
  36              		.loc 1 294 1
  37              		.cfi_startproc
  38              		@ args = 0, pretend = 0, frame = 16
  39              		@ frame_needed = 1, uses_anonymous_args = 0
  40 0000 80B5     		push	{r7, lr}
  41              	.LCFI0:
  42              		.cfi_def_cfa_offset 8
  43              		.cfi_offset 7, -8
  44              		.cfi_offset 14, -4
  45 0002 84B0     		sub	sp, sp, #16
  46              	.LCFI1:
  47              		.cfi_def_cfa_offset 24
  48 0004 00AF     		add	r7, sp, #0
ARM GAS  C:\Users\AURORA~1\AppData\Local\Temp\ccEbooPs.s 			page 7


  49              	.LCFI2:
  50              		.cfi_def_cfa_register 7
  51 0006 7860     		str	r0, [r7, #4]
 295:Drivers/STM32G4xx_HAL_Driver/Src/stm32g4xx_hal_fdcan.c ****   uint32_t tickstart;
 296:Drivers/STM32G4xx_HAL_Driver/Src/stm32g4xx_hal_fdcan.c **** 
 297:Drivers/STM32G4xx_HAL_Driver/Src/stm32g4xx_hal_fdcan.c ****   /* Check FDCAN handle */
 298:Drivers/STM32G4xx_HAL_Driver/Src/stm32g4xx_hal_fdcan.c ****   if (hfdcan == NULL)
  52              		.loc 1 298 6
  53 0008 7B68     		ldr	r3, [r7, #4]
  54 000a 002B     		cmp	r3, #0
  55 000c 01D1     		bne	.L2
 299:Drivers/STM32G4xx_HAL_Driver/Src/stm32g4xx_hal_fdcan.c ****   {
 300:Drivers/STM32G4xx_HAL_Driver/Src/stm32g4xx_hal_fdcan.c ****     return HAL_ERROR;
  56              		.loc 1 300 12
  57 000e 0123     		movs	r3, #1
  58 0010 47E1     		b	.L3
  59              	.L2:
 301:Drivers/STM32G4xx_HAL_Driver/Src/stm32g4xx_hal_fdcan.c ****   }
 302:Drivers/STM32G4xx_HAL_Driver/Src/stm32g4xx_hal_fdcan.c **** 
 303:Drivers/STM32G4xx_HAL_Driver/Src/stm32g4xx_hal_fdcan.c ****   /* Check function parameters */
 304:Drivers/STM32G4xx_HAL_Driver/Src/stm32g4xx_hal_fdcan.c ****   assert_param(IS_FDCAN_ALL_INSTANCE(hfdcan->Instance));
 305:Drivers/STM32G4xx_HAL_Driver/Src/stm32g4xx_hal_fdcan.c ****   if (hfdcan->Instance == FDCAN1)
 306:Drivers/STM32G4xx_HAL_Driver/Src/stm32g4xx_hal_fdcan.c ****   {
 307:Drivers/STM32G4xx_HAL_Driver/Src/stm32g4xx_hal_fdcan.c ****     assert_param(IS_FDCAN_CKDIV(hfdcan->Init.ClockDivider));
 308:Drivers/STM32G4xx_HAL_Driver/Src/stm32g4xx_hal_fdcan.c ****   }
 309:Drivers/STM32G4xx_HAL_Driver/Src/stm32g4xx_hal_fdcan.c ****   assert_param(IS_FDCAN_FRAME_FORMAT(hfdcan->Init.FrameFormat));
 310:Drivers/STM32G4xx_HAL_Driver/Src/stm32g4xx_hal_fdcan.c ****   assert_param(IS_FDCAN_MODE(hfdcan->Init.Mode));
 311:Drivers/STM32G4xx_HAL_Driver/Src/stm32g4xx_hal_fdcan.c ****   assert_param(IS_FUNCTIONAL_STATE(hfdcan->Init.AutoRetransmission));
 312:Drivers/STM32G4xx_HAL_Driver/Src/stm32g4xx_hal_fdcan.c ****   assert_param(IS_FUNCTIONAL_STATE(hfdcan->Init.TransmitPause));
 313:Drivers/STM32G4xx_HAL_Driver/Src/stm32g4xx_hal_fdcan.c ****   assert_param(IS_FUNCTIONAL_STATE(hfdcan->Init.ProtocolException));
 314:Drivers/STM32G4xx_HAL_Driver/Src/stm32g4xx_hal_fdcan.c ****   assert_param(IS_FDCAN_NOMINAL_PRESCALER(hfdcan->Init.NominalPrescaler));
 315:Drivers/STM32G4xx_HAL_Driver/Src/stm32g4xx_hal_fdcan.c ****   assert_param(IS_FDCAN_NOMINAL_SJW(hfdcan->Init.NominalSyncJumpWidth));
 316:Drivers/STM32G4xx_HAL_Driver/Src/stm32g4xx_hal_fdcan.c ****   assert_param(IS_FDCAN_NOMINAL_TSEG1(hfdcan->Init.NominalTimeSeg1));
 317:Drivers/STM32G4xx_HAL_Driver/Src/stm32g4xx_hal_fdcan.c ****   assert_param(IS_FDCAN_NOMINAL_TSEG2(hfdcan->Init.NominalTimeSeg2));
 318:Drivers/STM32G4xx_HAL_Driver/Src/stm32g4xx_hal_fdcan.c ****   if (hfdcan->Init.FrameFormat == FDCAN_FRAME_FD_BRS)
 319:Drivers/STM32G4xx_HAL_Driver/Src/stm32g4xx_hal_fdcan.c ****   {
 320:Drivers/STM32G4xx_HAL_Driver/Src/stm32g4xx_hal_fdcan.c ****     assert_param(IS_FDCAN_DATA_PRESCALER(hfdcan->Init.DataPrescaler));
 321:Drivers/STM32G4xx_HAL_Driver/Src/stm32g4xx_hal_fdcan.c ****     assert_param(IS_FDCAN_DATA_SJW(hfdcan->Init.DataSyncJumpWidth));
 322:Drivers/STM32G4xx_HAL_Driver/Src/stm32g4xx_hal_fdcan.c ****     assert_param(IS_FDCAN_DATA_TSEG1(hfdcan->Init.DataTimeSeg1));
 323:Drivers/STM32G4xx_HAL_Driver/Src/stm32g4xx_hal_fdcan.c ****     assert_param(IS_FDCAN_DATA_TSEG2(hfdcan->Init.DataTimeSeg2));
 324:Drivers/STM32G4xx_HAL_Driver/Src/stm32g4xx_hal_fdcan.c ****   }
 325:Drivers/STM32G4xx_HAL_Driver/Src/stm32g4xx_hal_fdcan.c ****   assert_param(IS_FDCAN_MAX_VALUE(hfdcan->Init.StdFiltersNbr, SRAMCAN_FLS_NBR));
 326:Drivers/STM32G4xx_HAL_Driver/Src/stm32g4xx_hal_fdcan.c ****   assert_param(IS_FDCAN_MAX_VALUE(hfdcan->Init.ExtFiltersNbr, SRAMCAN_FLE_NBR));
 327:Drivers/STM32G4xx_HAL_Driver/Src/stm32g4xx_hal_fdcan.c ****   assert_param(IS_FDCAN_TX_FIFO_QUEUE_MODE(hfdcan->Init.TxFifoQueueMode));
 328:Drivers/STM32G4xx_HAL_Driver/Src/stm32g4xx_hal_fdcan.c **** 
 329:Drivers/STM32G4xx_HAL_Driver/Src/stm32g4xx_hal_fdcan.c **** #if USE_HAL_FDCAN_REGISTER_CALLBACKS == 1
 330:Drivers/STM32G4xx_HAL_Driver/Src/stm32g4xx_hal_fdcan.c ****   if (hfdcan->State == HAL_FDCAN_STATE_RESET)
 331:Drivers/STM32G4xx_HAL_Driver/Src/stm32g4xx_hal_fdcan.c ****   {
 332:Drivers/STM32G4xx_HAL_Driver/Src/stm32g4xx_hal_fdcan.c ****     /* Allocate lock resource and initialize it */
 333:Drivers/STM32G4xx_HAL_Driver/Src/stm32g4xx_hal_fdcan.c ****     hfdcan->Lock = HAL_UNLOCKED;
 334:Drivers/STM32G4xx_HAL_Driver/Src/stm32g4xx_hal_fdcan.c **** 
 335:Drivers/STM32G4xx_HAL_Driver/Src/stm32g4xx_hal_fdcan.c ****     /* Reset callbacks to legacy functions */
 336:Drivers/STM32G4xx_HAL_Driver/Src/stm32g4xx_hal_fdcan.c ****     hfdcan->TxEventFifoCallback         = HAL_FDCAN_TxEventFifoCallback;         /* TxEventFifoCall
 337:Drivers/STM32G4xx_HAL_Driver/Src/stm32g4xx_hal_fdcan.c ****     hfdcan->RxFifo0Callback             = HAL_FDCAN_RxFifo0Callback;             /* RxFifo0Callback
 338:Drivers/STM32G4xx_HAL_Driver/Src/stm32g4xx_hal_fdcan.c ****     hfdcan->RxFifo1Callback             = HAL_FDCAN_RxFifo1Callback;             /* RxFifo1Callback
 339:Drivers/STM32G4xx_HAL_Driver/Src/stm32g4xx_hal_fdcan.c ****     hfdcan->TxFifoEmptyCallback         = HAL_FDCAN_TxFifoEmptyCallback;         /* TxFifoEmptyCall
 340:Drivers/STM32G4xx_HAL_Driver/Src/stm32g4xx_hal_fdcan.c ****     hfdcan->TxBufferCompleteCallback    = HAL_FDCAN_TxBufferCompleteCallback;    /* TxBufferComplet
ARM GAS  C:\Users\AURORA~1\AppData\Local\Temp\ccEbooPs.s 			page 8


 341:Drivers/STM32G4xx_HAL_Driver/Src/stm32g4xx_hal_fdcan.c ****     hfdcan->TxBufferAbortCallback       = HAL_FDCAN_TxBufferAbortCallback;       /* TxBufferAbortCa
 342:Drivers/STM32G4xx_HAL_Driver/Src/stm32g4xx_hal_fdcan.c ****     hfdcan->HighPriorityMessageCallback = HAL_FDCAN_HighPriorityMessageCallback; /* HighPriorityMes
 343:Drivers/STM32G4xx_HAL_Driver/Src/stm32g4xx_hal_fdcan.c ****     hfdcan->TimestampWraparoundCallback = HAL_FDCAN_TimestampWraparoundCallback; /* TimestampWrapar
 344:Drivers/STM32G4xx_HAL_Driver/Src/stm32g4xx_hal_fdcan.c ****     hfdcan->TimeoutOccurredCallback     = HAL_FDCAN_TimeoutOccurredCallback;     /* TimeoutOccurred
 345:Drivers/STM32G4xx_HAL_Driver/Src/stm32g4xx_hal_fdcan.c ****     hfdcan->ErrorCallback               = HAL_FDCAN_ErrorCallback;               /* ErrorCallback  
 346:Drivers/STM32G4xx_HAL_Driver/Src/stm32g4xx_hal_fdcan.c ****     hfdcan->ErrorStatusCallback         = HAL_FDCAN_ErrorStatusCallback;         /* ErrorStatusCall
 347:Drivers/STM32G4xx_HAL_Driver/Src/stm32g4xx_hal_fdcan.c **** 
 348:Drivers/STM32G4xx_HAL_Driver/Src/stm32g4xx_hal_fdcan.c ****     if (hfdcan->MspInitCallback == NULL)
 349:Drivers/STM32G4xx_HAL_Driver/Src/stm32g4xx_hal_fdcan.c ****     {
 350:Drivers/STM32G4xx_HAL_Driver/Src/stm32g4xx_hal_fdcan.c ****       hfdcan->MspInitCallback = HAL_FDCAN_MspInit;  /* Legacy weak MspInit */
 351:Drivers/STM32G4xx_HAL_Driver/Src/stm32g4xx_hal_fdcan.c ****     }
 352:Drivers/STM32G4xx_HAL_Driver/Src/stm32g4xx_hal_fdcan.c **** 
 353:Drivers/STM32G4xx_HAL_Driver/Src/stm32g4xx_hal_fdcan.c ****     /* Init the low level hardware: CLOCK, NVIC */
 354:Drivers/STM32G4xx_HAL_Driver/Src/stm32g4xx_hal_fdcan.c ****     hfdcan->MspInitCallback(hfdcan);
 355:Drivers/STM32G4xx_HAL_Driver/Src/stm32g4xx_hal_fdcan.c ****   }
 356:Drivers/STM32G4xx_HAL_Driver/Src/stm32g4xx_hal_fdcan.c **** #else
 357:Drivers/STM32G4xx_HAL_Driver/Src/stm32g4xx_hal_fdcan.c ****   if (hfdcan->State == HAL_FDCAN_STATE_RESET)
  60              		.loc 1 357 13
  61 0012 7B68     		ldr	r3, [r7, #4]
  62 0014 93F85C30 		ldrb	r3, [r3, #92]
  63 0018 DBB2     		uxtb	r3, r3
  64              		.loc 1 357 6
  65 001a 002B     		cmp	r3, #0
  66 001c 06D1     		bne	.L4
 358:Drivers/STM32G4xx_HAL_Driver/Src/stm32g4xx_hal_fdcan.c ****   {
 359:Drivers/STM32G4xx_HAL_Driver/Src/stm32g4xx_hal_fdcan.c ****     /* Allocate lock resource and initialize it */
 360:Drivers/STM32G4xx_HAL_Driver/Src/stm32g4xx_hal_fdcan.c ****     hfdcan->Lock = HAL_UNLOCKED;
  67              		.loc 1 360 18
  68 001e 7B68     		ldr	r3, [r7, #4]
  69 0020 0022     		movs	r2, #0
  70 0022 83F85D20 		strb	r2, [r3, #93]
 361:Drivers/STM32G4xx_HAL_Driver/Src/stm32g4xx_hal_fdcan.c **** 
 362:Drivers/STM32G4xx_HAL_Driver/Src/stm32g4xx_hal_fdcan.c ****     /* Init the low level hardware: CLOCK, NVIC */
 363:Drivers/STM32G4xx_HAL_Driver/Src/stm32g4xx_hal_fdcan.c ****     HAL_FDCAN_MspInit(hfdcan);
  71              		.loc 1 363 5
  72 0026 7868     		ldr	r0, [r7, #4]
  73 0028 FFF7FEFF 		bl	HAL_FDCAN_MspInit
  74              	.L4:
 364:Drivers/STM32G4xx_HAL_Driver/Src/stm32g4xx_hal_fdcan.c ****   }
 365:Drivers/STM32G4xx_HAL_Driver/Src/stm32g4xx_hal_fdcan.c **** #endif /* USE_HAL_FDCAN_REGISTER_CALLBACKS */
 366:Drivers/STM32G4xx_HAL_Driver/Src/stm32g4xx_hal_fdcan.c **** 
 367:Drivers/STM32G4xx_HAL_Driver/Src/stm32g4xx_hal_fdcan.c ****   /* Exit from Sleep mode */
 368:Drivers/STM32G4xx_HAL_Driver/Src/stm32g4xx_hal_fdcan.c ****   CLEAR_BIT(hfdcan->Instance->CCCR, FDCAN_CCCR_CSR);
  75              		.loc 1 368 3
  76 002c 7B68     		ldr	r3, [r7, #4]
  77 002e 1B68     		ldr	r3, [r3]
  78 0030 9A69     		ldr	r2, [r3, #24]
  79 0032 7B68     		ldr	r3, [r7, #4]
  80 0034 1B68     		ldr	r3, [r3]
  81 0036 22F01002 		bic	r2, r2, #16
  82 003a 9A61     		str	r2, [r3, #24]
 369:Drivers/STM32G4xx_HAL_Driver/Src/stm32g4xx_hal_fdcan.c **** 
 370:Drivers/STM32G4xx_HAL_Driver/Src/stm32g4xx_hal_fdcan.c ****   /* Get tick */
 371:Drivers/STM32G4xx_HAL_Driver/Src/stm32g4xx_hal_fdcan.c ****   tickstart = HAL_GetTick();
  83              		.loc 1 371 15
  84 003c FFF7FEFF 		bl	HAL_GetTick
  85 0040 F860     		str	r0, [r7, #12]
ARM GAS  C:\Users\AURORA~1\AppData\Local\Temp\ccEbooPs.s 			page 9


 372:Drivers/STM32G4xx_HAL_Driver/Src/stm32g4xx_hal_fdcan.c **** 
 373:Drivers/STM32G4xx_HAL_Driver/Src/stm32g4xx_hal_fdcan.c ****   /* Check Sleep mode acknowledge */
 374:Drivers/STM32G4xx_HAL_Driver/Src/stm32g4xx_hal_fdcan.c ****   while ((hfdcan->Instance->CCCR & FDCAN_CCCR_CSA) == FDCAN_CCCR_CSA)
  86              		.loc 1 374 9
  87 0042 12E0     		b	.L5
  88              	.L6:
 375:Drivers/STM32G4xx_HAL_Driver/Src/stm32g4xx_hal_fdcan.c ****   {
 376:Drivers/STM32G4xx_HAL_Driver/Src/stm32g4xx_hal_fdcan.c ****     if ((HAL_GetTick() - tickstart) > FDCAN_TIMEOUT_VALUE)
  89              		.loc 1 376 10
  90 0044 FFF7FEFF 		bl	HAL_GetTick
  91 0048 0246     		mov	r2, r0
  92              		.loc 1 376 24 discriminator 1
  93 004a FB68     		ldr	r3, [r7, #12]
  94 004c D31A     		subs	r3, r2, r3
  95              		.loc 1 376 8 discriminator 1
  96 004e 0A2B     		cmp	r3, #10
  97 0050 0BD9     		bls	.L5
 377:Drivers/STM32G4xx_HAL_Driver/Src/stm32g4xx_hal_fdcan.c ****     {
 378:Drivers/STM32G4xx_HAL_Driver/Src/stm32g4xx_hal_fdcan.c ****       /* Update error code */
 379:Drivers/STM32G4xx_HAL_Driver/Src/stm32g4xx_hal_fdcan.c ****       hfdcan->ErrorCode |= HAL_FDCAN_ERROR_TIMEOUT;
  98              		.loc 1 379 13
  99 0052 7B68     		ldr	r3, [r7, #4]
 100 0054 1B6E     		ldr	r3, [r3, #96]
 101              		.loc 1 379 25
 102 0056 43F00102 		orr	r2, r3, #1
 103 005a 7B68     		ldr	r3, [r7, #4]
 104 005c 1A66     		str	r2, [r3, #96]
 380:Drivers/STM32G4xx_HAL_Driver/Src/stm32g4xx_hal_fdcan.c **** 
 381:Drivers/STM32G4xx_HAL_Driver/Src/stm32g4xx_hal_fdcan.c ****       /* Change FDCAN state */
 382:Drivers/STM32G4xx_HAL_Driver/Src/stm32g4xx_hal_fdcan.c ****       hfdcan->State = HAL_FDCAN_STATE_ERROR;
 105              		.loc 1 382 21
 106 005e 7B68     		ldr	r3, [r7, #4]
 107 0060 0322     		movs	r2, #3
 108 0062 83F85C20 		strb	r2, [r3, #92]
 383:Drivers/STM32G4xx_HAL_Driver/Src/stm32g4xx_hal_fdcan.c **** 
 384:Drivers/STM32G4xx_HAL_Driver/Src/stm32g4xx_hal_fdcan.c ****       return HAL_ERROR;
 109              		.loc 1 384 14
 110 0066 0123     		movs	r3, #1
 111 0068 1BE1     		b	.L3
 112              	.L5:
 374:Drivers/STM32G4xx_HAL_Driver/Src/stm32g4xx_hal_fdcan.c ****   {
 113              		.loc 1 374 17
 114 006a 7B68     		ldr	r3, [r7, #4]
 115 006c 1B68     		ldr	r3, [r3]
 374:Drivers/STM32G4xx_HAL_Driver/Src/stm32g4xx_hal_fdcan.c ****   {
 116              		.loc 1 374 27
 117 006e 9B69     		ldr	r3, [r3, #24]
 374:Drivers/STM32G4xx_HAL_Driver/Src/stm32g4xx_hal_fdcan.c ****   {
 118              		.loc 1 374 34
 119 0070 03F00803 		and	r3, r3, #8
 374:Drivers/STM32G4xx_HAL_Driver/Src/stm32g4xx_hal_fdcan.c ****   {
 120              		.loc 1 374 52
 121 0074 082B     		cmp	r3, #8
 122 0076 E5D0     		beq	.L6
 385:Drivers/STM32G4xx_HAL_Driver/Src/stm32g4xx_hal_fdcan.c ****     }
 386:Drivers/STM32G4xx_HAL_Driver/Src/stm32g4xx_hal_fdcan.c ****   }
 387:Drivers/STM32G4xx_HAL_Driver/Src/stm32g4xx_hal_fdcan.c **** 
ARM GAS  C:\Users\AURORA~1\AppData\Local\Temp\ccEbooPs.s 			page 10


 388:Drivers/STM32G4xx_HAL_Driver/Src/stm32g4xx_hal_fdcan.c ****   /* Request initialisation */
 389:Drivers/STM32G4xx_HAL_Driver/Src/stm32g4xx_hal_fdcan.c ****   SET_BIT(hfdcan->Instance->CCCR, FDCAN_CCCR_INIT);
 123              		.loc 1 389 3
 124 0078 7B68     		ldr	r3, [r7, #4]
 125 007a 1B68     		ldr	r3, [r3]
 126 007c 9A69     		ldr	r2, [r3, #24]
 127 007e 7B68     		ldr	r3, [r7, #4]
 128 0080 1B68     		ldr	r3, [r3]
 129 0082 42F00102 		orr	r2, r2, #1
 130 0086 9A61     		str	r2, [r3, #24]
 390:Drivers/STM32G4xx_HAL_Driver/Src/stm32g4xx_hal_fdcan.c **** 
 391:Drivers/STM32G4xx_HAL_Driver/Src/stm32g4xx_hal_fdcan.c ****   /* Get tick */
 392:Drivers/STM32G4xx_HAL_Driver/Src/stm32g4xx_hal_fdcan.c ****   tickstart = HAL_GetTick();
 131              		.loc 1 392 15
 132 0088 FFF7FEFF 		bl	HAL_GetTick
 133 008c F860     		str	r0, [r7, #12]
 393:Drivers/STM32G4xx_HAL_Driver/Src/stm32g4xx_hal_fdcan.c **** 
 394:Drivers/STM32G4xx_HAL_Driver/Src/stm32g4xx_hal_fdcan.c ****   /* Wait until the INIT bit into CCCR register is set */
 395:Drivers/STM32G4xx_HAL_Driver/Src/stm32g4xx_hal_fdcan.c ****   while ((hfdcan->Instance->CCCR & FDCAN_CCCR_INIT) == 0U)
 134              		.loc 1 395 9
 135 008e 12E0     		b	.L7
 136              	.L8:
 396:Drivers/STM32G4xx_HAL_Driver/Src/stm32g4xx_hal_fdcan.c ****   {
 397:Drivers/STM32G4xx_HAL_Driver/Src/stm32g4xx_hal_fdcan.c ****     /* Check for the Timeout */
 398:Drivers/STM32G4xx_HAL_Driver/Src/stm32g4xx_hal_fdcan.c ****     if ((HAL_GetTick() - tickstart) > FDCAN_TIMEOUT_VALUE)
 137              		.loc 1 398 10
 138 0090 FFF7FEFF 		bl	HAL_GetTick
 139 0094 0246     		mov	r2, r0
 140              		.loc 1 398 24 discriminator 1
 141 0096 FB68     		ldr	r3, [r7, #12]
 142 0098 D31A     		subs	r3, r2, r3
 143              		.loc 1 398 8 discriminator 1
 144 009a 0A2B     		cmp	r3, #10
 145 009c 0BD9     		bls	.L7
 399:Drivers/STM32G4xx_HAL_Driver/Src/stm32g4xx_hal_fdcan.c ****     {
 400:Drivers/STM32G4xx_HAL_Driver/Src/stm32g4xx_hal_fdcan.c ****       /* Update error code */
 401:Drivers/STM32G4xx_HAL_Driver/Src/stm32g4xx_hal_fdcan.c ****       hfdcan->ErrorCode |= HAL_FDCAN_ERROR_TIMEOUT;
 146              		.loc 1 401 13
 147 009e 7B68     		ldr	r3, [r7, #4]
 148 00a0 1B6E     		ldr	r3, [r3, #96]
 149              		.loc 1 401 25
 150 00a2 43F00102 		orr	r2, r3, #1
 151 00a6 7B68     		ldr	r3, [r7, #4]
 152 00a8 1A66     		str	r2, [r3, #96]
 402:Drivers/STM32G4xx_HAL_Driver/Src/stm32g4xx_hal_fdcan.c **** 
 403:Drivers/STM32G4xx_HAL_Driver/Src/stm32g4xx_hal_fdcan.c ****       /* Change FDCAN state */
 404:Drivers/STM32G4xx_HAL_Driver/Src/stm32g4xx_hal_fdcan.c ****       hfdcan->State = HAL_FDCAN_STATE_ERROR;
 153              		.loc 1 404 21
 154 00aa 7B68     		ldr	r3, [r7, #4]
 155 00ac 0322     		movs	r2, #3
 156 00ae 83F85C20 		strb	r2, [r3, #92]
 405:Drivers/STM32G4xx_HAL_Driver/Src/stm32g4xx_hal_fdcan.c **** 
 406:Drivers/STM32G4xx_HAL_Driver/Src/stm32g4xx_hal_fdcan.c ****       return HAL_ERROR;
 157              		.loc 1 406 14
 158 00b2 0123     		movs	r3, #1
 159 00b4 F5E0     		b	.L3
 160              	.L7:
ARM GAS  C:\Users\AURORA~1\AppData\Local\Temp\ccEbooPs.s 			page 11


 395:Drivers/STM32G4xx_HAL_Driver/Src/stm32g4xx_hal_fdcan.c ****   {
 161              		.loc 1 395 17
 162 00b6 7B68     		ldr	r3, [r7, #4]
 163 00b8 1B68     		ldr	r3, [r3]
 395:Drivers/STM32G4xx_HAL_Driver/Src/stm32g4xx_hal_fdcan.c ****   {
 164              		.loc 1 395 27
 165 00ba 9B69     		ldr	r3, [r3, #24]
 395:Drivers/STM32G4xx_HAL_Driver/Src/stm32g4xx_hal_fdcan.c ****   {
 166              		.loc 1 395 34
 167 00bc 03F00103 		and	r3, r3, #1
 395:Drivers/STM32G4xx_HAL_Driver/Src/stm32g4xx_hal_fdcan.c ****   {
 168              		.loc 1 395 53
 169 00c0 002B     		cmp	r3, #0
 170 00c2 E5D0     		beq	.L8
 407:Drivers/STM32G4xx_HAL_Driver/Src/stm32g4xx_hal_fdcan.c ****     }
 408:Drivers/STM32G4xx_HAL_Driver/Src/stm32g4xx_hal_fdcan.c ****   }
 409:Drivers/STM32G4xx_HAL_Driver/Src/stm32g4xx_hal_fdcan.c **** 
 410:Drivers/STM32G4xx_HAL_Driver/Src/stm32g4xx_hal_fdcan.c ****   /* Enable configuration change */
 411:Drivers/STM32G4xx_HAL_Driver/Src/stm32g4xx_hal_fdcan.c ****   SET_BIT(hfdcan->Instance->CCCR, FDCAN_CCCR_CCE);
 171              		.loc 1 411 3
 172 00c4 7B68     		ldr	r3, [r7, #4]
 173 00c6 1B68     		ldr	r3, [r3]
 174 00c8 9A69     		ldr	r2, [r3, #24]
 175 00ca 7B68     		ldr	r3, [r7, #4]
 176 00cc 1B68     		ldr	r3, [r3]
 177 00ce 42F00202 		orr	r2, r2, #2
 178 00d2 9A61     		str	r2, [r3, #24]
 412:Drivers/STM32G4xx_HAL_Driver/Src/stm32g4xx_hal_fdcan.c **** 
 413:Drivers/STM32G4xx_HAL_Driver/Src/stm32g4xx_hal_fdcan.c ****   /* Check FDCAN instance */
 414:Drivers/STM32G4xx_HAL_Driver/Src/stm32g4xx_hal_fdcan.c ****   if (hfdcan->Instance == FDCAN1)
 179              		.loc 1 414 13
 180 00d4 7B68     		ldr	r3, [r7, #4]
 181 00d6 1B68     		ldr	r3, [r3]
 182              		.loc 1 414 6
 183 00d8 744A     		ldr	r2, .L20
 184 00da 9342     		cmp	r3, r2
 185 00dc 03D1     		bne	.L9
 415:Drivers/STM32G4xx_HAL_Driver/Src/stm32g4xx_hal_fdcan.c ****   {
 416:Drivers/STM32G4xx_HAL_Driver/Src/stm32g4xx_hal_fdcan.c ****     /* Configure Clock divider */
 417:Drivers/STM32G4xx_HAL_Driver/Src/stm32g4xx_hal_fdcan.c ****     FDCAN_CONFIG->CKDIV = hfdcan->Init.ClockDivider;
 186              		.loc 1 417 17
 187 00de 744A     		ldr	r2, .L20+4
 188              		.loc 1 417 39
 189 00e0 7B68     		ldr	r3, [r7, #4]
 190 00e2 5B68     		ldr	r3, [r3, #4]
 191              		.loc 1 417 25
 192 00e4 1360     		str	r3, [r2]
 193              	.L9:
 418:Drivers/STM32G4xx_HAL_Driver/Src/stm32g4xx_hal_fdcan.c ****   }
 419:Drivers/STM32G4xx_HAL_Driver/Src/stm32g4xx_hal_fdcan.c **** 
 420:Drivers/STM32G4xx_HAL_Driver/Src/stm32g4xx_hal_fdcan.c ****   /* Set the no automatic retransmission */
 421:Drivers/STM32G4xx_HAL_Driver/Src/stm32g4xx_hal_fdcan.c ****   if (hfdcan->Init.AutoRetransmission == ENABLE)
 194              		.loc 1 421 19
 195 00e6 7B68     		ldr	r3, [r7, #4]
 196 00e8 1B7C     		ldrb	r3, [r3, #16]	@ zero_extendqisi2
 197              		.loc 1 421 6
 198 00ea 012B     		cmp	r3, #1
ARM GAS  C:\Users\AURORA~1\AppData\Local\Temp\ccEbooPs.s 			page 12


 199 00ec 08D1     		bne	.L10
 422:Drivers/STM32G4xx_HAL_Driver/Src/stm32g4xx_hal_fdcan.c ****   {
 423:Drivers/STM32G4xx_HAL_Driver/Src/stm32g4xx_hal_fdcan.c ****     CLEAR_BIT(hfdcan->Instance->CCCR, FDCAN_CCCR_DAR);
 200              		.loc 1 423 5
 201 00ee 7B68     		ldr	r3, [r7, #4]
 202 00f0 1B68     		ldr	r3, [r3]
 203 00f2 9A69     		ldr	r2, [r3, #24]
 204 00f4 7B68     		ldr	r3, [r7, #4]
 205 00f6 1B68     		ldr	r3, [r3]
 206 00f8 22F04002 		bic	r2, r2, #64
 207 00fc 9A61     		str	r2, [r3, #24]
 208 00fe 07E0     		b	.L11
 209              	.L10:
 424:Drivers/STM32G4xx_HAL_Driver/Src/stm32g4xx_hal_fdcan.c ****   }
 425:Drivers/STM32G4xx_HAL_Driver/Src/stm32g4xx_hal_fdcan.c ****   else
 426:Drivers/STM32G4xx_HAL_Driver/Src/stm32g4xx_hal_fdcan.c ****   {
 427:Drivers/STM32G4xx_HAL_Driver/Src/stm32g4xx_hal_fdcan.c ****     SET_BIT(hfdcan->Instance->CCCR, FDCAN_CCCR_DAR);
 210              		.loc 1 427 5
 211 0100 7B68     		ldr	r3, [r7, #4]
 212 0102 1B68     		ldr	r3, [r3]
 213 0104 9A69     		ldr	r2, [r3, #24]
 214 0106 7B68     		ldr	r3, [r7, #4]
 215 0108 1B68     		ldr	r3, [r3]
 216 010a 42F04002 		orr	r2, r2, #64
 217 010e 9A61     		str	r2, [r3, #24]
 218              	.L11:
 428:Drivers/STM32G4xx_HAL_Driver/Src/stm32g4xx_hal_fdcan.c ****   }
 429:Drivers/STM32G4xx_HAL_Driver/Src/stm32g4xx_hal_fdcan.c **** 
 430:Drivers/STM32G4xx_HAL_Driver/Src/stm32g4xx_hal_fdcan.c ****   /* Set the transmit pause feature */
 431:Drivers/STM32G4xx_HAL_Driver/Src/stm32g4xx_hal_fdcan.c ****   if (hfdcan->Init.TransmitPause == ENABLE)
 219              		.loc 1 431 19
 220 0110 7B68     		ldr	r3, [r7, #4]
 221 0112 5B7C     		ldrb	r3, [r3, #17]	@ zero_extendqisi2
 222              		.loc 1 431 6
 223 0114 012B     		cmp	r3, #1
 224 0116 08D1     		bne	.L12
 432:Drivers/STM32G4xx_HAL_Driver/Src/stm32g4xx_hal_fdcan.c ****   {
 433:Drivers/STM32G4xx_HAL_Driver/Src/stm32g4xx_hal_fdcan.c ****     SET_BIT(hfdcan->Instance->CCCR, FDCAN_CCCR_TXP);
 225              		.loc 1 433 5
 226 0118 7B68     		ldr	r3, [r7, #4]
 227 011a 1B68     		ldr	r3, [r3]
 228 011c 9A69     		ldr	r2, [r3, #24]
 229 011e 7B68     		ldr	r3, [r7, #4]
 230 0120 1B68     		ldr	r3, [r3]
 231 0122 42F48042 		orr	r2, r2, #16384
 232 0126 9A61     		str	r2, [r3, #24]
 233 0128 07E0     		b	.L13
 234              	.L12:
 434:Drivers/STM32G4xx_HAL_Driver/Src/stm32g4xx_hal_fdcan.c ****   }
 435:Drivers/STM32G4xx_HAL_Driver/Src/stm32g4xx_hal_fdcan.c ****   else
 436:Drivers/STM32G4xx_HAL_Driver/Src/stm32g4xx_hal_fdcan.c ****   {
 437:Drivers/STM32G4xx_HAL_Driver/Src/stm32g4xx_hal_fdcan.c ****     CLEAR_BIT(hfdcan->Instance->CCCR, FDCAN_CCCR_TXP);
 235              		.loc 1 437 5
 236 012a 7B68     		ldr	r3, [r7, #4]
 237 012c 1B68     		ldr	r3, [r3]
 238 012e 9A69     		ldr	r2, [r3, #24]
 239 0130 7B68     		ldr	r3, [r7, #4]
ARM GAS  C:\Users\AURORA~1\AppData\Local\Temp\ccEbooPs.s 			page 13


 240 0132 1B68     		ldr	r3, [r3]
 241 0134 22F48042 		bic	r2, r2, #16384
 242 0138 9A61     		str	r2, [r3, #24]
 243              	.L13:
 438:Drivers/STM32G4xx_HAL_Driver/Src/stm32g4xx_hal_fdcan.c ****   }
 439:Drivers/STM32G4xx_HAL_Driver/Src/stm32g4xx_hal_fdcan.c **** 
 440:Drivers/STM32G4xx_HAL_Driver/Src/stm32g4xx_hal_fdcan.c ****   /* Set the Protocol Exception Handling */
 441:Drivers/STM32G4xx_HAL_Driver/Src/stm32g4xx_hal_fdcan.c ****   if (hfdcan->Init.ProtocolException == ENABLE)
 244              		.loc 1 441 19
 245 013a 7B68     		ldr	r3, [r7, #4]
 246 013c 9B7C     		ldrb	r3, [r3, #18]	@ zero_extendqisi2
 247              		.loc 1 441 6
 248 013e 012B     		cmp	r3, #1
 249 0140 08D1     		bne	.L14
 442:Drivers/STM32G4xx_HAL_Driver/Src/stm32g4xx_hal_fdcan.c ****   {
 443:Drivers/STM32G4xx_HAL_Driver/Src/stm32g4xx_hal_fdcan.c ****     CLEAR_BIT(hfdcan->Instance->CCCR, FDCAN_CCCR_PXHD);
 250              		.loc 1 443 5
 251 0142 7B68     		ldr	r3, [r7, #4]
 252 0144 1B68     		ldr	r3, [r3]
 253 0146 9A69     		ldr	r2, [r3, #24]
 254 0148 7B68     		ldr	r3, [r7, #4]
 255 014a 1B68     		ldr	r3, [r3]
 256 014c 22F48052 		bic	r2, r2, #4096
 257 0150 9A61     		str	r2, [r3, #24]
 258 0152 07E0     		b	.L15
 259              	.L14:
 444:Drivers/STM32G4xx_HAL_Driver/Src/stm32g4xx_hal_fdcan.c ****   }
 445:Drivers/STM32G4xx_HAL_Driver/Src/stm32g4xx_hal_fdcan.c ****   else
 446:Drivers/STM32G4xx_HAL_Driver/Src/stm32g4xx_hal_fdcan.c ****   {
 447:Drivers/STM32G4xx_HAL_Driver/Src/stm32g4xx_hal_fdcan.c ****     SET_BIT(hfdcan->Instance->CCCR, FDCAN_CCCR_PXHD);
 260              		.loc 1 447 5
 261 0154 7B68     		ldr	r3, [r7, #4]
 262 0156 1B68     		ldr	r3, [r3]
 263 0158 9A69     		ldr	r2, [r3, #24]
 264 015a 7B68     		ldr	r3, [r7, #4]
 265 015c 1B68     		ldr	r3, [r3]
 266 015e 42F48052 		orr	r2, r2, #4096
 267 0162 9A61     		str	r2, [r3, #24]
 268              	.L15:
 448:Drivers/STM32G4xx_HAL_Driver/Src/stm32g4xx_hal_fdcan.c ****   }
 449:Drivers/STM32G4xx_HAL_Driver/Src/stm32g4xx_hal_fdcan.c **** 
 450:Drivers/STM32G4xx_HAL_Driver/Src/stm32g4xx_hal_fdcan.c ****   /* Set FDCAN Frame Format */
 451:Drivers/STM32G4xx_HAL_Driver/Src/stm32g4xx_hal_fdcan.c ****   MODIFY_REG(hfdcan->Instance->CCCR, FDCAN_FRAME_FD_BRS, hfdcan->Init.FrameFormat);
 269              		.loc 1 451 3
 270 0164 7B68     		ldr	r3, [r7, #4]
 271 0166 1B68     		ldr	r3, [r3]
 272 0168 9B69     		ldr	r3, [r3, #24]
 273 016a 23F44071 		bic	r1, r3, #768
 274 016e 7B68     		ldr	r3, [r7, #4]
 275 0170 9A68     		ldr	r2, [r3, #8]
 276 0172 7B68     		ldr	r3, [r7, #4]
 277 0174 1B68     		ldr	r3, [r3]
 278 0176 0A43     		orrs	r2, r2, r1
 279 0178 9A61     		str	r2, [r3, #24]
 452:Drivers/STM32G4xx_HAL_Driver/Src/stm32g4xx_hal_fdcan.c **** 
 453:Drivers/STM32G4xx_HAL_Driver/Src/stm32g4xx_hal_fdcan.c ****   /* Reset FDCAN Operation Mode */
 454:Drivers/STM32G4xx_HAL_Driver/Src/stm32g4xx_hal_fdcan.c ****   CLEAR_BIT(hfdcan->Instance->CCCR, (FDCAN_CCCR_TEST | FDCAN_CCCR_MON | FDCAN_CCCR_ASM));
ARM GAS  C:\Users\AURORA~1\AppData\Local\Temp\ccEbooPs.s 			page 14


 280              		.loc 1 454 3
 281 017a 7B68     		ldr	r3, [r7, #4]
 282 017c 1B68     		ldr	r3, [r3]
 283 017e 9A69     		ldr	r2, [r3, #24]
 284 0180 7B68     		ldr	r3, [r7, #4]
 285 0182 1B68     		ldr	r3, [r3]
 286 0184 22F0A402 		bic	r2, r2, #164
 287 0188 9A61     		str	r2, [r3, #24]
 455:Drivers/STM32G4xx_HAL_Driver/Src/stm32g4xx_hal_fdcan.c ****   CLEAR_BIT(hfdcan->Instance->TEST, FDCAN_TEST_LBCK);
 288              		.loc 1 455 3
 289 018a 7B68     		ldr	r3, [r7, #4]
 290 018c 1B68     		ldr	r3, [r3]
 291 018e 1A69     		ldr	r2, [r3, #16]
 292 0190 7B68     		ldr	r3, [r7, #4]
 293 0192 1B68     		ldr	r3, [r3]
 294 0194 22F01002 		bic	r2, r2, #16
 295 0198 1A61     		str	r2, [r3, #16]
 456:Drivers/STM32G4xx_HAL_Driver/Src/stm32g4xx_hal_fdcan.c **** 
 457:Drivers/STM32G4xx_HAL_Driver/Src/stm32g4xx_hal_fdcan.c ****   /* Set FDCAN Operating Mode:
 458:Drivers/STM32G4xx_HAL_Driver/Src/stm32g4xx_hal_fdcan.c ****                | Normal | Restricted |    Bus     | Internal | External
 459:Drivers/STM32G4xx_HAL_Driver/Src/stm32g4xx_hal_fdcan.c ****                |        | Operation  | Monitoring | LoopBack | LoopBack
 460:Drivers/STM32G4xx_HAL_Driver/Src/stm32g4xx_hal_fdcan.c ****      CCCR.TEST |   0    |     0      |     0      |    1     |    1
 461:Drivers/STM32G4xx_HAL_Driver/Src/stm32g4xx_hal_fdcan.c ****      CCCR.MON  |   0    |     0      |     1      |    1     |    0
 462:Drivers/STM32G4xx_HAL_Driver/Src/stm32g4xx_hal_fdcan.c ****      TEST.LBCK |   0    |     0      |     0      |    1     |    1
 463:Drivers/STM32G4xx_HAL_Driver/Src/stm32g4xx_hal_fdcan.c ****      CCCR.ASM  |   0    |     1      |     0      |    0     |    0
 464:Drivers/STM32G4xx_HAL_Driver/Src/stm32g4xx_hal_fdcan.c ****   */
 465:Drivers/STM32G4xx_HAL_Driver/Src/stm32g4xx_hal_fdcan.c ****   if (hfdcan->Init.Mode == FDCAN_MODE_RESTRICTED_OPERATION)
 296              		.loc 1 465 19
 297 019a 7B68     		ldr	r3, [r7, #4]
 298 019c DB68     		ldr	r3, [r3, #12]
 299              		.loc 1 465 6
 300 019e 012B     		cmp	r3, #1
 301 01a0 08D1     		bne	.L16
 466:Drivers/STM32G4xx_HAL_Driver/Src/stm32g4xx_hal_fdcan.c ****   {
 467:Drivers/STM32G4xx_HAL_Driver/Src/stm32g4xx_hal_fdcan.c ****     /* Enable Restricted Operation mode */
 468:Drivers/STM32G4xx_HAL_Driver/Src/stm32g4xx_hal_fdcan.c ****     SET_BIT(hfdcan->Instance->CCCR, FDCAN_CCCR_ASM);
 302              		.loc 1 468 5
 303 01a2 7B68     		ldr	r3, [r7, #4]
 304 01a4 1B68     		ldr	r3, [r3]
 305 01a6 9A69     		ldr	r2, [r3, #24]
 306 01a8 7B68     		ldr	r3, [r7, #4]
 307 01aa 1B68     		ldr	r3, [r3]
 308 01ac 42F00402 		orr	r2, r2, #4
 309 01b0 9A61     		str	r2, [r3, #24]
 310 01b2 2CE0     		b	.L17
 311              	.L16:
 469:Drivers/STM32G4xx_HAL_Driver/Src/stm32g4xx_hal_fdcan.c ****   }
 470:Drivers/STM32G4xx_HAL_Driver/Src/stm32g4xx_hal_fdcan.c ****   else if (hfdcan->Init.Mode != FDCAN_MODE_NORMAL)
 312              		.loc 1 470 24
 313 01b4 7B68     		ldr	r3, [r7, #4]
 314 01b6 DB68     		ldr	r3, [r3, #12]
 315              		.loc 1 470 11
 316 01b8 002B     		cmp	r3, #0
 317 01ba 28D0     		beq	.L17
 471:Drivers/STM32G4xx_HAL_Driver/Src/stm32g4xx_hal_fdcan.c ****   {
 472:Drivers/STM32G4xx_HAL_Driver/Src/stm32g4xx_hal_fdcan.c ****     if (hfdcan->Init.Mode != FDCAN_MODE_BUS_MONITORING)
 318              		.loc 1 472 21
ARM GAS  C:\Users\AURORA~1\AppData\Local\Temp\ccEbooPs.s 			page 15


 319 01bc 7B68     		ldr	r3, [r7, #4]
 320 01be DB68     		ldr	r3, [r3, #12]
 321              		.loc 1 472 8
 322 01c0 022B     		cmp	r3, #2
 323 01c2 1CD0     		beq	.L18
 473:Drivers/STM32G4xx_HAL_Driver/Src/stm32g4xx_hal_fdcan.c ****     {
 474:Drivers/STM32G4xx_HAL_Driver/Src/stm32g4xx_hal_fdcan.c ****       /* Enable write access to TEST register */
 475:Drivers/STM32G4xx_HAL_Driver/Src/stm32g4xx_hal_fdcan.c ****       SET_BIT(hfdcan->Instance->CCCR, FDCAN_CCCR_TEST);
 324              		.loc 1 475 7
 325 01c4 7B68     		ldr	r3, [r7, #4]
 326 01c6 1B68     		ldr	r3, [r3]
 327 01c8 9A69     		ldr	r2, [r3, #24]
 328 01ca 7B68     		ldr	r3, [r7, #4]
 329 01cc 1B68     		ldr	r3, [r3]
 330 01ce 42F08002 		orr	r2, r2, #128
 331 01d2 9A61     		str	r2, [r3, #24]
 476:Drivers/STM32G4xx_HAL_Driver/Src/stm32g4xx_hal_fdcan.c **** 
 477:Drivers/STM32G4xx_HAL_Driver/Src/stm32g4xx_hal_fdcan.c ****       /* Enable LoopBack mode */
 478:Drivers/STM32G4xx_HAL_Driver/Src/stm32g4xx_hal_fdcan.c ****       SET_BIT(hfdcan->Instance->TEST, FDCAN_TEST_LBCK);
 332              		.loc 1 478 7
 333 01d4 7B68     		ldr	r3, [r7, #4]
 334 01d6 1B68     		ldr	r3, [r3]
 335 01d8 1A69     		ldr	r2, [r3, #16]
 336 01da 7B68     		ldr	r3, [r7, #4]
 337 01dc 1B68     		ldr	r3, [r3]
 338 01de 42F01002 		orr	r2, r2, #16
 339 01e2 1A61     		str	r2, [r3, #16]
 479:Drivers/STM32G4xx_HAL_Driver/Src/stm32g4xx_hal_fdcan.c **** 
 480:Drivers/STM32G4xx_HAL_Driver/Src/stm32g4xx_hal_fdcan.c ****       if (hfdcan->Init.Mode == FDCAN_MODE_INTERNAL_LOOPBACK)
 340              		.loc 1 480 23
 341 01e4 7B68     		ldr	r3, [r7, #4]
 342 01e6 DB68     		ldr	r3, [r3, #12]
 343              		.loc 1 480 10
 344 01e8 032B     		cmp	r3, #3
 345 01ea 10D1     		bne	.L17
 481:Drivers/STM32G4xx_HAL_Driver/Src/stm32g4xx_hal_fdcan.c ****       {
 482:Drivers/STM32G4xx_HAL_Driver/Src/stm32g4xx_hal_fdcan.c ****         SET_BIT(hfdcan->Instance->CCCR, FDCAN_CCCR_MON);
 346              		.loc 1 482 9
 347 01ec 7B68     		ldr	r3, [r7, #4]
 348 01ee 1B68     		ldr	r3, [r3]
 349 01f0 9A69     		ldr	r2, [r3, #24]
 350 01f2 7B68     		ldr	r3, [r7, #4]
 351 01f4 1B68     		ldr	r3, [r3]
 352 01f6 42F02002 		orr	r2, r2, #32
 353 01fa 9A61     		str	r2, [r3, #24]
 354 01fc 07E0     		b	.L17
 355              	.L18:
 483:Drivers/STM32G4xx_HAL_Driver/Src/stm32g4xx_hal_fdcan.c ****       }
 484:Drivers/STM32G4xx_HAL_Driver/Src/stm32g4xx_hal_fdcan.c ****     }
 485:Drivers/STM32G4xx_HAL_Driver/Src/stm32g4xx_hal_fdcan.c ****     else
 486:Drivers/STM32G4xx_HAL_Driver/Src/stm32g4xx_hal_fdcan.c ****     {
 487:Drivers/STM32G4xx_HAL_Driver/Src/stm32g4xx_hal_fdcan.c ****       /* Enable bus monitoring mode */
 488:Drivers/STM32G4xx_HAL_Driver/Src/stm32g4xx_hal_fdcan.c ****       SET_BIT(hfdcan->Instance->CCCR, FDCAN_CCCR_MON);
 356              		.loc 1 488 7
 357 01fe 7B68     		ldr	r3, [r7, #4]
 358 0200 1B68     		ldr	r3, [r3]
 359 0202 9A69     		ldr	r2, [r3, #24]
ARM GAS  C:\Users\AURORA~1\AppData\Local\Temp\ccEbooPs.s 			page 16


 360 0204 7B68     		ldr	r3, [r7, #4]
 361 0206 1B68     		ldr	r3, [r3]
 362 0208 42F02002 		orr	r2, r2, #32
 363 020c 9A61     		str	r2, [r3, #24]
 364              	.L17:
 489:Drivers/STM32G4xx_HAL_Driver/Src/stm32g4xx_hal_fdcan.c ****     }
 490:Drivers/STM32G4xx_HAL_Driver/Src/stm32g4xx_hal_fdcan.c ****   }
 491:Drivers/STM32G4xx_HAL_Driver/Src/stm32g4xx_hal_fdcan.c ****   else
 492:Drivers/STM32G4xx_HAL_Driver/Src/stm32g4xx_hal_fdcan.c ****   {
 493:Drivers/STM32G4xx_HAL_Driver/Src/stm32g4xx_hal_fdcan.c ****     /* Nothing to do: normal mode */
 494:Drivers/STM32G4xx_HAL_Driver/Src/stm32g4xx_hal_fdcan.c ****   }
 495:Drivers/STM32G4xx_HAL_Driver/Src/stm32g4xx_hal_fdcan.c **** 
 496:Drivers/STM32G4xx_HAL_Driver/Src/stm32g4xx_hal_fdcan.c ****   /* Set the nominal bit timing register */
 497:Drivers/STM32G4xx_HAL_Driver/Src/stm32g4xx_hal_fdcan.c ****   hfdcan->Instance->NBTP = ((((uint32_t)hfdcan->Init.NominalSyncJumpWidth - 1U) << FDCAN_NBTP_NSJW_
 365              		.loc 1 497 53
 366 020e 7B68     		ldr	r3, [r7, #4]
 367 0210 9B69     		ldr	r3, [r3, #24]
 368              		.loc 1 497 75
 369 0212 013B     		subs	r3, r3, #1
 370              		.loc 1 497 81
 371 0214 5A06     		lsls	r2, r3, #25
 498:Drivers/STM32G4xx_HAL_Driver/Src/stm32g4xx_hal_fdcan.c ****                             (((uint32_t)hfdcan->Init.NominalTimeSeg1 - 1U) << FDCAN_NBTP_NTSEG1_Pos
 372              		.loc 1 498 53
 373 0216 7B68     		ldr	r3, [r7, #4]
 374 0218 DB69     		ldr	r3, [r3, #28]
 375              		.loc 1 498 70
 376 021a 013B     		subs	r3, r3, #1
 377              		.loc 1 498 76
 378 021c 1B02     		lsls	r3, r3, #8
 497:Drivers/STM32G4xx_HAL_Driver/Src/stm32g4xx_hal_fdcan.c ****                             (((uint32_t)hfdcan->Init.NominalTimeSeg1 - 1U) << FDCAN_NBTP_NTSEG1_Pos
 379              		.loc 1 497 105
 380 021e 1A43     		orrs	r2, r2, r3
 499:Drivers/STM32G4xx_HAL_Driver/Src/stm32g4xx_hal_fdcan.c ****                             (((uint32_t)hfdcan->Init.NominalTimeSeg2 - 1U) << FDCAN_NBTP_NTSEG2_Pos
 381              		.loc 1 499 53
 382 0220 7B68     		ldr	r3, [r7, #4]
 383 0222 1B6A     		ldr	r3, [r3, #32]
 384              		.loc 1 499 76
 385 0224 013B     		subs	r3, r3, #1
 498:Drivers/STM32G4xx_HAL_Driver/Src/stm32g4xx_hal_fdcan.c ****                             (((uint32_t)hfdcan->Init.NominalTimeSeg1 - 1U) << FDCAN_NBTP_NTSEG1_Pos
 386              		.loc 1 498 105
 387 0226 42EA0301 		orr	r1, r2, r3
 500:Drivers/STM32G4xx_HAL_Driver/Src/stm32g4xx_hal_fdcan.c ****                             (((uint32_t)hfdcan->Init.NominalPrescaler - 1U) << FDCAN_NBTP_NBRP_Pos)
 388              		.loc 1 500 53
 389 022a 7B68     		ldr	r3, [r7, #4]
 390 022c 5B69     		ldr	r3, [r3, #20]
 391              		.loc 1 500 71
 392 022e 013B     		subs	r3, r3, #1
 393              		.loc 1 500 77
 394 0230 1A04     		lsls	r2, r3, #16
 497:Drivers/STM32G4xx_HAL_Driver/Src/stm32g4xx_hal_fdcan.c ****                             (((uint32_t)hfdcan->Init.NominalTimeSeg1 - 1U) << FDCAN_NBTP_NTSEG1_Pos
 395              		.loc 1 497 9
 396 0232 7B68     		ldr	r3, [r7, #4]
 397 0234 1B68     		ldr	r3, [r3]
 499:Drivers/STM32G4xx_HAL_Driver/Src/stm32g4xx_hal_fdcan.c ****                             (((uint32_t)hfdcan->Init.NominalTimeSeg2 - 1U) << FDCAN_NBTP_NTSEG2_Pos
 398              		.loc 1 499 105
 399 0236 0A43     		orrs	r2, r2, r1
 497:Drivers/STM32G4xx_HAL_Driver/Src/stm32g4xx_hal_fdcan.c ****                             (((uint32_t)hfdcan->Init.NominalTimeSeg1 - 1U) << FDCAN_NBTP_NTSEG1_Pos
ARM GAS  C:\Users\AURORA~1\AppData\Local\Temp\ccEbooPs.s 			page 17


 400              		.loc 1 497 26
 401 0238 DA61     		str	r2, [r3, #28]
 501:Drivers/STM32G4xx_HAL_Driver/Src/stm32g4xx_hal_fdcan.c **** 
 502:Drivers/STM32G4xx_HAL_Driver/Src/stm32g4xx_hal_fdcan.c ****   /* If FD operation with BRS is selected, set the data bit timing register */
 503:Drivers/STM32G4xx_HAL_Driver/Src/stm32g4xx_hal_fdcan.c ****   if (hfdcan->Init.FrameFormat == FDCAN_FRAME_FD_BRS)
 402              		.loc 1 503 19
 403 023a 7B68     		ldr	r3, [r7, #4]
 404 023c 9B68     		ldr	r3, [r3, #8]
 405              		.loc 1 503 6
 406 023e B3F5407F 		cmp	r3, #768
 407 0242 15D1     		bne	.L19
 504:Drivers/STM32G4xx_HAL_Driver/Src/stm32g4xx_hal_fdcan.c ****   {
 505:Drivers/STM32G4xx_HAL_Driver/Src/stm32g4xx_hal_fdcan.c ****     hfdcan->Instance->DBTP = ((((uint32_t)hfdcan->Init.DataSyncJumpWidth - 1U) << FDCAN_DBTP_DSJW_P
 408              		.loc 1 505 55
 409 0244 7B68     		ldr	r3, [r7, #4]
 410 0246 9B6A     		ldr	r3, [r3, #40]
 411              		.loc 1 505 80
 412 0248 5A1E     		subs	r2, r3, #1
 506:Drivers/STM32G4xx_HAL_Driver/Src/stm32g4xx_hal_fdcan.c ****                               (((uint32_t)hfdcan->Init.DataTimeSeg1 - 1U) << FDCAN_DBTP_DTSEG1_Pos)
 413              		.loc 1 506 55
 414 024a 7B68     		ldr	r3, [r7, #4]
 415 024c DB6A     		ldr	r3, [r3, #44]
 416              		.loc 1 506 69
 417 024e 013B     		subs	r3, r3, #1
 418              		.loc 1 506 75
 419 0250 1B02     		lsls	r3, r3, #8
 505:Drivers/STM32G4xx_HAL_Driver/Src/stm32g4xx_hal_fdcan.c ****                               (((uint32_t)hfdcan->Init.DataTimeSeg1 - 1U) << FDCAN_DBTP_DTSEG1_Pos)
 420              		.loc 1 505 105
 421 0252 1A43     		orrs	r2, r2, r3
 507:Drivers/STM32G4xx_HAL_Driver/Src/stm32g4xx_hal_fdcan.c ****                               (((uint32_t)hfdcan->Init.DataTimeSeg2 - 1U) << FDCAN_DBTP_DTSEG2_Pos)
 422              		.loc 1 507 55
 423 0254 7B68     		ldr	r3, [r7, #4]
 424 0256 1B6B     		ldr	r3, [r3, #48]
 425              		.loc 1 507 69
 426 0258 013B     		subs	r3, r3, #1
 427              		.loc 1 507 75
 428 025a 1B01     		lsls	r3, r3, #4
 506:Drivers/STM32G4xx_HAL_Driver/Src/stm32g4xx_hal_fdcan.c ****                               (((uint32_t)hfdcan->Init.DataTimeSeg1 - 1U) << FDCAN_DBTP_DTSEG1_Pos)
 429              		.loc 1 506 105
 430 025c 42EA0301 		orr	r1, r2, r3
 508:Drivers/STM32G4xx_HAL_Driver/Src/stm32g4xx_hal_fdcan.c ****                               (((uint32_t)hfdcan->Init.DataPrescaler - 1U) << FDCAN_DBTP_DBRP_Pos))
 431              		.loc 1 508 55
 432 0260 7B68     		ldr	r3, [r7, #4]
 433 0262 5B6A     		ldr	r3, [r3, #36]
 434              		.loc 1 508 70
 435 0264 013B     		subs	r3, r3, #1
 436              		.loc 1 508 76
 437 0266 1A04     		lsls	r2, r3, #16
 505:Drivers/STM32G4xx_HAL_Driver/Src/stm32g4xx_hal_fdcan.c ****                               (((uint32_t)hfdcan->Init.DataTimeSeg1 - 1U) << FDCAN_DBTP_DTSEG1_Pos)
 438              		.loc 1 505 11
 439 0268 7B68     		ldr	r3, [r7, #4]
 440 026a 1B68     		ldr	r3, [r3]
 507:Drivers/STM32G4xx_HAL_Driver/Src/stm32g4xx_hal_fdcan.c ****                               (((uint32_t)hfdcan->Init.DataTimeSeg2 - 1U) << FDCAN_DBTP_DTSEG2_Pos)
 441              		.loc 1 507 105
 442 026c 0A43     		orrs	r2, r2, r1
 505:Drivers/STM32G4xx_HAL_Driver/Src/stm32g4xx_hal_fdcan.c ****                               (((uint32_t)hfdcan->Init.DataTimeSeg1 - 1U) << FDCAN_DBTP_DTSEG1_Pos)
 443              		.loc 1 505 28
ARM GAS  C:\Users\AURORA~1\AppData\Local\Temp\ccEbooPs.s 			page 18


 444 026e DA60     		str	r2, [r3, #12]
 445              	.L19:
 509:Drivers/STM32G4xx_HAL_Driver/Src/stm32g4xx_hal_fdcan.c ****   }
 510:Drivers/STM32G4xx_HAL_Driver/Src/stm32g4xx_hal_fdcan.c **** 
 511:Drivers/STM32G4xx_HAL_Driver/Src/stm32g4xx_hal_fdcan.c ****   /* Select between Tx FIFO and Tx Queue operation modes */
 512:Drivers/STM32G4xx_HAL_Driver/Src/stm32g4xx_hal_fdcan.c ****   SET_BIT(hfdcan->Instance->TXBC, hfdcan->Init.TxFifoQueueMode);
 446              		.loc 1 512 3
 447 0270 7B68     		ldr	r3, [r7, #4]
 448 0272 1B68     		ldr	r3, [r3]
 449 0274 D3F8C010 		ldr	r1, [r3, #192]
 450 0278 7B68     		ldr	r3, [r7, #4]
 451 027a DA6B     		ldr	r2, [r3, #60]
 452 027c 7B68     		ldr	r3, [r7, #4]
 453 027e 1B68     		ldr	r3, [r3]
 454 0280 0A43     		orrs	r2, r2, r1
 455 0282 C3F8C020 		str	r2, [r3, #192]
 513:Drivers/STM32G4xx_HAL_Driver/Src/stm32g4xx_hal_fdcan.c **** 
 514:Drivers/STM32G4xx_HAL_Driver/Src/stm32g4xx_hal_fdcan.c ****   /* Calculate each RAM block address */
 515:Drivers/STM32G4xx_HAL_Driver/Src/stm32g4xx_hal_fdcan.c ****   FDCAN_CalcultateRamBlockAddresses(hfdcan);
 456              		.loc 1 515 3
 457 0286 7868     		ldr	r0, [r7, #4]
 458 0288 FFF7FEFF 		bl	FDCAN_CalcultateRamBlockAddresses
 516:Drivers/STM32G4xx_HAL_Driver/Src/stm32g4xx_hal_fdcan.c **** 
 517:Drivers/STM32G4xx_HAL_Driver/Src/stm32g4xx_hal_fdcan.c ****   /* Initialize the Latest Tx request buffer index */
 518:Drivers/STM32G4xx_HAL_Driver/Src/stm32g4xx_hal_fdcan.c ****   hfdcan->LatestTxFifoQRequest = 0U;
 459              		.loc 1 518 32
 460 028c 7B68     		ldr	r3, [r7, #4]
 461 028e 0022     		movs	r2, #0
 462 0290 9A65     		str	r2, [r3, #88]
 519:Drivers/STM32G4xx_HAL_Driver/Src/stm32g4xx_hal_fdcan.c **** 
 520:Drivers/STM32G4xx_HAL_Driver/Src/stm32g4xx_hal_fdcan.c ****   /* Initialize the error code */
 521:Drivers/STM32G4xx_HAL_Driver/Src/stm32g4xx_hal_fdcan.c ****   hfdcan->ErrorCode = HAL_FDCAN_ERROR_NONE;
 463              		.loc 1 521 21
 464 0292 7B68     		ldr	r3, [r7, #4]
 465 0294 0022     		movs	r2, #0
 466 0296 1A66     		str	r2, [r3, #96]
 522:Drivers/STM32G4xx_HAL_Driver/Src/stm32g4xx_hal_fdcan.c **** 
 523:Drivers/STM32G4xx_HAL_Driver/Src/stm32g4xx_hal_fdcan.c ****   /* Initialize the FDCAN state */
 524:Drivers/STM32G4xx_HAL_Driver/Src/stm32g4xx_hal_fdcan.c ****   hfdcan->State = HAL_FDCAN_STATE_READY;
 467              		.loc 1 524 17
 468 0298 7B68     		ldr	r3, [r7, #4]
 469 029a 0122     		movs	r2, #1
 470 029c 83F85C20 		strb	r2, [r3, #92]
 525:Drivers/STM32G4xx_HAL_Driver/Src/stm32g4xx_hal_fdcan.c **** 
 526:Drivers/STM32G4xx_HAL_Driver/Src/stm32g4xx_hal_fdcan.c ****   /* Return function status */
 527:Drivers/STM32G4xx_HAL_Driver/Src/stm32g4xx_hal_fdcan.c ****   return HAL_OK;
 471              		.loc 1 527 10
 472 02a0 0023     		movs	r3, #0
 473              	.L3:
 528:Drivers/STM32G4xx_HAL_Driver/Src/stm32g4xx_hal_fdcan.c **** }
 474              		.loc 1 528 1
 475 02a2 1846     		mov	r0, r3
 476 02a4 1037     		adds	r7, r7, #16
 477              	.LCFI3:
 478              		.cfi_def_cfa_offset 8
 479 02a6 BD46     		mov	sp, r7
 480              	.LCFI4:
ARM GAS  C:\Users\AURORA~1\AppData\Local\Temp\ccEbooPs.s 			page 19


 481              		.cfi_def_cfa_register 13
 482              		@ sp needed
 483 02a8 80BD     		pop	{r7, pc}
 484              	.L21:
 485 02aa 00BF     		.align	2
 486              	.L20:
 487 02ac 00640040 		.word	1073767424
 488 02b0 00650040 		.word	1073767680
 489              		.cfi_endproc
 490              	.LFE132:
 492              		.section	.text.HAL_FDCAN_DeInit,"ax",%progbits
 493              		.align	1
 494              		.global	HAL_FDCAN_DeInit
 495              		.syntax unified
 496              		.thumb
 497              		.thumb_func
 499              	HAL_FDCAN_DeInit:
 500              	.LFB133:
 529:Drivers/STM32G4xx_HAL_Driver/Src/stm32g4xx_hal_fdcan.c **** 
 530:Drivers/STM32G4xx_HAL_Driver/Src/stm32g4xx_hal_fdcan.c **** /**
 531:Drivers/STM32G4xx_HAL_Driver/Src/stm32g4xx_hal_fdcan.c ****   * @brief  Deinitializes the FDCAN peripheral registers to their default reset values.
 532:Drivers/STM32G4xx_HAL_Driver/Src/stm32g4xx_hal_fdcan.c ****   * @param  hfdcan pointer to an FDCAN_HandleTypeDef structure that contains
 533:Drivers/STM32G4xx_HAL_Driver/Src/stm32g4xx_hal_fdcan.c ****   *         the configuration information for the specified FDCAN.
 534:Drivers/STM32G4xx_HAL_Driver/Src/stm32g4xx_hal_fdcan.c ****   * @retval HAL status
 535:Drivers/STM32G4xx_HAL_Driver/Src/stm32g4xx_hal_fdcan.c ****   */
 536:Drivers/STM32G4xx_HAL_Driver/Src/stm32g4xx_hal_fdcan.c **** HAL_StatusTypeDef HAL_FDCAN_DeInit(FDCAN_HandleTypeDef *hfdcan)
 537:Drivers/STM32G4xx_HAL_Driver/Src/stm32g4xx_hal_fdcan.c **** {
 501              		.loc 1 537 1
 502              		.cfi_startproc
 503              		@ args = 0, pretend = 0, frame = 8
 504              		@ frame_needed = 1, uses_anonymous_args = 0
 505 0000 80B5     		push	{r7, lr}
 506              	.LCFI5:
 507              		.cfi_def_cfa_offset 8
 508              		.cfi_offset 7, -8
 509              		.cfi_offset 14, -4
 510 0002 82B0     		sub	sp, sp, #8
 511              	.LCFI6:
 512              		.cfi_def_cfa_offset 16
 513 0004 00AF     		add	r7, sp, #0
 514              	.LCFI7:
 515              		.cfi_def_cfa_register 7
 516 0006 7860     		str	r0, [r7, #4]
 538:Drivers/STM32G4xx_HAL_Driver/Src/stm32g4xx_hal_fdcan.c ****   /* Check FDCAN handle */
 539:Drivers/STM32G4xx_HAL_Driver/Src/stm32g4xx_hal_fdcan.c ****   if (hfdcan == NULL)
 517              		.loc 1 539 6
 518 0008 7B68     		ldr	r3, [r7, #4]
 519 000a 002B     		cmp	r3, #0
 520 000c 01D1     		bne	.L23
 540:Drivers/STM32G4xx_HAL_Driver/Src/stm32g4xx_hal_fdcan.c ****   {
 541:Drivers/STM32G4xx_HAL_Driver/Src/stm32g4xx_hal_fdcan.c ****     return HAL_ERROR;
 521              		.loc 1 541 12
 522 000e 0123     		movs	r3, #1
 523 0010 15E0     		b	.L24
 524              	.L23:
 542:Drivers/STM32G4xx_HAL_Driver/Src/stm32g4xx_hal_fdcan.c ****   }
 543:Drivers/STM32G4xx_HAL_Driver/Src/stm32g4xx_hal_fdcan.c **** 
ARM GAS  C:\Users\AURORA~1\AppData\Local\Temp\ccEbooPs.s 			page 20


 544:Drivers/STM32G4xx_HAL_Driver/Src/stm32g4xx_hal_fdcan.c ****   /* Check function parameters */
 545:Drivers/STM32G4xx_HAL_Driver/Src/stm32g4xx_hal_fdcan.c ****   assert_param(IS_FDCAN_ALL_INSTANCE(hfdcan->Instance));
 546:Drivers/STM32G4xx_HAL_Driver/Src/stm32g4xx_hal_fdcan.c **** 
 547:Drivers/STM32G4xx_HAL_Driver/Src/stm32g4xx_hal_fdcan.c ****   /* Stop the FDCAN module: return value is voluntary ignored */
 548:Drivers/STM32G4xx_HAL_Driver/Src/stm32g4xx_hal_fdcan.c ****   (void)HAL_FDCAN_Stop(hfdcan);
 525              		.loc 1 548 9
 526 0012 7868     		ldr	r0, [r7, #4]
 527 0014 FFF7FEFF 		bl	HAL_FDCAN_Stop
 549:Drivers/STM32G4xx_HAL_Driver/Src/stm32g4xx_hal_fdcan.c **** 
 550:Drivers/STM32G4xx_HAL_Driver/Src/stm32g4xx_hal_fdcan.c ****   /* Disable Interrupt lines */
 551:Drivers/STM32G4xx_HAL_Driver/Src/stm32g4xx_hal_fdcan.c ****   CLEAR_BIT(hfdcan->Instance->ILE, (FDCAN_INTERRUPT_LINE0 | FDCAN_INTERRUPT_LINE1));
 528              		.loc 1 551 3
 529 0018 7B68     		ldr	r3, [r7, #4]
 530 001a 1B68     		ldr	r3, [r3]
 531 001c DA6D     		ldr	r2, [r3, #92]
 532 001e 7B68     		ldr	r3, [r7, #4]
 533 0020 1B68     		ldr	r3, [r3]
 534 0022 22F00302 		bic	r2, r2, #3
 535 0026 DA65     		str	r2, [r3, #92]
 552:Drivers/STM32G4xx_HAL_Driver/Src/stm32g4xx_hal_fdcan.c **** 
 553:Drivers/STM32G4xx_HAL_Driver/Src/stm32g4xx_hal_fdcan.c **** #if USE_HAL_FDCAN_REGISTER_CALLBACKS == 1
 554:Drivers/STM32G4xx_HAL_Driver/Src/stm32g4xx_hal_fdcan.c ****   if (hfdcan->MspDeInitCallback == NULL)
 555:Drivers/STM32G4xx_HAL_Driver/Src/stm32g4xx_hal_fdcan.c ****   {
 556:Drivers/STM32G4xx_HAL_Driver/Src/stm32g4xx_hal_fdcan.c ****     hfdcan->MspDeInitCallback = HAL_FDCAN_MspDeInit; /* Legacy weak MspDeInit */
 557:Drivers/STM32G4xx_HAL_Driver/Src/stm32g4xx_hal_fdcan.c ****   }
 558:Drivers/STM32G4xx_HAL_Driver/Src/stm32g4xx_hal_fdcan.c **** 
 559:Drivers/STM32G4xx_HAL_Driver/Src/stm32g4xx_hal_fdcan.c ****   /* DeInit the low level hardware: CLOCK, NVIC */
 560:Drivers/STM32G4xx_HAL_Driver/Src/stm32g4xx_hal_fdcan.c ****   hfdcan->MspDeInitCallback(hfdcan);
 561:Drivers/STM32G4xx_HAL_Driver/Src/stm32g4xx_hal_fdcan.c **** #else
 562:Drivers/STM32G4xx_HAL_Driver/Src/stm32g4xx_hal_fdcan.c ****   /* DeInit the low level hardware: CLOCK, NVIC */
 563:Drivers/STM32G4xx_HAL_Driver/Src/stm32g4xx_hal_fdcan.c ****   HAL_FDCAN_MspDeInit(hfdcan);
 536              		.loc 1 563 3
 537 0028 7868     		ldr	r0, [r7, #4]
 538 002a FFF7FEFF 		bl	HAL_FDCAN_MspDeInit
 564:Drivers/STM32G4xx_HAL_Driver/Src/stm32g4xx_hal_fdcan.c **** #endif /* USE_HAL_FDCAN_REGISTER_CALLBACKS */
 565:Drivers/STM32G4xx_HAL_Driver/Src/stm32g4xx_hal_fdcan.c **** 
 566:Drivers/STM32G4xx_HAL_Driver/Src/stm32g4xx_hal_fdcan.c ****   /* Reset the FDCAN ErrorCode */
 567:Drivers/STM32G4xx_HAL_Driver/Src/stm32g4xx_hal_fdcan.c ****   hfdcan->ErrorCode = HAL_FDCAN_ERROR_NONE;
 539              		.loc 1 567 21
 540 002e 7B68     		ldr	r3, [r7, #4]
 541 0030 0022     		movs	r2, #0
 542 0032 1A66     		str	r2, [r3, #96]
 568:Drivers/STM32G4xx_HAL_Driver/Src/stm32g4xx_hal_fdcan.c **** 
 569:Drivers/STM32G4xx_HAL_Driver/Src/stm32g4xx_hal_fdcan.c ****   /* Change FDCAN state */
 570:Drivers/STM32G4xx_HAL_Driver/Src/stm32g4xx_hal_fdcan.c ****   hfdcan->State = HAL_FDCAN_STATE_RESET;
 543              		.loc 1 570 17
 544 0034 7B68     		ldr	r3, [r7, #4]
 545 0036 0022     		movs	r2, #0
 546 0038 83F85C20 		strb	r2, [r3, #92]
 571:Drivers/STM32G4xx_HAL_Driver/Src/stm32g4xx_hal_fdcan.c **** 
 572:Drivers/STM32G4xx_HAL_Driver/Src/stm32g4xx_hal_fdcan.c ****   /* Return function status */
 573:Drivers/STM32G4xx_HAL_Driver/Src/stm32g4xx_hal_fdcan.c ****   return HAL_OK;
 547              		.loc 1 573 10
 548 003c 0023     		movs	r3, #0
 549              	.L24:
 574:Drivers/STM32G4xx_HAL_Driver/Src/stm32g4xx_hal_fdcan.c **** }
 550              		.loc 1 574 1
ARM GAS  C:\Users\AURORA~1\AppData\Local\Temp\ccEbooPs.s 			page 21


 551 003e 1846     		mov	r0, r3
 552 0040 0837     		adds	r7, r7, #8
 553              	.LCFI8:
 554              		.cfi_def_cfa_offset 8
 555 0042 BD46     		mov	sp, r7
 556              	.LCFI9:
 557              		.cfi_def_cfa_register 13
 558              		@ sp needed
 559 0044 80BD     		pop	{r7, pc}
 560              		.cfi_endproc
 561              	.LFE133:
 563              		.section	.text.HAL_FDCAN_MspInit,"ax",%progbits
 564              		.align	1
 565              		.weak	HAL_FDCAN_MspInit
 566              		.syntax unified
 567              		.thumb
 568              		.thumb_func
 570              	HAL_FDCAN_MspInit:
 571              	.LFB134:
 575:Drivers/STM32G4xx_HAL_Driver/Src/stm32g4xx_hal_fdcan.c **** 
 576:Drivers/STM32G4xx_HAL_Driver/Src/stm32g4xx_hal_fdcan.c **** /**
 577:Drivers/STM32G4xx_HAL_Driver/Src/stm32g4xx_hal_fdcan.c ****   * @brief  Initializes the FDCAN MSP.
 578:Drivers/STM32G4xx_HAL_Driver/Src/stm32g4xx_hal_fdcan.c ****   * @param  hfdcan pointer to an FDCAN_HandleTypeDef structure that contains
 579:Drivers/STM32G4xx_HAL_Driver/Src/stm32g4xx_hal_fdcan.c ****   *         the configuration information for the specified FDCAN.
 580:Drivers/STM32G4xx_HAL_Driver/Src/stm32g4xx_hal_fdcan.c ****   * @retval None
 581:Drivers/STM32G4xx_HAL_Driver/Src/stm32g4xx_hal_fdcan.c ****   */
 582:Drivers/STM32G4xx_HAL_Driver/Src/stm32g4xx_hal_fdcan.c **** __weak void HAL_FDCAN_MspInit(FDCAN_HandleTypeDef *hfdcan)
 583:Drivers/STM32G4xx_HAL_Driver/Src/stm32g4xx_hal_fdcan.c **** {
 572              		.loc 1 583 1
 573              		.cfi_startproc
 574              		@ args = 0, pretend = 0, frame = 8
 575              		@ frame_needed = 1, uses_anonymous_args = 0
 576              		@ link register save eliminated.
 577 0000 80B4     		push	{r7}
 578              	.LCFI10:
 579              		.cfi_def_cfa_offset 4
 580              		.cfi_offset 7, -4
 581 0002 83B0     		sub	sp, sp, #12
 582              	.LCFI11:
 583              		.cfi_def_cfa_offset 16
 584 0004 00AF     		add	r7, sp, #0
 585              	.LCFI12:
 586              		.cfi_def_cfa_register 7
 587 0006 7860     		str	r0, [r7, #4]
 584:Drivers/STM32G4xx_HAL_Driver/Src/stm32g4xx_hal_fdcan.c ****   /* Prevent unused argument(s) compilation warning */
 585:Drivers/STM32G4xx_HAL_Driver/Src/stm32g4xx_hal_fdcan.c ****   UNUSED(hfdcan);
 586:Drivers/STM32G4xx_HAL_Driver/Src/stm32g4xx_hal_fdcan.c ****   /* NOTE: This function Should not be modified, when the callback is needed,
 587:Drivers/STM32G4xx_HAL_Driver/Src/stm32g4xx_hal_fdcan.c ****             the HAL_FDCAN_MspInit could be implemented in the user file
 588:Drivers/STM32G4xx_HAL_Driver/Src/stm32g4xx_hal_fdcan.c ****    */
 589:Drivers/STM32G4xx_HAL_Driver/Src/stm32g4xx_hal_fdcan.c **** }
 588              		.loc 1 589 1
 589 0008 00BF     		nop
 590 000a 0C37     		adds	r7, r7, #12
 591              	.LCFI13:
 592              		.cfi_def_cfa_offset 4
 593 000c BD46     		mov	sp, r7
 594              	.LCFI14:
ARM GAS  C:\Users\AURORA~1\AppData\Local\Temp\ccEbooPs.s 			page 22


 595              		.cfi_def_cfa_register 13
 596              		@ sp needed
 597 000e 5DF8047B 		ldr	r7, [sp], #4
 598              	.LCFI15:
 599              		.cfi_restore 7
 600              		.cfi_def_cfa_offset 0
 601 0012 7047     		bx	lr
 602              		.cfi_endproc
 603              	.LFE134:
 605              		.section	.text.HAL_FDCAN_MspDeInit,"ax",%progbits
 606              		.align	1
 607              		.weak	HAL_FDCAN_MspDeInit
 608              		.syntax unified
 609              		.thumb
 610              		.thumb_func
 612              	HAL_FDCAN_MspDeInit:
 613              	.LFB135:
 590:Drivers/STM32G4xx_HAL_Driver/Src/stm32g4xx_hal_fdcan.c **** 
 591:Drivers/STM32G4xx_HAL_Driver/Src/stm32g4xx_hal_fdcan.c **** /**
 592:Drivers/STM32G4xx_HAL_Driver/Src/stm32g4xx_hal_fdcan.c ****   * @brief  DeInitializes the FDCAN MSP.
 593:Drivers/STM32G4xx_HAL_Driver/Src/stm32g4xx_hal_fdcan.c ****   * @param  hfdcan pointer to an FDCAN_HandleTypeDef structure that contains
 594:Drivers/STM32G4xx_HAL_Driver/Src/stm32g4xx_hal_fdcan.c ****   *         the configuration information for the specified FDCAN.
 595:Drivers/STM32G4xx_HAL_Driver/Src/stm32g4xx_hal_fdcan.c ****   * @retval None
 596:Drivers/STM32G4xx_HAL_Driver/Src/stm32g4xx_hal_fdcan.c ****   */
 597:Drivers/STM32G4xx_HAL_Driver/Src/stm32g4xx_hal_fdcan.c **** __weak void HAL_FDCAN_MspDeInit(FDCAN_HandleTypeDef *hfdcan)
 598:Drivers/STM32G4xx_HAL_Driver/Src/stm32g4xx_hal_fdcan.c **** {
 614              		.loc 1 598 1
 615              		.cfi_startproc
 616              		@ args = 0, pretend = 0, frame = 8
 617              		@ frame_needed = 1, uses_anonymous_args = 0
 618              		@ link register save eliminated.
 619 0000 80B4     		push	{r7}
 620              	.LCFI16:
 621              		.cfi_def_cfa_offset 4
 622              		.cfi_offset 7, -4
 623 0002 83B0     		sub	sp, sp, #12
 624              	.LCFI17:
 625              		.cfi_def_cfa_offset 16
 626 0004 00AF     		add	r7, sp, #0
 627              	.LCFI18:
 628              		.cfi_def_cfa_register 7
 629 0006 7860     		str	r0, [r7, #4]
 599:Drivers/STM32G4xx_HAL_Driver/Src/stm32g4xx_hal_fdcan.c ****   /* Prevent unused argument(s) compilation warning */
 600:Drivers/STM32G4xx_HAL_Driver/Src/stm32g4xx_hal_fdcan.c ****   UNUSED(hfdcan);
 601:Drivers/STM32G4xx_HAL_Driver/Src/stm32g4xx_hal_fdcan.c ****   /* NOTE: This function Should not be modified, when the callback is needed,
 602:Drivers/STM32G4xx_HAL_Driver/Src/stm32g4xx_hal_fdcan.c ****             the HAL_FDCAN_MspDeInit could be implemented in the user file
 603:Drivers/STM32G4xx_HAL_Driver/Src/stm32g4xx_hal_fdcan.c ****    */
 604:Drivers/STM32G4xx_HAL_Driver/Src/stm32g4xx_hal_fdcan.c **** }
 630              		.loc 1 604 1
 631 0008 00BF     		nop
 632 000a 0C37     		adds	r7, r7, #12
 633              	.LCFI19:
 634              		.cfi_def_cfa_offset 4
 635 000c BD46     		mov	sp, r7
 636              	.LCFI20:
 637              		.cfi_def_cfa_register 13
 638              		@ sp needed
ARM GAS  C:\Users\AURORA~1\AppData\Local\Temp\ccEbooPs.s 			page 23


 639 000e 5DF8047B 		ldr	r7, [sp], #4
 640              	.LCFI21:
 641              		.cfi_restore 7
 642              		.cfi_def_cfa_offset 0
 643 0012 7047     		bx	lr
 644              		.cfi_endproc
 645              	.LFE135:
 647              		.section	.text.HAL_FDCAN_EnterPowerDownMode,"ax",%progbits
 648              		.align	1
 649              		.global	HAL_FDCAN_EnterPowerDownMode
 650              		.syntax unified
 651              		.thumb
 652              		.thumb_func
 654              	HAL_FDCAN_EnterPowerDownMode:
 655              	.LFB136:
 605:Drivers/STM32G4xx_HAL_Driver/Src/stm32g4xx_hal_fdcan.c **** 
 606:Drivers/STM32G4xx_HAL_Driver/Src/stm32g4xx_hal_fdcan.c **** /**
 607:Drivers/STM32G4xx_HAL_Driver/Src/stm32g4xx_hal_fdcan.c ****   * @brief  Enter FDCAN peripheral in sleep mode.
 608:Drivers/STM32G4xx_HAL_Driver/Src/stm32g4xx_hal_fdcan.c ****   * @param  hfdcan pointer to an FDCAN_HandleTypeDef structure that contains
 609:Drivers/STM32G4xx_HAL_Driver/Src/stm32g4xx_hal_fdcan.c ****   *         the configuration information for the specified FDCAN.
 610:Drivers/STM32G4xx_HAL_Driver/Src/stm32g4xx_hal_fdcan.c ****   * @retval HAL status
 611:Drivers/STM32G4xx_HAL_Driver/Src/stm32g4xx_hal_fdcan.c ****   */
 612:Drivers/STM32G4xx_HAL_Driver/Src/stm32g4xx_hal_fdcan.c **** HAL_StatusTypeDef HAL_FDCAN_EnterPowerDownMode(FDCAN_HandleTypeDef *hfdcan)
 613:Drivers/STM32G4xx_HAL_Driver/Src/stm32g4xx_hal_fdcan.c **** {
 656              		.loc 1 613 1
 657              		.cfi_startproc
 658              		@ args = 0, pretend = 0, frame = 16
 659              		@ frame_needed = 1, uses_anonymous_args = 0
 660 0000 80B5     		push	{r7, lr}
 661              	.LCFI22:
 662              		.cfi_def_cfa_offset 8
 663              		.cfi_offset 7, -8
 664              		.cfi_offset 14, -4
 665 0002 84B0     		sub	sp, sp, #16
 666              	.LCFI23:
 667              		.cfi_def_cfa_offset 24
 668 0004 00AF     		add	r7, sp, #0
 669              	.LCFI24:
 670              		.cfi_def_cfa_register 7
 671 0006 7860     		str	r0, [r7, #4]
 614:Drivers/STM32G4xx_HAL_Driver/Src/stm32g4xx_hal_fdcan.c ****   uint32_t tickstart;
 615:Drivers/STM32G4xx_HAL_Driver/Src/stm32g4xx_hal_fdcan.c **** 
 616:Drivers/STM32G4xx_HAL_Driver/Src/stm32g4xx_hal_fdcan.c ****   /* Request clock stop */
 617:Drivers/STM32G4xx_HAL_Driver/Src/stm32g4xx_hal_fdcan.c ****   SET_BIT(hfdcan->Instance->CCCR, FDCAN_CCCR_CSR);
 672              		.loc 1 617 3
 673 0008 7B68     		ldr	r3, [r7, #4]
 674 000a 1B68     		ldr	r3, [r3]
 675 000c 9A69     		ldr	r2, [r3, #24]
 676 000e 7B68     		ldr	r3, [r7, #4]
 677 0010 1B68     		ldr	r3, [r3]
 678 0012 42F01002 		orr	r2, r2, #16
 679 0016 9A61     		str	r2, [r3, #24]
 618:Drivers/STM32G4xx_HAL_Driver/Src/stm32g4xx_hal_fdcan.c **** 
 619:Drivers/STM32G4xx_HAL_Driver/Src/stm32g4xx_hal_fdcan.c ****   /* Get tick */
 620:Drivers/STM32G4xx_HAL_Driver/Src/stm32g4xx_hal_fdcan.c ****   tickstart = HAL_GetTick();
 680              		.loc 1 620 15
 681 0018 FFF7FEFF 		bl	HAL_GetTick
ARM GAS  C:\Users\AURORA~1\AppData\Local\Temp\ccEbooPs.s 			page 24


 682 001c F860     		str	r0, [r7, #12]
 621:Drivers/STM32G4xx_HAL_Driver/Src/stm32g4xx_hal_fdcan.c **** 
 622:Drivers/STM32G4xx_HAL_Driver/Src/stm32g4xx_hal_fdcan.c ****   /* Wait until FDCAN is ready for power down */
 623:Drivers/STM32G4xx_HAL_Driver/Src/stm32g4xx_hal_fdcan.c ****   while ((hfdcan->Instance->CCCR & FDCAN_CCCR_CSA) == 0U)
 683              		.loc 1 623 9
 684 001e 12E0     		b	.L28
 685              	.L30:
 624:Drivers/STM32G4xx_HAL_Driver/Src/stm32g4xx_hal_fdcan.c ****   {
 625:Drivers/STM32G4xx_HAL_Driver/Src/stm32g4xx_hal_fdcan.c ****     if ((HAL_GetTick() - tickstart) > FDCAN_TIMEOUT_VALUE)
 686              		.loc 1 625 10
 687 0020 FFF7FEFF 		bl	HAL_GetTick
 688 0024 0246     		mov	r2, r0
 689              		.loc 1 625 24 discriminator 1
 690 0026 FB68     		ldr	r3, [r7, #12]
 691 0028 D31A     		subs	r3, r2, r3
 692              		.loc 1 625 8 discriminator 1
 693 002a 0A2B     		cmp	r3, #10
 694 002c 0BD9     		bls	.L28
 626:Drivers/STM32G4xx_HAL_Driver/Src/stm32g4xx_hal_fdcan.c ****     {
 627:Drivers/STM32G4xx_HAL_Driver/Src/stm32g4xx_hal_fdcan.c ****       /* Update error code */
 628:Drivers/STM32G4xx_HAL_Driver/Src/stm32g4xx_hal_fdcan.c ****       hfdcan->ErrorCode |= HAL_FDCAN_ERROR_TIMEOUT;
 695              		.loc 1 628 13
 696 002e 7B68     		ldr	r3, [r7, #4]
 697 0030 1B6E     		ldr	r3, [r3, #96]
 698              		.loc 1 628 25
 699 0032 43F00102 		orr	r2, r3, #1
 700 0036 7B68     		ldr	r3, [r7, #4]
 701 0038 1A66     		str	r2, [r3, #96]
 629:Drivers/STM32G4xx_HAL_Driver/Src/stm32g4xx_hal_fdcan.c **** 
 630:Drivers/STM32G4xx_HAL_Driver/Src/stm32g4xx_hal_fdcan.c ****       /* Change FDCAN state */
 631:Drivers/STM32G4xx_HAL_Driver/Src/stm32g4xx_hal_fdcan.c ****       hfdcan->State = HAL_FDCAN_STATE_ERROR;
 702              		.loc 1 631 21
 703 003a 7B68     		ldr	r3, [r7, #4]
 704 003c 0322     		movs	r2, #3
 705 003e 83F85C20 		strb	r2, [r3, #92]
 632:Drivers/STM32G4xx_HAL_Driver/Src/stm32g4xx_hal_fdcan.c **** 
 633:Drivers/STM32G4xx_HAL_Driver/Src/stm32g4xx_hal_fdcan.c ****       return HAL_ERROR;
 706              		.loc 1 633 14
 707 0042 0123     		movs	r3, #1
 708 0044 07E0     		b	.L29
 709              	.L28:
 623:Drivers/STM32G4xx_HAL_Driver/Src/stm32g4xx_hal_fdcan.c ****   {
 710              		.loc 1 623 17
 711 0046 7B68     		ldr	r3, [r7, #4]
 712 0048 1B68     		ldr	r3, [r3]
 623:Drivers/STM32G4xx_HAL_Driver/Src/stm32g4xx_hal_fdcan.c ****   {
 713              		.loc 1 623 27
 714 004a 9B69     		ldr	r3, [r3, #24]
 623:Drivers/STM32G4xx_HAL_Driver/Src/stm32g4xx_hal_fdcan.c ****   {
 715              		.loc 1 623 34
 716 004c 03F00803 		and	r3, r3, #8
 623:Drivers/STM32G4xx_HAL_Driver/Src/stm32g4xx_hal_fdcan.c ****   {
 717              		.loc 1 623 52
 718 0050 002B     		cmp	r3, #0
 719 0052 E5D0     		beq	.L30
 634:Drivers/STM32G4xx_HAL_Driver/Src/stm32g4xx_hal_fdcan.c ****     }
 635:Drivers/STM32G4xx_HAL_Driver/Src/stm32g4xx_hal_fdcan.c ****   }
ARM GAS  C:\Users\AURORA~1\AppData\Local\Temp\ccEbooPs.s 			page 25


 636:Drivers/STM32G4xx_HAL_Driver/Src/stm32g4xx_hal_fdcan.c **** 
 637:Drivers/STM32G4xx_HAL_Driver/Src/stm32g4xx_hal_fdcan.c ****   /* Return function status */
 638:Drivers/STM32G4xx_HAL_Driver/Src/stm32g4xx_hal_fdcan.c ****   return HAL_OK;
 720              		.loc 1 638 10
 721 0054 0023     		movs	r3, #0
 722              	.L29:
 639:Drivers/STM32G4xx_HAL_Driver/Src/stm32g4xx_hal_fdcan.c **** }
 723              		.loc 1 639 1
 724 0056 1846     		mov	r0, r3
 725 0058 1037     		adds	r7, r7, #16
 726              	.LCFI25:
 727              		.cfi_def_cfa_offset 8
 728 005a BD46     		mov	sp, r7
 729              	.LCFI26:
 730              		.cfi_def_cfa_register 13
 731              		@ sp needed
 732 005c 80BD     		pop	{r7, pc}
 733              		.cfi_endproc
 734              	.LFE136:
 736              		.section	.text.HAL_FDCAN_ExitPowerDownMode,"ax",%progbits
 737              		.align	1
 738              		.global	HAL_FDCAN_ExitPowerDownMode
 739              		.syntax unified
 740              		.thumb
 741              		.thumb_func
 743              	HAL_FDCAN_ExitPowerDownMode:
 744              	.LFB137:
 640:Drivers/STM32G4xx_HAL_Driver/Src/stm32g4xx_hal_fdcan.c **** 
 641:Drivers/STM32G4xx_HAL_Driver/Src/stm32g4xx_hal_fdcan.c **** /**
 642:Drivers/STM32G4xx_HAL_Driver/Src/stm32g4xx_hal_fdcan.c ****   * @brief  Exit power down mode.
 643:Drivers/STM32G4xx_HAL_Driver/Src/stm32g4xx_hal_fdcan.c ****   * @param  hfdcan pointer to an FDCAN_HandleTypeDef structure that contains
 644:Drivers/STM32G4xx_HAL_Driver/Src/stm32g4xx_hal_fdcan.c ****   *         the configuration information for the specified FDCAN.
 645:Drivers/STM32G4xx_HAL_Driver/Src/stm32g4xx_hal_fdcan.c ****   * @retval HAL status
 646:Drivers/STM32G4xx_HAL_Driver/Src/stm32g4xx_hal_fdcan.c ****   */
 647:Drivers/STM32G4xx_HAL_Driver/Src/stm32g4xx_hal_fdcan.c **** HAL_StatusTypeDef HAL_FDCAN_ExitPowerDownMode(FDCAN_HandleTypeDef *hfdcan)
 648:Drivers/STM32G4xx_HAL_Driver/Src/stm32g4xx_hal_fdcan.c **** {
 745              		.loc 1 648 1
 746              		.cfi_startproc
 747              		@ args = 0, pretend = 0, frame = 16
 748              		@ frame_needed = 1, uses_anonymous_args = 0
 749 0000 80B5     		push	{r7, lr}
 750              	.LCFI27:
 751              		.cfi_def_cfa_offset 8
 752              		.cfi_offset 7, -8
 753              		.cfi_offset 14, -4
 754 0002 84B0     		sub	sp, sp, #16
 755              	.LCFI28:
 756              		.cfi_def_cfa_offset 24
 757 0004 00AF     		add	r7, sp, #0
 758              	.LCFI29:
 759              		.cfi_def_cfa_register 7
 760 0006 7860     		str	r0, [r7, #4]
 649:Drivers/STM32G4xx_HAL_Driver/Src/stm32g4xx_hal_fdcan.c ****   uint32_t tickstart;
 650:Drivers/STM32G4xx_HAL_Driver/Src/stm32g4xx_hal_fdcan.c **** 
 651:Drivers/STM32G4xx_HAL_Driver/Src/stm32g4xx_hal_fdcan.c ****   /* Reset clock stop request */
 652:Drivers/STM32G4xx_HAL_Driver/Src/stm32g4xx_hal_fdcan.c ****   CLEAR_BIT(hfdcan->Instance->CCCR, FDCAN_CCCR_CSR);
 761              		.loc 1 652 3
ARM GAS  C:\Users\AURORA~1\AppData\Local\Temp\ccEbooPs.s 			page 26


 762 0008 7B68     		ldr	r3, [r7, #4]
 763 000a 1B68     		ldr	r3, [r3]
 764 000c 9A69     		ldr	r2, [r3, #24]
 765 000e 7B68     		ldr	r3, [r7, #4]
 766 0010 1B68     		ldr	r3, [r3]
 767 0012 22F01002 		bic	r2, r2, #16
 768 0016 9A61     		str	r2, [r3, #24]
 653:Drivers/STM32G4xx_HAL_Driver/Src/stm32g4xx_hal_fdcan.c **** 
 654:Drivers/STM32G4xx_HAL_Driver/Src/stm32g4xx_hal_fdcan.c ****   /* Get tick */
 655:Drivers/STM32G4xx_HAL_Driver/Src/stm32g4xx_hal_fdcan.c ****   tickstart = HAL_GetTick();
 769              		.loc 1 655 15
 770 0018 FFF7FEFF 		bl	HAL_GetTick
 771 001c F860     		str	r0, [r7, #12]
 656:Drivers/STM32G4xx_HAL_Driver/Src/stm32g4xx_hal_fdcan.c **** 
 657:Drivers/STM32G4xx_HAL_Driver/Src/stm32g4xx_hal_fdcan.c ****   /* Wait until FDCAN exits sleep mode */
 658:Drivers/STM32G4xx_HAL_Driver/Src/stm32g4xx_hal_fdcan.c ****   while ((hfdcan->Instance->CCCR & FDCAN_CCCR_CSA) == FDCAN_CCCR_CSA)
 772              		.loc 1 658 9
 773 001e 12E0     		b	.L32
 774              	.L34:
 659:Drivers/STM32G4xx_HAL_Driver/Src/stm32g4xx_hal_fdcan.c ****   {
 660:Drivers/STM32G4xx_HAL_Driver/Src/stm32g4xx_hal_fdcan.c ****     if ((HAL_GetTick() - tickstart) > FDCAN_TIMEOUT_VALUE)
 775              		.loc 1 660 10
 776 0020 FFF7FEFF 		bl	HAL_GetTick
 777 0024 0246     		mov	r2, r0
 778              		.loc 1 660 24 discriminator 1
 779 0026 FB68     		ldr	r3, [r7, #12]
 780 0028 D31A     		subs	r3, r2, r3
 781              		.loc 1 660 8 discriminator 1
 782 002a 0A2B     		cmp	r3, #10
 783 002c 0BD9     		bls	.L32
 661:Drivers/STM32G4xx_HAL_Driver/Src/stm32g4xx_hal_fdcan.c ****     {
 662:Drivers/STM32G4xx_HAL_Driver/Src/stm32g4xx_hal_fdcan.c ****       /* Update error code */
 663:Drivers/STM32G4xx_HAL_Driver/Src/stm32g4xx_hal_fdcan.c ****       hfdcan->ErrorCode |= HAL_FDCAN_ERROR_TIMEOUT;
 784              		.loc 1 663 13
 785 002e 7B68     		ldr	r3, [r7, #4]
 786 0030 1B6E     		ldr	r3, [r3, #96]
 787              		.loc 1 663 25
 788 0032 43F00102 		orr	r2, r3, #1
 789 0036 7B68     		ldr	r3, [r7, #4]
 790 0038 1A66     		str	r2, [r3, #96]
 664:Drivers/STM32G4xx_HAL_Driver/Src/stm32g4xx_hal_fdcan.c **** 
 665:Drivers/STM32G4xx_HAL_Driver/Src/stm32g4xx_hal_fdcan.c ****       /* Change FDCAN state */
 666:Drivers/STM32G4xx_HAL_Driver/Src/stm32g4xx_hal_fdcan.c ****       hfdcan->State = HAL_FDCAN_STATE_ERROR;
 791              		.loc 1 666 21
 792 003a 7B68     		ldr	r3, [r7, #4]
 793 003c 0322     		movs	r2, #3
 794 003e 83F85C20 		strb	r2, [r3, #92]
 667:Drivers/STM32G4xx_HAL_Driver/Src/stm32g4xx_hal_fdcan.c **** 
 668:Drivers/STM32G4xx_HAL_Driver/Src/stm32g4xx_hal_fdcan.c ****       return HAL_ERROR;
 795              		.loc 1 668 14
 796 0042 0123     		movs	r3, #1
 797 0044 0FE0     		b	.L33
 798              	.L32:
 658:Drivers/STM32G4xx_HAL_Driver/Src/stm32g4xx_hal_fdcan.c ****   {
 799              		.loc 1 658 17
 800 0046 7B68     		ldr	r3, [r7, #4]
 801 0048 1B68     		ldr	r3, [r3]
ARM GAS  C:\Users\AURORA~1\AppData\Local\Temp\ccEbooPs.s 			page 27


 658:Drivers/STM32G4xx_HAL_Driver/Src/stm32g4xx_hal_fdcan.c ****   {
 802              		.loc 1 658 27
 803 004a 9B69     		ldr	r3, [r3, #24]
 658:Drivers/STM32G4xx_HAL_Driver/Src/stm32g4xx_hal_fdcan.c ****   {
 804              		.loc 1 658 34
 805 004c 03F00803 		and	r3, r3, #8
 658:Drivers/STM32G4xx_HAL_Driver/Src/stm32g4xx_hal_fdcan.c ****   {
 806              		.loc 1 658 52
 807 0050 082B     		cmp	r3, #8
 808 0052 E5D0     		beq	.L34
 669:Drivers/STM32G4xx_HAL_Driver/Src/stm32g4xx_hal_fdcan.c ****     }
 670:Drivers/STM32G4xx_HAL_Driver/Src/stm32g4xx_hal_fdcan.c ****   }
 671:Drivers/STM32G4xx_HAL_Driver/Src/stm32g4xx_hal_fdcan.c **** 
 672:Drivers/STM32G4xx_HAL_Driver/Src/stm32g4xx_hal_fdcan.c ****   /* Enter normal operation */
 673:Drivers/STM32G4xx_HAL_Driver/Src/stm32g4xx_hal_fdcan.c ****   CLEAR_BIT(hfdcan->Instance->CCCR, FDCAN_CCCR_INIT);
 809              		.loc 1 673 3
 810 0054 7B68     		ldr	r3, [r7, #4]
 811 0056 1B68     		ldr	r3, [r3]
 812 0058 9A69     		ldr	r2, [r3, #24]
 813 005a 7B68     		ldr	r3, [r7, #4]
 814 005c 1B68     		ldr	r3, [r3]
 815 005e 22F00102 		bic	r2, r2, #1
 816 0062 9A61     		str	r2, [r3, #24]
 674:Drivers/STM32G4xx_HAL_Driver/Src/stm32g4xx_hal_fdcan.c **** 
 675:Drivers/STM32G4xx_HAL_Driver/Src/stm32g4xx_hal_fdcan.c ****   /* Return function status */
 676:Drivers/STM32G4xx_HAL_Driver/Src/stm32g4xx_hal_fdcan.c ****   return HAL_OK;
 817              		.loc 1 676 10
 818 0064 0023     		movs	r3, #0
 819              	.L33:
 677:Drivers/STM32G4xx_HAL_Driver/Src/stm32g4xx_hal_fdcan.c **** }
 820              		.loc 1 677 1
 821 0066 1846     		mov	r0, r3
 822 0068 1037     		adds	r7, r7, #16
 823              	.LCFI30:
 824              		.cfi_def_cfa_offset 8
 825 006a BD46     		mov	sp, r7
 826              	.LCFI31:
 827              		.cfi_def_cfa_register 13
 828              		@ sp needed
 829 006c 80BD     		pop	{r7, pc}
 830              		.cfi_endproc
 831              	.LFE137:
 833              		.section	.text.HAL_FDCAN_ConfigFilter,"ax",%progbits
 834              		.align	1
 835              		.global	HAL_FDCAN_ConfigFilter
 836              		.syntax unified
 837              		.thumb
 838              		.thumb_func
 840              	HAL_FDCAN_ConfigFilter:
 841              	.LFB138:
 678:Drivers/STM32G4xx_HAL_Driver/Src/stm32g4xx_hal_fdcan.c **** 
 679:Drivers/STM32G4xx_HAL_Driver/Src/stm32g4xx_hal_fdcan.c **** #if USE_HAL_FDCAN_REGISTER_CALLBACKS == 1
 680:Drivers/STM32G4xx_HAL_Driver/Src/stm32g4xx_hal_fdcan.c **** /**
 681:Drivers/STM32G4xx_HAL_Driver/Src/stm32g4xx_hal_fdcan.c ****   * @brief  Register a FDCAN CallBack.
 682:Drivers/STM32G4xx_HAL_Driver/Src/stm32g4xx_hal_fdcan.c ****   *         To be used instead of the weak predefined callback
 683:Drivers/STM32G4xx_HAL_Driver/Src/stm32g4xx_hal_fdcan.c ****   * @param  hfdcan pointer to a FDCAN_HandleTypeDef structure that contains
 684:Drivers/STM32G4xx_HAL_Driver/Src/stm32g4xx_hal_fdcan.c ****   *         the configuration information for FDCAN module
ARM GAS  C:\Users\AURORA~1\AppData\Local\Temp\ccEbooPs.s 			page 28


 685:Drivers/STM32G4xx_HAL_Driver/Src/stm32g4xx_hal_fdcan.c ****   * @param  CallbackID ID of the callback to be registered
 686:Drivers/STM32G4xx_HAL_Driver/Src/stm32g4xx_hal_fdcan.c ****   *         This parameter can be one of the following values:
 687:Drivers/STM32G4xx_HAL_Driver/Src/stm32g4xx_hal_fdcan.c ****   *           @arg @ref HAL_FDCAN_TX_FIFO_EMPTY_CB_ID Tx Fifo Empty callback ID
 688:Drivers/STM32G4xx_HAL_Driver/Src/stm32g4xx_hal_fdcan.c ****   *           @arg @ref HAL_FDCAN_HIGH_PRIO_MESSAGE_CB_ID High priority message callback ID
 689:Drivers/STM32G4xx_HAL_Driver/Src/stm32g4xx_hal_fdcan.c ****   *           @arg @ref HAL_FDCAN_TIMESTAMP_WRAPAROUND_CB_ID Timestamp wraparound callback ID
 690:Drivers/STM32G4xx_HAL_Driver/Src/stm32g4xx_hal_fdcan.c ****   *           @arg @ref HAL_FDCAN_TIMEOUT_OCCURRED_CB_ID Timeout occurred callback ID
 691:Drivers/STM32G4xx_HAL_Driver/Src/stm32g4xx_hal_fdcan.c ****   *           @arg @ref HAL_FDCAN_ERROR_CALLBACK_CB_ID Error callback ID
 692:Drivers/STM32G4xx_HAL_Driver/Src/stm32g4xx_hal_fdcan.c ****   *           @arg @ref HAL_FDCAN_MSPINIT_CB_ID MspInit callback ID
 693:Drivers/STM32G4xx_HAL_Driver/Src/stm32g4xx_hal_fdcan.c ****   *           @arg @ref HAL_FDCAN_MSPDEINIT_CB_ID MspDeInit callback ID
 694:Drivers/STM32G4xx_HAL_Driver/Src/stm32g4xx_hal_fdcan.c ****   * @param  pCallback pointer to the Callback function
 695:Drivers/STM32G4xx_HAL_Driver/Src/stm32g4xx_hal_fdcan.c ****   * @retval HAL status
 696:Drivers/STM32G4xx_HAL_Driver/Src/stm32g4xx_hal_fdcan.c ****   */
 697:Drivers/STM32G4xx_HAL_Driver/Src/stm32g4xx_hal_fdcan.c **** HAL_StatusTypeDef HAL_FDCAN_RegisterCallback(FDCAN_HandleTypeDef *hfdcan, HAL_FDCAN_CallbackIDTypeD
 698:Drivers/STM32G4xx_HAL_Driver/Src/stm32g4xx_hal_fdcan.c ****                                              void (* pCallback)(FDCAN_HandleTypeDef *_hFDCAN))
 699:Drivers/STM32G4xx_HAL_Driver/Src/stm32g4xx_hal_fdcan.c **** {
 700:Drivers/STM32G4xx_HAL_Driver/Src/stm32g4xx_hal_fdcan.c ****   HAL_StatusTypeDef status = HAL_OK;
 701:Drivers/STM32G4xx_HAL_Driver/Src/stm32g4xx_hal_fdcan.c **** 
 702:Drivers/STM32G4xx_HAL_Driver/Src/stm32g4xx_hal_fdcan.c ****   if (pCallback == NULL)
 703:Drivers/STM32G4xx_HAL_Driver/Src/stm32g4xx_hal_fdcan.c ****   {
 704:Drivers/STM32G4xx_HAL_Driver/Src/stm32g4xx_hal_fdcan.c ****     /* Update the error code */
 705:Drivers/STM32G4xx_HAL_Driver/Src/stm32g4xx_hal_fdcan.c ****     hfdcan->ErrorCode |= HAL_FDCAN_ERROR_INVALID_CALLBACK;
 706:Drivers/STM32G4xx_HAL_Driver/Src/stm32g4xx_hal_fdcan.c **** 
 707:Drivers/STM32G4xx_HAL_Driver/Src/stm32g4xx_hal_fdcan.c ****     return HAL_ERROR;
 708:Drivers/STM32G4xx_HAL_Driver/Src/stm32g4xx_hal_fdcan.c ****   }
 709:Drivers/STM32G4xx_HAL_Driver/Src/stm32g4xx_hal_fdcan.c **** 
 710:Drivers/STM32G4xx_HAL_Driver/Src/stm32g4xx_hal_fdcan.c ****   if (hfdcan->State == HAL_FDCAN_STATE_READY)
 711:Drivers/STM32G4xx_HAL_Driver/Src/stm32g4xx_hal_fdcan.c ****   {
 712:Drivers/STM32G4xx_HAL_Driver/Src/stm32g4xx_hal_fdcan.c ****     switch (CallbackID)
 713:Drivers/STM32G4xx_HAL_Driver/Src/stm32g4xx_hal_fdcan.c ****     {
 714:Drivers/STM32G4xx_HAL_Driver/Src/stm32g4xx_hal_fdcan.c ****       case HAL_FDCAN_TX_FIFO_EMPTY_CB_ID :
 715:Drivers/STM32G4xx_HAL_Driver/Src/stm32g4xx_hal_fdcan.c ****         hfdcan->TxFifoEmptyCallback = pCallback;
 716:Drivers/STM32G4xx_HAL_Driver/Src/stm32g4xx_hal_fdcan.c ****         break;
 717:Drivers/STM32G4xx_HAL_Driver/Src/stm32g4xx_hal_fdcan.c **** 
 718:Drivers/STM32G4xx_HAL_Driver/Src/stm32g4xx_hal_fdcan.c ****       case HAL_FDCAN_HIGH_PRIO_MESSAGE_CB_ID :
 719:Drivers/STM32G4xx_HAL_Driver/Src/stm32g4xx_hal_fdcan.c ****         hfdcan->HighPriorityMessageCallback = pCallback;
 720:Drivers/STM32G4xx_HAL_Driver/Src/stm32g4xx_hal_fdcan.c ****         break;
 721:Drivers/STM32G4xx_HAL_Driver/Src/stm32g4xx_hal_fdcan.c **** 
 722:Drivers/STM32G4xx_HAL_Driver/Src/stm32g4xx_hal_fdcan.c ****       case HAL_FDCAN_TIMESTAMP_WRAPAROUND_CB_ID :
 723:Drivers/STM32G4xx_HAL_Driver/Src/stm32g4xx_hal_fdcan.c ****         hfdcan->TimestampWraparoundCallback = pCallback;
 724:Drivers/STM32G4xx_HAL_Driver/Src/stm32g4xx_hal_fdcan.c ****         break;
 725:Drivers/STM32G4xx_HAL_Driver/Src/stm32g4xx_hal_fdcan.c **** 
 726:Drivers/STM32G4xx_HAL_Driver/Src/stm32g4xx_hal_fdcan.c ****       case HAL_FDCAN_TIMEOUT_OCCURRED_CB_ID :
 727:Drivers/STM32G4xx_HAL_Driver/Src/stm32g4xx_hal_fdcan.c ****         hfdcan->TimeoutOccurredCallback = pCallback;
 728:Drivers/STM32G4xx_HAL_Driver/Src/stm32g4xx_hal_fdcan.c ****         break;
 729:Drivers/STM32G4xx_HAL_Driver/Src/stm32g4xx_hal_fdcan.c **** 
 730:Drivers/STM32G4xx_HAL_Driver/Src/stm32g4xx_hal_fdcan.c ****       case HAL_FDCAN_ERROR_CALLBACK_CB_ID :
 731:Drivers/STM32G4xx_HAL_Driver/Src/stm32g4xx_hal_fdcan.c ****         hfdcan->ErrorCallback = pCallback;
 732:Drivers/STM32G4xx_HAL_Driver/Src/stm32g4xx_hal_fdcan.c ****         break;
 733:Drivers/STM32G4xx_HAL_Driver/Src/stm32g4xx_hal_fdcan.c **** 
 734:Drivers/STM32G4xx_HAL_Driver/Src/stm32g4xx_hal_fdcan.c ****       case HAL_FDCAN_MSPINIT_CB_ID :
 735:Drivers/STM32G4xx_HAL_Driver/Src/stm32g4xx_hal_fdcan.c ****         hfdcan->MspInitCallback = pCallback;
 736:Drivers/STM32G4xx_HAL_Driver/Src/stm32g4xx_hal_fdcan.c ****         break;
 737:Drivers/STM32G4xx_HAL_Driver/Src/stm32g4xx_hal_fdcan.c **** 
 738:Drivers/STM32G4xx_HAL_Driver/Src/stm32g4xx_hal_fdcan.c ****       case HAL_FDCAN_MSPDEINIT_CB_ID :
 739:Drivers/STM32G4xx_HAL_Driver/Src/stm32g4xx_hal_fdcan.c ****         hfdcan->MspDeInitCallback = pCallback;
 740:Drivers/STM32G4xx_HAL_Driver/Src/stm32g4xx_hal_fdcan.c ****         break;
 741:Drivers/STM32G4xx_HAL_Driver/Src/stm32g4xx_hal_fdcan.c **** 
ARM GAS  C:\Users\AURORA~1\AppData\Local\Temp\ccEbooPs.s 			page 29


 742:Drivers/STM32G4xx_HAL_Driver/Src/stm32g4xx_hal_fdcan.c ****       default :
 743:Drivers/STM32G4xx_HAL_Driver/Src/stm32g4xx_hal_fdcan.c ****         /* Update the error code */
 744:Drivers/STM32G4xx_HAL_Driver/Src/stm32g4xx_hal_fdcan.c ****         hfdcan->ErrorCode |= HAL_FDCAN_ERROR_INVALID_CALLBACK;
 745:Drivers/STM32G4xx_HAL_Driver/Src/stm32g4xx_hal_fdcan.c **** 
 746:Drivers/STM32G4xx_HAL_Driver/Src/stm32g4xx_hal_fdcan.c ****         /* Return error status */
 747:Drivers/STM32G4xx_HAL_Driver/Src/stm32g4xx_hal_fdcan.c ****         status =  HAL_ERROR;
 748:Drivers/STM32G4xx_HAL_Driver/Src/stm32g4xx_hal_fdcan.c ****         break;
 749:Drivers/STM32G4xx_HAL_Driver/Src/stm32g4xx_hal_fdcan.c ****     }
 750:Drivers/STM32G4xx_HAL_Driver/Src/stm32g4xx_hal_fdcan.c ****   }
 751:Drivers/STM32G4xx_HAL_Driver/Src/stm32g4xx_hal_fdcan.c ****   else if (hfdcan->State == HAL_FDCAN_STATE_RESET)
 752:Drivers/STM32G4xx_HAL_Driver/Src/stm32g4xx_hal_fdcan.c ****   {
 753:Drivers/STM32G4xx_HAL_Driver/Src/stm32g4xx_hal_fdcan.c ****     switch (CallbackID)
 754:Drivers/STM32G4xx_HAL_Driver/Src/stm32g4xx_hal_fdcan.c ****     {
 755:Drivers/STM32G4xx_HAL_Driver/Src/stm32g4xx_hal_fdcan.c ****       case HAL_FDCAN_MSPINIT_CB_ID :
 756:Drivers/STM32G4xx_HAL_Driver/Src/stm32g4xx_hal_fdcan.c ****         hfdcan->MspInitCallback = pCallback;
 757:Drivers/STM32G4xx_HAL_Driver/Src/stm32g4xx_hal_fdcan.c ****         break;
 758:Drivers/STM32G4xx_HAL_Driver/Src/stm32g4xx_hal_fdcan.c **** 
 759:Drivers/STM32G4xx_HAL_Driver/Src/stm32g4xx_hal_fdcan.c ****       case HAL_FDCAN_MSPDEINIT_CB_ID :
 760:Drivers/STM32G4xx_HAL_Driver/Src/stm32g4xx_hal_fdcan.c ****         hfdcan->MspDeInitCallback = pCallback;
 761:Drivers/STM32G4xx_HAL_Driver/Src/stm32g4xx_hal_fdcan.c ****         break;
 762:Drivers/STM32G4xx_HAL_Driver/Src/stm32g4xx_hal_fdcan.c **** 
 763:Drivers/STM32G4xx_HAL_Driver/Src/stm32g4xx_hal_fdcan.c ****       default :
 764:Drivers/STM32G4xx_HAL_Driver/Src/stm32g4xx_hal_fdcan.c ****         /* Update the error code */
 765:Drivers/STM32G4xx_HAL_Driver/Src/stm32g4xx_hal_fdcan.c ****         hfdcan->ErrorCode |= HAL_FDCAN_ERROR_INVALID_CALLBACK;
 766:Drivers/STM32G4xx_HAL_Driver/Src/stm32g4xx_hal_fdcan.c **** 
 767:Drivers/STM32G4xx_HAL_Driver/Src/stm32g4xx_hal_fdcan.c ****         /* Return error status */
 768:Drivers/STM32G4xx_HAL_Driver/Src/stm32g4xx_hal_fdcan.c ****         status =  HAL_ERROR;
 769:Drivers/STM32G4xx_HAL_Driver/Src/stm32g4xx_hal_fdcan.c ****         break;
 770:Drivers/STM32G4xx_HAL_Driver/Src/stm32g4xx_hal_fdcan.c ****     }
 771:Drivers/STM32G4xx_HAL_Driver/Src/stm32g4xx_hal_fdcan.c ****   }
 772:Drivers/STM32G4xx_HAL_Driver/Src/stm32g4xx_hal_fdcan.c ****   else
 773:Drivers/STM32G4xx_HAL_Driver/Src/stm32g4xx_hal_fdcan.c ****   {
 774:Drivers/STM32G4xx_HAL_Driver/Src/stm32g4xx_hal_fdcan.c ****     /* Update the error code */
 775:Drivers/STM32G4xx_HAL_Driver/Src/stm32g4xx_hal_fdcan.c ****     hfdcan->ErrorCode |= HAL_FDCAN_ERROR_INVALID_CALLBACK;
 776:Drivers/STM32G4xx_HAL_Driver/Src/stm32g4xx_hal_fdcan.c **** 
 777:Drivers/STM32G4xx_HAL_Driver/Src/stm32g4xx_hal_fdcan.c ****     /* Return error status */
 778:Drivers/STM32G4xx_HAL_Driver/Src/stm32g4xx_hal_fdcan.c ****     status =  HAL_ERROR;
 779:Drivers/STM32G4xx_HAL_Driver/Src/stm32g4xx_hal_fdcan.c ****   }
 780:Drivers/STM32G4xx_HAL_Driver/Src/stm32g4xx_hal_fdcan.c **** 
 781:Drivers/STM32G4xx_HAL_Driver/Src/stm32g4xx_hal_fdcan.c ****   return status;
 782:Drivers/STM32G4xx_HAL_Driver/Src/stm32g4xx_hal_fdcan.c **** }
 783:Drivers/STM32G4xx_HAL_Driver/Src/stm32g4xx_hal_fdcan.c **** 
 784:Drivers/STM32G4xx_HAL_Driver/Src/stm32g4xx_hal_fdcan.c **** /**
 785:Drivers/STM32G4xx_HAL_Driver/Src/stm32g4xx_hal_fdcan.c ****   * @brief  Unregister a FDCAN CallBack.
 786:Drivers/STM32G4xx_HAL_Driver/Src/stm32g4xx_hal_fdcan.c ****   *         FDCAN callback is redirected to the weak predefined callback
 787:Drivers/STM32G4xx_HAL_Driver/Src/stm32g4xx_hal_fdcan.c ****   * @param  hfdcan pointer to a FDCAN_HandleTypeDef structure that contains
 788:Drivers/STM32G4xx_HAL_Driver/Src/stm32g4xx_hal_fdcan.c ****   *         the configuration information for FDCAN module
 789:Drivers/STM32G4xx_HAL_Driver/Src/stm32g4xx_hal_fdcan.c ****   * @param  CallbackID ID of the callback to be unregistered
 790:Drivers/STM32G4xx_HAL_Driver/Src/stm32g4xx_hal_fdcan.c ****   *         This parameter can be one of the following values:
 791:Drivers/STM32G4xx_HAL_Driver/Src/stm32g4xx_hal_fdcan.c ****   *           @arg @ref HAL_FDCAN_TX_FIFO_EMPTY_CB_ID Tx Fifo Empty callback ID
 792:Drivers/STM32G4xx_HAL_Driver/Src/stm32g4xx_hal_fdcan.c ****   *           @arg @ref HAL_FDCAN_HIGH_PRIO_MESSAGE_CB_ID High priority message callback ID
 793:Drivers/STM32G4xx_HAL_Driver/Src/stm32g4xx_hal_fdcan.c ****   *           @arg @ref HAL_FDCAN_TIMESTAMP_WRAPAROUND_CB_ID Timestamp wraparound callback ID
 794:Drivers/STM32G4xx_HAL_Driver/Src/stm32g4xx_hal_fdcan.c ****   *           @arg @ref HAL_FDCAN_TIMEOUT_OCCURRED_CB_ID Timeout occurred callback ID
 795:Drivers/STM32G4xx_HAL_Driver/Src/stm32g4xx_hal_fdcan.c ****   *           @arg @ref HAL_FDCAN_ERROR_CALLBACK_CB_ID Error callback ID
 796:Drivers/STM32G4xx_HAL_Driver/Src/stm32g4xx_hal_fdcan.c ****   *           @arg @ref HAL_FDCAN_MSPINIT_CB_ID MspInit callback ID
 797:Drivers/STM32G4xx_HAL_Driver/Src/stm32g4xx_hal_fdcan.c ****   *           @arg @ref HAL_FDCAN_MSPDEINIT_CB_ID MspDeInit callback ID
 798:Drivers/STM32G4xx_HAL_Driver/Src/stm32g4xx_hal_fdcan.c ****   * @retval HAL status
ARM GAS  C:\Users\AURORA~1\AppData\Local\Temp\ccEbooPs.s 			page 30


 799:Drivers/STM32G4xx_HAL_Driver/Src/stm32g4xx_hal_fdcan.c ****   */
 800:Drivers/STM32G4xx_HAL_Driver/Src/stm32g4xx_hal_fdcan.c **** HAL_StatusTypeDef HAL_FDCAN_UnRegisterCallback(FDCAN_HandleTypeDef *hfdcan, HAL_FDCAN_CallbackIDTyp
 801:Drivers/STM32G4xx_HAL_Driver/Src/stm32g4xx_hal_fdcan.c **** {
 802:Drivers/STM32G4xx_HAL_Driver/Src/stm32g4xx_hal_fdcan.c ****   HAL_StatusTypeDef status = HAL_OK;
 803:Drivers/STM32G4xx_HAL_Driver/Src/stm32g4xx_hal_fdcan.c **** 
 804:Drivers/STM32G4xx_HAL_Driver/Src/stm32g4xx_hal_fdcan.c ****   if (hfdcan->State == HAL_FDCAN_STATE_READY)
 805:Drivers/STM32G4xx_HAL_Driver/Src/stm32g4xx_hal_fdcan.c ****   {
 806:Drivers/STM32G4xx_HAL_Driver/Src/stm32g4xx_hal_fdcan.c ****     switch (CallbackID)
 807:Drivers/STM32G4xx_HAL_Driver/Src/stm32g4xx_hal_fdcan.c ****     {
 808:Drivers/STM32G4xx_HAL_Driver/Src/stm32g4xx_hal_fdcan.c ****       case HAL_FDCAN_TX_FIFO_EMPTY_CB_ID :
 809:Drivers/STM32G4xx_HAL_Driver/Src/stm32g4xx_hal_fdcan.c ****         hfdcan->TxFifoEmptyCallback = HAL_FDCAN_TxFifoEmptyCallback;
 810:Drivers/STM32G4xx_HAL_Driver/Src/stm32g4xx_hal_fdcan.c ****         break;
 811:Drivers/STM32G4xx_HAL_Driver/Src/stm32g4xx_hal_fdcan.c **** 
 812:Drivers/STM32G4xx_HAL_Driver/Src/stm32g4xx_hal_fdcan.c ****       case HAL_FDCAN_HIGH_PRIO_MESSAGE_CB_ID :
 813:Drivers/STM32G4xx_HAL_Driver/Src/stm32g4xx_hal_fdcan.c ****         hfdcan->HighPriorityMessageCallback = HAL_FDCAN_HighPriorityMessageCallback;
 814:Drivers/STM32G4xx_HAL_Driver/Src/stm32g4xx_hal_fdcan.c ****         break;
 815:Drivers/STM32G4xx_HAL_Driver/Src/stm32g4xx_hal_fdcan.c **** 
 816:Drivers/STM32G4xx_HAL_Driver/Src/stm32g4xx_hal_fdcan.c ****       case HAL_FDCAN_TIMESTAMP_WRAPAROUND_CB_ID :
 817:Drivers/STM32G4xx_HAL_Driver/Src/stm32g4xx_hal_fdcan.c ****         hfdcan->TimestampWraparoundCallback = HAL_FDCAN_TimestampWraparoundCallback;
 818:Drivers/STM32G4xx_HAL_Driver/Src/stm32g4xx_hal_fdcan.c ****         break;
 819:Drivers/STM32G4xx_HAL_Driver/Src/stm32g4xx_hal_fdcan.c **** 
 820:Drivers/STM32G4xx_HAL_Driver/Src/stm32g4xx_hal_fdcan.c ****       case HAL_FDCAN_TIMEOUT_OCCURRED_CB_ID :
 821:Drivers/STM32G4xx_HAL_Driver/Src/stm32g4xx_hal_fdcan.c ****         hfdcan->TimeoutOccurredCallback = HAL_FDCAN_TimeoutOccurredCallback;
 822:Drivers/STM32G4xx_HAL_Driver/Src/stm32g4xx_hal_fdcan.c ****         break;
 823:Drivers/STM32G4xx_HAL_Driver/Src/stm32g4xx_hal_fdcan.c **** 
 824:Drivers/STM32G4xx_HAL_Driver/Src/stm32g4xx_hal_fdcan.c ****       case HAL_FDCAN_ERROR_CALLBACK_CB_ID :
 825:Drivers/STM32G4xx_HAL_Driver/Src/stm32g4xx_hal_fdcan.c ****         hfdcan->ErrorCallback = HAL_FDCAN_ErrorCallback;
 826:Drivers/STM32G4xx_HAL_Driver/Src/stm32g4xx_hal_fdcan.c ****         break;
 827:Drivers/STM32G4xx_HAL_Driver/Src/stm32g4xx_hal_fdcan.c **** 
 828:Drivers/STM32G4xx_HAL_Driver/Src/stm32g4xx_hal_fdcan.c ****       case HAL_FDCAN_MSPINIT_CB_ID :
 829:Drivers/STM32G4xx_HAL_Driver/Src/stm32g4xx_hal_fdcan.c ****         hfdcan->MspInitCallback = HAL_FDCAN_MspInit;
 830:Drivers/STM32G4xx_HAL_Driver/Src/stm32g4xx_hal_fdcan.c ****         break;
 831:Drivers/STM32G4xx_HAL_Driver/Src/stm32g4xx_hal_fdcan.c **** 
 832:Drivers/STM32G4xx_HAL_Driver/Src/stm32g4xx_hal_fdcan.c ****       case HAL_FDCAN_MSPDEINIT_CB_ID :
 833:Drivers/STM32G4xx_HAL_Driver/Src/stm32g4xx_hal_fdcan.c ****         hfdcan->MspDeInitCallback = HAL_FDCAN_MspDeInit;
 834:Drivers/STM32G4xx_HAL_Driver/Src/stm32g4xx_hal_fdcan.c ****         break;
 835:Drivers/STM32G4xx_HAL_Driver/Src/stm32g4xx_hal_fdcan.c **** 
 836:Drivers/STM32G4xx_HAL_Driver/Src/stm32g4xx_hal_fdcan.c ****       default :
 837:Drivers/STM32G4xx_HAL_Driver/Src/stm32g4xx_hal_fdcan.c ****         /* Update the error code */
 838:Drivers/STM32G4xx_HAL_Driver/Src/stm32g4xx_hal_fdcan.c ****         hfdcan->ErrorCode |= HAL_FDCAN_ERROR_INVALID_CALLBACK;
 839:Drivers/STM32G4xx_HAL_Driver/Src/stm32g4xx_hal_fdcan.c **** 
 840:Drivers/STM32G4xx_HAL_Driver/Src/stm32g4xx_hal_fdcan.c ****         /* Return error status */
 841:Drivers/STM32G4xx_HAL_Driver/Src/stm32g4xx_hal_fdcan.c ****         status =  HAL_ERROR;
 842:Drivers/STM32G4xx_HAL_Driver/Src/stm32g4xx_hal_fdcan.c ****         break;
 843:Drivers/STM32G4xx_HAL_Driver/Src/stm32g4xx_hal_fdcan.c ****     }
 844:Drivers/STM32G4xx_HAL_Driver/Src/stm32g4xx_hal_fdcan.c ****   }
 845:Drivers/STM32G4xx_HAL_Driver/Src/stm32g4xx_hal_fdcan.c ****   else if (hfdcan->State == HAL_FDCAN_STATE_RESET)
 846:Drivers/STM32G4xx_HAL_Driver/Src/stm32g4xx_hal_fdcan.c ****   {
 847:Drivers/STM32G4xx_HAL_Driver/Src/stm32g4xx_hal_fdcan.c ****     switch (CallbackID)
 848:Drivers/STM32G4xx_HAL_Driver/Src/stm32g4xx_hal_fdcan.c ****     {
 849:Drivers/STM32G4xx_HAL_Driver/Src/stm32g4xx_hal_fdcan.c ****       case HAL_FDCAN_MSPINIT_CB_ID :
 850:Drivers/STM32G4xx_HAL_Driver/Src/stm32g4xx_hal_fdcan.c ****         hfdcan->MspInitCallback = HAL_FDCAN_MspInit;
 851:Drivers/STM32G4xx_HAL_Driver/Src/stm32g4xx_hal_fdcan.c ****         break;
 852:Drivers/STM32G4xx_HAL_Driver/Src/stm32g4xx_hal_fdcan.c **** 
 853:Drivers/STM32G4xx_HAL_Driver/Src/stm32g4xx_hal_fdcan.c ****       case HAL_FDCAN_MSPDEINIT_CB_ID :
 854:Drivers/STM32G4xx_HAL_Driver/Src/stm32g4xx_hal_fdcan.c ****         hfdcan->MspDeInitCallback = HAL_FDCAN_MspDeInit;
 855:Drivers/STM32G4xx_HAL_Driver/Src/stm32g4xx_hal_fdcan.c ****         break;
ARM GAS  C:\Users\AURORA~1\AppData\Local\Temp\ccEbooPs.s 			page 31


 856:Drivers/STM32G4xx_HAL_Driver/Src/stm32g4xx_hal_fdcan.c **** 
 857:Drivers/STM32G4xx_HAL_Driver/Src/stm32g4xx_hal_fdcan.c ****       default :
 858:Drivers/STM32G4xx_HAL_Driver/Src/stm32g4xx_hal_fdcan.c ****         /* Update the error code */
 859:Drivers/STM32G4xx_HAL_Driver/Src/stm32g4xx_hal_fdcan.c ****         hfdcan->ErrorCode |= HAL_FDCAN_ERROR_INVALID_CALLBACK;
 860:Drivers/STM32G4xx_HAL_Driver/Src/stm32g4xx_hal_fdcan.c **** 
 861:Drivers/STM32G4xx_HAL_Driver/Src/stm32g4xx_hal_fdcan.c ****         /* Return error status */
 862:Drivers/STM32G4xx_HAL_Driver/Src/stm32g4xx_hal_fdcan.c ****         status =  HAL_ERROR;
 863:Drivers/STM32G4xx_HAL_Driver/Src/stm32g4xx_hal_fdcan.c ****         break;
 864:Drivers/STM32G4xx_HAL_Driver/Src/stm32g4xx_hal_fdcan.c ****     }
 865:Drivers/STM32G4xx_HAL_Driver/Src/stm32g4xx_hal_fdcan.c ****   }
 866:Drivers/STM32G4xx_HAL_Driver/Src/stm32g4xx_hal_fdcan.c ****   else
 867:Drivers/STM32G4xx_HAL_Driver/Src/stm32g4xx_hal_fdcan.c ****   {
 868:Drivers/STM32G4xx_HAL_Driver/Src/stm32g4xx_hal_fdcan.c ****     /* Update the error code */
 869:Drivers/STM32G4xx_HAL_Driver/Src/stm32g4xx_hal_fdcan.c ****     hfdcan->ErrorCode |= HAL_FDCAN_ERROR_INVALID_CALLBACK;
 870:Drivers/STM32G4xx_HAL_Driver/Src/stm32g4xx_hal_fdcan.c **** 
 871:Drivers/STM32G4xx_HAL_Driver/Src/stm32g4xx_hal_fdcan.c ****     /* Return error status */
 872:Drivers/STM32G4xx_HAL_Driver/Src/stm32g4xx_hal_fdcan.c ****     status =  HAL_ERROR;
 873:Drivers/STM32G4xx_HAL_Driver/Src/stm32g4xx_hal_fdcan.c ****   }
 874:Drivers/STM32G4xx_HAL_Driver/Src/stm32g4xx_hal_fdcan.c **** 
 875:Drivers/STM32G4xx_HAL_Driver/Src/stm32g4xx_hal_fdcan.c ****   return status;
 876:Drivers/STM32G4xx_HAL_Driver/Src/stm32g4xx_hal_fdcan.c **** }
 877:Drivers/STM32G4xx_HAL_Driver/Src/stm32g4xx_hal_fdcan.c **** 
 878:Drivers/STM32G4xx_HAL_Driver/Src/stm32g4xx_hal_fdcan.c **** /**
 879:Drivers/STM32G4xx_HAL_Driver/Src/stm32g4xx_hal_fdcan.c ****   * @brief  Register Tx Event Fifo FDCAN Callback
 880:Drivers/STM32G4xx_HAL_Driver/Src/stm32g4xx_hal_fdcan.c ****   *         To be used instead of the weak HAL_FDCAN_TxEventFifoCallback() predefined callback
 881:Drivers/STM32G4xx_HAL_Driver/Src/stm32g4xx_hal_fdcan.c ****   * @param  hfdcan FDCAN handle
 882:Drivers/STM32G4xx_HAL_Driver/Src/stm32g4xx_hal_fdcan.c ****   * @param  pCallback pointer to the Tx Event Fifo Callback function
 883:Drivers/STM32G4xx_HAL_Driver/Src/stm32g4xx_hal_fdcan.c ****   * @retval HAL status
 884:Drivers/STM32G4xx_HAL_Driver/Src/stm32g4xx_hal_fdcan.c ****   */
 885:Drivers/STM32G4xx_HAL_Driver/Src/stm32g4xx_hal_fdcan.c **** HAL_StatusTypeDef HAL_FDCAN_RegisterTxEventFifoCallback(FDCAN_HandleTypeDef *hfdcan,
 886:Drivers/STM32G4xx_HAL_Driver/Src/stm32g4xx_hal_fdcan.c ****                                                         pFDCAN_TxEventFifoCallbackTypeDef pCallback
 887:Drivers/STM32G4xx_HAL_Driver/Src/stm32g4xx_hal_fdcan.c **** {
 888:Drivers/STM32G4xx_HAL_Driver/Src/stm32g4xx_hal_fdcan.c ****   HAL_StatusTypeDef status = HAL_OK;
 889:Drivers/STM32G4xx_HAL_Driver/Src/stm32g4xx_hal_fdcan.c **** 
 890:Drivers/STM32G4xx_HAL_Driver/Src/stm32g4xx_hal_fdcan.c ****   if (pCallback == NULL)
 891:Drivers/STM32G4xx_HAL_Driver/Src/stm32g4xx_hal_fdcan.c ****   {
 892:Drivers/STM32G4xx_HAL_Driver/Src/stm32g4xx_hal_fdcan.c ****     /* Update the error code */
 893:Drivers/STM32G4xx_HAL_Driver/Src/stm32g4xx_hal_fdcan.c ****     hfdcan->ErrorCode |= HAL_FDCAN_ERROR_INVALID_CALLBACK;
 894:Drivers/STM32G4xx_HAL_Driver/Src/stm32g4xx_hal_fdcan.c ****     return HAL_ERROR;
 895:Drivers/STM32G4xx_HAL_Driver/Src/stm32g4xx_hal_fdcan.c ****   }
 896:Drivers/STM32G4xx_HAL_Driver/Src/stm32g4xx_hal_fdcan.c **** 
 897:Drivers/STM32G4xx_HAL_Driver/Src/stm32g4xx_hal_fdcan.c ****   if (hfdcan->State == HAL_FDCAN_STATE_READY)
 898:Drivers/STM32G4xx_HAL_Driver/Src/stm32g4xx_hal_fdcan.c ****   {
 899:Drivers/STM32G4xx_HAL_Driver/Src/stm32g4xx_hal_fdcan.c ****     hfdcan->TxEventFifoCallback = pCallback;
 900:Drivers/STM32G4xx_HAL_Driver/Src/stm32g4xx_hal_fdcan.c ****   }
 901:Drivers/STM32G4xx_HAL_Driver/Src/stm32g4xx_hal_fdcan.c ****   else
 902:Drivers/STM32G4xx_HAL_Driver/Src/stm32g4xx_hal_fdcan.c ****   {
 903:Drivers/STM32G4xx_HAL_Driver/Src/stm32g4xx_hal_fdcan.c ****     /* Update the error code */
 904:Drivers/STM32G4xx_HAL_Driver/Src/stm32g4xx_hal_fdcan.c ****     hfdcan->ErrorCode |= HAL_FDCAN_ERROR_INVALID_CALLBACK;
 905:Drivers/STM32G4xx_HAL_Driver/Src/stm32g4xx_hal_fdcan.c **** 
 906:Drivers/STM32G4xx_HAL_Driver/Src/stm32g4xx_hal_fdcan.c ****     /* Return error status */
 907:Drivers/STM32G4xx_HAL_Driver/Src/stm32g4xx_hal_fdcan.c ****     status =  HAL_ERROR;
 908:Drivers/STM32G4xx_HAL_Driver/Src/stm32g4xx_hal_fdcan.c ****   }
 909:Drivers/STM32G4xx_HAL_Driver/Src/stm32g4xx_hal_fdcan.c **** 
 910:Drivers/STM32G4xx_HAL_Driver/Src/stm32g4xx_hal_fdcan.c ****   return status;
 911:Drivers/STM32G4xx_HAL_Driver/Src/stm32g4xx_hal_fdcan.c **** }
 912:Drivers/STM32G4xx_HAL_Driver/Src/stm32g4xx_hal_fdcan.c **** 
ARM GAS  C:\Users\AURORA~1\AppData\Local\Temp\ccEbooPs.s 			page 32


 913:Drivers/STM32G4xx_HAL_Driver/Src/stm32g4xx_hal_fdcan.c **** /**
 914:Drivers/STM32G4xx_HAL_Driver/Src/stm32g4xx_hal_fdcan.c ****   * @brief  UnRegister the Tx Event Fifo FDCAN Callback
 915:Drivers/STM32G4xx_HAL_Driver/Src/stm32g4xx_hal_fdcan.c ****   *         Tx Event Fifo FDCAN Callback is redirected to the weak HAL_FDCAN_TxEventFifoCallback() 
 916:Drivers/STM32G4xx_HAL_Driver/Src/stm32g4xx_hal_fdcan.c ****   * @param  hfdcan FDCAN handle
 917:Drivers/STM32G4xx_HAL_Driver/Src/stm32g4xx_hal_fdcan.c ****   * @retval HAL status
 918:Drivers/STM32G4xx_HAL_Driver/Src/stm32g4xx_hal_fdcan.c ****   */
 919:Drivers/STM32G4xx_HAL_Driver/Src/stm32g4xx_hal_fdcan.c **** HAL_StatusTypeDef HAL_FDCAN_UnRegisterTxEventFifoCallback(FDCAN_HandleTypeDef *hfdcan)
 920:Drivers/STM32G4xx_HAL_Driver/Src/stm32g4xx_hal_fdcan.c **** {
 921:Drivers/STM32G4xx_HAL_Driver/Src/stm32g4xx_hal_fdcan.c ****   HAL_StatusTypeDef status = HAL_OK;
 922:Drivers/STM32G4xx_HAL_Driver/Src/stm32g4xx_hal_fdcan.c **** 
 923:Drivers/STM32G4xx_HAL_Driver/Src/stm32g4xx_hal_fdcan.c ****   if (hfdcan->State == HAL_FDCAN_STATE_READY)
 924:Drivers/STM32G4xx_HAL_Driver/Src/stm32g4xx_hal_fdcan.c ****   {
 925:Drivers/STM32G4xx_HAL_Driver/Src/stm32g4xx_hal_fdcan.c ****     hfdcan->TxEventFifoCallback = HAL_FDCAN_TxEventFifoCallback; /* Legacy weak TxEventFifoCallback
 926:Drivers/STM32G4xx_HAL_Driver/Src/stm32g4xx_hal_fdcan.c ****   }
 927:Drivers/STM32G4xx_HAL_Driver/Src/stm32g4xx_hal_fdcan.c ****   else
 928:Drivers/STM32G4xx_HAL_Driver/Src/stm32g4xx_hal_fdcan.c ****   {
 929:Drivers/STM32G4xx_HAL_Driver/Src/stm32g4xx_hal_fdcan.c ****     /* Update the error code */
 930:Drivers/STM32G4xx_HAL_Driver/Src/stm32g4xx_hal_fdcan.c ****     hfdcan->ErrorCode |= HAL_FDCAN_ERROR_INVALID_CALLBACK;
 931:Drivers/STM32G4xx_HAL_Driver/Src/stm32g4xx_hal_fdcan.c **** 
 932:Drivers/STM32G4xx_HAL_Driver/Src/stm32g4xx_hal_fdcan.c ****     /* Return error status */
 933:Drivers/STM32G4xx_HAL_Driver/Src/stm32g4xx_hal_fdcan.c ****     status =  HAL_ERROR;
 934:Drivers/STM32G4xx_HAL_Driver/Src/stm32g4xx_hal_fdcan.c ****   }
 935:Drivers/STM32G4xx_HAL_Driver/Src/stm32g4xx_hal_fdcan.c **** 
 936:Drivers/STM32G4xx_HAL_Driver/Src/stm32g4xx_hal_fdcan.c ****   return status;
 937:Drivers/STM32G4xx_HAL_Driver/Src/stm32g4xx_hal_fdcan.c **** }
 938:Drivers/STM32G4xx_HAL_Driver/Src/stm32g4xx_hal_fdcan.c **** 
 939:Drivers/STM32G4xx_HAL_Driver/Src/stm32g4xx_hal_fdcan.c **** /**
 940:Drivers/STM32G4xx_HAL_Driver/Src/stm32g4xx_hal_fdcan.c ****   * @brief  Register Rx Fifo 0 FDCAN Callback
 941:Drivers/STM32G4xx_HAL_Driver/Src/stm32g4xx_hal_fdcan.c ****   *         To be used instead of the weak HAL_FDCAN_RxFifo0Callback() predefined callback
 942:Drivers/STM32G4xx_HAL_Driver/Src/stm32g4xx_hal_fdcan.c ****   * @param  hfdcan FDCAN handle
 943:Drivers/STM32G4xx_HAL_Driver/Src/stm32g4xx_hal_fdcan.c ****   * @param  pCallback pointer to the Rx Fifo 0 Callback function
 944:Drivers/STM32G4xx_HAL_Driver/Src/stm32g4xx_hal_fdcan.c ****   * @retval HAL status
 945:Drivers/STM32G4xx_HAL_Driver/Src/stm32g4xx_hal_fdcan.c ****   */
 946:Drivers/STM32G4xx_HAL_Driver/Src/stm32g4xx_hal_fdcan.c **** HAL_StatusTypeDef HAL_FDCAN_RegisterRxFifo0Callback(FDCAN_HandleTypeDef *hfdcan,
 947:Drivers/STM32G4xx_HAL_Driver/Src/stm32g4xx_hal_fdcan.c ****                                                     pFDCAN_RxFifo0CallbackTypeDef pCallback)
 948:Drivers/STM32G4xx_HAL_Driver/Src/stm32g4xx_hal_fdcan.c **** {
 949:Drivers/STM32G4xx_HAL_Driver/Src/stm32g4xx_hal_fdcan.c ****   HAL_StatusTypeDef status = HAL_OK;
 950:Drivers/STM32G4xx_HAL_Driver/Src/stm32g4xx_hal_fdcan.c **** 
 951:Drivers/STM32G4xx_HAL_Driver/Src/stm32g4xx_hal_fdcan.c ****   if (pCallback == NULL)
 952:Drivers/STM32G4xx_HAL_Driver/Src/stm32g4xx_hal_fdcan.c ****   {
 953:Drivers/STM32G4xx_HAL_Driver/Src/stm32g4xx_hal_fdcan.c ****     /* Update the error code */
 954:Drivers/STM32G4xx_HAL_Driver/Src/stm32g4xx_hal_fdcan.c ****     hfdcan->ErrorCode |= HAL_FDCAN_ERROR_INVALID_CALLBACK;
 955:Drivers/STM32G4xx_HAL_Driver/Src/stm32g4xx_hal_fdcan.c ****     return HAL_ERROR;
 956:Drivers/STM32G4xx_HAL_Driver/Src/stm32g4xx_hal_fdcan.c ****   }
 957:Drivers/STM32G4xx_HAL_Driver/Src/stm32g4xx_hal_fdcan.c **** 
 958:Drivers/STM32G4xx_HAL_Driver/Src/stm32g4xx_hal_fdcan.c ****   if (hfdcan->State == HAL_FDCAN_STATE_READY)
 959:Drivers/STM32G4xx_HAL_Driver/Src/stm32g4xx_hal_fdcan.c ****   {
 960:Drivers/STM32G4xx_HAL_Driver/Src/stm32g4xx_hal_fdcan.c ****     hfdcan->RxFifo0Callback = pCallback;
 961:Drivers/STM32G4xx_HAL_Driver/Src/stm32g4xx_hal_fdcan.c ****   }
 962:Drivers/STM32G4xx_HAL_Driver/Src/stm32g4xx_hal_fdcan.c ****   else
 963:Drivers/STM32G4xx_HAL_Driver/Src/stm32g4xx_hal_fdcan.c ****   {
 964:Drivers/STM32G4xx_HAL_Driver/Src/stm32g4xx_hal_fdcan.c ****     /* Update the error code */
 965:Drivers/STM32G4xx_HAL_Driver/Src/stm32g4xx_hal_fdcan.c ****     hfdcan->ErrorCode |= HAL_FDCAN_ERROR_INVALID_CALLBACK;
 966:Drivers/STM32G4xx_HAL_Driver/Src/stm32g4xx_hal_fdcan.c **** 
 967:Drivers/STM32G4xx_HAL_Driver/Src/stm32g4xx_hal_fdcan.c ****     /* Return error status */
 968:Drivers/STM32G4xx_HAL_Driver/Src/stm32g4xx_hal_fdcan.c ****     status =  HAL_ERROR;
 969:Drivers/STM32G4xx_HAL_Driver/Src/stm32g4xx_hal_fdcan.c ****   }
ARM GAS  C:\Users\AURORA~1\AppData\Local\Temp\ccEbooPs.s 			page 33


 970:Drivers/STM32G4xx_HAL_Driver/Src/stm32g4xx_hal_fdcan.c **** 
 971:Drivers/STM32G4xx_HAL_Driver/Src/stm32g4xx_hal_fdcan.c ****   return status;
 972:Drivers/STM32G4xx_HAL_Driver/Src/stm32g4xx_hal_fdcan.c **** }
 973:Drivers/STM32G4xx_HAL_Driver/Src/stm32g4xx_hal_fdcan.c **** 
 974:Drivers/STM32G4xx_HAL_Driver/Src/stm32g4xx_hal_fdcan.c **** /**
 975:Drivers/STM32G4xx_HAL_Driver/Src/stm32g4xx_hal_fdcan.c ****   * @brief  UnRegister the Rx Fifo 0 FDCAN Callback
 976:Drivers/STM32G4xx_HAL_Driver/Src/stm32g4xx_hal_fdcan.c ****   *         Rx Fifo 0 FDCAN Callback is redirected to the weak HAL_FDCAN_RxFifo0Callback() predefin
 977:Drivers/STM32G4xx_HAL_Driver/Src/stm32g4xx_hal_fdcan.c ****   * @param  hfdcan FDCAN handle
 978:Drivers/STM32G4xx_HAL_Driver/Src/stm32g4xx_hal_fdcan.c ****   * @retval HAL status
 979:Drivers/STM32G4xx_HAL_Driver/Src/stm32g4xx_hal_fdcan.c ****   */
 980:Drivers/STM32G4xx_HAL_Driver/Src/stm32g4xx_hal_fdcan.c **** HAL_StatusTypeDef HAL_FDCAN_UnRegisterRxFifo0Callback(FDCAN_HandleTypeDef *hfdcan)
 981:Drivers/STM32G4xx_HAL_Driver/Src/stm32g4xx_hal_fdcan.c **** {
 982:Drivers/STM32G4xx_HAL_Driver/Src/stm32g4xx_hal_fdcan.c ****   HAL_StatusTypeDef status = HAL_OK;
 983:Drivers/STM32G4xx_HAL_Driver/Src/stm32g4xx_hal_fdcan.c **** 
 984:Drivers/STM32G4xx_HAL_Driver/Src/stm32g4xx_hal_fdcan.c ****   if (hfdcan->State == HAL_FDCAN_STATE_READY)
 985:Drivers/STM32G4xx_HAL_Driver/Src/stm32g4xx_hal_fdcan.c ****   {
 986:Drivers/STM32G4xx_HAL_Driver/Src/stm32g4xx_hal_fdcan.c ****     hfdcan->RxFifo0Callback = HAL_FDCAN_RxFifo0Callback; /* Legacy weak RxFifo0Callback  */
 987:Drivers/STM32G4xx_HAL_Driver/Src/stm32g4xx_hal_fdcan.c ****   }
 988:Drivers/STM32G4xx_HAL_Driver/Src/stm32g4xx_hal_fdcan.c ****   else
 989:Drivers/STM32G4xx_HAL_Driver/Src/stm32g4xx_hal_fdcan.c ****   {
 990:Drivers/STM32G4xx_HAL_Driver/Src/stm32g4xx_hal_fdcan.c ****     /* Update the error code */
 991:Drivers/STM32G4xx_HAL_Driver/Src/stm32g4xx_hal_fdcan.c ****     hfdcan->ErrorCode |= HAL_FDCAN_ERROR_INVALID_CALLBACK;
 992:Drivers/STM32G4xx_HAL_Driver/Src/stm32g4xx_hal_fdcan.c **** 
 993:Drivers/STM32G4xx_HAL_Driver/Src/stm32g4xx_hal_fdcan.c ****     /* Return error status */
 994:Drivers/STM32G4xx_HAL_Driver/Src/stm32g4xx_hal_fdcan.c ****     status =  HAL_ERROR;
 995:Drivers/STM32G4xx_HAL_Driver/Src/stm32g4xx_hal_fdcan.c ****   }
 996:Drivers/STM32G4xx_HAL_Driver/Src/stm32g4xx_hal_fdcan.c **** 
 997:Drivers/STM32G4xx_HAL_Driver/Src/stm32g4xx_hal_fdcan.c ****   return status;
 998:Drivers/STM32G4xx_HAL_Driver/Src/stm32g4xx_hal_fdcan.c **** }
 999:Drivers/STM32G4xx_HAL_Driver/Src/stm32g4xx_hal_fdcan.c **** 
1000:Drivers/STM32G4xx_HAL_Driver/Src/stm32g4xx_hal_fdcan.c **** /**
1001:Drivers/STM32G4xx_HAL_Driver/Src/stm32g4xx_hal_fdcan.c ****   * @brief  Register Rx Fifo 1 FDCAN Callback
1002:Drivers/STM32G4xx_HAL_Driver/Src/stm32g4xx_hal_fdcan.c ****   *         To be used instead of the weak HAL_FDCAN_RxFifo1Callback() predefined callback
1003:Drivers/STM32G4xx_HAL_Driver/Src/stm32g4xx_hal_fdcan.c ****   * @param  hfdcan FDCAN handle
1004:Drivers/STM32G4xx_HAL_Driver/Src/stm32g4xx_hal_fdcan.c ****   * @param  pCallback pointer to the Rx Fifo 1 Callback function
1005:Drivers/STM32G4xx_HAL_Driver/Src/stm32g4xx_hal_fdcan.c ****   * @retval HAL status
1006:Drivers/STM32G4xx_HAL_Driver/Src/stm32g4xx_hal_fdcan.c ****   */
1007:Drivers/STM32G4xx_HAL_Driver/Src/stm32g4xx_hal_fdcan.c **** HAL_StatusTypeDef HAL_FDCAN_RegisterRxFifo1Callback(FDCAN_HandleTypeDef *hfdcan,
1008:Drivers/STM32G4xx_HAL_Driver/Src/stm32g4xx_hal_fdcan.c ****                                                     pFDCAN_RxFifo1CallbackTypeDef pCallback)
1009:Drivers/STM32G4xx_HAL_Driver/Src/stm32g4xx_hal_fdcan.c **** {
1010:Drivers/STM32G4xx_HAL_Driver/Src/stm32g4xx_hal_fdcan.c ****   HAL_StatusTypeDef status = HAL_OK;
1011:Drivers/STM32G4xx_HAL_Driver/Src/stm32g4xx_hal_fdcan.c **** 
1012:Drivers/STM32G4xx_HAL_Driver/Src/stm32g4xx_hal_fdcan.c ****   if (pCallback == NULL)
1013:Drivers/STM32G4xx_HAL_Driver/Src/stm32g4xx_hal_fdcan.c ****   {
1014:Drivers/STM32G4xx_HAL_Driver/Src/stm32g4xx_hal_fdcan.c ****     /* Update the error code */
1015:Drivers/STM32G4xx_HAL_Driver/Src/stm32g4xx_hal_fdcan.c ****     hfdcan->ErrorCode |= HAL_FDCAN_ERROR_INVALID_CALLBACK;
1016:Drivers/STM32G4xx_HAL_Driver/Src/stm32g4xx_hal_fdcan.c ****     return HAL_ERROR;
1017:Drivers/STM32G4xx_HAL_Driver/Src/stm32g4xx_hal_fdcan.c ****   }
1018:Drivers/STM32G4xx_HAL_Driver/Src/stm32g4xx_hal_fdcan.c **** 
1019:Drivers/STM32G4xx_HAL_Driver/Src/stm32g4xx_hal_fdcan.c ****   if (hfdcan->State == HAL_FDCAN_STATE_READY)
1020:Drivers/STM32G4xx_HAL_Driver/Src/stm32g4xx_hal_fdcan.c ****   {
1021:Drivers/STM32G4xx_HAL_Driver/Src/stm32g4xx_hal_fdcan.c ****     hfdcan->RxFifo1Callback = pCallback;
1022:Drivers/STM32G4xx_HAL_Driver/Src/stm32g4xx_hal_fdcan.c ****   }
1023:Drivers/STM32G4xx_HAL_Driver/Src/stm32g4xx_hal_fdcan.c ****   else
1024:Drivers/STM32G4xx_HAL_Driver/Src/stm32g4xx_hal_fdcan.c ****   {
1025:Drivers/STM32G4xx_HAL_Driver/Src/stm32g4xx_hal_fdcan.c ****     /* Update the error code */
1026:Drivers/STM32G4xx_HAL_Driver/Src/stm32g4xx_hal_fdcan.c ****     hfdcan->ErrorCode |= HAL_FDCAN_ERROR_INVALID_CALLBACK;
ARM GAS  C:\Users\AURORA~1\AppData\Local\Temp\ccEbooPs.s 			page 34


1027:Drivers/STM32G4xx_HAL_Driver/Src/stm32g4xx_hal_fdcan.c **** 
1028:Drivers/STM32G4xx_HAL_Driver/Src/stm32g4xx_hal_fdcan.c ****     /* Return error status */
1029:Drivers/STM32G4xx_HAL_Driver/Src/stm32g4xx_hal_fdcan.c ****     status =  HAL_ERROR;
1030:Drivers/STM32G4xx_HAL_Driver/Src/stm32g4xx_hal_fdcan.c ****   }
1031:Drivers/STM32G4xx_HAL_Driver/Src/stm32g4xx_hal_fdcan.c **** 
1032:Drivers/STM32G4xx_HAL_Driver/Src/stm32g4xx_hal_fdcan.c ****   return status;
1033:Drivers/STM32G4xx_HAL_Driver/Src/stm32g4xx_hal_fdcan.c **** }
1034:Drivers/STM32G4xx_HAL_Driver/Src/stm32g4xx_hal_fdcan.c **** 
1035:Drivers/STM32G4xx_HAL_Driver/Src/stm32g4xx_hal_fdcan.c **** /**
1036:Drivers/STM32G4xx_HAL_Driver/Src/stm32g4xx_hal_fdcan.c ****   * @brief  UnRegister the Rx Fifo 1 FDCAN Callback
1037:Drivers/STM32G4xx_HAL_Driver/Src/stm32g4xx_hal_fdcan.c ****   *         Rx Fifo 1 FDCAN Callback is redirected to the weak HAL_FDCAN_RxFifo1Callback() predefin
1038:Drivers/STM32G4xx_HAL_Driver/Src/stm32g4xx_hal_fdcan.c ****   * @param  hfdcan FDCAN handle
1039:Drivers/STM32G4xx_HAL_Driver/Src/stm32g4xx_hal_fdcan.c ****   * @retval HAL status
1040:Drivers/STM32G4xx_HAL_Driver/Src/stm32g4xx_hal_fdcan.c ****   */
1041:Drivers/STM32G4xx_HAL_Driver/Src/stm32g4xx_hal_fdcan.c **** HAL_StatusTypeDef HAL_FDCAN_UnRegisterRxFifo1Callback(FDCAN_HandleTypeDef *hfdcan)
1042:Drivers/STM32G4xx_HAL_Driver/Src/stm32g4xx_hal_fdcan.c **** {
1043:Drivers/STM32G4xx_HAL_Driver/Src/stm32g4xx_hal_fdcan.c ****   HAL_StatusTypeDef status = HAL_OK;
1044:Drivers/STM32G4xx_HAL_Driver/Src/stm32g4xx_hal_fdcan.c **** 
1045:Drivers/STM32G4xx_HAL_Driver/Src/stm32g4xx_hal_fdcan.c ****   if (hfdcan->State == HAL_FDCAN_STATE_READY)
1046:Drivers/STM32G4xx_HAL_Driver/Src/stm32g4xx_hal_fdcan.c ****   {
1047:Drivers/STM32G4xx_HAL_Driver/Src/stm32g4xx_hal_fdcan.c ****     hfdcan->RxFifo1Callback = HAL_FDCAN_RxFifo1Callback; /* Legacy weak RxFifo1Callback  */
1048:Drivers/STM32G4xx_HAL_Driver/Src/stm32g4xx_hal_fdcan.c ****   }
1049:Drivers/STM32G4xx_HAL_Driver/Src/stm32g4xx_hal_fdcan.c ****   else
1050:Drivers/STM32G4xx_HAL_Driver/Src/stm32g4xx_hal_fdcan.c ****   {
1051:Drivers/STM32G4xx_HAL_Driver/Src/stm32g4xx_hal_fdcan.c ****     /* Update the error code */
1052:Drivers/STM32G4xx_HAL_Driver/Src/stm32g4xx_hal_fdcan.c ****     hfdcan->ErrorCode |= HAL_FDCAN_ERROR_INVALID_CALLBACK;
1053:Drivers/STM32G4xx_HAL_Driver/Src/stm32g4xx_hal_fdcan.c **** 
1054:Drivers/STM32G4xx_HAL_Driver/Src/stm32g4xx_hal_fdcan.c ****     /* Return error status */
1055:Drivers/STM32G4xx_HAL_Driver/Src/stm32g4xx_hal_fdcan.c ****     status =  HAL_ERROR;
1056:Drivers/STM32G4xx_HAL_Driver/Src/stm32g4xx_hal_fdcan.c ****   }
1057:Drivers/STM32G4xx_HAL_Driver/Src/stm32g4xx_hal_fdcan.c **** 
1058:Drivers/STM32G4xx_HAL_Driver/Src/stm32g4xx_hal_fdcan.c ****   return status;
1059:Drivers/STM32G4xx_HAL_Driver/Src/stm32g4xx_hal_fdcan.c **** }
1060:Drivers/STM32G4xx_HAL_Driver/Src/stm32g4xx_hal_fdcan.c **** 
1061:Drivers/STM32G4xx_HAL_Driver/Src/stm32g4xx_hal_fdcan.c **** /**
1062:Drivers/STM32G4xx_HAL_Driver/Src/stm32g4xx_hal_fdcan.c ****   * @brief  Register Tx Buffer Complete FDCAN Callback
1063:Drivers/STM32G4xx_HAL_Driver/Src/stm32g4xx_hal_fdcan.c ****   *         To be used instead of the weak HAL_FDCAN_TxBufferCompleteCallback() predefined callback
1064:Drivers/STM32G4xx_HAL_Driver/Src/stm32g4xx_hal_fdcan.c ****   * @param  hfdcan FDCAN handle
1065:Drivers/STM32G4xx_HAL_Driver/Src/stm32g4xx_hal_fdcan.c ****   * @param  pCallback pointer to the Tx Buffer Complete Callback function
1066:Drivers/STM32G4xx_HAL_Driver/Src/stm32g4xx_hal_fdcan.c ****   * @retval HAL status
1067:Drivers/STM32G4xx_HAL_Driver/Src/stm32g4xx_hal_fdcan.c ****   */
1068:Drivers/STM32G4xx_HAL_Driver/Src/stm32g4xx_hal_fdcan.c **** HAL_StatusTypeDef HAL_FDCAN_RegisterTxBufferCompleteCallback(FDCAN_HandleTypeDef *hfdcan,
1069:Drivers/STM32G4xx_HAL_Driver/Src/stm32g4xx_hal_fdcan.c ****                                                              pFDCAN_TxBufferCompleteCallbackTypeDef
1070:Drivers/STM32G4xx_HAL_Driver/Src/stm32g4xx_hal_fdcan.c **** {
1071:Drivers/STM32G4xx_HAL_Driver/Src/stm32g4xx_hal_fdcan.c ****   HAL_StatusTypeDef status = HAL_OK;
1072:Drivers/STM32G4xx_HAL_Driver/Src/stm32g4xx_hal_fdcan.c **** 
1073:Drivers/STM32G4xx_HAL_Driver/Src/stm32g4xx_hal_fdcan.c ****   if (pCallback == NULL)
1074:Drivers/STM32G4xx_HAL_Driver/Src/stm32g4xx_hal_fdcan.c ****   {
1075:Drivers/STM32G4xx_HAL_Driver/Src/stm32g4xx_hal_fdcan.c ****     /* Update the error code */
1076:Drivers/STM32G4xx_HAL_Driver/Src/stm32g4xx_hal_fdcan.c ****     hfdcan->ErrorCode |= HAL_FDCAN_ERROR_INVALID_CALLBACK;
1077:Drivers/STM32G4xx_HAL_Driver/Src/stm32g4xx_hal_fdcan.c ****     return HAL_ERROR;
1078:Drivers/STM32G4xx_HAL_Driver/Src/stm32g4xx_hal_fdcan.c ****   }
1079:Drivers/STM32G4xx_HAL_Driver/Src/stm32g4xx_hal_fdcan.c **** 
1080:Drivers/STM32G4xx_HAL_Driver/Src/stm32g4xx_hal_fdcan.c ****   if (hfdcan->State == HAL_FDCAN_STATE_READY)
1081:Drivers/STM32G4xx_HAL_Driver/Src/stm32g4xx_hal_fdcan.c ****   {
1082:Drivers/STM32G4xx_HAL_Driver/Src/stm32g4xx_hal_fdcan.c ****     hfdcan->TxBufferCompleteCallback = pCallback;
1083:Drivers/STM32G4xx_HAL_Driver/Src/stm32g4xx_hal_fdcan.c ****   }
ARM GAS  C:\Users\AURORA~1\AppData\Local\Temp\ccEbooPs.s 			page 35


1084:Drivers/STM32G4xx_HAL_Driver/Src/stm32g4xx_hal_fdcan.c ****   else
1085:Drivers/STM32G4xx_HAL_Driver/Src/stm32g4xx_hal_fdcan.c ****   {
1086:Drivers/STM32G4xx_HAL_Driver/Src/stm32g4xx_hal_fdcan.c ****     /* Update the error code */
1087:Drivers/STM32G4xx_HAL_Driver/Src/stm32g4xx_hal_fdcan.c ****     hfdcan->ErrorCode |= HAL_FDCAN_ERROR_INVALID_CALLBACK;
1088:Drivers/STM32G4xx_HAL_Driver/Src/stm32g4xx_hal_fdcan.c **** 
1089:Drivers/STM32G4xx_HAL_Driver/Src/stm32g4xx_hal_fdcan.c ****     /* Return error status */
1090:Drivers/STM32G4xx_HAL_Driver/Src/stm32g4xx_hal_fdcan.c ****     status =  HAL_ERROR;
1091:Drivers/STM32G4xx_HAL_Driver/Src/stm32g4xx_hal_fdcan.c ****   }
1092:Drivers/STM32G4xx_HAL_Driver/Src/stm32g4xx_hal_fdcan.c **** 
1093:Drivers/STM32G4xx_HAL_Driver/Src/stm32g4xx_hal_fdcan.c ****   return status;
1094:Drivers/STM32G4xx_HAL_Driver/Src/stm32g4xx_hal_fdcan.c **** }
1095:Drivers/STM32G4xx_HAL_Driver/Src/stm32g4xx_hal_fdcan.c **** 
1096:Drivers/STM32G4xx_HAL_Driver/Src/stm32g4xx_hal_fdcan.c **** /**
1097:Drivers/STM32G4xx_HAL_Driver/Src/stm32g4xx_hal_fdcan.c ****   * @brief  UnRegister the Tx Buffer Complete FDCAN Callback
1098:Drivers/STM32G4xx_HAL_Driver/Src/stm32g4xx_hal_fdcan.c ****   *         Tx Buffer Complete FDCAN Callback is redirected to
1099:Drivers/STM32G4xx_HAL_Driver/Src/stm32g4xx_hal_fdcan.c ****   *         the weak HAL_FDCAN_TxBufferCompleteCallback() predefined callback
1100:Drivers/STM32G4xx_HAL_Driver/Src/stm32g4xx_hal_fdcan.c ****   * @param  hfdcan FDCAN handle
1101:Drivers/STM32G4xx_HAL_Driver/Src/stm32g4xx_hal_fdcan.c ****   * @retval HAL status
1102:Drivers/STM32G4xx_HAL_Driver/Src/stm32g4xx_hal_fdcan.c ****   */
1103:Drivers/STM32G4xx_HAL_Driver/Src/stm32g4xx_hal_fdcan.c **** HAL_StatusTypeDef HAL_FDCAN_UnRegisterTxBufferCompleteCallback(FDCAN_HandleTypeDef *hfdcan)
1104:Drivers/STM32G4xx_HAL_Driver/Src/stm32g4xx_hal_fdcan.c **** {
1105:Drivers/STM32G4xx_HAL_Driver/Src/stm32g4xx_hal_fdcan.c ****   HAL_StatusTypeDef status = HAL_OK;
1106:Drivers/STM32G4xx_HAL_Driver/Src/stm32g4xx_hal_fdcan.c **** 
1107:Drivers/STM32G4xx_HAL_Driver/Src/stm32g4xx_hal_fdcan.c ****   if (hfdcan->State == HAL_FDCAN_STATE_READY)
1108:Drivers/STM32G4xx_HAL_Driver/Src/stm32g4xx_hal_fdcan.c ****   {
1109:Drivers/STM32G4xx_HAL_Driver/Src/stm32g4xx_hal_fdcan.c ****     hfdcan->TxBufferCompleteCallback = HAL_FDCAN_TxBufferCompleteCallback; /* Legacy weak TxBufferC
1110:Drivers/STM32G4xx_HAL_Driver/Src/stm32g4xx_hal_fdcan.c ****   }
1111:Drivers/STM32G4xx_HAL_Driver/Src/stm32g4xx_hal_fdcan.c ****   else
1112:Drivers/STM32G4xx_HAL_Driver/Src/stm32g4xx_hal_fdcan.c ****   {
1113:Drivers/STM32G4xx_HAL_Driver/Src/stm32g4xx_hal_fdcan.c ****     /* Update the error code */
1114:Drivers/STM32G4xx_HAL_Driver/Src/stm32g4xx_hal_fdcan.c ****     hfdcan->ErrorCode |= HAL_FDCAN_ERROR_INVALID_CALLBACK;
1115:Drivers/STM32G4xx_HAL_Driver/Src/stm32g4xx_hal_fdcan.c **** 
1116:Drivers/STM32G4xx_HAL_Driver/Src/stm32g4xx_hal_fdcan.c ****     /* Return error status */
1117:Drivers/STM32G4xx_HAL_Driver/Src/stm32g4xx_hal_fdcan.c ****     status =  HAL_ERROR;
1118:Drivers/STM32G4xx_HAL_Driver/Src/stm32g4xx_hal_fdcan.c ****   }
1119:Drivers/STM32G4xx_HAL_Driver/Src/stm32g4xx_hal_fdcan.c **** 
1120:Drivers/STM32G4xx_HAL_Driver/Src/stm32g4xx_hal_fdcan.c ****   return status;
1121:Drivers/STM32G4xx_HAL_Driver/Src/stm32g4xx_hal_fdcan.c **** }
1122:Drivers/STM32G4xx_HAL_Driver/Src/stm32g4xx_hal_fdcan.c **** 
1123:Drivers/STM32G4xx_HAL_Driver/Src/stm32g4xx_hal_fdcan.c **** /**
1124:Drivers/STM32G4xx_HAL_Driver/Src/stm32g4xx_hal_fdcan.c ****   * @brief  Register Tx Buffer Abort FDCAN Callback
1125:Drivers/STM32G4xx_HAL_Driver/Src/stm32g4xx_hal_fdcan.c ****   *         To be used instead of the weak HAL_FDCAN_TxBufferAbortCallback() predefined callback
1126:Drivers/STM32G4xx_HAL_Driver/Src/stm32g4xx_hal_fdcan.c ****   * @param  hfdcan FDCAN handle
1127:Drivers/STM32G4xx_HAL_Driver/Src/stm32g4xx_hal_fdcan.c ****   * @param  pCallback pointer to the Tx Buffer Abort Callback function
1128:Drivers/STM32G4xx_HAL_Driver/Src/stm32g4xx_hal_fdcan.c ****   * @retval HAL status
1129:Drivers/STM32G4xx_HAL_Driver/Src/stm32g4xx_hal_fdcan.c ****   */
1130:Drivers/STM32G4xx_HAL_Driver/Src/stm32g4xx_hal_fdcan.c **** HAL_StatusTypeDef HAL_FDCAN_RegisterTxBufferAbortCallback(FDCAN_HandleTypeDef *hfdcan,
1131:Drivers/STM32G4xx_HAL_Driver/Src/stm32g4xx_hal_fdcan.c ****                                                           pFDCAN_TxBufferAbortCallbackTypeDef pCall
1132:Drivers/STM32G4xx_HAL_Driver/Src/stm32g4xx_hal_fdcan.c **** {
1133:Drivers/STM32G4xx_HAL_Driver/Src/stm32g4xx_hal_fdcan.c ****   HAL_StatusTypeDef status = HAL_OK;
1134:Drivers/STM32G4xx_HAL_Driver/Src/stm32g4xx_hal_fdcan.c **** 
1135:Drivers/STM32G4xx_HAL_Driver/Src/stm32g4xx_hal_fdcan.c ****   if (pCallback == NULL)
1136:Drivers/STM32G4xx_HAL_Driver/Src/stm32g4xx_hal_fdcan.c ****   {
1137:Drivers/STM32G4xx_HAL_Driver/Src/stm32g4xx_hal_fdcan.c ****     /* Update the error code */
1138:Drivers/STM32G4xx_HAL_Driver/Src/stm32g4xx_hal_fdcan.c ****     hfdcan->ErrorCode |= HAL_FDCAN_ERROR_INVALID_CALLBACK;
1139:Drivers/STM32G4xx_HAL_Driver/Src/stm32g4xx_hal_fdcan.c ****     return HAL_ERROR;
1140:Drivers/STM32G4xx_HAL_Driver/Src/stm32g4xx_hal_fdcan.c ****   }
ARM GAS  C:\Users\AURORA~1\AppData\Local\Temp\ccEbooPs.s 			page 36


1141:Drivers/STM32G4xx_HAL_Driver/Src/stm32g4xx_hal_fdcan.c **** 
1142:Drivers/STM32G4xx_HAL_Driver/Src/stm32g4xx_hal_fdcan.c ****   if (hfdcan->State == HAL_FDCAN_STATE_READY)
1143:Drivers/STM32G4xx_HAL_Driver/Src/stm32g4xx_hal_fdcan.c ****   {
1144:Drivers/STM32G4xx_HAL_Driver/Src/stm32g4xx_hal_fdcan.c ****     hfdcan->TxBufferAbortCallback = pCallback;
1145:Drivers/STM32G4xx_HAL_Driver/Src/stm32g4xx_hal_fdcan.c ****   }
1146:Drivers/STM32G4xx_HAL_Driver/Src/stm32g4xx_hal_fdcan.c ****   else
1147:Drivers/STM32G4xx_HAL_Driver/Src/stm32g4xx_hal_fdcan.c ****   {
1148:Drivers/STM32G4xx_HAL_Driver/Src/stm32g4xx_hal_fdcan.c ****     /* Update the error code */
1149:Drivers/STM32G4xx_HAL_Driver/Src/stm32g4xx_hal_fdcan.c ****     hfdcan->ErrorCode |= HAL_FDCAN_ERROR_INVALID_CALLBACK;
1150:Drivers/STM32G4xx_HAL_Driver/Src/stm32g4xx_hal_fdcan.c **** 
1151:Drivers/STM32G4xx_HAL_Driver/Src/stm32g4xx_hal_fdcan.c ****     /* Return error status */
1152:Drivers/STM32G4xx_HAL_Driver/Src/stm32g4xx_hal_fdcan.c ****     status =  HAL_ERROR;
1153:Drivers/STM32G4xx_HAL_Driver/Src/stm32g4xx_hal_fdcan.c ****   }
1154:Drivers/STM32G4xx_HAL_Driver/Src/stm32g4xx_hal_fdcan.c **** 
1155:Drivers/STM32G4xx_HAL_Driver/Src/stm32g4xx_hal_fdcan.c ****   return status;
1156:Drivers/STM32G4xx_HAL_Driver/Src/stm32g4xx_hal_fdcan.c **** }
1157:Drivers/STM32G4xx_HAL_Driver/Src/stm32g4xx_hal_fdcan.c **** 
1158:Drivers/STM32G4xx_HAL_Driver/Src/stm32g4xx_hal_fdcan.c **** /**
1159:Drivers/STM32G4xx_HAL_Driver/Src/stm32g4xx_hal_fdcan.c ****   * @brief  UnRegister the Tx Buffer Abort FDCAN Callback
1160:Drivers/STM32G4xx_HAL_Driver/Src/stm32g4xx_hal_fdcan.c ****   *         Tx Buffer Abort FDCAN Callback is redirected to
1161:Drivers/STM32G4xx_HAL_Driver/Src/stm32g4xx_hal_fdcan.c ****   *         the weak HAL_FDCAN_TxBufferAbortCallback() predefined callback
1162:Drivers/STM32G4xx_HAL_Driver/Src/stm32g4xx_hal_fdcan.c ****   * @param  hfdcan FDCAN handle
1163:Drivers/STM32G4xx_HAL_Driver/Src/stm32g4xx_hal_fdcan.c ****   * @retval HAL status
1164:Drivers/STM32G4xx_HAL_Driver/Src/stm32g4xx_hal_fdcan.c ****   */
1165:Drivers/STM32G4xx_HAL_Driver/Src/stm32g4xx_hal_fdcan.c **** HAL_StatusTypeDef HAL_FDCAN_UnRegisterTxBufferAbortCallback(FDCAN_HandleTypeDef *hfdcan)
1166:Drivers/STM32G4xx_HAL_Driver/Src/stm32g4xx_hal_fdcan.c **** {
1167:Drivers/STM32G4xx_HAL_Driver/Src/stm32g4xx_hal_fdcan.c ****   HAL_StatusTypeDef status = HAL_OK;
1168:Drivers/STM32G4xx_HAL_Driver/Src/stm32g4xx_hal_fdcan.c **** 
1169:Drivers/STM32G4xx_HAL_Driver/Src/stm32g4xx_hal_fdcan.c ****   if (hfdcan->State == HAL_FDCAN_STATE_READY)
1170:Drivers/STM32G4xx_HAL_Driver/Src/stm32g4xx_hal_fdcan.c ****   {
1171:Drivers/STM32G4xx_HAL_Driver/Src/stm32g4xx_hal_fdcan.c ****     hfdcan->TxBufferAbortCallback = HAL_FDCAN_TxBufferAbortCallback; /* Legacy weak TxBufferAbortCa
1172:Drivers/STM32G4xx_HAL_Driver/Src/stm32g4xx_hal_fdcan.c ****   }
1173:Drivers/STM32G4xx_HAL_Driver/Src/stm32g4xx_hal_fdcan.c ****   else
1174:Drivers/STM32G4xx_HAL_Driver/Src/stm32g4xx_hal_fdcan.c ****   {
1175:Drivers/STM32G4xx_HAL_Driver/Src/stm32g4xx_hal_fdcan.c ****     /* Update the error code */
1176:Drivers/STM32G4xx_HAL_Driver/Src/stm32g4xx_hal_fdcan.c ****     hfdcan->ErrorCode |= HAL_FDCAN_ERROR_INVALID_CALLBACK;
1177:Drivers/STM32G4xx_HAL_Driver/Src/stm32g4xx_hal_fdcan.c **** 
1178:Drivers/STM32G4xx_HAL_Driver/Src/stm32g4xx_hal_fdcan.c ****     /* Return error status */
1179:Drivers/STM32G4xx_HAL_Driver/Src/stm32g4xx_hal_fdcan.c ****     status =  HAL_ERROR;
1180:Drivers/STM32G4xx_HAL_Driver/Src/stm32g4xx_hal_fdcan.c ****   }
1181:Drivers/STM32G4xx_HAL_Driver/Src/stm32g4xx_hal_fdcan.c **** 
1182:Drivers/STM32G4xx_HAL_Driver/Src/stm32g4xx_hal_fdcan.c ****   return status;
1183:Drivers/STM32G4xx_HAL_Driver/Src/stm32g4xx_hal_fdcan.c **** }
1184:Drivers/STM32G4xx_HAL_Driver/Src/stm32g4xx_hal_fdcan.c **** 
1185:Drivers/STM32G4xx_HAL_Driver/Src/stm32g4xx_hal_fdcan.c **** /**
1186:Drivers/STM32G4xx_HAL_Driver/Src/stm32g4xx_hal_fdcan.c ****   * @brief  Register Error Status FDCAN Callback
1187:Drivers/STM32G4xx_HAL_Driver/Src/stm32g4xx_hal_fdcan.c ****   *         To be used instead of the weak HAL_FDCAN_ErrorStatusCallback() predefined callback
1188:Drivers/STM32G4xx_HAL_Driver/Src/stm32g4xx_hal_fdcan.c ****   * @param  hfdcan FDCAN handle
1189:Drivers/STM32G4xx_HAL_Driver/Src/stm32g4xx_hal_fdcan.c ****   * @param  pCallback pointer to the Error Status Callback function
1190:Drivers/STM32G4xx_HAL_Driver/Src/stm32g4xx_hal_fdcan.c ****   * @retval HAL status
1191:Drivers/STM32G4xx_HAL_Driver/Src/stm32g4xx_hal_fdcan.c ****   */
1192:Drivers/STM32G4xx_HAL_Driver/Src/stm32g4xx_hal_fdcan.c **** HAL_StatusTypeDef HAL_FDCAN_RegisterErrorStatusCallback(FDCAN_HandleTypeDef *hfdcan,
1193:Drivers/STM32G4xx_HAL_Driver/Src/stm32g4xx_hal_fdcan.c ****                                                         pFDCAN_ErrorStatusCallbackTypeDef pCallback
1194:Drivers/STM32G4xx_HAL_Driver/Src/stm32g4xx_hal_fdcan.c **** {
1195:Drivers/STM32G4xx_HAL_Driver/Src/stm32g4xx_hal_fdcan.c ****   HAL_StatusTypeDef status = HAL_OK;
1196:Drivers/STM32G4xx_HAL_Driver/Src/stm32g4xx_hal_fdcan.c **** 
1197:Drivers/STM32G4xx_HAL_Driver/Src/stm32g4xx_hal_fdcan.c ****   if (pCallback == NULL)
ARM GAS  C:\Users\AURORA~1\AppData\Local\Temp\ccEbooPs.s 			page 37


1198:Drivers/STM32G4xx_HAL_Driver/Src/stm32g4xx_hal_fdcan.c ****   {
1199:Drivers/STM32G4xx_HAL_Driver/Src/stm32g4xx_hal_fdcan.c ****     /* Update the error code */
1200:Drivers/STM32G4xx_HAL_Driver/Src/stm32g4xx_hal_fdcan.c ****     hfdcan->ErrorCode |= HAL_FDCAN_ERROR_INVALID_CALLBACK;
1201:Drivers/STM32G4xx_HAL_Driver/Src/stm32g4xx_hal_fdcan.c ****     return HAL_ERROR;
1202:Drivers/STM32G4xx_HAL_Driver/Src/stm32g4xx_hal_fdcan.c ****   }
1203:Drivers/STM32G4xx_HAL_Driver/Src/stm32g4xx_hal_fdcan.c **** 
1204:Drivers/STM32G4xx_HAL_Driver/Src/stm32g4xx_hal_fdcan.c ****   if (hfdcan->State == HAL_FDCAN_STATE_READY)
1205:Drivers/STM32G4xx_HAL_Driver/Src/stm32g4xx_hal_fdcan.c ****   {
1206:Drivers/STM32G4xx_HAL_Driver/Src/stm32g4xx_hal_fdcan.c ****     hfdcan->ErrorStatusCallback = pCallback;
1207:Drivers/STM32G4xx_HAL_Driver/Src/stm32g4xx_hal_fdcan.c ****   }
1208:Drivers/STM32G4xx_HAL_Driver/Src/stm32g4xx_hal_fdcan.c ****   else
1209:Drivers/STM32G4xx_HAL_Driver/Src/stm32g4xx_hal_fdcan.c ****   {
1210:Drivers/STM32G4xx_HAL_Driver/Src/stm32g4xx_hal_fdcan.c ****     /* Update the error code */
1211:Drivers/STM32G4xx_HAL_Driver/Src/stm32g4xx_hal_fdcan.c ****     hfdcan->ErrorCode |= HAL_FDCAN_ERROR_INVALID_CALLBACK;
1212:Drivers/STM32G4xx_HAL_Driver/Src/stm32g4xx_hal_fdcan.c **** 
1213:Drivers/STM32G4xx_HAL_Driver/Src/stm32g4xx_hal_fdcan.c ****     /* Return error status */
1214:Drivers/STM32G4xx_HAL_Driver/Src/stm32g4xx_hal_fdcan.c ****     status =  HAL_ERROR;
1215:Drivers/STM32G4xx_HAL_Driver/Src/stm32g4xx_hal_fdcan.c ****   }
1216:Drivers/STM32G4xx_HAL_Driver/Src/stm32g4xx_hal_fdcan.c **** 
1217:Drivers/STM32G4xx_HAL_Driver/Src/stm32g4xx_hal_fdcan.c ****   return status;
1218:Drivers/STM32G4xx_HAL_Driver/Src/stm32g4xx_hal_fdcan.c **** }
1219:Drivers/STM32G4xx_HAL_Driver/Src/stm32g4xx_hal_fdcan.c **** 
1220:Drivers/STM32G4xx_HAL_Driver/Src/stm32g4xx_hal_fdcan.c **** /**
1221:Drivers/STM32G4xx_HAL_Driver/Src/stm32g4xx_hal_fdcan.c ****   * @brief  UnRegister the Error Status FDCAN Callback
1222:Drivers/STM32G4xx_HAL_Driver/Src/stm32g4xx_hal_fdcan.c ****   *         Error Status FDCAN Callback is redirected to the weak HAL_FDCAN_ErrorStatusCallback() p
1223:Drivers/STM32G4xx_HAL_Driver/Src/stm32g4xx_hal_fdcan.c ****   * @param  hfdcan FDCAN handle
1224:Drivers/STM32G4xx_HAL_Driver/Src/stm32g4xx_hal_fdcan.c ****   * @retval HAL status
1225:Drivers/STM32G4xx_HAL_Driver/Src/stm32g4xx_hal_fdcan.c ****   */
1226:Drivers/STM32G4xx_HAL_Driver/Src/stm32g4xx_hal_fdcan.c **** HAL_StatusTypeDef HAL_FDCAN_UnRegisterErrorStatusCallback(FDCAN_HandleTypeDef *hfdcan)
1227:Drivers/STM32G4xx_HAL_Driver/Src/stm32g4xx_hal_fdcan.c **** {
1228:Drivers/STM32G4xx_HAL_Driver/Src/stm32g4xx_hal_fdcan.c ****   HAL_StatusTypeDef status = HAL_OK;
1229:Drivers/STM32G4xx_HAL_Driver/Src/stm32g4xx_hal_fdcan.c **** 
1230:Drivers/STM32G4xx_HAL_Driver/Src/stm32g4xx_hal_fdcan.c ****   if (hfdcan->State == HAL_FDCAN_STATE_READY)
1231:Drivers/STM32G4xx_HAL_Driver/Src/stm32g4xx_hal_fdcan.c ****   {
1232:Drivers/STM32G4xx_HAL_Driver/Src/stm32g4xx_hal_fdcan.c ****     hfdcan->ErrorStatusCallback = HAL_FDCAN_ErrorStatusCallback; /* Legacy weak ErrorStatusCallback
1233:Drivers/STM32G4xx_HAL_Driver/Src/stm32g4xx_hal_fdcan.c ****   }
1234:Drivers/STM32G4xx_HAL_Driver/Src/stm32g4xx_hal_fdcan.c ****   else
1235:Drivers/STM32G4xx_HAL_Driver/Src/stm32g4xx_hal_fdcan.c ****   {
1236:Drivers/STM32G4xx_HAL_Driver/Src/stm32g4xx_hal_fdcan.c ****     /* Update the error code */
1237:Drivers/STM32G4xx_HAL_Driver/Src/stm32g4xx_hal_fdcan.c ****     hfdcan->ErrorCode |= HAL_FDCAN_ERROR_INVALID_CALLBACK;
1238:Drivers/STM32G4xx_HAL_Driver/Src/stm32g4xx_hal_fdcan.c **** 
1239:Drivers/STM32G4xx_HAL_Driver/Src/stm32g4xx_hal_fdcan.c ****     /* Return error status */
1240:Drivers/STM32G4xx_HAL_Driver/Src/stm32g4xx_hal_fdcan.c ****     status =  HAL_ERROR;
1241:Drivers/STM32G4xx_HAL_Driver/Src/stm32g4xx_hal_fdcan.c ****   }
1242:Drivers/STM32G4xx_HAL_Driver/Src/stm32g4xx_hal_fdcan.c **** 
1243:Drivers/STM32G4xx_HAL_Driver/Src/stm32g4xx_hal_fdcan.c ****   return status;
1244:Drivers/STM32G4xx_HAL_Driver/Src/stm32g4xx_hal_fdcan.c **** }
1245:Drivers/STM32G4xx_HAL_Driver/Src/stm32g4xx_hal_fdcan.c **** 
1246:Drivers/STM32G4xx_HAL_Driver/Src/stm32g4xx_hal_fdcan.c **** #endif /* USE_HAL_FDCAN_REGISTER_CALLBACKS */
1247:Drivers/STM32G4xx_HAL_Driver/Src/stm32g4xx_hal_fdcan.c **** 
1248:Drivers/STM32G4xx_HAL_Driver/Src/stm32g4xx_hal_fdcan.c **** /**
1249:Drivers/STM32G4xx_HAL_Driver/Src/stm32g4xx_hal_fdcan.c ****   * @}
1250:Drivers/STM32G4xx_HAL_Driver/Src/stm32g4xx_hal_fdcan.c ****   */
1251:Drivers/STM32G4xx_HAL_Driver/Src/stm32g4xx_hal_fdcan.c **** 
1252:Drivers/STM32G4xx_HAL_Driver/Src/stm32g4xx_hal_fdcan.c **** /** @defgroup FDCAN_Exported_Functions_Group2 Configuration functions
1253:Drivers/STM32G4xx_HAL_Driver/Src/stm32g4xx_hal_fdcan.c ****   *  @brief    FDCAN Configuration functions.
1254:Drivers/STM32G4xx_HAL_Driver/Src/stm32g4xx_hal_fdcan.c ****   *
ARM GAS  C:\Users\AURORA~1\AppData\Local\Temp\ccEbooPs.s 			page 38


1255:Drivers/STM32G4xx_HAL_Driver/Src/stm32g4xx_hal_fdcan.c **** @verbatim
1256:Drivers/STM32G4xx_HAL_Driver/Src/stm32g4xx_hal_fdcan.c ****   ==============================================================================
1257:Drivers/STM32G4xx_HAL_Driver/Src/stm32g4xx_hal_fdcan.c ****               ##### Configuration functions #####
1258:Drivers/STM32G4xx_HAL_Driver/Src/stm32g4xx_hal_fdcan.c ****   ==============================================================================
1259:Drivers/STM32G4xx_HAL_Driver/Src/stm32g4xx_hal_fdcan.c ****     [..]  This section provides functions allowing to:
1260:Drivers/STM32G4xx_HAL_Driver/Src/stm32g4xx_hal_fdcan.c ****       (+) HAL_FDCAN_ConfigFilter                  : Configure the FDCAN reception filters
1261:Drivers/STM32G4xx_HAL_Driver/Src/stm32g4xx_hal_fdcan.c ****       (+) HAL_FDCAN_ConfigGlobalFilter            : Configure the FDCAN global filter
1262:Drivers/STM32G4xx_HAL_Driver/Src/stm32g4xx_hal_fdcan.c ****       (+) HAL_FDCAN_ConfigExtendedIdMask          : Configure the extended ID mask
1263:Drivers/STM32G4xx_HAL_Driver/Src/stm32g4xx_hal_fdcan.c ****       (+) HAL_FDCAN_ConfigRxFifoOverwrite         : Configure the Rx FIFO operation mode
1264:Drivers/STM32G4xx_HAL_Driver/Src/stm32g4xx_hal_fdcan.c ****       (+) HAL_FDCAN_ConfigRamWatchdog             : Configure the RAM watchdog
1265:Drivers/STM32G4xx_HAL_Driver/Src/stm32g4xx_hal_fdcan.c ****       (+) HAL_FDCAN_ConfigTimestampCounter        : Configure the timestamp counter
1266:Drivers/STM32G4xx_HAL_Driver/Src/stm32g4xx_hal_fdcan.c ****         (+) HAL_FDCAN_EnableTimestampCounter        : Enable the timestamp counter
1267:Drivers/STM32G4xx_HAL_Driver/Src/stm32g4xx_hal_fdcan.c ****         (+) HAL_FDCAN_DisableTimestampCounter       : Disable the timestamp counter
1268:Drivers/STM32G4xx_HAL_Driver/Src/stm32g4xx_hal_fdcan.c ****         (+) HAL_FDCAN_GetTimestampCounter           : Get the timestamp counter value
1269:Drivers/STM32G4xx_HAL_Driver/Src/stm32g4xx_hal_fdcan.c ****         (+) HAL_FDCAN_ResetTimestampCounter         : Reset the timestamp counter to zero
1270:Drivers/STM32G4xx_HAL_Driver/Src/stm32g4xx_hal_fdcan.c ****       (+) HAL_FDCAN_ConfigTimeoutCounter          : Configure the timeout counter
1271:Drivers/STM32G4xx_HAL_Driver/Src/stm32g4xx_hal_fdcan.c ****         (+) HAL_FDCAN_EnableTimeoutCounter          : Enable the timeout counter
1272:Drivers/STM32G4xx_HAL_Driver/Src/stm32g4xx_hal_fdcan.c ****         (+) HAL_FDCAN_DisableTimeoutCounter         : Disable the timeout counter
1273:Drivers/STM32G4xx_HAL_Driver/Src/stm32g4xx_hal_fdcan.c ****         (+) HAL_FDCAN_GetTimeoutCounter             : Get the timeout counter value
1274:Drivers/STM32G4xx_HAL_Driver/Src/stm32g4xx_hal_fdcan.c ****         (+) HAL_FDCAN_ResetTimeoutCounter           : Reset the timeout counter to its start value
1275:Drivers/STM32G4xx_HAL_Driver/Src/stm32g4xx_hal_fdcan.c ****       (+) HAL_FDCAN_ConfigTxDelayCompensation     : Configure the transmitter delay compensation
1276:Drivers/STM32G4xx_HAL_Driver/Src/stm32g4xx_hal_fdcan.c ****         (+) HAL_FDCAN_EnableTxDelayCompensation     : Enable the transmitter delay compensation
1277:Drivers/STM32G4xx_HAL_Driver/Src/stm32g4xx_hal_fdcan.c ****         (+) HAL_FDCAN_DisableTxDelayCompensation    : Disable the transmitter delay compensation
1278:Drivers/STM32G4xx_HAL_Driver/Src/stm32g4xx_hal_fdcan.c ****       (+) HAL_FDCAN_EnableISOMode                 : Enable ISO 11898-1 protocol mode
1279:Drivers/STM32G4xx_HAL_Driver/Src/stm32g4xx_hal_fdcan.c ****       (+) HAL_FDCAN_DisableISOMode                : Disable ISO 11898-1 protocol mode
1280:Drivers/STM32G4xx_HAL_Driver/Src/stm32g4xx_hal_fdcan.c ****       (+) HAL_FDCAN_EnableEdgeFiltering           : Enable edge filtering during bus integration
1281:Drivers/STM32G4xx_HAL_Driver/Src/stm32g4xx_hal_fdcan.c ****       (+) HAL_FDCAN_DisableEdgeFiltering          : Disable edge filtering during bus integration
1282:Drivers/STM32G4xx_HAL_Driver/Src/stm32g4xx_hal_fdcan.c **** 
1283:Drivers/STM32G4xx_HAL_Driver/Src/stm32g4xx_hal_fdcan.c **** @endverbatim
1284:Drivers/STM32G4xx_HAL_Driver/Src/stm32g4xx_hal_fdcan.c ****   * @{
1285:Drivers/STM32G4xx_HAL_Driver/Src/stm32g4xx_hal_fdcan.c ****   */
1286:Drivers/STM32G4xx_HAL_Driver/Src/stm32g4xx_hal_fdcan.c **** 
1287:Drivers/STM32G4xx_HAL_Driver/Src/stm32g4xx_hal_fdcan.c **** /**
1288:Drivers/STM32G4xx_HAL_Driver/Src/stm32g4xx_hal_fdcan.c ****   * @brief  Configure the FDCAN reception filter according to the specified
1289:Drivers/STM32G4xx_HAL_Driver/Src/stm32g4xx_hal_fdcan.c ****   *         parameters in the FDCAN_FilterTypeDef structure.
1290:Drivers/STM32G4xx_HAL_Driver/Src/stm32g4xx_hal_fdcan.c ****   * @param  hfdcan pointer to an FDCAN_HandleTypeDef structure that contains
1291:Drivers/STM32G4xx_HAL_Driver/Src/stm32g4xx_hal_fdcan.c ****   *         the configuration information for the specified FDCAN.
1292:Drivers/STM32G4xx_HAL_Driver/Src/stm32g4xx_hal_fdcan.c ****   * @param  sFilterConfig pointer to an FDCAN_FilterTypeDef structure that
1293:Drivers/STM32G4xx_HAL_Driver/Src/stm32g4xx_hal_fdcan.c ****   *         contains the filter configuration information
1294:Drivers/STM32G4xx_HAL_Driver/Src/stm32g4xx_hal_fdcan.c ****   * @retval HAL status
1295:Drivers/STM32G4xx_HAL_Driver/Src/stm32g4xx_hal_fdcan.c ****   */
1296:Drivers/STM32G4xx_HAL_Driver/Src/stm32g4xx_hal_fdcan.c **** HAL_StatusTypeDef HAL_FDCAN_ConfigFilter(FDCAN_HandleTypeDef *hfdcan, const FDCAN_FilterTypeDef *sF
1297:Drivers/STM32G4xx_HAL_Driver/Src/stm32g4xx_hal_fdcan.c **** {
 842              		.loc 1 1297 1
 843              		.cfi_startproc
 844              		@ args = 0, pretend = 0, frame = 24
 845              		@ frame_needed = 1, uses_anonymous_args = 0
 846              		@ link register save eliminated.
 847 0000 80B4     		push	{r7}
 848              	.LCFI32:
 849              		.cfi_def_cfa_offset 4
 850              		.cfi_offset 7, -4
 851 0002 87B0     		sub	sp, sp, #28
 852              	.LCFI33:
 853              		.cfi_def_cfa_offset 32
 854 0004 00AF     		add	r7, sp, #0
 855              	.LCFI34:
ARM GAS  C:\Users\AURORA~1\AppData\Local\Temp\ccEbooPs.s 			page 39


 856              		.cfi_def_cfa_register 7
 857 0006 7860     		str	r0, [r7, #4]
 858 0008 3960     		str	r1, [r7]
1298:Drivers/STM32G4xx_HAL_Driver/Src/stm32g4xx_hal_fdcan.c ****   uint32_t FilterElementW1;
1299:Drivers/STM32G4xx_HAL_Driver/Src/stm32g4xx_hal_fdcan.c ****   uint32_t FilterElementW2;
1300:Drivers/STM32G4xx_HAL_Driver/Src/stm32g4xx_hal_fdcan.c ****   uint32_t *FilterAddress;
1301:Drivers/STM32G4xx_HAL_Driver/Src/stm32g4xx_hal_fdcan.c ****   HAL_FDCAN_StateTypeDef state = hfdcan->State;
 859              		.loc 1 1301 26
 860 000a 7B68     		ldr	r3, [r7, #4]
 861 000c 93F85C30 		ldrb	r3, [r3, #92]
 862 0010 FB75     		strb	r3, [r7, #23]
1302:Drivers/STM32G4xx_HAL_Driver/Src/stm32g4xx_hal_fdcan.c **** 
1303:Drivers/STM32G4xx_HAL_Driver/Src/stm32g4xx_hal_fdcan.c ****   if ((state == HAL_FDCAN_STATE_READY) || (state == HAL_FDCAN_STATE_BUSY))
 863              		.loc 1 1303 6
 864 0012 FB7D     		ldrb	r3, [r7, #23]	@ zero_extendqisi2
 865 0014 012B     		cmp	r3, #1
 866 0016 02D0     		beq	.L36
 867              		.loc 1 1303 40 discriminator 1
 868 0018 FB7D     		ldrb	r3, [r7, #23]	@ zero_extendqisi2
 869 001a 022B     		cmp	r3, #2
 870 001c 3DD1     		bne	.L37
 871              	.L36:
1304:Drivers/STM32G4xx_HAL_Driver/Src/stm32g4xx_hal_fdcan.c ****   {
1305:Drivers/STM32G4xx_HAL_Driver/Src/stm32g4xx_hal_fdcan.c ****     /* Check function parameters */
1306:Drivers/STM32G4xx_HAL_Driver/Src/stm32g4xx_hal_fdcan.c ****     assert_param(IS_FDCAN_ID_TYPE(sFilterConfig->IdType));
1307:Drivers/STM32G4xx_HAL_Driver/Src/stm32g4xx_hal_fdcan.c ****     assert_param(IS_FDCAN_FILTER_CFG(sFilterConfig->FilterConfig));
1308:Drivers/STM32G4xx_HAL_Driver/Src/stm32g4xx_hal_fdcan.c **** 
1309:Drivers/STM32G4xx_HAL_Driver/Src/stm32g4xx_hal_fdcan.c ****     if (sFilterConfig->IdType == FDCAN_STANDARD_ID)
 872              		.loc 1 1309 22
 873 001e 3B68     		ldr	r3, [r7]
 874 0020 1B68     		ldr	r3, [r3]
 875              		.loc 1 1309 8
 876 0022 002B     		cmp	r3, #0
 877 0024 19D1     		bne	.L38
1310:Drivers/STM32G4xx_HAL_Driver/Src/stm32g4xx_hal_fdcan.c ****     {
1311:Drivers/STM32G4xx_HAL_Driver/Src/stm32g4xx_hal_fdcan.c ****       /* Check function parameters */
1312:Drivers/STM32G4xx_HAL_Driver/Src/stm32g4xx_hal_fdcan.c ****       assert_param(IS_FDCAN_MAX_VALUE(sFilterConfig->FilterIndex, (hfdcan->Init.StdFiltersNbr - 1U)
1313:Drivers/STM32G4xx_HAL_Driver/Src/stm32g4xx_hal_fdcan.c ****       assert_param(IS_FDCAN_MAX_VALUE(sFilterConfig->FilterID1, 0x7FFU));
1314:Drivers/STM32G4xx_HAL_Driver/Src/stm32g4xx_hal_fdcan.c ****       assert_param(IS_FDCAN_MAX_VALUE(sFilterConfig->FilterID2, 0x7FFU));
1315:Drivers/STM32G4xx_HAL_Driver/Src/stm32g4xx_hal_fdcan.c ****       assert_param(IS_FDCAN_STD_FILTER_TYPE(sFilterConfig->FilterType));
1316:Drivers/STM32G4xx_HAL_Driver/Src/stm32g4xx_hal_fdcan.c **** 
1317:Drivers/STM32G4xx_HAL_Driver/Src/stm32g4xx_hal_fdcan.c ****       /* Build filter element */
1318:Drivers/STM32G4xx_HAL_Driver/Src/stm32g4xx_hal_fdcan.c ****       FilterElementW1 = ((sFilterConfig->FilterType << 30U)   |
 878              		.loc 1 1318 40
 879 0026 3B68     		ldr	r3, [r7]
 880 0028 9B68     		ldr	r3, [r3, #8]
 881              		.loc 1 1318 53
 882 002a 9A07     		lsls	r2, r3, #30
1319:Drivers/STM32G4xx_HAL_Driver/Src/stm32g4xx_hal_fdcan.c ****                          (sFilterConfig->FilterConfig << 27U) |
 883              		.loc 1 1319 40
 884 002c 3B68     		ldr	r3, [r7]
 885 002e DB68     		ldr	r3, [r3, #12]
 886              		.loc 1 1319 55
 887 0030 DB06     		lsls	r3, r3, #27
1318:Drivers/STM32G4xx_HAL_Driver/Src/stm32g4xx_hal_fdcan.c ****                          (sFilterConfig->FilterConfig << 27U) |
 888              		.loc 1 1318 63
 889 0032 1A43     		orrs	r2, r2, r3
ARM GAS  C:\Users\AURORA~1\AppData\Local\Temp\ccEbooPs.s 			page 40


1320:Drivers/STM32G4xx_HAL_Driver/Src/stm32g4xx_hal_fdcan.c ****                          (sFilterConfig->FilterID1 << 16U)    |
 890              		.loc 1 1320 40
 891 0034 3B68     		ldr	r3, [r7]
 892 0036 1B69     		ldr	r3, [r3, #16]
 893              		.loc 1 1320 52
 894 0038 1B04     		lsls	r3, r3, #16
1319:Drivers/STM32G4xx_HAL_Driver/Src/stm32g4xx_hal_fdcan.c ****                          (sFilterConfig->FilterConfig << 27U) |
 895              		.loc 1 1319 63
 896 003a 1A43     		orrs	r2, r2, r3
1321:Drivers/STM32G4xx_HAL_Driver/Src/stm32g4xx_hal_fdcan.c ****                          sFilterConfig->FilterID2);
 897              		.loc 1 1321 39
 898 003c 3B68     		ldr	r3, [r7]
 899 003e 5B69     		ldr	r3, [r3, #20]
1318:Drivers/STM32G4xx_HAL_Driver/Src/stm32g4xx_hal_fdcan.c ****                          (sFilterConfig->FilterConfig << 27U) |
 900              		.loc 1 1318 23
 901 0040 1343     		orrs	r3, r3, r2
 902 0042 3B61     		str	r3, [r7, #16]
1322:Drivers/STM32G4xx_HAL_Driver/Src/stm32g4xx_hal_fdcan.c **** 
1323:Drivers/STM32G4xx_HAL_Driver/Src/stm32g4xx_hal_fdcan.c ****       /* Calculate filter address */
1324:Drivers/STM32G4xx_HAL_Driver/Src/stm32g4xx_hal_fdcan.c ****       FilterAddress = (uint32_t *)(hfdcan->msgRam.StandardFilterSA + (sFilterConfig->FilterIndex * 
 903              		.loc 1 1324 50
 904 0044 7B68     		ldr	r3, [r7, #4]
 905 0046 1A6C     		ldr	r2, [r3, #64]
 906              		.loc 1 1324 84
 907 0048 3B68     		ldr	r3, [r7]
 908 004a 5B68     		ldr	r3, [r3, #4]
 909              		.loc 1 1324 98
 910 004c 9B00     		lsls	r3, r3, #2
 911              		.loc 1 1324 68
 912 004e 1344     		add	r3, r3, r2
 913              		.loc 1 1324 21
 914 0050 BB60     		str	r3, [r7, #8]
1325:Drivers/STM32G4xx_HAL_Driver/Src/stm32g4xx_hal_fdcan.c **** 
1326:Drivers/STM32G4xx_HAL_Driver/Src/stm32g4xx_hal_fdcan.c ****       /* Write filter element to the message RAM */
1327:Drivers/STM32G4xx_HAL_Driver/Src/stm32g4xx_hal_fdcan.c ****       *FilterAddress = FilterElementW1;
 915              		.loc 1 1327 22
 916 0052 BB68     		ldr	r3, [r7, #8]
 917 0054 3A69     		ldr	r2, [r7, #16]
 918 0056 1A60     		str	r2, [r3]
 919 0058 1DE0     		b	.L39
 920              	.L38:
1328:Drivers/STM32G4xx_HAL_Driver/Src/stm32g4xx_hal_fdcan.c ****     }
1329:Drivers/STM32G4xx_HAL_Driver/Src/stm32g4xx_hal_fdcan.c ****     else /* sFilterConfig->IdType == FDCAN_EXTENDED_ID */
1330:Drivers/STM32G4xx_HAL_Driver/Src/stm32g4xx_hal_fdcan.c ****     {
1331:Drivers/STM32G4xx_HAL_Driver/Src/stm32g4xx_hal_fdcan.c ****       /* Check function parameters */
1332:Drivers/STM32G4xx_HAL_Driver/Src/stm32g4xx_hal_fdcan.c ****       assert_param(IS_FDCAN_MAX_VALUE(sFilterConfig->FilterIndex, (hfdcan->Init.ExtFiltersNbr - 1U)
1333:Drivers/STM32G4xx_HAL_Driver/Src/stm32g4xx_hal_fdcan.c ****       assert_param(IS_FDCAN_MAX_VALUE(sFilterConfig->FilterID1, 0x1FFFFFFFU));
1334:Drivers/STM32G4xx_HAL_Driver/Src/stm32g4xx_hal_fdcan.c ****       assert_param(IS_FDCAN_MAX_VALUE(sFilterConfig->FilterID2, 0x1FFFFFFFU));
1335:Drivers/STM32G4xx_HAL_Driver/Src/stm32g4xx_hal_fdcan.c ****       assert_param(IS_FDCAN_EXT_FILTER_TYPE(sFilterConfig->FilterType));
1336:Drivers/STM32G4xx_HAL_Driver/Src/stm32g4xx_hal_fdcan.c **** 
1337:Drivers/STM32G4xx_HAL_Driver/Src/stm32g4xx_hal_fdcan.c ****       /* Build first word of filter element */
1338:Drivers/STM32G4xx_HAL_Driver/Src/stm32g4xx_hal_fdcan.c ****       FilterElementW1 = ((sFilterConfig->FilterConfig << 29U) | sFilterConfig->FilterID1);
 921              		.loc 1 1338 40
 922 005a 3B68     		ldr	r3, [r7]
 923 005c DB68     		ldr	r3, [r3, #12]
 924              		.loc 1 1338 55
 925 005e 5A07     		lsls	r2, r3, #29
ARM GAS  C:\Users\AURORA~1\AppData\Local\Temp\ccEbooPs.s 			page 41


 926              		.loc 1 1338 78
 927 0060 3B68     		ldr	r3, [r7]
 928 0062 1B69     		ldr	r3, [r3, #16]
 929              		.loc 1 1338 23
 930 0064 1343     		orrs	r3, r3, r2
 931 0066 3B61     		str	r3, [r7, #16]
1339:Drivers/STM32G4xx_HAL_Driver/Src/stm32g4xx_hal_fdcan.c **** 
1340:Drivers/STM32G4xx_HAL_Driver/Src/stm32g4xx_hal_fdcan.c ****       /* Build second word of filter element */
1341:Drivers/STM32G4xx_HAL_Driver/Src/stm32g4xx_hal_fdcan.c ****       FilterElementW2 = ((sFilterConfig->FilterType << 30U) | sFilterConfig->FilterID2);
 932              		.loc 1 1341 40
 933 0068 3B68     		ldr	r3, [r7]
 934 006a 9B68     		ldr	r3, [r3, #8]
 935              		.loc 1 1341 53
 936 006c 9A07     		lsls	r2, r3, #30
 937              		.loc 1 1341 76
 938 006e 3B68     		ldr	r3, [r7]
 939 0070 5B69     		ldr	r3, [r3, #20]
 940              		.loc 1 1341 23
 941 0072 1343     		orrs	r3, r3, r2
 942 0074 FB60     		str	r3, [r7, #12]
1342:Drivers/STM32G4xx_HAL_Driver/Src/stm32g4xx_hal_fdcan.c **** 
1343:Drivers/STM32G4xx_HAL_Driver/Src/stm32g4xx_hal_fdcan.c ****       /* Calculate filter address */
1344:Drivers/STM32G4xx_HAL_Driver/Src/stm32g4xx_hal_fdcan.c ****       FilterAddress = (uint32_t *)(hfdcan->msgRam.ExtendedFilterSA + (sFilterConfig->FilterIndex * 
 943              		.loc 1 1344 50
 944 0076 7B68     		ldr	r3, [r7, #4]
 945 0078 5A6C     		ldr	r2, [r3, #68]
 946              		.loc 1 1344 84
 947 007a 3B68     		ldr	r3, [r7]
 948 007c 5B68     		ldr	r3, [r3, #4]
 949              		.loc 1 1344 98
 950 007e DB00     		lsls	r3, r3, #3
 951              		.loc 1 1344 68
 952 0080 1344     		add	r3, r3, r2
 953              		.loc 1 1344 21
 954 0082 BB60     		str	r3, [r7, #8]
1345:Drivers/STM32G4xx_HAL_Driver/Src/stm32g4xx_hal_fdcan.c **** 
1346:Drivers/STM32G4xx_HAL_Driver/Src/stm32g4xx_hal_fdcan.c ****       /* Write filter element to the message RAM */
1347:Drivers/STM32G4xx_HAL_Driver/Src/stm32g4xx_hal_fdcan.c ****       *FilterAddress = FilterElementW1;
 955              		.loc 1 1347 22
 956 0084 BB68     		ldr	r3, [r7, #8]
 957 0086 3A69     		ldr	r2, [r7, #16]
 958 0088 1A60     		str	r2, [r3]
1348:Drivers/STM32G4xx_HAL_Driver/Src/stm32g4xx_hal_fdcan.c ****       FilterAddress++;
 959              		.loc 1 1348 20
 960 008a BB68     		ldr	r3, [r7, #8]
 961 008c 0433     		adds	r3, r3, #4
 962 008e BB60     		str	r3, [r7, #8]
1349:Drivers/STM32G4xx_HAL_Driver/Src/stm32g4xx_hal_fdcan.c ****       *FilterAddress = FilterElementW2;
 963              		.loc 1 1349 22
 964 0090 BB68     		ldr	r3, [r7, #8]
 965 0092 FA68     		ldr	r2, [r7, #12]
 966 0094 1A60     		str	r2, [r3]
 967              	.L39:
1350:Drivers/STM32G4xx_HAL_Driver/Src/stm32g4xx_hal_fdcan.c ****     }
1351:Drivers/STM32G4xx_HAL_Driver/Src/stm32g4xx_hal_fdcan.c **** 
1352:Drivers/STM32G4xx_HAL_Driver/Src/stm32g4xx_hal_fdcan.c ****     /* Return function status */
1353:Drivers/STM32G4xx_HAL_Driver/Src/stm32g4xx_hal_fdcan.c ****     return HAL_OK;
ARM GAS  C:\Users\AURORA~1\AppData\Local\Temp\ccEbooPs.s 			page 42


 968              		.loc 1 1353 12
 969 0096 0023     		movs	r3, #0
 970 0098 06E0     		b	.L40
 971              	.L37:
1354:Drivers/STM32G4xx_HAL_Driver/Src/stm32g4xx_hal_fdcan.c ****   }
1355:Drivers/STM32G4xx_HAL_Driver/Src/stm32g4xx_hal_fdcan.c ****   else
1356:Drivers/STM32G4xx_HAL_Driver/Src/stm32g4xx_hal_fdcan.c ****   {
1357:Drivers/STM32G4xx_HAL_Driver/Src/stm32g4xx_hal_fdcan.c ****     /* Update error code */
1358:Drivers/STM32G4xx_HAL_Driver/Src/stm32g4xx_hal_fdcan.c ****     hfdcan->ErrorCode |= HAL_FDCAN_ERROR_NOT_INITIALIZED;
 972              		.loc 1 1358 11
 973 009a 7B68     		ldr	r3, [r7, #4]
 974 009c 1B6E     		ldr	r3, [r3, #96]
 975              		.loc 1 1358 23
 976 009e 43F00202 		orr	r2, r3, #2
 977 00a2 7B68     		ldr	r3, [r7, #4]
 978 00a4 1A66     		str	r2, [r3, #96]
1359:Drivers/STM32G4xx_HAL_Driver/Src/stm32g4xx_hal_fdcan.c **** 
1360:Drivers/STM32G4xx_HAL_Driver/Src/stm32g4xx_hal_fdcan.c ****     return HAL_ERROR;
 979              		.loc 1 1360 12
 980 00a6 0123     		movs	r3, #1
 981              	.L40:
1361:Drivers/STM32G4xx_HAL_Driver/Src/stm32g4xx_hal_fdcan.c ****   }
1362:Drivers/STM32G4xx_HAL_Driver/Src/stm32g4xx_hal_fdcan.c **** }
 982              		.loc 1 1362 1
 983 00a8 1846     		mov	r0, r3
 984 00aa 1C37     		adds	r7, r7, #28
 985              	.LCFI35:
 986              		.cfi_def_cfa_offset 4
 987 00ac BD46     		mov	sp, r7
 988              	.LCFI36:
 989              		.cfi_def_cfa_register 13
 990              		@ sp needed
 991 00ae 5DF8047B 		ldr	r7, [sp], #4
 992              	.LCFI37:
 993              		.cfi_restore 7
 994              		.cfi_def_cfa_offset 0
 995 00b2 7047     		bx	lr
 996              		.cfi_endproc
 997              	.LFE138:
 999              		.section	.text.HAL_FDCAN_ConfigGlobalFilter,"ax",%progbits
 1000              		.align	1
 1001              		.global	HAL_FDCAN_ConfigGlobalFilter
 1002              		.syntax unified
 1003              		.thumb
 1004              		.thumb_func
 1006              	HAL_FDCAN_ConfigGlobalFilter:
 1007              	.LFB139:
1363:Drivers/STM32G4xx_HAL_Driver/Src/stm32g4xx_hal_fdcan.c **** 
1364:Drivers/STM32G4xx_HAL_Driver/Src/stm32g4xx_hal_fdcan.c **** /**
1365:Drivers/STM32G4xx_HAL_Driver/Src/stm32g4xx_hal_fdcan.c ****   * @brief  Configure the FDCAN global filter.
1366:Drivers/STM32G4xx_HAL_Driver/Src/stm32g4xx_hal_fdcan.c ****   * @param  hfdcan pointer to an FDCAN_HandleTypeDef structure that contains
1367:Drivers/STM32G4xx_HAL_Driver/Src/stm32g4xx_hal_fdcan.c ****   *         the configuration information for the specified FDCAN.
1368:Drivers/STM32G4xx_HAL_Driver/Src/stm32g4xx_hal_fdcan.c ****   * @param  NonMatchingStd Defines how received messages with 11-bit IDs that
1369:Drivers/STM32G4xx_HAL_Driver/Src/stm32g4xx_hal_fdcan.c ****   *         do not match any element of the filter list are treated.
1370:Drivers/STM32G4xx_HAL_Driver/Src/stm32g4xx_hal_fdcan.c ****   *         This parameter can be a value of @arg FDCAN_Non_Matching_Frames.
1371:Drivers/STM32G4xx_HAL_Driver/Src/stm32g4xx_hal_fdcan.c ****   * @param  NonMatchingExt Defines how received messages with 29-bit IDs that
1372:Drivers/STM32G4xx_HAL_Driver/Src/stm32g4xx_hal_fdcan.c ****   *         do not match any element of the filter list are treated.
ARM GAS  C:\Users\AURORA~1\AppData\Local\Temp\ccEbooPs.s 			page 43


1373:Drivers/STM32G4xx_HAL_Driver/Src/stm32g4xx_hal_fdcan.c ****   *         This parameter can be a value of @arg FDCAN_Non_Matching_Frames.
1374:Drivers/STM32G4xx_HAL_Driver/Src/stm32g4xx_hal_fdcan.c ****   * @param  RejectRemoteStd Filter or reject all the remote 11-bit IDs frames.
1375:Drivers/STM32G4xx_HAL_Driver/Src/stm32g4xx_hal_fdcan.c ****   *         This parameter can be a value of @arg FDCAN_Reject_Remote_Frames.
1376:Drivers/STM32G4xx_HAL_Driver/Src/stm32g4xx_hal_fdcan.c ****   * @param  RejectRemoteExt Filter or reject all the remote 29-bit IDs frames.
1377:Drivers/STM32G4xx_HAL_Driver/Src/stm32g4xx_hal_fdcan.c ****   *         This parameter can be a value of @arg FDCAN_Reject_Remote_Frames.
1378:Drivers/STM32G4xx_HAL_Driver/Src/stm32g4xx_hal_fdcan.c ****   * @retval HAL status
1379:Drivers/STM32G4xx_HAL_Driver/Src/stm32g4xx_hal_fdcan.c ****   */
1380:Drivers/STM32G4xx_HAL_Driver/Src/stm32g4xx_hal_fdcan.c **** HAL_StatusTypeDef HAL_FDCAN_ConfigGlobalFilter(FDCAN_HandleTypeDef *hfdcan,
1381:Drivers/STM32G4xx_HAL_Driver/Src/stm32g4xx_hal_fdcan.c ****                                                uint32_t NonMatchingStd,
1382:Drivers/STM32G4xx_HAL_Driver/Src/stm32g4xx_hal_fdcan.c ****                                                uint32_t NonMatchingExt,
1383:Drivers/STM32G4xx_HAL_Driver/Src/stm32g4xx_hal_fdcan.c ****                                                uint32_t RejectRemoteStd,
1384:Drivers/STM32G4xx_HAL_Driver/Src/stm32g4xx_hal_fdcan.c ****                                                uint32_t RejectRemoteExt)
1385:Drivers/STM32G4xx_HAL_Driver/Src/stm32g4xx_hal_fdcan.c **** {
 1008              		.loc 1 1385 1
 1009              		.cfi_startproc
 1010              		@ args = 4, pretend = 0, frame = 16
 1011              		@ frame_needed = 1, uses_anonymous_args = 0
 1012              		@ link register save eliminated.
 1013 0000 80B4     		push	{r7}
 1014              	.LCFI38:
 1015              		.cfi_def_cfa_offset 4
 1016              		.cfi_offset 7, -4
 1017 0002 85B0     		sub	sp, sp, #20
 1018              	.LCFI39:
 1019              		.cfi_def_cfa_offset 24
 1020 0004 00AF     		add	r7, sp, #0
 1021              	.LCFI40:
 1022              		.cfi_def_cfa_register 7
 1023 0006 F860     		str	r0, [r7, #12]
 1024 0008 B960     		str	r1, [r7, #8]
 1025 000a 7A60     		str	r2, [r7, #4]
 1026 000c 3B60     		str	r3, [r7]
1386:Drivers/STM32G4xx_HAL_Driver/Src/stm32g4xx_hal_fdcan.c ****   /* Check function parameters */
1387:Drivers/STM32G4xx_HAL_Driver/Src/stm32g4xx_hal_fdcan.c ****   assert_param(IS_FDCAN_NON_MATCHING(NonMatchingStd));
1388:Drivers/STM32G4xx_HAL_Driver/Src/stm32g4xx_hal_fdcan.c ****   assert_param(IS_FDCAN_NON_MATCHING(NonMatchingExt));
1389:Drivers/STM32G4xx_HAL_Driver/Src/stm32g4xx_hal_fdcan.c ****   assert_param(IS_FDCAN_REJECT_REMOTE(RejectRemoteStd));
1390:Drivers/STM32G4xx_HAL_Driver/Src/stm32g4xx_hal_fdcan.c ****   assert_param(IS_FDCAN_REJECT_REMOTE(RejectRemoteExt));
1391:Drivers/STM32G4xx_HAL_Driver/Src/stm32g4xx_hal_fdcan.c **** 
1392:Drivers/STM32G4xx_HAL_Driver/Src/stm32g4xx_hal_fdcan.c ****   if (hfdcan->State == HAL_FDCAN_STATE_READY)
 1027              		.loc 1 1392 13
 1028 000e FB68     		ldr	r3, [r7, #12]
 1029 0010 93F85C30 		ldrb	r3, [r3, #92]
 1030 0014 DBB2     		uxtb	r3, r3
 1031              		.loc 1 1392 6
 1032 0016 012B     		cmp	r3, #1
 1033 0018 16D1     		bne	.L42
1393:Drivers/STM32G4xx_HAL_Driver/Src/stm32g4xx_hal_fdcan.c ****   {
1394:Drivers/STM32G4xx_HAL_Driver/Src/stm32g4xx_hal_fdcan.c ****     /* Configure global filter */
1395:Drivers/STM32G4xx_HAL_Driver/Src/stm32g4xx_hal_fdcan.c ****     MODIFY_REG(hfdcan->Instance->RXGFC, (FDCAN_RXGFC_ANFS |
 1034              		.loc 1 1395 5
 1035 001a FB68     		ldr	r3, [r7, #12]
 1036 001c 1B68     		ldr	r3, [r3]
 1037 001e D3F88030 		ldr	r3, [r3, #128]
 1038 0022 23F03F01 		bic	r1, r3, #63
 1039 0026 BB68     		ldr	r3, [r7, #8]
 1040 0028 1A01     		lsls	r2, r3, #4
 1041 002a 7B68     		ldr	r3, [r7, #4]
ARM GAS  C:\Users\AURORA~1\AppData\Local\Temp\ccEbooPs.s 			page 44


 1042 002c 9B00     		lsls	r3, r3, #2
 1043 002e 1A43     		orrs	r2, r2, r3
 1044 0030 3B68     		ldr	r3, [r7]
 1045 0032 5B00     		lsls	r3, r3, #1
 1046 0034 1A43     		orrs	r2, r2, r3
 1047 0036 BB69     		ldr	r3, [r7, #24]
 1048 0038 1A43     		orrs	r2, r2, r3
 1049 003a FB68     		ldr	r3, [r7, #12]
 1050 003c 1B68     		ldr	r3, [r3]
 1051 003e 0A43     		orrs	r2, r2, r1
 1052 0040 C3F88020 		str	r2, [r3, #128]
1396:Drivers/STM32G4xx_HAL_Driver/Src/stm32g4xx_hal_fdcan.c ****                                          FDCAN_RXGFC_ANFE |
1397:Drivers/STM32G4xx_HAL_Driver/Src/stm32g4xx_hal_fdcan.c ****                                          FDCAN_RXGFC_RRFS |
1398:Drivers/STM32G4xx_HAL_Driver/Src/stm32g4xx_hal_fdcan.c ****                                          FDCAN_RXGFC_RRFE),
1399:Drivers/STM32G4xx_HAL_Driver/Src/stm32g4xx_hal_fdcan.c ****                ((NonMatchingStd << FDCAN_RXGFC_ANFS_Pos)  |
1400:Drivers/STM32G4xx_HAL_Driver/Src/stm32g4xx_hal_fdcan.c ****                 (NonMatchingExt << FDCAN_RXGFC_ANFE_Pos)  |
1401:Drivers/STM32G4xx_HAL_Driver/Src/stm32g4xx_hal_fdcan.c ****                 (RejectRemoteStd << FDCAN_RXGFC_RRFS_Pos) |
1402:Drivers/STM32G4xx_HAL_Driver/Src/stm32g4xx_hal_fdcan.c ****                 (RejectRemoteExt << FDCAN_RXGFC_RRFE_Pos)));
1403:Drivers/STM32G4xx_HAL_Driver/Src/stm32g4xx_hal_fdcan.c **** 
1404:Drivers/STM32G4xx_HAL_Driver/Src/stm32g4xx_hal_fdcan.c ****     /* Return function status */
1405:Drivers/STM32G4xx_HAL_Driver/Src/stm32g4xx_hal_fdcan.c ****     return HAL_OK;
 1053              		.loc 1 1405 12
 1054 0044 0023     		movs	r3, #0
 1055 0046 06E0     		b	.L43
 1056              	.L42:
1406:Drivers/STM32G4xx_HAL_Driver/Src/stm32g4xx_hal_fdcan.c ****   }
1407:Drivers/STM32G4xx_HAL_Driver/Src/stm32g4xx_hal_fdcan.c ****   else
1408:Drivers/STM32G4xx_HAL_Driver/Src/stm32g4xx_hal_fdcan.c ****   {
1409:Drivers/STM32G4xx_HAL_Driver/Src/stm32g4xx_hal_fdcan.c ****     /* Update error code */
1410:Drivers/STM32G4xx_HAL_Driver/Src/stm32g4xx_hal_fdcan.c ****     hfdcan->ErrorCode |= HAL_FDCAN_ERROR_NOT_READY;
 1057              		.loc 1 1410 11
 1058 0048 FB68     		ldr	r3, [r7, #12]
 1059 004a 1B6E     		ldr	r3, [r3, #96]
 1060              		.loc 1 1410 23
 1061 004c 43F00402 		orr	r2, r3, #4
 1062 0050 FB68     		ldr	r3, [r7, #12]
 1063 0052 1A66     		str	r2, [r3, #96]
1411:Drivers/STM32G4xx_HAL_Driver/Src/stm32g4xx_hal_fdcan.c **** 
1412:Drivers/STM32G4xx_HAL_Driver/Src/stm32g4xx_hal_fdcan.c ****     return HAL_ERROR;
 1064              		.loc 1 1412 12
 1065 0054 0123     		movs	r3, #1
 1066              	.L43:
1413:Drivers/STM32G4xx_HAL_Driver/Src/stm32g4xx_hal_fdcan.c ****   }
1414:Drivers/STM32G4xx_HAL_Driver/Src/stm32g4xx_hal_fdcan.c **** }
 1067              		.loc 1 1414 1
 1068 0056 1846     		mov	r0, r3
 1069 0058 1437     		adds	r7, r7, #20
 1070              	.LCFI41:
 1071              		.cfi_def_cfa_offset 4
 1072 005a BD46     		mov	sp, r7
 1073              	.LCFI42:
 1074              		.cfi_def_cfa_register 13
 1075              		@ sp needed
 1076 005c 5DF8047B 		ldr	r7, [sp], #4
 1077              	.LCFI43:
 1078              		.cfi_restore 7
 1079              		.cfi_def_cfa_offset 0
ARM GAS  C:\Users\AURORA~1\AppData\Local\Temp\ccEbooPs.s 			page 45


 1080 0060 7047     		bx	lr
 1081              		.cfi_endproc
 1082              	.LFE139:
 1084              		.section	.text.HAL_FDCAN_ConfigExtendedIdMask,"ax",%progbits
 1085              		.align	1
 1086              		.global	HAL_FDCAN_ConfigExtendedIdMask
 1087              		.syntax unified
 1088              		.thumb
 1089              		.thumb_func
 1091              	HAL_FDCAN_ConfigExtendedIdMask:
 1092              	.LFB140:
1415:Drivers/STM32G4xx_HAL_Driver/Src/stm32g4xx_hal_fdcan.c **** 
1416:Drivers/STM32G4xx_HAL_Driver/Src/stm32g4xx_hal_fdcan.c **** /**
1417:Drivers/STM32G4xx_HAL_Driver/Src/stm32g4xx_hal_fdcan.c ****   * @brief  Configure the extended ID mask.
1418:Drivers/STM32G4xx_HAL_Driver/Src/stm32g4xx_hal_fdcan.c ****   * @param  hfdcan pointer to an FDCAN_HandleTypeDef structure that contains
1419:Drivers/STM32G4xx_HAL_Driver/Src/stm32g4xx_hal_fdcan.c ****   *         the configuration information for the specified FDCAN.
1420:Drivers/STM32G4xx_HAL_Driver/Src/stm32g4xx_hal_fdcan.c ****   * @param  Mask Extended ID Mask.
1421:Drivers/STM32G4xx_HAL_Driver/Src/stm32g4xx_hal_fdcan.c ****   *         This parameter must be a number between 0 and 0x1FFFFFFF.
1422:Drivers/STM32G4xx_HAL_Driver/Src/stm32g4xx_hal_fdcan.c ****   * @retval HAL status
1423:Drivers/STM32G4xx_HAL_Driver/Src/stm32g4xx_hal_fdcan.c ****   */
1424:Drivers/STM32G4xx_HAL_Driver/Src/stm32g4xx_hal_fdcan.c **** HAL_StatusTypeDef HAL_FDCAN_ConfigExtendedIdMask(FDCAN_HandleTypeDef *hfdcan, uint32_t Mask)
1425:Drivers/STM32G4xx_HAL_Driver/Src/stm32g4xx_hal_fdcan.c **** {
 1093              		.loc 1 1425 1
 1094              		.cfi_startproc
 1095              		@ args = 0, pretend = 0, frame = 8
 1096              		@ frame_needed = 1, uses_anonymous_args = 0
 1097              		@ link register save eliminated.
 1098 0000 80B4     		push	{r7}
 1099              	.LCFI44:
 1100              		.cfi_def_cfa_offset 4
 1101              		.cfi_offset 7, -4
 1102 0002 83B0     		sub	sp, sp, #12
 1103              	.LCFI45:
 1104              		.cfi_def_cfa_offset 16
 1105 0004 00AF     		add	r7, sp, #0
 1106              	.LCFI46:
 1107              		.cfi_def_cfa_register 7
 1108 0006 7860     		str	r0, [r7, #4]
 1109 0008 3960     		str	r1, [r7]
1426:Drivers/STM32G4xx_HAL_Driver/Src/stm32g4xx_hal_fdcan.c ****   /* Check function parameters */
1427:Drivers/STM32G4xx_HAL_Driver/Src/stm32g4xx_hal_fdcan.c ****   assert_param(IS_FDCAN_MAX_VALUE(Mask, 0x1FFFFFFFU));
1428:Drivers/STM32G4xx_HAL_Driver/Src/stm32g4xx_hal_fdcan.c **** 
1429:Drivers/STM32G4xx_HAL_Driver/Src/stm32g4xx_hal_fdcan.c ****   if (hfdcan->State == HAL_FDCAN_STATE_READY)
 1110              		.loc 1 1429 13
 1111 000a 7B68     		ldr	r3, [r7, #4]
 1112 000c 93F85C30 		ldrb	r3, [r3, #92]
 1113 0010 DBB2     		uxtb	r3, r3
 1114              		.loc 1 1429 6
 1115 0012 012B     		cmp	r3, #1
 1116 0014 06D1     		bne	.L45
1430:Drivers/STM32G4xx_HAL_Driver/Src/stm32g4xx_hal_fdcan.c ****   {
1431:Drivers/STM32G4xx_HAL_Driver/Src/stm32g4xx_hal_fdcan.c ****     /* Configure the extended ID mask */
1432:Drivers/STM32G4xx_HAL_Driver/Src/stm32g4xx_hal_fdcan.c ****     hfdcan->Instance->XIDAM = Mask;
 1117              		.loc 1 1432 11
 1118 0016 7B68     		ldr	r3, [r7, #4]
 1119 0018 1B68     		ldr	r3, [r3]
 1120              		.loc 1 1432 29
ARM GAS  C:\Users\AURORA~1\AppData\Local\Temp\ccEbooPs.s 			page 46


 1121 001a 3A68     		ldr	r2, [r7]
 1122 001c C3F88420 		str	r2, [r3, #132]
1433:Drivers/STM32G4xx_HAL_Driver/Src/stm32g4xx_hal_fdcan.c **** 
1434:Drivers/STM32G4xx_HAL_Driver/Src/stm32g4xx_hal_fdcan.c ****     /* Return function status */
1435:Drivers/STM32G4xx_HAL_Driver/Src/stm32g4xx_hal_fdcan.c ****     return HAL_OK;
 1123              		.loc 1 1435 12
 1124 0020 0023     		movs	r3, #0
 1125 0022 06E0     		b	.L46
 1126              	.L45:
1436:Drivers/STM32G4xx_HAL_Driver/Src/stm32g4xx_hal_fdcan.c ****   }
1437:Drivers/STM32G4xx_HAL_Driver/Src/stm32g4xx_hal_fdcan.c ****   else
1438:Drivers/STM32G4xx_HAL_Driver/Src/stm32g4xx_hal_fdcan.c ****   {
1439:Drivers/STM32G4xx_HAL_Driver/Src/stm32g4xx_hal_fdcan.c ****     /* Update error code */
1440:Drivers/STM32G4xx_HAL_Driver/Src/stm32g4xx_hal_fdcan.c ****     hfdcan->ErrorCode |= HAL_FDCAN_ERROR_NOT_READY;
 1127              		.loc 1 1440 11
 1128 0024 7B68     		ldr	r3, [r7, #4]
 1129 0026 1B6E     		ldr	r3, [r3, #96]
 1130              		.loc 1 1440 23
 1131 0028 43F00402 		orr	r2, r3, #4
 1132 002c 7B68     		ldr	r3, [r7, #4]
 1133 002e 1A66     		str	r2, [r3, #96]
1441:Drivers/STM32G4xx_HAL_Driver/Src/stm32g4xx_hal_fdcan.c **** 
1442:Drivers/STM32G4xx_HAL_Driver/Src/stm32g4xx_hal_fdcan.c ****     return HAL_ERROR;
 1134              		.loc 1 1442 12
 1135 0030 0123     		movs	r3, #1
 1136              	.L46:
1443:Drivers/STM32G4xx_HAL_Driver/Src/stm32g4xx_hal_fdcan.c ****   }
1444:Drivers/STM32G4xx_HAL_Driver/Src/stm32g4xx_hal_fdcan.c **** }
 1137              		.loc 1 1444 1
 1138 0032 1846     		mov	r0, r3
 1139 0034 0C37     		adds	r7, r7, #12
 1140              	.LCFI47:
 1141              		.cfi_def_cfa_offset 4
 1142 0036 BD46     		mov	sp, r7
 1143              	.LCFI48:
 1144              		.cfi_def_cfa_register 13
 1145              		@ sp needed
 1146 0038 5DF8047B 		ldr	r7, [sp], #4
 1147              	.LCFI49:
 1148              		.cfi_restore 7
 1149              		.cfi_def_cfa_offset 0
 1150 003c 7047     		bx	lr
 1151              		.cfi_endproc
 1152              	.LFE140:
 1154              		.section	.text.HAL_FDCAN_ConfigRxFifoOverwrite,"ax",%progbits
 1155              		.align	1
 1156              		.global	HAL_FDCAN_ConfigRxFifoOverwrite
 1157              		.syntax unified
 1158              		.thumb
 1159              		.thumb_func
 1161              	HAL_FDCAN_ConfigRxFifoOverwrite:
 1162              	.LFB141:
1445:Drivers/STM32G4xx_HAL_Driver/Src/stm32g4xx_hal_fdcan.c **** 
1446:Drivers/STM32G4xx_HAL_Driver/Src/stm32g4xx_hal_fdcan.c **** /**
1447:Drivers/STM32G4xx_HAL_Driver/Src/stm32g4xx_hal_fdcan.c ****   * @brief  Configure the Rx FIFO operation mode.
1448:Drivers/STM32G4xx_HAL_Driver/Src/stm32g4xx_hal_fdcan.c ****   * @param  hfdcan pointer to an FDCAN_HandleTypeDef structure that contains
1449:Drivers/STM32G4xx_HAL_Driver/Src/stm32g4xx_hal_fdcan.c ****   *         the configuration information for the specified FDCAN.
ARM GAS  C:\Users\AURORA~1\AppData\Local\Temp\ccEbooPs.s 			page 47


1450:Drivers/STM32G4xx_HAL_Driver/Src/stm32g4xx_hal_fdcan.c ****   * @param  RxFifo Rx FIFO.
1451:Drivers/STM32G4xx_HAL_Driver/Src/stm32g4xx_hal_fdcan.c ****   *         This parameter can be one of the following values:
1452:Drivers/STM32G4xx_HAL_Driver/Src/stm32g4xx_hal_fdcan.c ****   *           @arg FDCAN_RX_FIFO0: Rx FIFO 0
1453:Drivers/STM32G4xx_HAL_Driver/Src/stm32g4xx_hal_fdcan.c ****   *           @arg FDCAN_RX_FIFO1: Rx FIFO 1
1454:Drivers/STM32G4xx_HAL_Driver/Src/stm32g4xx_hal_fdcan.c ****   * @param  OperationMode operation mode.
1455:Drivers/STM32G4xx_HAL_Driver/Src/stm32g4xx_hal_fdcan.c ****   *         This parameter can be a value of @arg FDCAN_Rx_FIFO_operation_mode.
1456:Drivers/STM32G4xx_HAL_Driver/Src/stm32g4xx_hal_fdcan.c ****   * @retval HAL status
1457:Drivers/STM32G4xx_HAL_Driver/Src/stm32g4xx_hal_fdcan.c ****   */
1458:Drivers/STM32G4xx_HAL_Driver/Src/stm32g4xx_hal_fdcan.c **** HAL_StatusTypeDef HAL_FDCAN_ConfigRxFifoOverwrite(FDCAN_HandleTypeDef *hfdcan, uint32_t RxFifo, uin
1459:Drivers/STM32G4xx_HAL_Driver/Src/stm32g4xx_hal_fdcan.c **** {
 1163              		.loc 1 1459 1
 1164              		.cfi_startproc
 1165              		@ args = 0, pretend = 0, frame = 16
 1166              		@ frame_needed = 1, uses_anonymous_args = 0
 1167              		@ link register save eliminated.
 1168 0000 80B4     		push	{r7}
 1169              	.LCFI50:
 1170              		.cfi_def_cfa_offset 4
 1171              		.cfi_offset 7, -4
 1172 0002 85B0     		sub	sp, sp, #20
 1173              	.LCFI51:
 1174              		.cfi_def_cfa_offset 24
 1175 0004 00AF     		add	r7, sp, #0
 1176              	.LCFI52:
 1177              		.cfi_def_cfa_register 7
 1178 0006 F860     		str	r0, [r7, #12]
 1179 0008 B960     		str	r1, [r7, #8]
 1180 000a 7A60     		str	r2, [r7, #4]
1460:Drivers/STM32G4xx_HAL_Driver/Src/stm32g4xx_hal_fdcan.c ****   /* Check function parameters */
1461:Drivers/STM32G4xx_HAL_Driver/Src/stm32g4xx_hal_fdcan.c ****   assert_param(IS_FDCAN_RX_FIFO(RxFifo));
1462:Drivers/STM32G4xx_HAL_Driver/Src/stm32g4xx_hal_fdcan.c ****   assert_param(IS_FDCAN_RX_FIFO_MODE(OperationMode));
1463:Drivers/STM32G4xx_HAL_Driver/Src/stm32g4xx_hal_fdcan.c **** 
1464:Drivers/STM32G4xx_HAL_Driver/Src/stm32g4xx_hal_fdcan.c ****   if (hfdcan->State == HAL_FDCAN_STATE_READY)
 1181              		.loc 1 1464 13
 1182 000c FB68     		ldr	r3, [r7, #12]
 1183 000e 93F85C30 		ldrb	r3, [r3, #92]
 1184 0012 DBB2     		uxtb	r3, r3
 1185              		.loc 1 1464 6
 1186 0014 012B     		cmp	r3, #1
 1187 0016 1FD1     		bne	.L48
1465:Drivers/STM32G4xx_HAL_Driver/Src/stm32g4xx_hal_fdcan.c ****   {
1466:Drivers/STM32G4xx_HAL_Driver/Src/stm32g4xx_hal_fdcan.c ****     if (RxFifo == FDCAN_RX_FIFO0)
 1188              		.loc 1 1466 8
 1189 0018 BB68     		ldr	r3, [r7, #8]
 1190 001a 402B     		cmp	r3, #64
 1191 001c 0DD1     		bne	.L49
1467:Drivers/STM32G4xx_HAL_Driver/Src/stm32g4xx_hal_fdcan.c ****     {
1468:Drivers/STM32G4xx_HAL_Driver/Src/stm32g4xx_hal_fdcan.c ****       /* Select FIFO 0 Operation Mode */
1469:Drivers/STM32G4xx_HAL_Driver/Src/stm32g4xx_hal_fdcan.c ****       MODIFY_REG(hfdcan->Instance->RXGFC, FDCAN_RXGFC_F0OM, (OperationMode << FDCAN_RXGFC_F0OM_Pos)
 1192              		.loc 1 1469 7
 1193 001e FB68     		ldr	r3, [r7, #12]
 1194 0020 1B68     		ldr	r3, [r3]
 1195 0022 D3F88030 		ldr	r3, [r3, #128]
 1196 0026 23F40071 		bic	r1, r3, #512
 1197 002a 7B68     		ldr	r3, [r7, #4]
 1198 002c 5A02     		lsls	r2, r3, #9
 1199 002e FB68     		ldr	r3, [r7, #12]
ARM GAS  C:\Users\AURORA~1\AppData\Local\Temp\ccEbooPs.s 			page 48


 1200 0030 1B68     		ldr	r3, [r3]
 1201 0032 0A43     		orrs	r2, r2, r1
 1202 0034 C3F88020 		str	r2, [r3, #128]
 1203 0038 0CE0     		b	.L50
 1204              	.L49:
1470:Drivers/STM32G4xx_HAL_Driver/Src/stm32g4xx_hal_fdcan.c ****     }
1471:Drivers/STM32G4xx_HAL_Driver/Src/stm32g4xx_hal_fdcan.c ****     else /* RxFifo == FDCAN_RX_FIFO1 */
1472:Drivers/STM32G4xx_HAL_Driver/Src/stm32g4xx_hal_fdcan.c ****     {
1473:Drivers/STM32G4xx_HAL_Driver/Src/stm32g4xx_hal_fdcan.c ****       /* Select FIFO 1 Operation Mode */
1474:Drivers/STM32G4xx_HAL_Driver/Src/stm32g4xx_hal_fdcan.c ****       MODIFY_REG(hfdcan->Instance->RXGFC, FDCAN_RXGFC_F1OM, (OperationMode << FDCAN_RXGFC_F1OM_Pos)
 1205              		.loc 1 1474 7
 1206 003a FB68     		ldr	r3, [r7, #12]
 1207 003c 1B68     		ldr	r3, [r3]
 1208 003e D3F88030 		ldr	r3, [r3, #128]
 1209 0042 23F48071 		bic	r1, r3, #256
 1210 0046 7B68     		ldr	r3, [r7, #4]
 1211 0048 1A02     		lsls	r2, r3, #8
 1212 004a FB68     		ldr	r3, [r7, #12]
 1213 004c 1B68     		ldr	r3, [r3]
 1214 004e 0A43     		orrs	r2, r2, r1
 1215 0050 C3F88020 		str	r2, [r3, #128]
 1216              	.L50:
1475:Drivers/STM32G4xx_HAL_Driver/Src/stm32g4xx_hal_fdcan.c ****     }
1476:Drivers/STM32G4xx_HAL_Driver/Src/stm32g4xx_hal_fdcan.c **** 
1477:Drivers/STM32G4xx_HAL_Driver/Src/stm32g4xx_hal_fdcan.c ****     /* Return function status */
1478:Drivers/STM32G4xx_HAL_Driver/Src/stm32g4xx_hal_fdcan.c ****     return HAL_OK;
 1217              		.loc 1 1478 12
 1218 0054 0023     		movs	r3, #0
 1219 0056 06E0     		b	.L51
 1220              	.L48:
1479:Drivers/STM32G4xx_HAL_Driver/Src/stm32g4xx_hal_fdcan.c ****   }
1480:Drivers/STM32G4xx_HAL_Driver/Src/stm32g4xx_hal_fdcan.c ****   else
1481:Drivers/STM32G4xx_HAL_Driver/Src/stm32g4xx_hal_fdcan.c ****   {
1482:Drivers/STM32G4xx_HAL_Driver/Src/stm32g4xx_hal_fdcan.c ****     /* Update error code */
1483:Drivers/STM32G4xx_HAL_Driver/Src/stm32g4xx_hal_fdcan.c ****     hfdcan->ErrorCode |= HAL_FDCAN_ERROR_NOT_READY;
 1221              		.loc 1 1483 11
 1222 0058 FB68     		ldr	r3, [r7, #12]
 1223 005a 1B6E     		ldr	r3, [r3, #96]
 1224              		.loc 1 1483 23
 1225 005c 43F00402 		orr	r2, r3, #4
 1226 0060 FB68     		ldr	r3, [r7, #12]
 1227 0062 1A66     		str	r2, [r3, #96]
1484:Drivers/STM32G4xx_HAL_Driver/Src/stm32g4xx_hal_fdcan.c **** 
1485:Drivers/STM32G4xx_HAL_Driver/Src/stm32g4xx_hal_fdcan.c ****     return HAL_ERROR;
 1228              		.loc 1 1485 12
 1229 0064 0123     		movs	r3, #1
 1230              	.L51:
1486:Drivers/STM32G4xx_HAL_Driver/Src/stm32g4xx_hal_fdcan.c ****   }
1487:Drivers/STM32G4xx_HAL_Driver/Src/stm32g4xx_hal_fdcan.c **** }
 1231              		.loc 1 1487 1
 1232 0066 1846     		mov	r0, r3
 1233 0068 1437     		adds	r7, r7, #20
 1234              	.LCFI53:
 1235              		.cfi_def_cfa_offset 4
 1236 006a BD46     		mov	sp, r7
 1237              	.LCFI54:
 1238              		.cfi_def_cfa_register 13
ARM GAS  C:\Users\AURORA~1\AppData\Local\Temp\ccEbooPs.s 			page 49


 1239              		@ sp needed
 1240 006c 5DF8047B 		ldr	r7, [sp], #4
 1241              	.LCFI55:
 1242              		.cfi_restore 7
 1243              		.cfi_def_cfa_offset 0
 1244 0070 7047     		bx	lr
 1245              		.cfi_endproc
 1246              	.LFE141:
 1248              		.section	.text.HAL_FDCAN_ConfigRamWatchdog,"ax",%progbits
 1249              		.align	1
 1250              		.global	HAL_FDCAN_ConfigRamWatchdog
 1251              		.syntax unified
 1252              		.thumb
 1253              		.thumb_func
 1255              	HAL_FDCAN_ConfigRamWatchdog:
 1256              	.LFB142:
1488:Drivers/STM32G4xx_HAL_Driver/Src/stm32g4xx_hal_fdcan.c **** 
1489:Drivers/STM32G4xx_HAL_Driver/Src/stm32g4xx_hal_fdcan.c **** /**
1490:Drivers/STM32G4xx_HAL_Driver/Src/stm32g4xx_hal_fdcan.c ****   * @brief  Configure the RAM watchdog.
1491:Drivers/STM32G4xx_HAL_Driver/Src/stm32g4xx_hal_fdcan.c ****   * @param  hfdcan pointer to an FDCAN_HandleTypeDef structure that contains
1492:Drivers/STM32G4xx_HAL_Driver/Src/stm32g4xx_hal_fdcan.c ****   *         the configuration information for the specified FDCAN.
1493:Drivers/STM32G4xx_HAL_Driver/Src/stm32g4xx_hal_fdcan.c ****   * @param  CounterStartValue Start value of the Message RAM Watchdog Counter,
1494:Drivers/STM32G4xx_HAL_Driver/Src/stm32g4xx_hal_fdcan.c ****   *         This parameter must be a number between 0x00 and 0xFF,
1495:Drivers/STM32G4xx_HAL_Driver/Src/stm32g4xx_hal_fdcan.c ****   *         with the reset value of 0x00 the counter is disabled.
1496:Drivers/STM32G4xx_HAL_Driver/Src/stm32g4xx_hal_fdcan.c ****   * @retval HAL status
1497:Drivers/STM32G4xx_HAL_Driver/Src/stm32g4xx_hal_fdcan.c ****   */
1498:Drivers/STM32G4xx_HAL_Driver/Src/stm32g4xx_hal_fdcan.c **** HAL_StatusTypeDef HAL_FDCAN_ConfigRamWatchdog(FDCAN_HandleTypeDef *hfdcan, uint32_t CounterStartVal
1499:Drivers/STM32G4xx_HAL_Driver/Src/stm32g4xx_hal_fdcan.c **** {
 1257              		.loc 1 1499 1
 1258              		.cfi_startproc
 1259              		@ args = 0, pretend = 0, frame = 8
 1260              		@ frame_needed = 1, uses_anonymous_args = 0
 1261              		@ link register save eliminated.
 1262 0000 80B4     		push	{r7}
 1263              	.LCFI56:
 1264              		.cfi_def_cfa_offset 4
 1265              		.cfi_offset 7, -4
 1266 0002 83B0     		sub	sp, sp, #12
 1267              	.LCFI57:
 1268              		.cfi_def_cfa_offset 16
 1269 0004 00AF     		add	r7, sp, #0
 1270              	.LCFI58:
 1271              		.cfi_def_cfa_register 7
 1272 0006 7860     		str	r0, [r7, #4]
 1273 0008 3960     		str	r1, [r7]
1500:Drivers/STM32G4xx_HAL_Driver/Src/stm32g4xx_hal_fdcan.c ****   /* Check function parameters */
1501:Drivers/STM32G4xx_HAL_Driver/Src/stm32g4xx_hal_fdcan.c ****   assert_param(IS_FDCAN_MAX_VALUE(CounterStartValue, 0xFFU));
1502:Drivers/STM32G4xx_HAL_Driver/Src/stm32g4xx_hal_fdcan.c **** 
1503:Drivers/STM32G4xx_HAL_Driver/Src/stm32g4xx_hal_fdcan.c ****   if (hfdcan->State == HAL_FDCAN_STATE_READY)
 1274              		.loc 1 1503 13
 1275 000a 7B68     		ldr	r3, [r7, #4]
 1276 000c 93F85C30 		ldrb	r3, [r3, #92]
 1277 0010 DBB2     		uxtb	r3, r3
 1278              		.loc 1 1503 6
 1279 0012 012B     		cmp	r3, #1
 1280 0014 0BD1     		bne	.L53
1504:Drivers/STM32G4xx_HAL_Driver/Src/stm32g4xx_hal_fdcan.c ****   {
ARM GAS  C:\Users\AURORA~1\AppData\Local\Temp\ccEbooPs.s 			page 50


1505:Drivers/STM32G4xx_HAL_Driver/Src/stm32g4xx_hal_fdcan.c ****     /* Configure the RAM watchdog counter start value */
1506:Drivers/STM32G4xx_HAL_Driver/Src/stm32g4xx_hal_fdcan.c ****     MODIFY_REG(hfdcan->Instance->RWD, FDCAN_RWD_WDC, CounterStartValue);
 1281              		.loc 1 1506 5
 1282 0016 7B68     		ldr	r3, [r7, #4]
 1283 0018 1B68     		ldr	r3, [r3]
 1284 001a 5B69     		ldr	r3, [r3, #20]
 1285 001c 23F0FF01 		bic	r1, r3, #255
 1286 0020 7B68     		ldr	r3, [r7, #4]
 1287 0022 1B68     		ldr	r3, [r3]
 1288 0024 3A68     		ldr	r2, [r7]
 1289 0026 0A43     		orrs	r2, r2, r1
 1290 0028 5A61     		str	r2, [r3, #20]
1507:Drivers/STM32G4xx_HAL_Driver/Src/stm32g4xx_hal_fdcan.c **** 
1508:Drivers/STM32G4xx_HAL_Driver/Src/stm32g4xx_hal_fdcan.c ****     /* Return function status */
1509:Drivers/STM32G4xx_HAL_Driver/Src/stm32g4xx_hal_fdcan.c ****     return HAL_OK;
 1291              		.loc 1 1509 12
 1292 002a 0023     		movs	r3, #0
 1293 002c 06E0     		b	.L54
 1294              	.L53:
1510:Drivers/STM32G4xx_HAL_Driver/Src/stm32g4xx_hal_fdcan.c ****   }
1511:Drivers/STM32G4xx_HAL_Driver/Src/stm32g4xx_hal_fdcan.c ****   else
1512:Drivers/STM32G4xx_HAL_Driver/Src/stm32g4xx_hal_fdcan.c ****   {
1513:Drivers/STM32G4xx_HAL_Driver/Src/stm32g4xx_hal_fdcan.c ****     /* Update error code */
1514:Drivers/STM32G4xx_HAL_Driver/Src/stm32g4xx_hal_fdcan.c ****     hfdcan->ErrorCode |= HAL_FDCAN_ERROR_NOT_READY;
 1295              		.loc 1 1514 11
 1296 002e 7B68     		ldr	r3, [r7, #4]
 1297 0030 1B6E     		ldr	r3, [r3, #96]
 1298              		.loc 1 1514 23
 1299 0032 43F00402 		orr	r2, r3, #4
 1300 0036 7B68     		ldr	r3, [r7, #4]
 1301 0038 1A66     		str	r2, [r3, #96]
1515:Drivers/STM32G4xx_HAL_Driver/Src/stm32g4xx_hal_fdcan.c **** 
1516:Drivers/STM32G4xx_HAL_Driver/Src/stm32g4xx_hal_fdcan.c ****     return HAL_ERROR;
 1302              		.loc 1 1516 12
 1303 003a 0123     		movs	r3, #1
 1304              	.L54:
1517:Drivers/STM32G4xx_HAL_Driver/Src/stm32g4xx_hal_fdcan.c ****   }
1518:Drivers/STM32G4xx_HAL_Driver/Src/stm32g4xx_hal_fdcan.c **** }
 1305              		.loc 1 1518 1
 1306 003c 1846     		mov	r0, r3
 1307 003e 0C37     		adds	r7, r7, #12
 1308              	.LCFI59:
 1309              		.cfi_def_cfa_offset 4
 1310 0040 BD46     		mov	sp, r7
 1311              	.LCFI60:
 1312              		.cfi_def_cfa_register 13
 1313              		@ sp needed
 1314 0042 5DF8047B 		ldr	r7, [sp], #4
 1315              	.LCFI61:
 1316              		.cfi_restore 7
 1317              		.cfi_def_cfa_offset 0
 1318 0046 7047     		bx	lr
 1319              		.cfi_endproc
 1320              	.LFE142:
 1322              		.section	.text.HAL_FDCAN_ConfigTimestampCounter,"ax",%progbits
 1323              		.align	1
 1324              		.global	HAL_FDCAN_ConfigTimestampCounter
ARM GAS  C:\Users\AURORA~1\AppData\Local\Temp\ccEbooPs.s 			page 51


 1325              		.syntax unified
 1326              		.thumb
 1327              		.thumb_func
 1329              	HAL_FDCAN_ConfigTimestampCounter:
 1330              	.LFB143:
1519:Drivers/STM32G4xx_HAL_Driver/Src/stm32g4xx_hal_fdcan.c **** 
1520:Drivers/STM32G4xx_HAL_Driver/Src/stm32g4xx_hal_fdcan.c **** /**
1521:Drivers/STM32G4xx_HAL_Driver/Src/stm32g4xx_hal_fdcan.c ****   * @brief  Configure the timestamp counter.
1522:Drivers/STM32G4xx_HAL_Driver/Src/stm32g4xx_hal_fdcan.c ****   * @param  hfdcan pointer to an FDCAN_HandleTypeDef structure that contains
1523:Drivers/STM32G4xx_HAL_Driver/Src/stm32g4xx_hal_fdcan.c ****   *         the configuration information for the specified FDCAN.
1524:Drivers/STM32G4xx_HAL_Driver/Src/stm32g4xx_hal_fdcan.c ****   * @param  TimestampPrescaler Timestamp Counter Prescaler.
1525:Drivers/STM32G4xx_HAL_Driver/Src/stm32g4xx_hal_fdcan.c ****   *         This parameter can be a value of @arg FDCAN_Timestamp_Prescaler.
1526:Drivers/STM32G4xx_HAL_Driver/Src/stm32g4xx_hal_fdcan.c ****   * @retval HAL status
1527:Drivers/STM32G4xx_HAL_Driver/Src/stm32g4xx_hal_fdcan.c ****   */
1528:Drivers/STM32G4xx_HAL_Driver/Src/stm32g4xx_hal_fdcan.c **** HAL_StatusTypeDef HAL_FDCAN_ConfigTimestampCounter(FDCAN_HandleTypeDef *hfdcan, uint32_t TimestampP
1529:Drivers/STM32G4xx_HAL_Driver/Src/stm32g4xx_hal_fdcan.c **** {
 1331              		.loc 1 1529 1
 1332              		.cfi_startproc
 1333              		@ args = 0, pretend = 0, frame = 8
 1334              		@ frame_needed = 1, uses_anonymous_args = 0
 1335              		@ link register save eliminated.
 1336 0000 80B4     		push	{r7}
 1337              	.LCFI62:
 1338              		.cfi_def_cfa_offset 4
 1339              		.cfi_offset 7, -4
 1340 0002 83B0     		sub	sp, sp, #12
 1341              	.LCFI63:
 1342              		.cfi_def_cfa_offset 16
 1343 0004 00AF     		add	r7, sp, #0
 1344              	.LCFI64:
 1345              		.cfi_def_cfa_register 7
 1346 0006 7860     		str	r0, [r7, #4]
 1347 0008 3960     		str	r1, [r7]
1530:Drivers/STM32G4xx_HAL_Driver/Src/stm32g4xx_hal_fdcan.c ****   /* Check function parameters */
1531:Drivers/STM32G4xx_HAL_Driver/Src/stm32g4xx_hal_fdcan.c ****   assert_param(IS_FDCAN_TIMESTAMP_PRESCALER(TimestampPrescaler));
1532:Drivers/STM32G4xx_HAL_Driver/Src/stm32g4xx_hal_fdcan.c **** 
1533:Drivers/STM32G4xx_HAL_Driver/Src/stm32g4xx_hal_fdcan.c ****   if (hfdcan->State == HAL_FDCAN_STATE_READY)
 1348              		.loc 1 1533 13
 1349 000a 7B68     		ldr	r3, [r7, #4]
 1350 000c 93F85C30 		ldrb	r3, [r3, #92]
 1351 0010 DBB2     		uxtb	r3, r3
 1352              		.loc 1 1533 6
 1353 0012 012B     		cmp	r3, #1
 1354 0014 0BD1     		bne	.L56
1534:Drivers/STM32G4xx_HAL_Driver/Src/stm32g4xx_hal_fdcan.c ****   {
1535:Drivers/STM32G4xx_HAL_Driver/Src/stm32g4xx_hal_fdcan.c ****     /* Configure prescaler */
1536:Drivers/STM32G4xx_HAL_Driver/Src/stm32g4xx_hal_fdcan.c ****     MODIFY_REG(hfdcan->Instance->TSCC, FDCAN_TSCC_TCP, TimestampPrescaler);
 1355              		.loc 1 1536 5
 1356 0016 7B68     		ldr	r3, [r7, #4]
 1357 0018 1B68     		ldr	r3, [r3]
 1358 001a 1B6A     		ldr	r3, [r3, #32]
 1359 001c 23F47021 		bic	r1, r3, #983040
 1360 0020 7B68     		ldr	r3, [r7, #4]
 1361 0022 1B68     		ldr	r3, [r3]
 1362 0024 3A68     		ldr	r2, [r7]
 1363 0026 0A43     		orrs	r2, r2, r1
 1364 0028 1A62     		str	r2, [r3, #32]
ARM GAS  C:\Users\AURORA~1\AppData\Local\Temp\ccEbooPs.s 			page 52


1537:Drivers/STM32G4xx_HAL_Driver/Src/stm32g4xx_hal_fdcan.c **** 
1538:Drivers/STM32G4xx_HAL_Driver/Src/stm32g4xx_hal_fdcan.c ****     /* Return function status */
1539:Drivers/STM32G4xx_HAL_Driver/Src/stm32g4xx_hal_fdcan.c ****     return HAL_OK;
 1365              		.loc 1 1539 12
 1366 002a 0023     		movs	r3, #0
 1367 002c 06E0     		b	.L57
 1368              	.L56:
1540:Drivers/STM32G4xx_HAL_Driver/Src/stm32g4xx_hal_fdcan.c ****   }
1541:Drivers/STM32G4xx_HAL_Driver/Src/stm32g4xx_hal_fdcan.c ****   else
1542:Drivers/STM32G4xx_HAL_Driver/Src/stm32g4xx_hal_fdcan.c ****   {
1543:Drivers/STM32G4xx_HAL_Driver/Src/stm32g4xx_hal_fdcan.c ****     /* Update error code */
1544:Drivers/STM32G4xx_HAL_Driver/Src/stm32g4xx_hal_fdcan.c ****     hfdcan->ErrorCode |= HAL_FDCAN_ERROR_NOT_READY;
 1369              		.loc 1 1544 11
 1370 002e 7B68     		ldr	r3, [r7, #4]
 1371 0030 1B6E     		ldr	r3, [r3, #96]
 1372              		.loc 1 1544 23
 1373 0032 43F00402 		orr	r2, r3, #4
 1374 0036 7B68     		ldr	r3, [r7, #4]
 1375 0038 1A66     		str	r2, [r3, #96]
1545:Drivers/STM32G4xx_HAL_Driver/Src/stm32g4xx_hal_fdcan.c **** 
1546:Drivers/STM32G4xx_HAL_Driver/Src/stm32g4xx_hal_fdcan.c ****     return HAL_ERROR;
 1376              		.loc 1 1546 12
 1377 003a 0123     		movs	r3, #1
 1378              	.L57:
1547:Drivers/STM32G4xx_HAL_Driver/Src/stm32g4xx_hal_fdcan.c ****   }
1548:Drivers/STM32G4xx_HAL_Driver/Src/stm32g4xx_hal_fdcan.c **** }
 1379              		.loc 1 1548 1
 1380 003c 1846     		mov	r0, r3
 1381 003e 0C37     		adds	r7, r7, #12
 1382              	.LCFI65:
 1383              		.cfi_def_cfa_offset 4
 1384 0040 BD46     		mov	sp, r7
 1385              	.LCFI66:
 1386              		.cfi_def_cfa_register 13
 1387              		@ sp needed
 1388 0042 5DF8047B 		ldr	r7, [sp], #4
 1389              	.LCFI67:
 1390              		.cfi_restore 7
 1391              		.cfi_def_cfa_offset 0
 1392 0046 7047     		bx	lr
 1393              		.cfi_endproc
 1394              	.LFE143:
 1396              		.section	.text.HAL_FDCAN_EnableTimestampCounter,"ax",%progbits
 1397              		.align	1
 1398              		.global	HAL_FDCAN_EnableTimestampCounter
 1399              		.syntax unified
 1400              		.thumb
 1401              		.thumb_func
 1403              	HAL_FDCAN_EnableTimestampCounter:
 1404              	.LFB144:
1549:Drivers/STM32G4xx_HAL_Driver/Src/stm32g4xx_hal_fdcan.c **** 
1550:Drivers/STM32G4xx_HAL_Driver/Src/stm32g4xx_hal_fdcan.c **** /**
1551:Drivers/STM32G4xx_HAL_Driver/Src/stm32g4xx_hal_fdcan.c ****   * @brief  Enable the timestamp counter.
1552:Drivers/STM32G4xx_HAL_Driver/Src/stm32g4xx_hal_fdcan.c ****   * @param  hfdcan pointer to an FDCAN_HandleTypeDef structure that contains
1553:Drivers/STM32G4xx_HAL_Driver/Src/stm32g4xx_hal_fdcan.c ****   *         the configuration information for the specified FDCAN.
1554:Drivers/STM32G4xx_HAL_Driver/Src/stm32g4xx_hal_fdcan.c ****   * @param  TimestampOperation Timestamp counter operation.
1555:Drivers/STM32G4xx_HAL_Driver/Src/stm32g4xx_hal_fdcan.c ****   *         This parameter can be a value of @arg FDCAN_Timestamp.
ARM GAS  C:\Users\AURORA~1\AppData\Local\Temp\ccEbooPs.s 			page 53


1556:Drivers/STM32G4xx_HAL_Driver/Src/stm32g4xx_hal_fdcan.c ****   * @retval HAL status
1557:Drivers/STM32G4xx_HAL_Driver/Src/stm32g4xx_hal_fdcan.c ****   */
1558:Drivers/STM32G4xx_HAL_Driver/Src/stm32g4xx_hal_fdcan.c **** HAL_StatusTypeDef HAL_FDCAN_EnableTimestampCounter(FDCAN_HandleTypeDef *hfdcan, uint32_t TimestampO
1559:Drivers/STM32G4xx_HAL_Driver/Src/stm32g4xx_hal_fdcan.c **** {
 1405              		.loc 1 1559 1
 1406              		.cfi_startproc
 1407              		@ args = 0, pretend = 0, frame = 8
 1408              		@ frame_needed = 1, uses_anonymous_args = 0
 1409              		@ link register save eliminated.
 1410 0000 80B4     		push	{r7}
 1411              	.LCFI68:
 1412              		.cfi_def_cfa_offset 4
 1413              		.cfi_offset 7, -4
 1414 0002 83B0     		sub	sp, sp, #12
 1415              	.LCFI69:
 1416              		.cfi_def_cfa_offset 16
 1417 0004 00AF     		add	r7, sp, #0
 1418              	.LCFI70:
 1419              		.cfi_def_cfa_register 7
 1420 0006 7860     		str	r0, [r7, #4]
 1421 0008 3960     		str	r1, [r7]
1560:Drivers/STM32G4xx_HAL_Driver/Src/stm32g4xx_hal_fdcan.c ****   /* Check function parameters */
1561:Drivers/STM32G4xx_HAL_Driver/Src/stm32g4xx_hal_fdcan.c ****   assert_param(IS_FDCAN_TIMESTAMP(TimestampOperation));
1562:Drivers/STM32G4xx_HAL_Driver/Src/stm32g4xx_hal_fdcan.c **** 
1563:Drivers/STM32G4xx_HAL_Driver/Src/stm32g4xx_hal_fdcan.c ****   if (hfdcan->State == HAL_FDCAN_STATE_READY)
 1422              		.loc 1 1563 13
 1423 000a 7B68     		ldr	r3, [r7, #4]
 1424 000c 93F85C30 		ldrb	r3, [r3, #92]
 1425 0010 DBB2     		uxtb	r3, r3
 1426              		.loc 1 1563 6
 1427 0012 012B     		cmp	r3, #1
 1428 0014 0BD1     		bne	.L59
1564:Drivers/STM32G4xx_HAL_Driver/Src/stm32g4xx_hal_fdcan.c ****   {
1565:Drivers/STM32G4xx_HAL_Driver/Src/stm32g4xx_hal_fdcan.c ****     /* Enable timestamp counter */
1566:Drivers/STM32G4xx_HAL_Driver/Src/stm32g4xx_hal_fdcan.c ****     MODIFY_REG(hfdcan->Instance->TSCC, FDCAN_TSCC_TSS, TimestampOperation);
 1429              		.loc 1 1566 5
 1430 0016 7B68     		ldr	r3, [r7, #4]
 1431 0018 1B68     		ldr	r3, [r3]
 1432 001a 1B6A     		ldr	r3, [r3, #32]
 1433 001c 23F00301 		bic	r1, r3, #3
 1434 0020 7B68     		ldr	r3, [r7, #4]
 1435 0022 1B68     		ldr	r3, [r3]
 1436 0024 3A68     		ldr	r2, [r7]
 1437 0026 0A43     		orrs	r2, r2, r1
 1438 0028 1A62     		str	r2, [r3, #32]
1567:Drivers/STM32G4xx_HAL_Driver/Src/stm32g4xx_hal_fdcan.c **** 
1568:Drivers/STM32G4xx_HAL_Driver/Src/stm32g4xx_hal_fdcan.c ****     /* Return function status */
1569:Drivers/STM32G4xx_HAL_Driver/Src/stm32g4xx_hal_fdcan.c ****     return HAL_OK;
 1439              		.loc 1 1569 12
 1440 002a 0023     		movs	r3, #0
 1441 002c 06E0     		b	.L60
 1442              	.L59:
1570:Drivers/STM32G4xx_HAL_Driver/Src/stm32g4xx_hal_fdcan.c ****   }
1571:Drivers/STM32G4xx_HAL_Driver/Src/stm32g4xx_hal_fdcan.c ****   else
1572:Drivers/STM32G4xx_HAL_Driver/Src/stm32g4xx_hal_fdcan.c ****   {
1573:Drivers/STM32G4xx_HAL_Driver/Src/stm32g4xx_hal_fdcan.c ****     /* Update error code */
1574:Drivers/STM32G4xx_HAL_Driver/Src/stm32g4xx_hal_fdcan.c ****     hfdcan->ErrorCode |= HAL_FDCAN_ERROR_NOT_READY;
ARM GAS  C:\Users\AURORA~1\AppData\Local\Temp\ccEbooPs.s 			page 54


 1443              		.loc 1 1574 11
 1444 002e 7B68     		ldr	r3, [r7, #4]
 1445 0030 1B6E     		ldr	r3, [r3, #96]
 1446              		.loc 1 1574 23
 1447 0032 43F00402 		orr	r2, r3, #4
 1448 0036 7B68     		ldr	r3, [r7, #4]
 1449 0038 1A66     		str	r2, [r3, #96]
1575:Drivers/STM32G4xx_HAL_Driver/Src/stm32g4xx_hal_fdcan.c **** 
1576:Drivers/STM32G4xx_HAL_Driver/Src/stm32g4xx_hal_fdcan.c ****     return HAL_ERROR;
 1450              		.loc 1 1576 12
 1451 003a 0123     		movs	r3, #1
 1452              	.L60:
1577:Drivers/STM32G4xx_HAL_Driver/Src/stm32g4xx_hal_fdcan.c ****   }
1578:Drivers/STM32G4xx_HAL_Driver/Src/stm32g4xx_hal_fdcan.c **** }
 1453              		.loc 1 1578 1
 1454 003c 1846     		mov	r0, r3
 1455 003e 0C37     		adds	r7, r7, #12
 1456              	.LCFI71:
 1457              		.cfi_def_cfa_offset 4
 1458 0040 BD46     		mov	sp, r7
 1459              	.LCFI72:
 1460              		.cfi_def_cfa_register 13
 1461              		@ sp needed
 1462 0042 5DF8047B 		ldr	r7, [sp], #4
 1463              	.LCFI73:
 1464              		.cfi_restore 7
 1465              		.cfi_def_cfa_offset 0
 1466 0046 7047     		bx	lr
 1467              		.cfi_endproc
 1468              	.LFE144:
 1470              		.section	.text.HAL_FDCAN_DisableTimestampCounter,"ax",%progbits
 1471              		.align	1
 1472              		.global	HAL_FDCAN_DisableTimestampCounter
 1473              		.syntax unified
 1474              		.thumb
 1475              		.thumb_func
 1477              	HAL_FDCAN_DisableTimestampCounter:
 1478              	.LFB145:
1579:Drivers/STM32G4xx_HAL_Driver/Src/stm32g4xx_hal_fdcan.c **** 
1580:Drivers/STM32G4xx_HAL_Driver/Src/stm32g4xx_hal_fdcan.c **** /**
1581:Drivers/STM32G4xx_HAL_Driver/Src/stm32g4xx_hal_fdcan.c ****   * @brief  Disable the timestamp counter.
1582:Drivers/STM32G4xx_HAL_Driver/Src/stm32g4xx_hal_fdcan.c ****   * @param  hfdcan pointer to an FDCAN_HandleTypeDef structure that contains
1583:Drivers/STM32G4xx_HAL_Driver/Src/stm32g4xx_hal_fdcan.c ****   *         the configuration information for the specified FDCAN.
1584:Drivers/STM32G4xx_HAL_Driver/Src/stm32g4xx_hal_fdcan.c ****   * @retval HAL status
1585:Drivers/STM32G4xx_HAL_Driver/Src/stm32g4xx_hal_fdcan.c ****   */
1586:Drivers/STM32G4xx_HAL_Driver/Src/stm32g4xx_hal_fdcan.c **** HAL_StatusTypeDef HAL_FDCAN_DisableTimestampCounter(FDCAN_HandleTypeDef *hfdcan)
1587:Drivers/STM32G4xx_HAL_Driver/Src/stm32g4xx_hal_fdcan.c **** {
 1479              		.loc 1 1587 1
 1480              		.cfi_startproc
 1481              		@ args = 0, pretend = 0, frame = 8
 1482              		@ frame_needed = 1, uses_anonymous_args = 0
 1483              		@ link register save eliminated.
 1484 0000 80B4     		push	{r7}
 1485              	.LCFI74:
 1486              		.cfi_def_cfa_offset 4
 1487              		.cfi_offset 7, -4
 1488 0002 83B0     		sub	sp, sp, #12
ARM GAS  C:\Users\AURORA~1\AppData\Local\Temp\ccEbooPs.s 			page 55


 1489              	.LCFI75:
 1490              		.cfi_def_cfa_offset 16
 1491 0004 00AF     		add	r7, sp, #0
 1492              	.LCFI76:
 1493              		.cfi_def_cfa_register 7
 1494 0006 7860     		str	r0, [r7, #4]
1588:Drivers/STM32G4xx_HAL_Driver/Src/stm32g4xx_hal_fdcan.c ****   if (hfdcan->State == HAL_FDCAN_STATE_READY)
 1495              		.loc 1 1588 13
 1496 0008 7B68     		ldr	r3, [r7, #4]
 1497 000a 93F85C30 		ldrb	r3, [r3, #92]
 1498 000e DBB2     		uxtb	r3, r3
 1499              		.loc 1 1588 6
 1500 0010 012B     		cmp	r3, #1
 1501 0012 09D1     		bne	.L62
1589:Drivers/STM32G4xx_HAL_Driver/Src/stm32g4xx_hal_fdcan.c ****   {
1590:Drivers/STM32G4xx_HAL_Driver/Src/stm32g4xx_hal_fdcan.c ****     /* Disable timestamp counter */
1591:Drivers/STM32G4xx_HAL_Driver/Src/stm32g4xx_hal_fdcan.c ****     CLEAR_BIT(hfdcan->Instance->TSCC, FDCAN_TSCC_TSS);
 1502              		.loc 1 1591 5
 1503 0014 7B68     		ldr	r3, [r7, #4]
 1504 0016 1B68     		ldr	r3, [r3]
 1505 0018 1A6A     		ldr	r2, [r3, #32]
 1506 001a 7B68     		ldr	r3, [r7, #4]
 1507 001c 1B68     		ldr	r3, [r3]
 1508 001e 22F00302 		bic	r2, r2, #3
 1509 0022 1A62     		str	r2, [r3, #32]
1592:Drivers/STM32G4xx_HAL_Driver/Src/stm32g4xx_hal_fdcan.c **** 
1593:Drivers/STM32G4xx_HAL_Driver/Src/stm32g4xx_hal_fdcan.c ****     /* Return function status */
1594:Drivers/STM32G4xx_HAL_Driver/Src/stm32g4xx_hal_fdcan.c ****     return HAL_OK;
 1510              		.loc 1 1594 12
 1511 0024 0023     		movs	r3, #0
 1512 0026 06E0     		b	.L63
 1513              	.L62:
1595:Drivers/STM32G4xx_HAL_Driver/Src/stm32g4xx_hal_fdcan.c ****   }
1596:Drivers/STM32G4xx_HAL_Driver/Src/stm32g4xx_hal_fdcan.c ****   else
1597:Drivers/STM32G4xx_HAL_Driver/Src/stm32g4xx_hal_fdcan.c ****   {
1598:Drivers/STM32G4xx_HAL_Driver/Src/stm32g4xx_hal_fdcan.c ****     /* Update error code */
1599:Drivers/STM32G4xx_HAL_Driver/Src/stm32g4xx_hal_fdcan.c ****     hfdcan->ErrorCode |= HAL_FDCAN_ERROR_NOT_READY;
 1514              		.loc 1 1599 11
 1515 0028 7B68     		ldr	r3, [r7, #4]
 1516 002a 1B6E     		ldr	r3, [r3, #96]
 1517              		.loc 1 1599 23
 1518 002c 43F00402 		orr	r2, r3, #4
 1519 0030 7B68     		ldr	r3, [r7, #4]
 1520 0032 1A66     		str	r2, [r3, #96]
1600:Drivers/STM32G4xx_HAL_Driver/Src/stm32g4xx_hal_fdcan.c **** 
1601:Drivers/STM32G4xx_HAL_Driver/Src/stm32g4xx_hal_fdcan.c ****     return HAL_ERROR;
 1521              		.loc 1 1601 12
 1522 0034 0123     		movs	r3, #1
 1523              	.L63:
1602:Drivers/STM32G4xx_HAL_Driver/Src/stm32g4xx_hal_fdcan.c ****   }
1603:Drivers/STM32G4xx_HAL_Driver/Src/stm32g4xx_hal_fdcan.c **** }
 1524              		.loc 1 1603 1
 1525 0036 1846     		mov	r0, r3
 1526 0038 0C37     		adds	r7, r7, #12
 1527              	.LCFI77:
 1528              		.cfi_def_cfa_offset 4
 1529 003a BD46     		mov	sp, r7
ARM GAS  C:\Users\AURORA~1\AppData\Local\Temp\ccEbooPs.s 			page 56


 1530              	.LCFI78:
 1531              		.cfi_def_cfa_register 13
 1532              		@ sp needed
 1533 003c 5DF8047B 		ldr	r7, [sp], #4
 1534              	.LCFI79:
 1535              		.cfi_restore 7
 1536              		.cfi_def_cfa_offset 0
 1537 0040 7047     		bx	lr
 1538              		.cfi_endproc
 1539              	.LFE145:
 1541              		.section	.text.HAL_FDCAN_GetTimestampCounter,"ax",%progbits
 1542              		.align	1
 1543              		.global	HAL_FDCAN_GetTimestampCounter
 1544              		.syntax unified
 1545              		.thumb
 1546              		.thumb_func
 1548              	HAL_FDCAN_GetTimestampCounter:
 1549              	.LFB146:
1604:Drivers/STM32G4xx_HAL_Driver/Src/stm32g4xx_hal_fdcan.c **** 
1605:Drivers/STM32G4xx_HAL_Driver/Src/stm32g4xx_hal_fdcan.c **** /**
1606:Drivers/STM32G4xx_HAL_Driver/Src/stm32g4xx_hal_fdcan.c ****   * @brief  Get the timestamp counter value.
1607:Drivers/STM32G4xx_HAL_Driver/Src/stm32g4xx_hal_fdcan.c ****   * @param  hfdcan pointer to an FDCAN_HandleTypeDef structure that contains
1608:Drivers/STM32G4xx_HAL_Driver/Src/stm32g4xx_hal_fdcan.c ****   *         the configuration information for the specified FDCAN.
1609:Drivers/STM32G4xx_HAL_Driver/Src/stm32g4xx_hal_fdcan.c ****   * @retval Timestamp counter value
1610:Drivers/STM32G4xx_HAL_Driver/Src/stm32g4xx_hal_fdcan.c ****   */
1611:Drivers/STM32G4xx_HAL_Driver/Src/stm32g4xx_hal_fdcan.c **** uint16_t HAL_FDCAN_GetTimestampCounter(const FDCAN_HandleTypeDef *hfdcan)
1612:Drivers/STM32G4xx_HAL_Driver/Src/stm32g4xx_hal_fdcan.c **** {
 1550              		.loc 1 1612 1
 1551              		.cfi_startproc
 1552              		@ args = 0, pretend = 0, frame = 8
 1553              		@ frame_needed = 1, uses_anonymous_args = 0
 1554              		@ link register save eliminated.
 1555 0000 80B4     		push	{r7}
 1556              	.LCFI80:
 1557              		.cfi_def_cfa_offset 4
 1558              		.cfi_offset 7, -4
 1559 0002 83B0     		sub	sp, sp, #12
 1560              	.LCFI81:
 1561              		.cfi_def_cfa_offset 16
 1562 0004 00AF     		add	r7, sp, #0
 1563              	.LCFI82:
 1564              		.cfi_def_cfa_register 7
 1565 0006 7860     		str	r0, [r7, #4]
1613:Drivers/STM32G4xx_HAL_Driver/Src/stm32g4xx_hal_fdcan.c ****   return (uint16_t)(hfdcan->Instance->TSCV);
 1566              		.loc 1 1613 27
 1567 0008 7B68     		ldr	r3, [r7, #4]
 1568 000a 1B68     		ldr	r3, [r3]
 1569              		.loc 1 1613 37
 1570 000c 5B6A     		ldr	r3, [r3, #36]
 1571              		.loc 1 1613 10
 1572 000e 9BB2     		uxth	r3, r3
1614:Drivers/STM32G4xx_HAL_Driver/Src/stm32g4xx_hal_fdcan.c **** }
 1573              		.loc 1 1614 1
 1574 0010 1846     		mov	r0, r3
 1575 0012 0C37     		adds	r7, r7, #12
 1576              	.LCFI83:
 1577              		.cfi_def_cfa_offset 4
ARM GAS  C:\Users\AURORA~1\AppData\Local\Temp\ccEbooPs.s 			page 57


 1578 0014 BD46     		mov	sp, r7
 1579              	.LCFI84:
 1580              		.cfi_def_cfa_register 13
 1581              		@ sp needed
 1582 0016 5DF8047B 		ldr	r7, [sp], #4
 1583              	.LCFI85:
 1584              		.cfi_restore 7
 1585              		.cfi_def_cfa_offset 0
 1586 001a 7047     		bx	lr
 1587              		.cfi_endproc
 1588              	.LFE146:
 1590              		.section	.text.HAL_FDCAN_ResetTimestampCounter,"ax",%progbits
 1591              		.align	1
 1592              		.global	HAL_FDCAN_ResetTimestampCounter
 1593              		.syntax unified
 1594              		.thumb
 1595              		.thumb_func
 1597              	HAL_FDCAN_ResetTimestampCounter:
 1598              	.LFB147:
1615:Drivers/STM32G4xx_HAL_Driver/Src/stm32g4xx_hal_fdcan.c **** 
1616:Drivers/STM32G4xx_HAL_Driver/Src/stm32g4xx_hal_fdcan.c **** /**
1617:Drivers/STM32G4xx_HAL_Driver/Src/stm32g4xx_hal_fdcan.c ****   * @brief  Reset the timestamp counter to zero.
1618:Drivers/STM32G4xx_HAL_Driver/Src/stm32g4xx_hal_fdcan.c ****   * @param  hfdcan pointer to an FDCAN_HandleTypeDef structure that contains
1619:Drivers/STM32G4xx_HAL_Driver/Src/stm32g4xx_hal_fdcan.c ****   *         the configuration information for the specified FDCAN.
1620:Drivers/STM32G4xx_HAL_Driver/Src/stm32g4xx_hal_fdcan.c ****   * @retval HAL status
1621:Drivers/STM32G4xx_HAL_Driver/Src/stm32g4xx_hal_fdcan.c ****   */
1622:Drivers/STM32G4xx_HAL_Driver/Src/stm32g4xx_hal_fdcan.c **** HAL_StatusTypeDef HAL_FDCAN_ResetTimestampCounter(FDCAN_HandleTypeDef *hfdcan)
1623:Drivers/STM32G4xx_HAL_Driver/Src/stm32g4xx_hal_fdcan.c **** {
 1599              		.loc 1 1623 1
 1600              		.cfi_startproc
 1601              		@ args = 0, pretend = 0, frame = 8
 1602              		@ frame_needed = 1, uses_anonymous_args = 0
 1603              		@ link register save eliminated.
 1604 0000 80B4     		push	{r7}
 1605              	.LCFI86:
 1606              		.cfi_def_cfa_offset 4
 1607              		.cfi_offset 7, -4
 1608 0002 83B0     		sub	sp, sp, #12
 1609              	.LCFI87:
 1610              		.cfi_def_cfa_offset 16
 1611 0004 00AF     		add	r7, sp, #0
 1612              	.LCFI88:
 1613              		.cfi_def_cfa_register 7
 1614 0006 7860     		str	r0, [r7, #4]
1624:Drivers/STM32G4xx_HAL_Driver/Src/stm32g4xx_hal_fdcan.c ****   if ((hfdcan->Instance->TSCC & FDCAN_TSCC_TSS) != FDCAN_TIMESTAMP_EXTERNAL)
 1615              		.loc 1 1624 14
 1616 0008 7B68     		ldr	r3, [r7, #4]
 1617 000a 1B68     		ldr	r3, [r3]
 1618              		.loc 1 1624 24
 1619 000c 1B6A     		ldr	r3, [r3, #32]
 1620              		.loc 1 1624 31
 1621 000e 03F00303 		and	r3, r3, #3
 1622              		.loc 1 1624 6
 1623 0012 022B     		cmp	r3, #2
 1624 0014 05D0     		beq	.L67
1625:Drivers/STM32G4xx_HAL_Driver/Src/stm32g4xx_hal_fdcan.c ****   {
1626:Drivers/STM32G4xx_HAL_Driver/Src/stm32g4xx_hal_fdcan.c ****     /* Reset timestamp counter.
ARM GAS  C:\Users\AURORA~1\AppData\Local\Temp\ccEbooPs.s 			page 58


1627:Drivers/STM32G4xx_HAL_Driver/Src/stm32g4xx_hal_fdcan.c ****        Actually any write operation to TSCV clears the counter */
1628:Drivers/STM32G4xx_HAL_Driver/Src/stm32g4xx_hal_fdcan.c ****     CLEAR_REG(hfdcan->Instance->TSCV);
 1625              		.loc 1 1628 5
 1626 0016 7B68     		ldr	r3, [r7, #4]
 1627 0018 1B68     		ldr	r3, [r3]
 1628 001a 0022     		movs	r2, #0
 1629 001c 5A62     		str	r2, [r3, #36]
1629:Drivers/STM32G4xx_HAL_Driver/Src/stm32g4xx_hal_fdcan.c ****   }
1630:Drivers/STM32G4xx_HAL_Driver/Src/stm32g4xx_hal_fdcan.c ****   else
1631:Drivers/STM32G4xx_HAL_Driver/Src/stm32g4xx_hal_fdcan.c ****   {
1632:Drivers/STM32G4xx_HAL_Driver/Src/stm32g4xx_hal_fdcan.c ****     /* Update error code.
1633:Drivers/STM32G4xx_HAL_Driver/Src/stm32g4xx_hal_fdcan.c ****        Unable to reset external counter */
1634:Drivers/STM32G4xx_HAL_Driver/Src/stm32g4xx_hal_fdcan.c ****     hfdcan->ErrorCode |= HAL_FDCAN_ERROR_NOT_SUPPORTED;
1635:Drivers/STM32G4xx_HAL_Driver/Src/stm32g4xx_hal_fdcan.c **** 
1636:Drivers/STM32G4xx_HAL_Driver/Src/stm32g4xx_hal_fdcan.c ****     return HAL_ERROR;
1637:Drivers/STM32G4xx_HAL_Driver/Src/stm32g4xx_hal_fdcan.c ****   }
1638:Drivers/STM32G4xx_HAL_Driver/Src/stm32g4xx_hal_fdcan.c **** 
1639:Drivers/STM32G4xx_HAL_Driver/Src/stm32g4xx_hal_fdcan.c ****   /* Return function status */
1640:Drivers/STM32G4xx_HAL_Driver/Src/stm32g4xx_hal_fdcan.c ****   return HAL_OK;
 1630              		.loc 1 1640 10
 1631 001e 0023     		movs	r3, #0
 1632 0020 06E0     		b	.L69
 1633              	.L67:
1634:Drivers/STM32G4xx_HAL_Driver/Src/stm32g4xx_hal_fdcan.c **** 
 1634              		.loc 1 1634 11
 1635 0022 7B68     		ldr	r3, [r7, #4]
 1636 0024 1B6E     		ldr	r3, [r3, #96]
1634:Drivers/STM32G4xx_HAL_Driver/Src/stm32g4xx_hal_fdcan.c **** 
 1637              		.loc 1 1634 23
 1638 0026 43F01002 		orr	r2, r3, #16
 1639 002a 7B68     		ldr	r3, [r7, #4]
 1640 002c 1A66     		str	r2, [r3, #96]
1636:Drivers/STM32G4xx_HAL_Driver/Src/stm32g4xx_hal_fdcan.c ****   }
 1641              		.loc 1 1636 12
 1642 002e 0123     		movs	r3, #1
 1643              	.L69:
1641:Drivers/STM32G4xx_HAL_Driver/Src/stm32g4xx_hal_fdcan.c **** }
 1644              		.loc 1 1641 1
 1645 0030 1846     		mov	r0, r3
 1646 0032 0C37     		adds	r7, r7, #12
 1647              	.LCFI89:
 1648              		.cfi_def_cfa_offset 4
 1649 0034 BD46     		mov	sp, r7
 1650              	.LCFI90:
 1651              		.cfi_def_cfa_register 13
 1652              		@ sp needed
 1653 0036 5DF8047B 		ldr	r7, [sp], #4
 1654              	.LCFI91:
 1655              		.cfi_restore 7
 1656              		.cfi_def_cfa_offset 0
 1657 003a 7047     		bx	lr
 1658              		.cfi_endproc
 1659              	.LFE147:
 1661              		.section	.text.HAL_FDCAN_ConfigTimeoutCounter,"ax",%progbits
 1662              		.align	1
 1663              		.global	HAL_FDCAN_ConfigTimeoutCounter
 1664              		.syntax unified
ARM GAS  C:\Users\AURORA~1\AppData\Local\Temp\ccEbooPs.s 			page 59


 1665              		.thumb
 1666              		.thumb_func
 1668              	HAL_FDCAN_ConfigTimeoutCounter:
 1669              	.LFB148:
1642:Drivers/STM32G4xx_HAL_Driver/Src/stm32g4xx_hal_fdcan.c **** 
1643:Drivers/STM32G4xx_HAL_Driver/Src/stm32g4xx_hal_fdcan.c **** /**
1644:Drivers/STM32G4xx_HAL_Driver/Src/stm32g4xx_hal_fdcan.c ****   * @brief  Configure the timeout counter.
1645:Drivers/STM32G4xx_HAL_Driver/Src/stm32g4xx_hal_fdcan.c ****   * @param  hfdcan pointer to an FDCAN_HandleTypeDef structure that contains
1646:Drivers/STM32G4xx_HAL_Driver/Src/stm32g4xx_hal_fdcan.c ****   *         the configuration information for the specified FDCAN.
1647:Drivers/STM32G4xx_HAL_Driver/Src/stm32g4xx_hal_fdcan.c ****   * @param  TimeoutOperation Timeout counter operation.
1648:Drivers/STM32G4xx_HAL_Driver/Src/stm32g4xx_hal_fdcan.c ****   *         This parameter can be a value of @arg FDCAN_Timeout_Operation.
1649:Drivers/STM32G4xx_HAL_Driver/Src/stm32g4xx_hal_fdcan.c ****   * @param  TimeoutPeriod Start value of the timeout down-counter.
1650:Drivers/STM32G4xx_HAL_Driver/Src/stm32g4xx_hal_fdcan.c ****   *         This parameter must be a number between 0x0000 and 0xFFFF
1651:Drivers/STM32G4xx_HAL_Driver/Src/stm32g4xx_hal_fdcan.c ****   * @retval HAL status
1652:Drivers/STM32G4xx_HAL_Driver/Src/stm32g4xx_hal_fdcan.c ****   */
1653:Drivers/STM32G4xx_HAL_Driver/Src/stm32g4xx_hal_fdcan.c **** HAL_StatusTypeDef HAL_FDCAN_ConfigTimeoutCounter(FDCAN_HandleTypeDef *hfdcan, uint32_t TimeoutOpera
1654:Drivers/STM32G4xx_HAL_Driver/Src/stm32g4xx_hal_fdcan.c ****                                                  uint32_t TimeoutPeriod)
1655:Drivers/STM32G4xx_HAL_Driver/Src/stm32g4xx_hal_fdcan.c **** {
 1670              		.loc 1 1655 1
 1671              		.cfi_startproc
 1672              		@ args = 0, pretend = 0, frame = 16
 1673              		@ frame_needed = 1, uses_anonymous_args = 0
 1674              		@ link register save eliminated.
 1675 0000 80B4     		push	{r7}
 1676              	.LCFI92:
 1677              		.cfi_def_cfa_offset 4
 1678              		.cfi_offset 7, -4
 1679 0002 85B0     		sub	sp, sp, #20
 1680              	.LCFI93:
 1681              		.cfi_def_cfa_offset 24
 1682 0004 00AF     		add	r7, sp, #0
 1683              	.LCFI94:
 1684              		.cfi_def_cfa_register 7
 1685 0006 F860     		str	r0, [r7, #12]
 1686 0008 B960     		str	r1, [r7, #8]
 1687 000a 7A60     		str	r2, [r7, #4]
1656:Drivers/STM32G4xx_HAL_Driver/Src/stm32g4xx_hal_fdcan.c ****   /* Check function parameters */
1657:Drivers/STM32G4xx_HAL_Driver/Src/stm32g4xx_hal_fdcan.c ****   assert_param(IS_FDCAN_TIMEOUT(TimeoutOperation));
1658:Drivers/STM32G4xx_HAL_Driver/Src/stm32g4xx_hal_fdcan.c ****   assert_param(IS_FDCAN_MAX_VALUE(TimeoutPeriod, 0xFFFFU));
1659:Drivers/STM32G4xx_HAL_Driver/Src/stm32g4xx_hal_fdcan.c **** 
1660:Drivers/STM32G4xx_HAL_Driver/Src/stm32g4xx_hal_fdcan.c ****   if (hfdcan->State == HAL_FDCAN_STATE_READY)
 1688              		.loc 1 1660 13
 1689 000c FB68     		ldr	r3, [r7, #12]
 1690 000e 93F85C30 		ldrb	r3, [r3, #92]
 1691 0012 DBB2     		uxtb	r3, r3
 1692              		.loc 1 1660 6
 1693 0014 012B     		cmp	r3, #1
 1694 0016 0FD1     		bne	.L71
1661:Drivers/STM32G4xx_HAL_Driver/Src/stm32g4xx_hal_fdcan.c ****   {
1662:Drivers/STM32G4xx_HAL_Driver/Src/stm32g4xx_hal_fdcan.c ****     /* Select timeout operation and configure period */
1663:Drivers/STM32G4xx_HAL_Driver/Src/stm32g4xx_hal_fdcan.c ****     MODIFY_REG(hfdcan->Instance->TOCC,
 1695              		.loc 1 1663 5
 1696 0018 FB68     		ldr	r3, [r7, #12]
 1697 001a 1B68     		ldr	r3, [r3]
 1698 001c 9A6A     		ldr	r2, [r3, #40]
 1699 001e 4FF6F973 		movw	r3, #65529
 1700 0022 1340     		ands	r3, r3, r2
ARM GAS  C:\Users\AURORA~1\AppData\Local\Temp\ccEbooPs.s 			page 60


 1701 0024 7A68     		ldr	r2, [r7, #4]
 1702 0026 1104     		lsls	r1, r2, #16
 1703 0028 BA68     		ldr	r2, [r7, #8]
 1704 002a 1143     		orrs	r1, r1, r2
 1705 002c FA68     		ldr	r2, [r7, #12]
 1706 002e 1268     		ldr	r2, [r2]
 1707 0030 0B43     		orrs	r3, r3, r1
 1708 0032 9362     		str	r3, [r2, #40]
1664:Drivers/STM32G4xx_HAL_Driver/Src/stm32g4xx_hal_fdcan.c ****                (FDCAN_TOCC_TOS | FDCAN_TOCC_TOP), (TimeoutOperation | (TimeoutPeriod << FDCAN_TOCC_
1665:Drivers/STM32G4xx_HAL_Driver/Src/stm32g4xx_hal_fdcan.c **** 
1666:Drivers/STM32G4xx_HAL_Driver/Src/stm32g4xx_hal_fdcan.c ****     /* Return function status */
1667:Drivers/STM32G4xx_HAL_Driver/Src/stm32g4xx_hal_fdcan.c ****     return HAL_OK;
 1709              		.loc 1 1667 12
 1710 0034 0023     		movs	r3, #0
 1711 0036 06E0     		b	.L72
 1712              	.L71:
1668:Drivers/STM32G4xx_HAL_Driver/Src/stm32g4xx_hal_fdcan.c ****   }
1669:Drivers/STM32G4xx_HAL_Driver/Src/stm32g4xx_hal_fdcan.c ****   else
1670:Drivers/STM32G4xx_HAL_Driver/Src/stm32g4xx_hal_fdcan.c ****   {
1671:Drivers/STM32G4xx_HAL_Driver/Src/stm32g4xx_hal_fdcan.c ****     /* Update error code */
1672:Drivers/STM32G4xx_HAL_Driver/Src/stm32g4xx_hal_fdcan.c ****     hfdcan->ErrorCode |= HAL_FDCAN_ERROR_NOT_READY;
 1713              		.loc 1 1672 11
 1714 0038 FB68     		ldr	r3, [r7, #12]
 1715 003a 1B6E     		ldr	r3, [r3, #96]
 1716              		.loc 1 1672 23
 1717 003c 43F00402 		orr	r2, r3, #4
 1718 0040 FB68     		ldr	r3, [r7, #12]
 1719 0042 1A66     		str	r2, [r3, #96]
1673:Drivers/STM32G4xx_HAL_Driver/Src/stm32g4xx_hal_fdcan.c **** 
1674:Drivers/STM32G4xx_HAL_Driver/Src/stm32g4xx_hal_fdcan.c ****     return HAL_ERROR;
 1720              		.loc 1 1674 12
 1721 0044 0123     		movs	r3, #1
 1722              	.L72:
1675:Drivers/STM32G4xx_HAL_Driver/Src/stm32g4xx_hal_fdcan.c ****   }
1676:Drivers/STM32G4xx_HAL_Driver/Src/stm32g4xx_hal_fdcan.c **** }
 1723              		.loc 1 1676 1
 1724 0046 1846     		mov	r0, r3
 1725 0048 1437     		adds	r7, r7, #20
 1726              	.LCFI95:
 1727              		.cfi_def_cfa_offset 4
 1728 004a BD46     		mov	sp, r7
 1729              	.LCFI96:
 1730              		.cfi_def_cfa_register 13
 1731              		@ sp needed
 1732 004c 5DF8047B 		ldr	r7, [sp], #4
 1733              	.LCFI97:
 1734              		.cfi_restore 7
 1735              		.cfi_def_cfa_offset 0
 1736 0050 7047     		bx	lr
 1737              		.cfi_endproc
 1738              	.LFE148:
 1740              		.section	.text.HAL_FDCAN_EnableTimeoutCounter,"ax",%progbits
 1741              		.align	1
 1742              		.global	HAL_FDCAN_EnableTimeoutCounter
 1743              		.syntax unified
 1744              		.thumb
 1745              		.thumb_func
ARM GAS  C:\Users\AURORA~1\AppData\Local\Temp\ccEbooPs.s 			page 61


 1747              	HAL_FDCAN_EnableTimeoutCounter:
 1748              	.LFB149:
1677:Drivers/STM32G4xx_HAL_Driver/Src/stm32g4xx_hal_fdcan.c **** 
1678:Drivers/STM32G4xx_HAL_Driver/Src/stm32g4xx_hal_fdcan.c **** /**
1679:Drivers/STM32G4xx_HAL_Driver/Src/stm32g4xx_hal_fdcan.c ****   * @brief  Enable the timeout counter.
1680:Drivers/STM32G4xx_HAL_Driver/Src/stm32g4xx_hal_fdcan.c ****   * @param  hfdcan pointer to an FDCAN_HandleTypeDef structure that contains
1681:Drivers/STM32G4xx_HAL_Driver/Src/stm32g4xx_hal_fdcan.c ****   *         the configuration information for the specified FDCAN.
1682:Drivers/STM32G4xx_HAL_Driver/Src/stm32g4xx_hal_fdcan.c ****   * @retval HAL status
1683:Drivers/STM32G4xx_HAL_Driver/Src/stm32g4xx_hal_fdcan.c ****   */
1684:Drivers/STM32G4xx_HAL_Driver/Src/stm32g4xx_hal_fdcan.c **** HAL_StatusTypeDef HAL_FDCAN_EnableTimeoutCounter(FDCAN_HandleTypeDef *hfdcan)
1685:Drivers/STM32G4xx_HAL_Driver/Src/stm32g4xx_hal_fdcan.c **** {
 1749              		.loc 1 1685 1
 1750              		.cfi_startproc
 1751              		@ args = 0, pretend = 0, frame = 8
 1752              		@ frame_needed = 1, uses_anonymous_args = 0
 1753              		@ link register save eliminated.
 1754 0000 80B4     		push	{r7}
 1755              	.LCFI98:
 1756              		.cfi_def_cfa_offset 4
 1757              		.cfi_offset 7, -4
 1758 0002 83B0     		sub	sp, sp, #12
 1759              	.LCFI99:
 1760              		.cfi_def_cfa_offset 16
 1761 0004 00AF     		add	r7, sp, #0
 1762              	.LCFI100:
 1763              		.cfi_def_cfa_register 7
 1764 0006 7860     		str	r0, [r7, #4]
1686:Drivers/STM32G4xx_HAL_Driver/Src/stm32g4xx_hal_fdcan.c ****   if (hfdcan->State == HAL_FDCAN_STATE_READY)
 1765              		.loc 1 1686 13
 1766 0008 7B68     		ldr	r3, [r7, #4]
 1767 000a 93F85C30 		ldrb	r3, [r3, #92]
 1768 000e DBB2     		uxtb	r3, r3
 1769              		.loc 1 1686 6
 1770 0010 012B     		cmp	r3, #1
 1771 0012 09D1     		bne	.L74
1687:Drivers/STM32G4xx_HAL_Driver/Src/stm32g4xx_hal_fdcan.c ****   {
1688:Drivers/STM32G4xx_HAL_Driver/Src/stm32g4xx_hal_fdcan.c ****     /* Enable timeout counter */
1689:Drivers/STM32G4xx_HAL_Driver/Src/stm32g4xx_hal_fdcan.c ****     SET_BIT(hfdcan->Instance->TOCC, FDCAN_TOCC_ETOC);
 1772              		.loc 1 1689 5
 1773 0014 7B68     		ldr	r3, [r7, #4]
 1774 0016 1B68     		ldr	r3, [r3]
 1775 0018 9A6A     		ldr	r2, [r3, #40]
 1776 001a 7B68     		ldr	r3, [r7, #4]
 1777 001c 1B68     		ldr	r3, [r3]
 1778 001e 42F00102 		orr	r2, r2, #1
 1779 0022 9A62     		str	r2, [r3, #40]
1690:Drivers/STM32G4xx_HAL_Driver/Src/stm32g4xx_hal_fdcan.c **** 
1691:Drivers/STM32G4xx_HAL_Driver/Src/stm32g4xx_hal_fdcan.c ****     /* Return function status */
1692:Drivers/STM32G4xx_HAL_Driver/Src/stm32g4xx_hal_fdcan.c ****     return HAL_OK;
 1780              		.loc 1 1692 12
 1781 0024 0023     		movs	r3, #0
 1782 0026 06E0     		b	.L75
 1783              	.L74:
1693:Drivers/STM32G4xx_HAL_Driver/Src/stm32g4xx_hal_fdcan.c ****   }
1694:Drivers/STM32G4xx_HAL_Driver/Src/stm32g4xx_hal_fdcan.c ****   else
1695:Drivers/STM32G4xx_HAL_Driver/Src/stm32g4xx_hal_fdcan.c ****   {
1696:Drivers/STM32G4xx_HAL_Driver/Src/stm32g4xx_hal_fdcan.c ****     /* Update error code */
ARM GAS  C:\Users\AURORA~1\AppData\Local\Temp\ccEbooPs.s 			page 62


1697:Drivers/STM32G4xx_HAL_Driver/Src/stm32g4xx_hal_fdcan.c ****     hfdcan->ErrorCode |= HAL_FDCAN_ERROR_NOT_READY;
 1784              		.loc 1 1697 11
 1785 0028 7B68     		ldr	r3, [r7, #4]
 1786 002a 1B6E     		ldr	r3, [r3, #96]
 1787              		.loc 1 1697 23
 1788 002c 43F00402 		orr	r2, r3, #4
 1789 0030 7B68     		ldr	r3, [r7, #4]
 1790 0032 1A66     		str	r2, [r3, #96]
1698:Drivers/STM32G4xx_HAL_Driver/Src/stm32g4xx_hal_fdcan.c **** 
1699:Drivers/STM32G4xx_HAL_Driver/Src/stm32g4xx_hal_fdcan.c ****     return HAL_ERROR;
 1791              		.loc 1 1699 12
 1792 0034 0123     		movs	r3, #1
 1793              	.L75:
1700:Drivers/STM32G4xx_HAL_Driver/Src/stm32g4xx_hal_fdcan.c ****   }
1701:Drivers/STM32G4xx_HAL_Driver/Src/stm32g4xx_hal_fdcan.c **** }
 1794              		.loc 1 1701 1
 1795 0036 1846     		mov	r0, r3
 1796 0038 0C37     		adds	r7, r7, #12
 1797              	.LCFI101:
 1798              		.cfi_def_cfa_offset 4
 1799 003a BD46     		mov	sp, r7
 1800              	.LCFI102:
 1801              		.cfi_def_cfa_register 13
 1802              		@ sp needed
 1803 003c 5DF8047B 		ldr	r7, [sp], #4
 1804              	.LCFI103:
 1805              		.cfi_restore 7
 1806              		.cfi_def_cfa_offset 0
 1807 0040 7047     		bx	lr
 1808              		.cfi_endproc
 1809              	.LFE149:
 1811              		.section	.text.HAL_FDCAN_DisableTimeoutCounter,"ax",%progbits
 1812              		.align	1
 1813              		.global	HAL_FDCAN_DisableTimeoutCounter
 1814              		.syntax unified
 1815              		.thumb
 1816              		.thumb_func
 1818              	HAL_FDCAN_DisableTimeoutCounter:
 1819              	.LFB150:
1702:Drivers/STM32G4xx_HAL_Driver/Src/stm32g4xx_hal_fdcan.c **** 
1703:Drivers/STM32G4xx_HAL_Driver/Src/stm32g4xx_hal_fdcan.c **** /**
1704:Drivers/STM32G4xx_HAL_Driver/Src/stm32g4xx_hal_fdcan.c ****   * @brief  Disable the timeout counter.
1705:Drivers/STM32G4xx_HAL_Driver/Src/stm32g4xx_hal_fdcan.c ****   * @param  hfdcan pointer to an FDCAN_HandleTypeDef structure that contains
1706:Drivers/STM32G4xx_HAL_Driver/Src/stm32g4xx_hal_fdcan.c ****   *         the configuration information for the specified FDCAN.
1707:Drivers/STM32G4xx_HAL_Driver/Src/stm32g4xx_hal_fdcan.c ****   * @retval HAL status
1708:Drivers/STM32G4xx_HAL_Driver/Src/stm32g4xx_hal_fdcan.c ****   */
1709:Drivers/STM32G4xx_HAL_Driver/Src/stm32g4xx_hal_fdcan.c **** HAL_StatusTypeDef HAL_FDCAN_DisableTimeoutCounter(FDCAN_HandleTypeDef *hfdcan)
1710:Drivers/STM32G4xx_HAL_Driver/Src/stm32g4xx_hal_fdcan.c **** {
 1820              		.loc 1 1710 1
 1821              		.cfi_startproc
 1822              		@ args = 0, pretend = 0, frame = 8
 1823              		@ frame_needed = 1, uses_anonymous_args = 0
 1824              		@ link register save eliminated.
 1825 0000 80B4     		push	{r7}
 1826              	.LCFI104:
 1827              		.cfi_def_cfa_offset 4
 1828              		.cfi_offset 7, -4
ARM GAS  C:\Users\AURORA~1\AppData\Local\Temp\ccEbooPs.s 			page 63


 1829 0002 83B0     		sub	sp, sp, #12
 1830              	.LCFI105:
 1831              		.cfi_def_cfa_offset 16
 1832 0004 00AF     		add	r7, sp, #0
 1833              	.LCFI106:
 1834              		.cfi_def_cfa_register 7
 1835 0006 7860     		str	r0, [r7, #4]
1711:Drivers/STM32G4xx_HAL_Driver/Src/stm32g4xx_hal_fdcan.c ****   if (hfdcan->State == HAL_FDCAN_STATE_READY)
 1836              		.loc 1 1711 13
 1837 0008 7B68     		ldr	r3, [r7, #4]
 1838 000a 93F85C30 		ldrb	r3, [r3, #92]
 1839 000e DBB2     		uxtb	r3, r3
 1840              		.loc 1 1711 6
 1841 0010 012B     		cmp	r3, #1
 1842 0012 09D1     		bne	.L77
1712:Drivers/STM32G4xx_HAL_Driver/Src/stm32g4xx_hal_fdcan.c ****   {
1713:Drivers/STM32G4xx_HAL_Driver/Src/stm32g4xx_hal_fdcan.c ****     /* Disable timeout counter */
1714:Drivers/STM32G4xx_HAL_Driver/Src/stm32g4xx_hal_fdcan.c ****     CLEAR_BIT(hfdcan->Instance->TOCC, FDCAN_TOCC_ETOC);
 1843              		.loc 1 1714 5
 1844 0014 7B68     		ldr	r3, [r7, #4]
 1845 0016 1B68     		ldr	r3, [r3]
 1846 0018 9A6A     		ldr	r2, [r3, #40]
 1847 001a 7B68     		ldr	r3, [r7, #4]
 1848 001c 1B68     		ldr	r3, [r3]
 1849 001e 22F00102 		bic	r2, r2, #1
 1850 0022 9A62     		str	r2, [r3, #40]
1715:Drivers/STM32G4xx_HAL_Driver/Src/stm32g4xx_hal_fdcan.c **** 
1716:Drivers/STM32G4xx_HAL_Driver/Src/stm32g4xx_hal_fdcan.c ****     /* Return function status */
1717:Drivers/STM32G4xx_HAL_Driver/Src/stm32g4xx_hal_fdcan.c ****     return HAL_OK;
 1851              		.loc 1 1717 12
 1852 0024 0023     		movs	r3, #0
 1853 0026 06E0     		b	.L78
 1854              	.L77:
1718:Drivers/STM32G4xx_HAL_Driver/Src/stm32g4xx_hal_fdcan.c ****   }
1719:Drivers/STM32G4xx_HAL_Driver/Src/stm32g4xx_hal_fdcan.c ****   else
1720:Drivers/STM32G4xx_HAL_Driver/Src/stm32g4xx_hal_fdcan.c ****   {
1721:Drivers/STM32G4xx_HAL_Driver/Src/stm32g4xx_hal_fdcan.c ****     /* Update error code */
1722:Drivers/STM32G4xx_HAL_Driver/Src/stm32g4xx_hal_fdcan.c ****     hfdcan->ErrorCode |= HAL_FDCAN_ERROR_NOT_READY;
 1855              		.loc 1 1722 11
 1856 0028 7B68     		ldr	r3, [r7, #4]
 1857 002a 1B6E     		ldr	r3, [r3, #96]
 1858              		.loc 1 1722 23
 1859 002c 43F00402 		orr	r2, r3, #4
 1860 0030 7B68     		ldr	r3, [r7, #4]
 1861 0032 1A66     		str	r2, [r3, #96]
1723:Drivers/STM32G4xx_HAL_Driver/Src/stm32g4xx_hal_fdcan.c **** 
1724:Drivers/STM32G4xx_HAL_Driver/Src/stm32g4xx_hal_fdcan.c ****     return HAL_ERROR;
 1862              		.loc 1 1724 12
 1863 0034 0123     		movs	r3, #1
 1864              	.L78:
1725:Drivers/STM32G4xx_HAL_Driver/Src/stm32g4xx_hal_fdcan.c ****   }
1726:Drivers/STM32G4xx_HAL_Driver/Src/stm32g4xx_hal_fdcan.c **** }
 1865              		.loc 1 1726 1
 1866 0036 1846     		mov	r0, r3
 1867 0038 0C37     		adds	r7, r7, #12
 1868              	.LCFI107:
 1869              		.cfi_def_cfa_offset 4
ARM GAS  C:\Users\AURORA~1\AppData\Local\Temp\ccEbooPs.s 			page 64


 1870 003a BD46     		mov	sp, r7
 1871              	.LCFI108:
 1872              		.cfi_def_cfa_register 13
 1873              		@ sp needed
 1874 003c 5DF8047B 		ldr	r7, [sp], #4
 1875              	.LCFI109:
 1876              		.cfi_restore 7
 1877              		.cfi_def_cfa_offset 0
 1878 0040 7047     		bx	lr
 1879              		.cfi_endproc
 1880              	.LFE150:
 1882              		.section	.text.HAL_FDCAN_GetTimeoutCounter,"ax",%progbits
 1883              		.align	1
 1884              		.global	HAL_FDCAN_GetTimeoutCounter
 1885              		.syntax unified
 1886              		.thumb
 1887              		.thumb_func
 1889              	HAL_FDCAN_GetTimeoutCounter:
 1890              	.LFB151:
1727:Drivers/STM32G4xx_HAL_Driver/Src/stm32g4xx_hal_fdcan.c **** 
1728:Drivers/STM32G4xx_HAL_Driver/Src/stm32g4xx_hal_fdcan.c **** /**
1729:Drivers/STM32G4xx_HAL_Driver/Src/stm32g4xx_hal_fdcan.c ****   * @brief  Get the timeout counter value.
1730:Drivers/STM32G4xx_HAL_Driver/Src/stm32g4xx_hal_fdcan.c ****   * @param  hfdcan pointer to an FDCAN_HandleTypeDef structure that contains
1731:Drivers/STM32G4xx_HAL_Driver/Src/stm32g4xx_hal_fdcan.c ****   *         the configuration information for the specified FDCAN.
1732:Drivers/STM32G4xx_HAL_Driver/Src/stm32g4xx_hal_fdcan.c ****   * @retval Timeout counter value
1733:Drivers/STM32G4xx_HAL_Driver/Src/stm32g4xx_hal_fdcan.c ****   */
1734:Drivers/STM32G4xx_HAL_Driver/Src/stm32g4xx_hal_fdcan.c **** uint16_t HAL_FDCAN_GetTimeoutCounter(const FDCAN_HandleTypeDef *hfdcan)
1735:Drivers/STM32G4xx_HAL_Driver/Src/stm32g4xx_hal_fdcan.c **** {
 1891              		.loc 1 1735 1
 1892              		.cfi_startproc
 1893              		@ args = 0, pretend = 0, frame = 8
 1894              		@ frame_needed = 1, uses_anonymous_args = 0
 1895              		@ link register save eliminated.
 1896 0000 80B4     		push	{r7}
 1897              	.LCFI110:
 1898              		.cfi_def_cfa_offset 4
 1899              		.cfi_offset 7, -4
 1900 0002 83B0     		sub	sp, sp, #12
 1901              	.LCFI111:
 1902              		.cfi_def_cfa_offset 16
 1903 0004 00AF     		add	r7, sp, #0
 1904              	.LCFI112:
 1905              		.cfi_def_cfa_register 7
 1906 0006 7860     		str	r0, [r7, #4]
