ARM GAS  C:\Users\AURORA~1\AppData\Local\Temp\ccEbooPs.s 			page 1


   1              		.cpu cortex-m4
   2              		.arch armv7e-m
   3              		.fpu fpv4-sp-d16
   4              		.eabi_attribute 27, 1
   5              		.eabi_attribute 28, 1
   6              		.eabi_attribute 20, 1
   7              		.eabi_attribute 21, 1
   8              		.eabi_attribute 23, 3
   9              		.eabi_attribute 24, 1
  10              		.eabi_attribute 25, 1
  11              		.eabi_attribute 26, 1
  12              		.eabi_attribute 30, 6
  13              		.eabi_attribute 34, 1
  14              		.eabi_attribute 18, 4
  15              		.file	"stm32g4xx_hal_fdcan.c"
  16              		.text
  17              	.Ltext0:
  18              		.cfi_sections	.debug_frame
  19              		.file 1 "Drivers/STM32G4xx_HAL_Driver/Src/stm32g4xx_hal_fdcan.c"
  20              		.section	.rodata.DLCtoBytes,"a"
  21              		.align	2
  24              	DLCtoBytes:
  25 0000 00010203 		.ascii	"\000\001\002\003\004\005\006\007\010\014\020\024\030"
  25      04050607 
  25      080C1014 
  25      18
  26 000d 203040   		.ascii	" 0@"
  27              		.section	.text.HAL_FDCAN_Init,"ax",%progbits
  28              		.align	1
  29              		.global	HAL_FDCAN_Init
  30              		.syntax unified
  31              		.thumb
  32              		.thumb_func
  34              	HAL_FDCAN_Init:
  35              	.LFB132:
   1:Drivers/STM32G4xx_HAL_Driver/Src/stm32g4xx_hal_fdcan.c **** /**
   2:Drivers/STM32G4xx_HAL_Driver/Src/stm32g4xx_hal_fdcan.c ****   ******************************************************************************
   3:Drivers/STM32G4xx_HAL_Driver/Src/stm32g4xx_hal_fdcan.c ****   * @file    stm32g4xx_hal_fdcan.c
   4:Drivers/STM32G4xx_HAL_Driver/Src/stm32g4xx_hal_fdcan.c ****   * @author  MCD Application Team
   5:Drivers/STM32G4xx_HAL_Driver/Src/stm32g4xx_hal_fdcan.c ****   * @brief   FDCAN HAL module driver.
   6:Drivers/STM32G4xx_HAL_Driver/Src/stm32g4xx_hal_fdcan.c ****   *          This file provides firmware functions to manage the following
   7:Drivers/STM32G4xx_HAL_Driver/Src/stm32g4xx_hal_fdcan.c ****   *          functionalities of the Flexible DataRate Controller Area Network
   8:Drivers/STM32G4xx_HAL_Driver/Src/stm32g4xx_hal_fdcan.c ****   *          (FDCAN) peripheral:
   9:Drivers/STM32G4xx_HAL_Driver/Src/stm32g4xx_hal_fdcan.c ****   *           + Initialization and de-initialization functions
  10:Drivers/STM32G4xx_HAL_Driver/Src/stm32g4xx_hal_fdcan.c ****   *           + IO operation functions
  11:Drivers/STM32G4xx_HAL_Driver/Src/stm32g4xx_hal_fdcan.c ****   *           + Peripheral Configuration and Control functions
  12:Drivers/STM32G4xx_HAL_Driver/Src/stm32g4xx_hal_fdcan.c ****   *           + Peripheral State and Error functions
  13:Drivers/STM32G4xx_HAL_Driver/Src/stm32g4xx_hal_fdcan.c ****   ******************************************************************************
  14:Drivers/STM32G4xx_HAL_Driver/Src/stm32g4xx_hal_fdcan.c ****   * @attention
  15:Drivers/STM32G4xx_HAL_Driver/Src/stm32g4xx_hal_fdcan.c ****   *
  16:Drivers/STM32G4xx_HAL_Driver/Src/stm32g4xx_hal_fdcan.c ****   * Copyright (c) 2019 STMicroelectronics.
  17:Drivers/STM32G4xx_HAL_Driver/Src/stm32g4xx_hal_fdcan.c ****   * All rights reserved.
  18:Drivers/STM32G4xx_HAL_Driver/Src/stm32g4xx_hal_fdcan.c ****   *
  19:Drivers/STM32G4xx_HAL_Driver/Src/stm32g4xx_hal_fdcan.c ****   * This software is licensed under terms that can be found in the LICENSE file
  20:Drivers/STM32G4xx_HAL_Driver/Src/stm32g4xx_hal_fdcan.c ****   * in the root directory of this software component.
  21:Drivers/STM32G4xx_HAL_Driver/Src/stm32g4xx_hal_fdcan.c ****   * If no LICENSE file comes with this software, it is provided AS-IS.
  22:Drivers/STM32G4xx_HAL_Driver/Src/stm32g4xx_hal_fdcan.c ****   *
ARM GAS  C:\Users\AURORA~1\AppData\Local\Temp\ccEbooPs.s 			page 2


  23:Drivers/STM32G4xx_HAL_Driver/Src/stm32g4xx_hal_fdcan.c ****   ******************************************************************************
  24:Drivers/STM32G4xx_HAL_Driver/Src/stm32g4xx_hal_fdcan.c ****   @verbatim
  25:Drivers/STM32G4xx_HAL_Driver/Src/stm32g4xx_hal_fdcan.c ****   ==============================================================================
  26:Drivers/STM32G4xx_HAL_Driver/Src/stm32g4xx_hal_fdcan.c ****                         ##### How to use this driver #####
  27:Drivers/STM32G4xx_HAL_Driver/Src/stm32g4xx_hal_fdcan.c ****   ==============================================================================
  28:Drivers/STM32G4xx_HAL_Driver/Src/stm32g4xx_hal_fdcan.c ****     [..]
  29:Drivers/STM32G4xx_HAL_Driver/Src/stm32g4xx_hal_fdcan.c ****       (#) Initialize the FDCAN peripheral using HAL_FDCAN_Init function.
  30:Drivers/STM32G4xx_HAL_Driver/Src/stm32g4xx_hal_fdcan.c **** 
  31:Drivers/STM32G4xx_HAL_Driver/Src/stm32g4xx_hal_fdcan.c ****       (#) If needed , configure the reception filters and optional features using
  32:Drivers/STM32G4xx_HAL_Driver/Src/stm32g4xx_hal_fdcan.c ****           the following configuration functions:
  33:Drivers/STM32G4xx_HAL_Driver/Src/stm32g4xx_hal_fdcan.c ****             (++) HAL_FDCAN_ConfigFilter
  34:Drivers/STM32G4xx_HAL_Driver/Src/stm32g4xx_hal_fdcan.c ****             (++) HAL_FDCAN_ConfigGlobalFilter
  35:Drivers/STM32G4xx_HAL_Driver/Src/stm32g4xx_hal_fdcan.c ****             (++) HAL_FDCAN_ConfigExtendedIdMask
  36:Drivers/STM32G4xx_HAL_Driver/Src/stm32g4xx_hal_fdcan.c ****             (++) HAL_FDCAN_ConfigRxFifoOverwrite
  37:Drivers/STM32G4xx_HAL_Driver/Src/stm32g4xx_hal_fdcan.c ****             (++) HAL_FDCAN_ConfigRamWatchdog
  38:Drivers/STM32G4xx_HAL_Driver/Src/stm32g4xx_hal_fdcan.c ****             (++) HAL_FDCAN_ConfigTimestampCounter
  39:Drivers/STM32G4xx_HAL_Driver/Src/stm32g4xx_hal_fdcan.c ****             (++) HAL_FDCAN_EnableTimestampCounter
  40:Drivers/STM32G4xx_HAL_Driver/Src/stm32g4xx_hal_fdcan.c ****             (++) HAL_FDCAN_DisableTimestampCounter
  41:Drivers/STM32G4xx_HAL_Driver/Src/stm32g4xx_hal_fdcan.c ****             (++) HAL_FDCAN_ConfigTimeoutCounter
  42:Drivers/STM32G4xx_HAL_Driver/Src/stm32g4xx_hal_fdcan.c ****             (++) HAL_FDCAN_EnableTimeoutCounter
  43:Drivers/STM32G4xx_HAL_Driver/Src/stm32g4xx_hal_fdcan.c ****             (++) HAL_FDCAN_DisableTimeoutCounter
  44:Drivers/STM32G4xx_HAL_Driver/Src/stm32g4xx_hal_fdcan.c ****             (++) HAL_FDCAN_ConfigTxDelayCompensation
  45:Drivers/STM32G4xx_HAL_Driver/Src/stm32g4xx_hal_fdcan.c ****             (++) HAL_FDCAN_EnableTxDelayCompensation
  46:Drivers/STM32G4xx_HAL_Driver/Src/stm32g4xx_hal_fdcan.c ****             (++) HAL_FDCAN_DisableTxDelayCompensation
  47:Drivers/STM32G4xx_HAL_Driver/Src/stm32g4xx_hal_fdcan.c ****             (++) HAL_FDCAN_EnableISOMode
  48:Drivers/STM32G4xx_HAL_Driver/Src/stm32g4xx_hal_fdcan.c ****             (++) HAL_FDCAN_DisableISOMode
  49:Drivers/STM32G4xx_HAL_Driver/Src/stm32g4xx_hal_fdcan.c ****             (++) HAL_FDCAN_EnableEdgeFiltering
  50:Drivers/STM32G4xx_HAL_Driver/Src/stm32g4xx_hal_fdcan.c ****             (++) HAL_FDCAN_DisableEdgeFiltering
  51:Drivers/STM32G4xx_HAL_Driver/Src/stm32g4xx_hal_fdcan.c **** 
  52:Drivers/STM32G4xx_HAL_Driver/Src/stm32g4xx_hal_fdcan.c ****       (#) Start the FDCAN module using HAL_FDCAN_Start function. At this level
  53:Drivers/STM32G4xx_HAL_Driver/Src/stm32g4xx_hal_fdcan.c ****           the node is active on the bus: it can send and receive messages.
  54:Drivers/STM32G4xx_HAL_Driver/Src/stm32g4xx_hal_fdcan.c **** 
  55:Drivers/STM32G4xx_HAL_Driver/Src/stm32g4xx_hal_fdcan.c ****       (#) The following Tx control functions can only be called when the FDCAN
  56:Drivers/STM32G4xx_HAL_Driver/Src/stm32g4xx_hal_fdcan.c ****           module is started:
  57:Drivers/STM32G4xx_HAL_Driver/Src/stm32g4xx_hal_fdcan.c ****             (++) HAL_FDCAN_AddMessageToTxFifoQ
  58:Drivers/STM32G4xx_HAL_Driver/Src/stm32g4xx_hal_fdcan.c ****             (++) HAL_FDCAN_AbortTxRequest
  59:Drivers/STM32G4xx_HAL_Driver/Src/stm32g4xx_hal_fdcan.c **** 
  60:Drivers/STM32G4xx_HAL_Driver/Src/stm32g4xx_hal_fdcan.c ****       (#) After having submitted a Tx request in Tx Fifo or Queue, it is possible to
  61:Drivers/STM32G4xx_HAL_Driver/Src/stm32g4xx_hal_fdcan.c ****           get Tx buffer location used to place the Tx request thanks to
  62:Drivers/STM32G4xx_HAL_Driver/Src/stm32g4xx_hal_fdcan.c ****           HAL_FDCAN_GetLatestTxFifoQRequestBuffer API.
  63:Drivers/STM32G4xx_HAL_Driver/Src/stm32g4xx_hal_fdcan.c ****           It is then possible to abort later on the corresponding Tx Request using
  64:Drivers/STM32G4xx_HAL_Driver/Src/stm32g4xx_hal_fdcan.c ****           HAL_FDCAN_AbortTxRequest API.
  65:Drivers/STM32G4xx_HAL_Driver/Src/stm32g4xx_hal_fdcan.c **** 
  66:Drivers/STM32G4xx_HAL_Driver/Src/stm32g4xx_hal_fdcan.c ****       (#) When a message is received into the FDCAN message RAM, it can be
  67:Drivers/STM32G4xx_HAL_Driver/Src/stm32g4xx_hal_fdcan.c ****           retrieved using the HAL_FDCAN_GetRxMessage function.
  68:Drivers/STM32G4xx_HAL_Driver/Src/stm32g4xx_hal_fdcan.c **** 
  69:Drivers/STM32G4xx_HAL_Driver/Src/stm32g4xx_hal_fdcan.c ****       (#) Calling the HAL_FDCAN_Stop function stops the FDCAN module by entering
  70:Drivers/STM32G4xx_HAL_Driver/Src/stm32g4xx_hal_fdcan.c ****           it to initialization mode and re-enabling access to configuration
  71:Drivers/STM32G4xx_HAL_Driver/Src/stm32g4xx_hal_fdcan.c ****           registers through the configuration functions listed here above.
  72:Drivers/STM32G4xx_HAL_Driver/Src/stm32g4xx_hal_fdcan.c **** 
  73:Drivers/STM32G4xx_HAL_Driver/Src/stm32g4xx_hal_fdcan.c ****       (#) All other control functions can be called any time after initialization
  74:Drivers/STM32G4xx_HAL_Driver/Src/stm32g4xx_hal_fdcan.c ****           phase, no matter if the FDCAN module is started or stopped.
  75:Drivers/STM32G4xx_HAL_Driver/Src/stm32g4xx_hal_fdcan.c **** 
  76:Drivers/STM32G4xx_HAL_Driver/Src/stm32g4xx_hal_fdcan.c ****       *** Polling mode operation ***
  77:Drivers/STM32G4xx_HAL_Driver/Src/stm32g4xx_hal_fdcan.c ****       ==============================
  78:Drivers/STM32G4xx_HAL_Driver/Src/stm32g4xx_hal_fdcan.c ****     [..]
  79:Drivers/STM32G4xx_HAL_Driver/Src/stm32g4xx_hal_fdcan.c ****         (#) Reception and transmission states can be monitored via the following
ARM GAS  C:\Users\AURORA~1\AppData\Local\Temp\ccEbooPs.s 			page 3


  80:Drivers/STM32G4xx_HAL_Driver/Src/stm32g4xx_hal_fdcan.c ****             functions:
  81:Drivers/STM32G4xx_HAL_Driver/Src/stm32g4xx_hal_fdcan.c ****               (++) HAL_FDCAN_IsTxBufferMessagePending
  82:Drivers/STM32G4xx_HAL_Driver/Src/stm32g4xx_hal_fdcan.c ****               (++) HAL_FDCAN_GetRxFifoFillLevel
  83:Drivers/STM32G4xx_HAL_Driver/Src/stm32g4xx_hal_fdcan.c ****               (++) HAL_FDCAN_GetTxFifoFreeLevel
  84:Drivers/STM32G4xx_HAL_Driver/Src/stm32g4xx_hal_fdcan.c **** 
  85:Drivers/STM32G4xx_HAL_Driver/Src/stm32g4xx_hal_fdcan.c ****       *** Interrupt mode operation ***
  86:Drivers/STM32G4xx_HAL_Driver/Src/stm32g4xx_hal_fdcan.c ****       ================================
  87:Drivers/STM32G4xx_HAL_Driver/Src/stm32g4xx_hal_fdcan.c ****       [..]
  88:Drivers/STM32G4xx_HAL_Driver/Src/stm32g4xx_hal_fdcan.c ****         (#) There are two interrupt lines: line 0 and 1.
  89:Drivers/STM32G4xx_HAL_Driver/Src/stm32g4xx_hal_fdcan.c ****             By default, all interrupts are assigned to line 0. Interrupt lines
  90:Drivers/STM32G4xx_HAL_Driver/Src/stm32g4xx_hal_fdcan.c ****             can be configured using HAL_FDCAN_ConfigInterruptLines function.
  91:Drivers/STM32G4xx_HAL_Driver/Src/stm32g4xx_hal_fdcan.c **** 
  92:Drivers/STM32G4xx_HAL_Driver/Src/stm32g4xx_hal_fdcan.c ****         (#) Notifications are activated using HAL_FDCAN_ActivateNotification
  93:Drivers/STM32G4xx_HAL_Driver/Src/stm32g4xx_hal_fdcan.c ****             function. Then, the process can be controlled through one of the
  94:Drivers/STM32G4xx_HAL_Driver/Src/stm32g4xx_hal_fdcan.c ****             available user callbacks: HAL_FDCAN_xxxCallback.
  95:Drivers/STM32G4xx_HAL_Driver/Src/stm32g4xx_hal_fdcan.c **** 
  96:Drivers/STM32G4xx_HAL_Driver/Src/stm32g4xx_hal_fdcan.c ****   *** Callback registration ***
  97:Drivers/STM32G4xx_HAL_Driver/Src/stm32g4xx_hal_fdcan.c ****   =============================================
  98:Drivers/STM32G4xx_HAL_Driver/Src/stm32g4xx_hal_fdcan.c **** 
  99:Drivers/STM32G4xx_HAL_Driver/Src/stm32g4xx_hal_fdcan.c ****   The compilation define USE_HAL_FDCAN_REGISTER_CALLBACKS when set to 1
 100:Drivers/STM32G4xx_HAL_Driver/Src/stm32g4xx_hal_fdcan.c ****   allows the user to configure dynamically the driver callbacks.
 101:Drivers/STM32G4xx_HAL_Driver/Src/stm32g4xx_hal_fdcan.c ****   Use Function HAL_FDCAN_RegisterCallback() or HAL_FDCAN_RegisterXXXCallback()
 102:Drivers/STM32G4xx_HAL_Driver/Src/stm32g4xx_hal_fdcan.c ****   to register an interrupt callback.
 103:Drivers/STM32G4xx_HAL_Driver/Src/stm32g4xx_hal_fdcan.c **** 
 104:Drivers/STM32G4xx_HAL_Driver/Src/stm32g4xx_hal_fdcan.c ****   Function HAL_FDCAN_RegisterCallback() allows to register following callbacks:
 105:Drivers/STM32G4xx_HAL_Driver/Src/stm32g4xx_hal_fdcan.c ****     (+) TxFifoEmptyCallback          : Tx Fifo Empty Callback.
 106:Drivers/STM32G4xx_HAL_Driver/Src/stm32g4xx_hal_fdcan.c ****     (+) HighPriorityMessageCallback  : High Priority Message Callback.
 107:Drivers/STM32G4xx_HAL_Driver/Src/stm32g4xx_hal_fdcan.c ****     (+) TimestampWraparoundCallback  : Timestamp Wraparound Callback.
 108:Drivers/STM32G4xx_HAL_Driver/Src/stm32g4xx_hal_fdcan.c ****     (+) TimeoutOccurredCallback      : Timeout Occurred Callback.
 109:Drivers/STM32G4xx_HAL_Driver/Src/stm32g4xx_hal_fdcan.c ****     (+) ErrorCallback                : Error Callback.
 110:Drivers/STM32G4xx_HAL_Driver/Src/stm32g4xx_hal_fdcan.c ****     (+) MspInitCallback              : FDCAN MspInit.
 111:Drivers/STM32G4xx_HAL_Driver/Src/stm32g4xx_hal_fdcan.c ****     (+) MspDeInitCallback            : FDCAN MspDeInit.
 112:Drivers/STM32G4xx_HAL_Driver/Src/stm32g4xx_hal_fdcan.c ****   This function takes as parameters the HAL peripheral handle, the Callback ID
 113:Drivers/STM32G4xx_HAL_Driver/Src/stm32g4xx_hal_fdcan.c ****   and a pointer to the user callback function.
 114:Drivers/STM32G4xx_HAL_Driver/Src/stm32g4xx_hal_fdcan.c **** 
 115:Drivers/STM32G4xx_HAL_Driver/Src/stm32g4xx_hal_fdcan.c ****   For specific callbacks TxEventFifoCallback, RxFifo0Callback, RxFifo1Callback,
 116:Drivers/STM32G4xx_HAL_Driver/Src/stm32g4xx_hal_fdcan.c ****   TxBufferCompleteCallback, TxBufferAbortCallback and ErrorStatusCallback use dedicated
 117:Drivers/STM32G4xx_HAL_Driver/Src/stm32g4xx_hal_fdcan.c ****   register callbacks: respectively HAL_FDCAN_RegisterTxEventFifoCallback(),
 118:Drivers/STM32G4xx_HAL_Driver/Src/stm32g4xx_hal_fdcan.c ****   HAL_FDCAN_RegisterRxFifo0Callback(), HAL_FDCAN_RegisterRxFifo1Callback(),
 119:Drivers/STM32G4xx_HAL_Driver/Src/stm32g4xx_hal_fdcan.c ****   HAL_FDCAN_RegisterTxBufferCompleteCallback(), HAL_FDCAN_RegisterTxBufferAbortCallback()
 120:Drivers/STM32G4xx_HAL_Driver/Src/stm32g4xx_hal_fdcan.c ****   and HAL_FDCAN_RegisterErrorStatusCallback().
 121:Drivers/STM32G4xx_HAL_Driver/Src/stm32g4xx_hal_fdcan.c **** 
 122:Drivers/STM32G4xx_HAL_Driver/Src/stm32g4xx_hal_fdcan.c ****   Use function HAL_FDCAN_UnRegisterCallback() to reset a callback to the default
 123:Drivers/STM32G4xx_HAL_Driver/Src/stm32g4xx_hal_fdcan.c ****   weak function.
 124:Drivers/STM32G4xx_HAL_Driver/Src/stm32g4xx_hal_fdcan.c ****   HAL_FDCAN_UnRegisterCallback takes as parameters the HAL peripheral handle,
 125:Drivers/STM32G4xx_HAL_Driver/Src/stm32g4xx_hal_fdcan.c ****   and the Callback ID.
 126:Drivers/STM32G4xx_HAL_Driver/Src/stm32g4xx_hal_fdcan.c ****   This function allows to reset following callbacks:
 127:Drivers/STM32G4xx_HAL_Driver/Src/stm32g4xx_hal_fdcan.c ****     (+) TxFifoEmptyCallback          : Tx Fifo Empty Callback.
 128:Drivers/STM32G4xx_HAL_Driver/Src/stm32g4xx_hal_fdcan.c ****     (+) HighPriorityMessageCallback  : High Priority Message Callback.
 129:Drivers/STM32G4xx_HAL_Driver/Src/stm32g4xx_hal_fdcan.c ****     (+) TimestampWraparoundCallback  : Timestamp Wraparound Callback.
 130:Drivers/STM32G4xx_HAL_Driver/Src/stm32g4xx_hal_fdcan.c ****     (+) TimeoutOccurredCallback      : Timeout Occurred Callback.
 131:Drivers/STM32G4xx_HAL_Driver/Src/stm32g4xx_hal_fdcan.c ****     (+) ErrorCallback                : Error Callback.
 132:Drivers/STM32G4xx_HAL_Driver/Src/stm32g4xx_hal_fdcan.c ****     (+) MspInitCallback              : FDCAN MspInit.
 133:Drivers/STM32G4xx_HAL_Driver/Src/stm32g4xx_hal_fdcan.c ****     (+) MspDeInitCallback            : FDCAN MspDeInit.
 134:Drivers/STM32G4xx_HAL_Driver/Src/stm32g4xx_hal_fdcan.c **** 
 135:Drivers/STM32G4xx_HAL_Driver/Src/stm32g4xx_hal_fdcan.c ****   For specific callbacks TxEventFifoCallback, RxFifo0Callback, RxFifo1Callback,
 136:Drivers/STM32G4xx_HAL_Driver/Src/stm32g4xx_hal_fdcan.c ****   TxBufferCompleteCallback and TxBufferAbortCallback, use dedicated
ARM GAS  C:\Users\AURORA~1\AppData\Local\Temp\ccEbooPs.s 			page 4


 137:Drivers/STM32G4xx_HAL_Driver/Src/stm32g4xx_hal_fdcan.c ****   unregister callbacks: respectively HAL_FDCAN_UnRegisterTxEventFifoCallback(),
 138:Drivers/STM32G4xx_HAL_Driver/Src/stm32g4xx_hal_fdcan.c ****   HAL_FDCAN_UnRegisterRxFifo0Callback(), HAL_FDCAN_UnRegisterRxFifo1Callback(),
 139:Drivers/STM32G4xx_HAL_Driver/Src/stm32g4xx_hal_fdcan.c ****   HAL_FDCAN_UnRegisterTxBufferCompleteCallback(), HAL_FDCAN_UnRegisterTxBufferAbortCallback()
 140:Drivers/STM32G4xx_HAL_Driver/Src/stm32g4xx_hal_fdcan.c ****   and HAL_FDCAN_UnRegisterErrorStatusCallback().
 141:Drivers/STM32G4xx_HAL_Driver/Src/stm32g4xx_hal_fdcan.c **** 
 142:Drivers/STM32G4xx_HAL_Driver/Src/stm32g4xx_hal_fdcan.c ****   By default, after the HAL_FDCAN_Init() and when the state is HAL_FDCAN_STATE_RESET,
 143:Drivers/STM32G4xx_HAL_Driver/Src/stm32g4xx_hal_fdcan.c ****   all callbacks are set to the corresponding weak functions:
 144:Drivers/STM32G4xx_HAL_Driver/Src/stm32g4xx_hal_fdcan.c ****   examples HAL_FDCAN_ErrorCallback().
 145:Drivers/STM32G4xx_HAL_Driver/Src/stm32g4xx_hal_fdcan.c ****   Exception done for MspInit and MspDeInit functions that are
 146:Drivers/STM32G4xx_HAL_Driver/Src/stm32g4xx_hal_fdcan.c ****   reset to the legacy weak function in the HAL_FDCAN_Init()/ HAL_FDCAN_DeInit() only when
 147:Drivers/STM32G4xx_HAL_Driver/Src/stm32g4xx_hal_fdcan.c ****   these callbacks are null (not registered beforehand).
 148:Drivers/STM32G4xx_HAL_Driver/Src/stm32g4xx_hal_fdcan.c ****   if not, MspInit or MspDeInit are not null, the HAL_FDCAN_Init()/ HAL_FDCAN_DeInit()
 149:Drivers/STM32G4xx_HAL_Driver/Src/stm32g4xx_hal_fdcan.c ****   keep and use the user MspInit/MspDeInit callbacks (registered beforehand)
 150:Drivers/STM32G4xx_HAL_Driver/Src/stm32g4xx_hal_fdcan.c **** 
 151:Drivers/STM32G4xx_HAL_Driver/Src/stm32g4xx_hal_fdcan.c ****   Callbacks can be registered/unregistered in HAL_FDCAN_STATE_READY state only.
 152:Drivers/STM32G4xx_HAL_Driver/Src/stm32g4xx_hal_fdcan.c ****   Exception done MspInit/MspDeInit that can be registered/unregistered
 153:Drivers/STM32G4xx_HAL_Driver/Src/stm32g4xx_hal_fdcan.c ****   in HAL_FDCAN_STATE_READY or HAL_FDCAN_STATE_RESET state,
 154:Drivers/STM32G4xx_HAL_Driver/Src/stm32g4xx_hal_fdcan.c ****   thus registered (user) MspInit/DeInit callbacks can be used during the Init/DeInit.
 155:Drivers/STM32G4xx_HAL_Driver/Src/stm32g4xx_hal_fdcan.c ****   In that case first register the MspInit/MspDeInit user callbacks
 156:Drivers/STM32G4xx_HAL_Driver/Src/stm32g4xx_hal_fdcan.c ****   using HAL_FDCAN_RegisterCallback() before calling HAL_FDCAN_DeInit()
 157:Drivers/STM32G4xx_HAL_Driver/Src/stm32g4xx_hal_fdcan.c ****   or HAL_FDCAN_Init() function.
 158:Drivers/STM32G4xx_HAL_Driver/Src/stm32g4xx_hal_fdcan.c **** 
 159:Drivers/STM32G4xx_HAL_Driver/Src/stm32g4xx_hal_fdcan.c ****   When The compilation define USE_HAL_FDCAN_REGISTER_CALLBACKS is set to 0 or
 160:Drivers/STM32G4xx_HAL_Driver/Src/stm32g4xx_hal_fdcan.c ****   not defined, the callback registration feature is not available and all callbacks
 161:Drivers/STM32G4xx_HAL_Driver/Src/stm32g4xx_hal_fdcan.c ****   are set to the corresponding weak functions.
 162:Drivers/STM32G4xx_HAL_Driver/Src/stm32g4xx_hal_fdcan.c **** 
 163:Drivers/STM32G4xx_HAL_Driver/Src/stm32g4xx_hal_fdcan.c ****   @endverbatim
 164:Drivers/STM32G4xx_HAL_Driver/Src/stm32g4xx_hal_fdcan.c ****   ******************************************************************************
 165:Drivers/STM32G4xx_HAL_Driver/Src/stm32g4xx_hal_fdcan.c ****   */
 166:Drivers/STM32G4xx_HAL_Driver/Src/stm32g4xx_hal_fdcan.c **** 
 167:Drivers/STM32G4xx_HAL_Driver/Src/stm32g4xx_hal_fdcan.c **** /* Includes ------------------------------------------------------------------*/
 168:Drivers/STM32G4xx_HAL_Driver/Src/stm32g4xx_hal_fdcan.c **** #include "stm32g4xx_hal.h"
 169:Drivers/STM32G4xx_HAL_Driver/Src/stm32g4xx_hal_fdcan.c **** 
 170:Drivers/STM32G4xx_HAL_Driver/Src/stm32g4xx_hal_fdcan.c **** #if defined(FDCAN1)
 171:Drivers/STM32G4xx_HAL_Driver/Src/stm32g4xx_hal_fdcan.c **** 
 172:Drivers/STM32G4xx_HAL_Driver/Src/stm32g4xx_hal_fdcan.c **** /** @addtogroup STM32G4xx_HAL_Driver
 173:Drivers/STM32G4xx_HAL_Driver/Src/stm32g4xx_hal_fdcan.c ****   * @{
 174:Drivers/STM32G4xx_HAL_Driver/Src/stm32g4xx_hal_fdcan.c ****   */
 175:Drivers/STM32G4xx_HAL_Driver/Src/stm32g4xx_hal_fdcan.c **** 
 176:Drivers/STM32G4xx_HAL_Driver/Src/stm32g4xx_hal_fdcan.c **** /** @defgroup FDCAN FDCAN
 177:Drivers/STM32G4xx_HAL_Driver/Src/stm32g4xx_hal_fdcan.c ****   * @brief FDCAN HAL module driver
 178:Drivers/STM32G4xx_HAL_Driver/Src/stm32g4xx_hal_fdcan.c ****   * @{
 179:Drivers/STM32G4xx_HAL_Driver/Src/stm32g4xx_hal_fdcan.c ****   */
 180:Drivers/STM32G4xx_HAL_Driver/Src/stm32g4xx_hal_fdcan.c **** 
 181:Drivers/STM32G4xx_HAL_Driver/Src/stm32g4xx_hal_fdcan.c **** #ifdef HAL_FDCAN_MODULE_ENABLED
 182:Drivers/STM32G4xx_HAL_Driver/Src/stm32g4xx_hal_fdcan.c **** 
 183:Drivers/STM32G4xx_HAL_Driver/Src/stm32g4xx_hal_fdcan.c **** /* Private typedef -----------------------------------------------------------*/
 184:Drivers/STM32G4xx_HAL_Driver/Src/stm32g4xx_hal_fdcan.c **** /* Private define ------------------------------------------------------------*/
 185:Drivers/STM32G4xx_HAL_Driver/Src/stm32g4xx_hal_fdcan.c **** /** @addtogroup FDCAN_Private_Constants
 186:Drivers/STM32G4xx_HAL_Driver/Src/stm32g4xx_hal_fdcan.c ****   * @{
 187:Drivers/STM32G4xx_HAL_Driver/Src/stm32g4xx_hal_fdcan.c ****   */
 188:Drivers/STM32G4xx_HAL_Driver/Src/stm32g4xx_hal_fdcan.c **** #define FDCAN_TIMEOUT_VALUE 10U
 189:Drivers/STM32G4xx_HAL_Driver/Src/stm32g4xx_hal_fdcan.c **** 
 190:Drivers/STM32G4xx_HAL_Driver/Src/stm32g4xx_hal_fdcan.c **** #define FDCAN_TX_EVENT_FIFO_MASK (FDCAN_IR_TEFL | FDCAN_IR_TEFF | FDCAN_IR_TEFN)
 191:Drivers/STM32G4xx_HAL_Driver/Src/stm32g4xx_hal_fdcan.c **** #define FDCAN_RX_FIFO0_MASK (FDCAN_IR_RF0L | FDCAN_IR_RF0F | FDCAN_IR_RF0N)
 192:Drivers/STM32G4xx_HAL_Driver/Src/stm32g4xx_hal_fdcan.c **** #define FDCAN_RX_FIFO1_MASK (FDCAN_IR_RF1L | FDCAN_IR_RF1F | FDCAN_IR_RF1N)
 193:Drivers/STM32G4xx_HAL_Driver/Src/stm32g4xx_hal_fdcan.c **** #define FDCAN_ERROR_MASK (FDCAN_IR_ELO | FDCAN_IR_WDI | FDCAN_IR_PEA | FDCAN_IR_PED | FDCAN_IR_ARA)
ARM GAS  C:\Users\AURORA~1\AppData\Local\Temp\ccEbooPs.s 			page 5


 194:Drivers/STM32G4xx_HAL_Driver/Src/stm32g4xx_hal_fdcan.c **** #define FDCAN_ERROR_STATUS_MASK (FDCAN_IR_EP | FDCAN_IR_EW | FDCAN_IR_BO)
 195:Drivers/STM32G4xx_HAL_Driver/Src/stm32g4xx_hal_fdcan.c **** 
 196:Drivers/STM32G4xx_HAL_Driver/Src/stm32g4xx_hal_fdcan.c **** #define FDCAN_ELEMENT_MASK_STDID ((uint32_t)0x1FFC0000U) /* Standard Identifier         */
 197:Drivers/STM32G4xx_HAL_Driver/Src/stm32g4xx_hal_fdcan.c **** #define FDCAN_ELEMENT_MASK_EXTID ((uint32_t)0x1FFFFFFFU) /* Extended Identifier         */
 198:Drivers/STM32G4xx_HAL_Driver/Src/stm32g4xx_hal_fdcan.c **** #define FDCAN_ELEMENT_MASK_RTR   ((uint32_t)0x20000000U) /* Remote Transmission Request */
 199:Drivers/STM32G4xx_HAL_Driver/Src/stm32g4xx_hal_fdcan.c **** #define FDCAN_ELEMENT_MASK_XTD   ((uint32_t)0x40000000U) /* Extended Identifier         */
 200:Drivers/STM32G4xx_HAL_Driver/Src/stm32g4xx_hal_fdcan.c **** #define FDCAN_ELEMENT_MASK_ESI   ((uint32_t)0x80000000U) /* Error State Indicator       */
 201:Drivers/STM32G4xx_HAL_Driver/Src/stm32g4xx_hal_fdcan.c **** #define FDCAN_ELEMENT_MASK_TS    ((uint32_t)0x0000FFFFU) /* Timestamp                   */
 202:Drivers/STM32G4xx_HAL_Driver/Src/stm32g4xx_hal_fdcan.c **** #define FDCAN_ELEMENT_MASK_DLC   ((uint32_t)0x000F0000U) /* Data Length Code            */
 203:Drivers/STM32G4xx_HAL_Driver/Src/stm32g4xx_hal_fdcan.c **** #define FDCAN_ELEMENT_MASK_BRS   ((uint32_t)0x00100000U) /* Bit Rate Switch             */
 204:Drivers/STM32G4xx_HAL_Driver/Src/stm32g4xx_hal_fdcan.c **** #define FDCAN_ELEMENT_MASK_FDF   ((uint32_t)0x00200000U) /* FD Format                   */
 205:Drivers/STM32G4xx_HAL_Driver/Src/stm32g4xx_hal_fdcan.c **** #define FDCAN_ELEMENT_MASK_EFC   ((uint32_t)0x00800000U) /* Event FIFO Control          */
 206:Drivers/STM32G4xx_HAL_Driver/Src/stm32g4xx_hal_fdcan.c **** #define FDCAN_ELEMENT_MASK_MM    ((uint32_t)0xFF000000U) /* Message Marker              */
 207:Drivers/STM32G4xx_HAL_Driver/Src/stm32g4xx_hal_fdcan.c **** #define FDCAN_ELEMENT_MASK_FIDX  ((uint32_t)0x7F000000U) /* Filter Index                */
 208:Drivers/STM32G4xx_HAL_Driver/Src/stm32g4xx_hal_fdcan.c **** #define FDCAN_ELEMENT_MASK_ANMF  ((uint32_t)0x80000000U) /* Accepted Non-matching Frame */
 209:Drivers/STM32G4xx_HAL_Driver/Src/stm32g4xx_hal_fdcan.c **** #define FDCAN_ELEMENT_MASK_ET    ((uint32_t)0x00C00000U) /* Event type                  */
 210:Drivers/STM32G4xx_HAL_Driver/Src/stm32g4xx_hal_fdcan.c **** 
 211:Drivers/STM32G4xx_HAL_Driver/Src/stm32g4xx_hal_fdcan.c **** #define SRAMCAN_FLS_NBR                  (28U)         /* Max. Filter List Standard Number      */
 212:Drivers/STM32G4xx_HAL_Driver/Src/stm32g4xx_hal_fdcan.c **** #define SRAMCAN_FLE_NBR                  ( 8U)         /* Max. Filter List Extended Number      */
 213:Drivers/STM32G4xx_HAL_Driver/Src/stm32g4xx_hal_fdcan.c **** #define SRAMCAN_RF0_NBR                  ( 3U)         /* RX FIFO 0 Elements Number             */
 214:Drivers/STM32G4xx_HAL_Driver/Src/stm32g4xx_hal_fdcan.c **** #define SRAMCAN_RF1_NBR                  ( 3U)         /* RX FIFO 1 Elements Number             */
 215:Drivers/STM32G4xx_HAL_Driver/Src/stm32g4xx_hal_fdcan.c **** #define SRAMCAN_TEF_NBR                  ( 3U)         /* TX Event FIFO Elements Number         */
 216:Drivers/STM32G4xx_HAL_Driver/Src/stm32g4xx_hal_fdcan.c **** #define SRAMCAN_TFQ_NBR                  ( 3U)         /* TX FIFO/Queue Elements Number         */
 217:Drivers/STM32G4xx_HAL_Driver/Src/stm32g4xx_hal_fdcan.c **** 
 218:Drivers/STM32G4xx_HAL_Driver/Src/stm32g4xx_hal_fdcan.c **** #define SRAMCAN_FLS_SIZE            ( 1U * 4U)         /* Filter Standard Element Size in bytes */
 219:Drivers/STM32G4xx_HAL_Driver/Src/stm32g4xx_hal_fdcan.c **** #define SRAMCAN_FLE_SIZE            ( 2U * 4U)         /* Filter Extended Element Size in bytes */
 220:Drivers/STM32G4xx_HAL_Driver/Src/stm32g4xx_hal_fdcan.c **** #define SRAMCAN_RF0_SIZE            (18U * 4U)         /* RX FIFO 0 Elements Size in bytes      */
 221:Drivers/STM32G4xx_HAL_Driver/Src/stm32g4xx_hal_fdcan.c **** #define SRAMCAN_RF1_SIZE            (18U * 4U)         /* RX FIFO 1 Elements Size in bytes      */
 222:Drivers/STM32G4xx_HAL_Driver/Src/stm32g4xx_hal_fdcan.c **** #define SRAMCAN_TEF_SIZE            ( 2U * 4U)         /* TX Event FIFO Elements Size in bytes  */
 223:Drivers/STM32G4xx_HAL_Driver/Src/stm32g4xx_hal_fdcan.c **** #define SRAMCAN_TFQ_SIZE            (18U * 4U)         /* TX FIFO/Queue Elements Size in bytes  */
 224:Drivers/STM32G4xx_HAL_Driver/Src/stm32g4xx_hal_fdcan.c **** 
 225:Drivers/STM32G4xx_HAL_Driver/Src/stm32g4xx_hal_fdcan.c **** #define SRAMCAN_FLSSA ((uint32_t)0)                                                      /* Filter 
 226:Drivers/STM32G4xx_HAL_Driver/Src/stm32g4xx_hal_fdcan.c ****                                                                                             Address
 227:Drivers/STM32G4xx_HAL_Driver/Src/stm32g4xx_hal_fdcan.c **** #define SRAMCAN_FLESA ((uint32_t)(SRAMCAN_FLSSA + (SRAMCAN_FLS_NBR * SRAMCAN_FLS_SIZE))) /* Filter 
 228:Drivers/STM32G4xx_HAL_Driver/Src/stm32g4xx_hal_fdcan.c ****                                                                                             Address
 229:Drivers/STM32G4xx_HAL_Driver/Src/stm32g4xx_hal_fdcan.c **** #define SRAMCAN_RF0SA ((uint32_t)(SRAMCAN_FLESA + (SRAMCAN_FLE_NBR * SRAMCAN_FLE_SIZE))) /* Rx FIFO
 230:Drivers/STM32G4xx_HAL_Driver/Src/stm32g4xx_hal_fdcan.c **** #define SRAMCAN_RF1SA ((uint32_t)(SRAMCAN_RF0SA + (SRAMCAN_RF0_NBR * SRAMCAN_RF0_SIZE))) /* Rx FIFO
 231:Drivers/STM32G4xx_HAL_Driver/Src/stm32g4xx_hal_fdcan.c **** #define SRAMCAN_TEFSA ((uint32_t)(SRAMCAN_RF1SA + (SRAMCAN_RF1_NBR * SRAMCAN_RF1_SIZE))) /* Tx Even
 232:Drivers/STM32G4xx_HAL_Driver/Src/stm32g4xx_hal_fdcan.c ****                                                                                             Address
 233:Drivers/STM32G4xx_HAL_Driver/Src/stm32g4xx_hal_fdcan.c **** #define SRAMCAN_TFQSA ((uint32_t)(SRAMCAN_TEFSA + (SRAMCAN_TEF_NBR * SRAMCAN_TEF_SIZE))) /* Tx FIFO
 234:Drivers/STM32G4xx_HAL_Driver/Src/stm32g4xx_hal_fdcan.c ****                                                                                             Address
 235:Drivers/STM32G4xx_HAL_Driver/Src/stm32g4xx_hal_fdcan.c **** #define SRAMCAN_SIZE  ((uint32_t)(SRAMCAN_TFQSA + (SRAMCAN_TFQ_NBR * SRAMCAN_TFQ_SIZE))) /* Message
 236:Drivers/STM32G4xx_HAL_Driver/Src/stm32g4xx_hal_fdcan.c **** 
 237:Drivers/STM32G4xx_HAL_Driver/Src/stm32g4xx_hal_fdcan.c **** /**
 238:Drivers/STM32G4xx_HAL_Driver/Src/stm32g4xx_hal_fdcan.c ****   * @}
 239:Drivers/STM32G4xx_HAL_Driver/Src/stm32g4xx_hal_fdcan.c ****   */
 240:Drivers/STM32G4xx_HAL_Driver/Src/stm32g4xx_hal_fdcan.c **** 
 241:Drivers/STM32G4xx_HAL_Driver/Src/stm32g4xx_hal_fdcan.c **** /* Private macro -------------------------------------------------------------*/
 242:Drivers/STM32G4xx_HAL_Driver/Src/stm32g4xx_hal_fdcan.c **** /* Private variables ---------------------------------------------------------*/
 243:Drivers/STM32G4xx_HAL_Driver/Src/stm32g4xx_hal_fdcan.c **** /** @addtogroup FDCAN_Private_Variables
 244:Drivers/STM32G4xx_HAL_Driver/Src/stm32g4xx_hal_fdcan.c ****   * @{
 245:Drivers/STM32G4xx_HAL_Driver/Src/stm32g4xx_hal_fdcan.c ****   */
 246:Drivers/STM32G4xx_HAL_Driver/Src/stm32g4xx_hal_fdcan.c **** static const uint8_t DLCtoBytes[] = {0, 1, 2, 3, 4, 5, 6, 7, 8, 12, 16, 20, 24, 32, 48, 64};
 247:Drivers/STM32G4xx_HAL_Driver/Src/stm32g4xx_hal_fdcan.c **** /**
 248:Drivers/STM32G4xx_HAL_Driver/Src/stm32g4xx_hal_fdcan.c ****   * @}
 249:Drivers/STM32G4xx_HAL_Driver/Src/stm32g4xx_hal_fdcan.c ****   */
 250:Drivers/STM32G4xx_HAL_Driver/Src/stm32g4xx_hal_fdcan.c **** 
ARM GAS  C:\Users\AURORA~1\AppData\Local\Temp\ccEbooPs.s 			page 6


 251:Drivers/STM32G4xx_HAL_Driver/Src/stm32g4xx_hal_fdcan.c **** /* Private function prototypes -----------------------------------------------*/
 252:Drivers/STM32G4xx_HAL_Driver/Src/stm32g4xx_hal_fdcan.c **** /** @addtogroup FDCAN_Private_Functions_Prototypes
 253:Drivers/STM32G4xx_HAL_Driver/Src/stm32g4xx_hal_fdcan.c ****   * @{
 254:Drivers/STM32G4xx_HAL_Driver/Src/stm32g4xx_hal_fdcan.c ****   */
 255:Drivers/STM32G4xx_HAL_Driver/Src/stm32g4xx_hal_fdcan.c **** static void FDCAN_CalcultateRamBlockAddresses(FDCAN_HandleTypeDef *hfdcan);
 256:Drivers/STM32G4xx_HAL_Driver/Src/stm32g4xx_hal_fdcan.c **** static void FDCAN_CopyMessageToRAM(const FDCAN_HandleTypeDef *hfdcan, const FDCAN_TxHeaderTypeDef *
 257:Drivers/STM32G4xx_HAL_Driver/Src/stm32g4xx_hal_fdcan.c ****                                    const uint8_t *pTxData, uint32_t BufferIndex);
 258:Drivers/STM32G4xx_HAL_Driver/Src/stm32g4xx_hal_fdcan.c **** /**
 259:Drivers/STM32G4xx_HAL_Driver/Src/stm32g4xx_hal_fdcan.c ****   * @}
 260:Drivers/STM32G4xx_HAL_Driver/Src/stm32g4xx_hal_fdcan.c ****   */
 261:Drivers/STM32G4xx_HAL_Driver/Src/stm32g4xx_hal_fdcan.c **** 
 262:Drivers/STM32G4xx_HAL_Driver/Src/stm32g4xx_hal_fdcan.c **** /* Exported functions --------------------------------------------------------*/
 263:Drivers/STM32G4xx_HAL_Driver/Src/stm32g4xx_hal_fdcan.c **** /** @defgroup FDCAN_Exported_Functions FDCAN Exported Functions
 264:Drivers/STM32G4xx_HAL_Driver/Src/stm32g4xx_hal_fdcan.c ****   * @{
 265:Drivers/STM32G4xx_HAL_Driver/Src/stm32g4xx_hal_fdcan.c ****   */
 266:Drivers/STM32G4xx_HAL_Driver/Src/stm32g4xx_hal_fdcan.c **** 
 267:Drivers/STM32G4xx_HAL_Driver/Src/stm32g4xx_hal_fdcan.c **** /** @defgroup FDCAN_Exported_Functions_Group1 Initialization and de-initialization functions
 268:Drivers/STM32G4xx_HAL_Driver/Src/stm32g4xx_hal_fdcan.c ****   *  @brief    Initialization and Configuration functions
 269:Drivers/STM32G4xx_HAL_Driver/Src/stm32g4xx_hal_fdcan.c ****   *
 270:Drivers/STM32G4xx_HAL_Driver/Src/stm32g4xx_hal_fdcan.c **** @verbatim
 271:Drivers/STM32G4xx_HAL_Driver/Src/stm32g4xx_hal_fdcan.c ****   ==============================================================================
 272:Drivers/STM32G4xx_HAL_Driver/Src/stm32g4xx_hal_fdcan.c ****               ##### Initialization and de-initialization functions #####
 273:Drivers/STM32G4xx_HAL_Driver/Src/stm32g4xx_hal_fdcan.c ****   ==============================================================================
 274:Drivers/STM32G4xx_HAL_Driver/Src/stm32g4xx_hal_fdcan.c ****     [..]  This section provides functions allowing to:
 275:Drivers/STM32G4xx_HAL_Driver/Src/stm32g4xx_hal_fdcan.c ****       (+) Initialize and configure the FDCAN.
 276:Drivers/STM32G4xx_HAL_Driver/Src/stm32g4xx_hal_fdcan.c ****       (+) De-initialize the FDCAN.
 277:Drivers/STM32G4xx_HAL_Driver/Src/stm32g4xx_hal_fdcan.c ****       (+) Enter FDCAN peripheral in power down mode.
 278:Drivers/STM32G4xx_HAL_Driver/Src/stm32g4xx_hal_fdcan.c ****       (+) Exit power down mode.
 279:Drivers/STM32G4xx_HAL_Driver/Src/stm32g4xx_hal_fdcan.c ****       (+) Register callbacks.
 280:Drivers/STM32G4xx_HAL_Driver/Src/stm32g4xx_hal_fdcan.c ****       (+) Unregister callbacks.
 281:Drivers/STM32G4xx_HAL_Driver/Src/stm32g4xx_hal_fdcan.c **** 
 282:Drivers/STM32G4xx_HAL_Driver/Src/stm32g4xx_hal_fdcan.c **** @endverbatim
 283:Drivers/STM32G4xx_HAL_Driver/Src/stm32g4xx_hal_fdcan.c ****   * @{
 284:Drivers/STM32G4xx_HAL_Driver/Src/stm32g4xx_hal_fdcan.c ****   */
 285:Drivers/STM32G4xx_HAL_Driver/Src/stm32g4xx_hal_fdcan.c **** 
 286:Drivers/STM32G4xx_HAL_Driver/Src/stm32g4xx_hal_fdcan.c **** /**
 287:Drivers/STM32G4xx_HAL_Driver/Src/stm32g4xx_hal_fdcan.c ****   * @brief  Initializes the FDCAN peripheral according to the specified
 288:Drivers/STM32G4xx_HAL_Driver/Src/stm32g4xx_hal_fdcan.c ****   *         parameters in the FDCAN_InitTypeDef structure.
 289:Drivers/STM32G4xx_HAL_Driver/Src/stm32g4xx_hal_fdcan.c ****   * @param  hfdcan pointer to an FDCAN_HandleTypeDef structure that contains
 290:Drivers/STM32G4xx_HAL_Driver/Src/stm32g4xx_hal_fdcan.c ****   *         the configuration information for the specified FDCAN.
 291:Drivers/STM32G4xx_HAL_Driver/Src/stm32g4xx_hal_fdcan.c ****   * @retval HAL status
 292:Drivers/STM32G4xx_HAL_Driver/Src/stm32g4xx_hal_fdcan.c ****   */
 293:Drivers/STM32G4xx_HAL_Driver/Src/stm32g4xx_hal_fdcan.c **** HAL_StatusTypeDef HAL_FDCAN_Init(FDCAN_HandleTypeDef *hfdcan)
 294:Drivers/STM32G4xx_HAL_Driver/Src/stm32g4xx_hal_fdcan.c **** {
  36              		.loc 1 294 1
  37              		.cfi_startproc
  38              		@ args = 0, pretend = 0, frame = 16
  39              		@ frame_needed = 1, uses_anonymous_args = 0
  40 0000 80B5     		push	{r7, lr}
  41              	.LCFI0:
  42              		.cfi_def_cfa_offset 8
  43              		.cfi_offset 7, -8
  44              		.cfi_offset 14, -4
  45 0002 84B0     		sub	sp, sp, #16
  46              	.LCFI1:
  47              		.cfi_def_cfa_offset 24
  48 0004 00AF     		add	r7, sp, #0
ARM GAS  C:\Users\AURORA~1\AppData\Local\Temp\ccEbooPs.s 			page 7


  49              	.LCFI2:
  50              		.cfi_def_cfa_register 7
  51 0006 7860     		str	r0, [r7, #4]
 295:Drivers/STM32G4xx_HAL_Driver/Src/stm32g4xx_hal_fdcan.c ****   uint32_t tickstart;
 296:Drivers/STM32G4xx_HAL_Driver/Src/stm32g4xx_hal_fdcan.c **** 
 297:Drivers/STM32G4xx_HAL_Driver/Src/stm32g4xx_hal_fdcan.c ****   /* Check FDCAN handle */
 298:Drivers/STM32G4xx_HAL_Driver/Src/stm32g4xx_hal_fdcan.c ****   if (hfdcan == NULL)
  52              		.loc 1 298 6
  53 0008 7B68     		ldr	r3, [r7, #4]
  54 000a 002B     		cmp	r3, #0
  55 000c 01D1     		bne	.L2
 299:Drivers/STM32G4xx_HAL_Driver/Src/stm32g4xx_hal_fdcan.c ****   {
 300:Drivers/STM32G4xx_HAL_Driver/Src/stm32g4xx_hal_fdcan.c ****     return HAL_ERROR;
  56              		.loc 1 300 12
  57 000e 0123     		movs	r3, #1
  58 0010 47E1     		b	.L3
  59              	.L2:
 301:Drivers/STM32G4xx_HAL_Driver/Src/stm32g4xx_hal_fdcan.c ****   }
 302:Drivers/STM32G4xx_HAL_Driver/Src/stm32g4xx_hal_fdcan.c **** 
 303:Drivers/STM32G4xx_HAL_Driver/Src/stm32g4xx_hal_fdcan.c ****   /* Check function parameters */
 304:Drivers/STM32G4xx_HAL_Driver/Src/stm32g4xx_hal_fdcan.c ****   assert_param(IS_FDCAN_ALL_INSTANCE(hfdcan->Instance));
 305:Drivers/STM32G4xx_HAL_Driver/Src/stm32g4xx_hal_fdcan.c ****   if (hfdcan->Instance == FDCAN1)
 306:Drivers/STM32G4xx_HAL_Driver/Src/stm32g4xx_hal_fdcan.c ****   {
 307:Drivers/STM32G4xx_HAL_Driver/Src/stm32g4xx_hal_fdcan.c ****     assert_param(IS_FDCAN_CKDIV(hfdcan->Init.ClockDivider));
 308:Drivers/STM32G4xx_HAL_Driver/Src/stm32g4xx_hal_fdcan.c ****   }
 309:Drivers/STM32G4xx_HAL_Driver/Src/stm32g4xx_hal_fdcan.c ****   assert_param(IS_FDCAN_FRAME_FORMAT(hfdcan->Init.FrameFormat));
 310:Drivers/STM32G4xx_HAL_Driver/Src/stm32g4xx_hal_fdcan.c ****   assert_param(IS_FDCAN_MODE(hfdcan->Init.Mode));
 311:Drivers/STM32G4xx_HAL_Driver/Src/stm32g4xx_hal_fdcan.c ****   assert_param(IS_FUNCTIONAL_STATE(hfdcan->Init.AutoRetransmission));
 312:Drivers/STM32G4xx_HAL_Driver/Src/stm32g4xx_hal_fdcan.c ****   assert_param(IS_FUNCTIONAL_STATE(hfdcan->Init.TransmitPause));
 313:Drivers/STM32G4xx_HAL_Driver/Src/stm32g4xx_hal_fdcan.c ****   assert_param(IS_FUNCTIONAL_STATE(hfdcan->Init.ProtocolException));
 314:Drivers/STM32G4xx_HAL_Driver/Src/stm32g4xx_hal_fdcan.c ****   assert_param(IS_FDCAN_NOMINAL_PRESCALER(hfdcan->Init.NominalPrescaler));
 315:Drivers/STM32G4xx_HAL_Driver/Src/stm32g4xx_hal_fdcan.c ****   assert_param(IS_FDCAN_NOMINAL_SJW(hfdcan->Init.NominalSyncJumpWidth));
 316:Drivers/STM32G4xx_HAL_Driver/Src/stm32g4xx_hal_fdcan.c ****   assert_param(IS_FDCAN_NOMINAL_TSEG1(hfdcan->Init.NominalTimeSeg1));
 317:Drivers/STM32G4xx_HAL_Driver/Src/stm32g4xx_hal_fdcan.c ****   assert_param(IS_FDCAN_NOMINAL_TSEG2(hfdcan->Init.NominalTimeSeg2));
 318:Drivers/STM32G4xx_HAL_Driver/Src/stm32g4xx_hal_fdcan.c ****   if (hfdcan->Init.FrameFormat == FDCAN_FRAME_FD_BRS)
 319:Drivers/STM32G4xx_HAL_Driver/Src/stm32g4xx_hal_fdcan.c ****   {
 320:Drivers/STM32G4xx_HAL_Driver/Src/stm32g4xx_hal_fdcan.c ****     assert_param(IS_FDCAN_DATA_PRESCALER(hfdcan->Init.DataPrescaler));
 321:Drivers/STM32G4xx_HAL_Driver/Src/stm32g4xx_hal_fdcan.c ****     assert_param(IS_FDCAN_DATA_SJW(hfdcan->Init.DataSyncJumpWidth));
 322:Drivers/STM32G4xx_HAL_Driver/Src/stm32g4xx_hal_fdcan.c ****     assert_param(IS_FDCAN_DATA_TSEG1(hfdcan->Init.DataTimeSeg1));
 323:Drivers/STM32G4xx_HAL_Driver/Src/stm32g4xx_hal_fdcan.c ****     assert_param(IS_FDCAN_DATA_TSEG2(hfdcan->Init.DataTimeSeg2));
 324:Drivers/STM32G4xx_HAL_Driver/Src/stm32g4xx_hal_fdcan.c ****   }
 325:Drivers/STM32G4xx_HAL_Driver/Src/stm32g4xx_hal_fdcan.c ****   assert_param(IS_FDCAN_MAX_VALUE(hfdcan->Init.StdFiltersNbr, SRAMCAN_FLS_NBR));
 326:Drivers/STM32G4xx_HAL_Driver/Src/stm32g4xx_hal_fdcan.c ****   assert_param(IS_FDCAN_MAX_VALUE(hfdcan->Init.ExtFiltersNbr, SRAMCAN_FLE_NBR));
 327:Drivers/STM32G4xx_HAL_Driver/Src/stm32g4xx_hal_fdcan.c ****   assert_param(IS_FDCAN_TX_FIFO_QUEUE_MODE(hfdcan->Init.TxFifoQueueMode));
 328:Drivers/STM32G4xx_HAL_Driver/Src/stm32g4xx_hal_fdcan.c **** 
 329:Drivers/STM32G4xx_HAL_Driver/Src/stm32g4xx_hal_fdcan.c **** #if USE_HAL_FDCAN_REGISTER_CALLBACKS == 1
 330:Drivers/STM32G4xx_HAL_Driver/Src/stm32g4xx_hal_fdcan.c ****   if (hfdcan->State == HAL_FDCAN_STATE_RESET)
 331:Drivers/STM32G4xx_HAL_Driver/Src/stm32g4xx_hal_fdcan.c ****   {
 332:Drivers/STM32G4xx_HAL_Driver/Src/stm32g4xx_hal_fdcan.c ****     /* Allocate lock resource and initialize it */
 333:Drivers/STM32G4xx_HAL_Driver/Src/stm32g4xx_hal_fdcan.c ****     hfdcan->Lock = HAL_UNLOCKED;
 334:Drivers/STM32G4xx_HAL_Driver/Src/stm32g4xx_hal_fdcan.c **** 
 335:Drivers/STM32G4xx_HAL_Driver/Src/stm32g4xx_hal_fdcan.c ****     /* Reset callbacks to legacy functions */
 336:Drivers/STM32G4xx_HAL_Driver/Src/stm32g4xx_hal_fdcan.c ****     hfdcan->TxEventFifoCallback         = HAL_FDCAN_TxEventFifoCallback;         /* TxEventFifoCall
 337:Drivers/STM32G4xx_HAL_Driver/Src/stm32g4xx_hal_fdcan.c ****     hfdcan->RxFifo0Callback             = HAL_FDCAN_RxFifo0Callback;             /* RxFifo0Callback
 338:Drivers/STM32G4xx_HAL_Driver/Src/stm32g4xx_hal_fdcan.c ****     hfdcan->RxFifo1Callback             = HAL_FDCAN_RxFifo1Callback;             /* RxFifo1Callback
 339:Drivers/STM32G4xx_HAL_Driver/Src/stm32g4xx_hal_fdcan.c ****     hfdcan->TxFifoEmptyCallback         = HAL_FDCAN_TxFifoEmptyCallback;         /* TxFifoEmptyCall
 340:Drivers/STM32G4xx_HAL_Driver/Src/stm32g4xx_hal_fdcan.c ****     hfdcan->TxBufferCompleteCallback    = HAL_FDCAN_TxBufferCompleteCallback;    /* TxBufferComplet
ARM GAS  C:\Users\AURORA~1\AppData\Local\Temp\ccEbooPs.s 			page 8


 341:Drivers/STM32G4xx_HAL_Driver/Src/stm32g4xx_hal_fdcan.c ****     hfdcan->TxBufferAbortCallback       = HAL_FDCAN_TxBufferAbortCallback;       /* TxBufferAbortCa
 342:Drivers/STM32G4xx_HAL_Driver/Src/stm32g4xx_hal_fdcan.c ****     hfdcan->HighPriorityMessageCallback = HAL_FDCAN_HighPriorityMessageCallback; /* HighPriorityMes
 343:Drivers/STM32G4xx_HAL_Driver/Src/stm32g4xx_hal_fdcan.c ****     hfdcan->TimestampWraparoundCallback = HAL_FDCAN_TimestampWraparoundCallback; /* TimestampWrapar
 344:Drivers/STM32G4xx_HAL_Driver/Src/stm32g4xx_hal_fdcan.c ****     hfdcan->TimeoutOccurredCallback     = HAL_FDCAN_TimeoutOccurredCallback;     /* TimeoutOccurred
 345:Drivers/STM32G4xx_HAL_Driver/Src/stm32g4xx_hal_fdcan.c ****     hfdcan->ErrorCallback               = HAL_FDCAN_ErrorCallback;               /* ErrorCallback  
 346:Drivers/STM32G4xx_HAL_Driver/Src/stm32g4xx_hal_fdcan.c ****     hfdcan->ErrorStatusCallback         = HAL_FDCAN_ErrorStatusCallback;         /* ErrorStatusCall
 347:Drivers/STM32G4xx_HAL_Driver/Src/stm32g4xx_hal_fdcan.c **** 
 348:Drivers/STM32G4xx_HAL_Driver/Src/stm32g4xx_hal_fdcan.c ****     if (hfdcan->MspInitCallback == NULL)
 349:Drivers/STM32G4xx_HAL_Driver/Src/stm32g4xx_hal_fdcan.c ****     {
 350:Drivers/STM32G4xx_HAL_Driver/Src/stm32g4xx_hal_fdcan.c ****       hfdcan->MspInitCallback = HAL_FDCAN_MspInit;  /* Legacy weak MspInit */
 351:Drivers/STM32G4xx_HAL_Driver/Src/stm32g4xx_hal_fdcan.c ****     }
 352:Drivers/STM32G4xx_HAL_Driver/Src/stm32g4xx_hal_fdcan.c **** 
 353:Drivers/STM32G4xx_HAL_Driver/Src/stm32g4xx_hal_fdcan.c ****     /* Init the low level hardware: CLOCK, NVIC */
 354:Drivers/STM32G4xx_HAL_Driver/Src/stm32g4xx_hal_fdcan.c ****     hfdcan->MspInitCallback(hfdcan);
 355:Drivers/STM32G4xx_HAL_Driver/Src/stm32g4xx_hal_fdcan.c ****   }
 356:Drivers/STM32G4xx_HAL_Driver/Src/stm32g4xx_hal_fdcan.c **** #else
 357:Drivers/STM32G4xx_HAL_Driver/Src/stm32g4xx_hal_fdcan.c ****   if (hfdcan->State == HAL_FDCAN_STATE_RESET)
  60              		.loc 1 357 13
  61 0012 7B68     		ldr	r3, [r7, #4]
  62 0014 93F85C30 		ldrb	r3, [r3, #92]
  63 0018 DBB2     		uxtb	r3, r3
  64              		.loc 1 357 6
  65 001a 002B     		cmp	r3, #0
  66 001c 06D1     		bne	.L4
 358:Drivers/STM32G4xx_HAL_Driver/Src/stm32g4xx_hal_fdcan.c ****   {
 359:Drivers/STM32G4xx_HAL_Driver/Src/stm32g4xx_hal_fdcan.c ****     /* Allocate lock resource and initialize it */
 360:Drivers/STM32G4xx_HAL_Driver/Src/stm32g4xx_hal_fdcan.c ****     hfdcan->Lock = HAL_UNLOCKED;
  67              		.loc 1 360 18
  68 001e 7B68     		ldr	r3, [r7, #4]
  69 0020 0022     		movs	r2, #0
  70 0022 83F85D20 		strb	r2, [r3, #93]
 361:Drivers/STM32G4xx_HAL_Driver/Src/stm32g4xx_hal_fdcan.c **** 
 362:Drivers/STM32G4xx_HAL_Driver/Src/stm32g4xx_hal_fdcan.c ****     /* Init the low level hardware: CLOCK, NVIC */
 363:Drivers/STM32G4xx_HAL_Driver/Src/stm32g4xx_hal_fdcan.c ****     HAL_FDCAN_MspInit(hfdcan);
  71              		.loc 1 363 5
  72 0026 7868     		ldr	r0, [r7, #4]
  73 0028 FFF7FEFF 		bl	HAL_FDCAN_MspInit
  74              	.L4:
 364:Drivers/STM32G4xx_HAL_Driver/Src/stm32g4xx_hal_fdcan.c ****   }
 365:Drivers/STM32G4xx_HAL_Driver/Src/stm32g4xx_hal_fdcan.c **** #endif /* USE_HAL_FDCAN_REGISTER_CALLBACKS */
 366:Drivers/STM32G4xx_HAL_Driver/Src/stm32g4xx_hal_fdcan.c **** 
 367:Drivers/STM32G4xx_HAL_Driver/Src/stm32g4xx_hal_fdcan.c ****   /* Exit from Sleep mode */
 368:Drivers/STM32G4xx_HAL_Driver/Src/stm32g4xx_hal_fdcan.c ****   CLEAR_BIT(hfdcan->Instance->CCCR, FDCAN_CCCR_CSR);
  75              		.loc 1 368 3
  76 002c 7B68     		ldr	r3, [r7, #4]
  77 002e 1B68     		ldr	r3, [r3]
  78 0030 9A69     		ldr	r2, [r3, #24]
  79 0032 7B68     		ldr	r3, [r7, #4]
  80 0034 1B68     		ldr	r3, [r3]
  81 0036 22F01002 		bic	r2, r2, #16
  82 003a 9A61     		str	r2, [r3, #24]
 369:Drivers/STM32G4xx_HAL_Driver/Src/stm32g4xx_hal_fdcan.c **** 
 370:Drivers/STM32G4xx_HAL_Driver/Src/stm32g4xx_hal_fdcan.c ****   /* Get tick */
 371:Drivers/STM32G4xx_HAL_Driver/Src/stm32g4xx_hal_fdcan.c ****   tickstart = HAL_GetTick();
  83              		.loc 1 371 15
  84 003c FFF7FEFF 		bl	HAL_GetTick
  85 0040 F860     		str	r0, [r7, #12]
ARM GAS  C:\Users\AURORA~1\AppData\Local\Temp\ccEbooPs.s 			page 9


 372:Drivers/STM32G4xx_HAL_Driver/Src/stm32g4xx_hal_fdcan.c **** 
 373:Drivers/STM32G4xx_HAL_Driver/Src/stm32g4xx_hal_fdcan.c ****   /* Check Sleep mode acknowledge */
 374:Drivers/STM32G4xx_HAL_Driver/Src/stm32g4xx_hal_fdcan.c ****   while ((hfdcan->Instance->CCCR & FDCAN_CCCR_CSA) == FDCAN_CCCR_CSA)
  86              		.loc 1 374 9
  87 0042 12E0     		b	.L5
  88              	.L6:
 375:Drivers/STM32G4xx_HAL_Driver/Src/stm32g4xx_hal_fdcan.c ****   {
 376:Drivers/STM32G4xx_HAL_Driver/Src/stm32g4xx_hal_fdcan.c ****     if ((HAL_GetTick() - tickstart) > FDCAN_TIMEOUT_VALUE)
  89              		.loc 1 376 10
  90 0044 FFF7FEFF 		bl	HAL_GetTick
  91 0048 0246     		mov	r2, r0
  92              		.loc 1 376 24 discriminator 1
  93 004a FB68     		ldr	r3, [r7, #12]
  94 004c D31A     		subs	r3, r2, r3
  95              		.loc 1 376 8 discriminator 1
  96 004e 0A2B     		cmp	r3, #10
  97 0050 0BD9     		bls	.L5
 377:Drivers/STM32G4xx_HAL_Driver/Src/stm32g4xx_hal_fdcan.c ****     {
 378:Drivers/STM32G4xx_HAL_Driver/Src/stm32g4xx_hal_fdcan.c ****       /* Update error code */
 379:Drivers/STM32G4xx_HAL_Driver/Src/stm32g4xx_hal_fdcan.c ****       hfdcan->ErrorCode |= HAL_FDCAN_ERROR_TIMEOUT;
  98              		.loc 1 379 13
  99 0052 7B68     		ldr	r3, [r7, #4]
 100 0054 1B6E     		ldr	r3, [r3, #96]
 101              		.loc 1 379 25
 102 0056 43F00102 		orr	r2, r3, #1
 103 005a 7B68     		ldr	r3, [r7, #4]
 104 005c 1A66     		str	r2, [r3, #96]
 380:Drivers/STM32G4xx_HAL_Driver/Src/stm32g4xx_hal_fdcan.c **** 
 381:Drivers/STM32G4xx_HAL_Driver/Src/stm32g4xx_hal_fdcan.c ****       /* Change FDCAN state */
 382:Drivers/STM32G4xx_HAL_Driver/Src/stm32g4xx_hal_fdcan.c ****       hfdcan->State = HAL_FDCAN_STATE_ERROR;
 105              		.loc 1 382 21
 106 005e 7B68     		ldr	r3, [r7, #4]
 107 0060 0322     		movs	r2, #3
 108 0062 83F85C20 		strb	r2, [r3, #92]
 383:Drivers/STM32G4xx_HAL_Driver/Src/stm32g4xx_hal_fdcan.c **** 
 384:Drivers/STM32G4xx_HAL_Driver/Src/stm32g4xx_hal_fdcan.c ****       return HAL_ERROR;
 109              		.loc 1 384 14
 110 0066 0123     		movs	r3, #1
 111 0068 1BE1     		b	.L3
 112              	.L5:
 374:Drivers/STM32G4xx_HAL_Driver/Src/stm32g4xx_hal_fdcan.c ****   {
 113              		.loc 1 374 17
 114 006a 7B68     		ldr	r3, [r7, #4]
 115 006c 1B68     		ldr	r3, [r3]
 374:Drivers/STM32G4xx_HAL_Driver/Src/stm32g4xx_hal_fdcan.c ****   {
 116              		.loc 1 374 27
 117 006e 9B69     		ldr	r3, [r3, #24]
 374:Drivers/STM32G4xx_HAL_Driver/Src/stm32g4xx_hal_fdcan.c ****   {
 118              		.loc 1 374 34
 119 0070 03F00803 		and	r3, r3, #8
 374:Drivers/STM32G4xx_HAL_Driver/Src/stm32g4xx_hal_fdcan.c ****   {
 120              		.loc 1 374 52
 121 0074 082B     		cmp	r3, #8
 122 0076 E5D0     		beq	.L6
 385:Drivers/STM32G4xx_HAL_Driver/Src/stm32g4xx_hal_fdcan.c ****     }
 386:Drivers/STM32G4xx_HAL_Driver/Src/stm32g4xx_hal_fdcan.c ****   }
 387:Drivers/STM32G4xx_HAL_Driver/Src/stm32g4xx_hal_fdcan.c **** 
ARM GAS  C:\Users\AURORA~1\AppData\Local\Temp\ccEbooPs.s 			page 10


 388:Drivers/STM32G4xx_HAL_Driver/Src/stm32g4xx_hal_fdcan.c ****   /* Request initialisation */
 389:Drivers/STM32G4xx_HAL_Driver/Src/stm32g4xx_hal_fdcan.c ****   SET_BIT(hfdcan->Instance->CCCR, FDCAN_CCCR_INIT);
 123              		.loc 1 389 3
 124 0078 7B68     		ldr	r3, [r7, #4]
 125 007a 1B68     		ldr	r3, [r3]
 126 007c 9A69     		ldr	r2, [r3, #24]
 127 007e 7B68     		ldr	r3, [r7, #4]
 128 0080 1B68     		ldr	r3, [r3]
 129 0082 42F00102 		orr	r2, r2, #1
 130 0086 9A61     		str	r2, [r3, #24]
 390:Drivers/STM32G4xx_HAL_Driver/Src/stm32g4xx_hal_fdcan.c **** 
 391:Drivers/STM32G4xx_HAL_Driver/Src/stm32g4xx_hal_fdcan.c ****   /* Get tick */
 392:Drivers/STM32G4xx_HAL_Driver/Src/stm32g4xx_hal_fdcan.c ****   tickstart = HAL_GetTick();
 131              		.loc 1 392 15
 132 0088 FFF7FEFF 		bl	HAL_GetTick
 133 008c F860     		str	r0, [r7, #12]
 393:Drivers/STM32G4xx_HAL_Driver/Src/stm32g4xx_hal_fdcan.c **** 
 394:Drivers/STM32G4xx_HAL_Driver/Src/stm32g4xx_hal_fdcan.c ****   /* Wait until the INIT bit into CCCR register is set */
 395:Drivers/STM32G4xx_HAL_Driver/Src/stm32g4xx_hal_fdcan.c ****   while ((hfdcan->Instance->CCCR & FDCAN_CCCR_INIT) == 0U)
 134              		.loc 1 395 9
 135 008e 12E0     		b	.L7
 136              	.L8:
 396:Drivers/STM32G4xx_HAL_Driver/Src/stm32g4xx_hal_fdcan.c ****   {
 397:Drivers/STM32G4xx_HAL_Driver/Src/stm32g4xx_hal_fdcan.c ****     /* Check for the Timeout */
 398:Drivers/STM32G4xx_HAL_Driver/Src/stm32g4xx_hal_fdcan.c ****     if ((HAL_GetTick() - tickstart) > FDCAN_TIMEOUT_VALUE)
 137              		.loc 1 398 10
 138 0090 FFF7FEFF 		bl	HAL_GetTick
 139 0094 0246     		mov	r2, r0
 140              		.loc 1 398 24 discriminator 1
 141 0096 FB68     		ldr	r3, [r7, #12]
 142 0098 D31A     		subs	r3, r2, r3
 143              		.loc 1 398 8 discriminator 1
 144 009a 0A2B     		cmp	r3, #10
 145 009c 0BD9     		bls	.L7
 399:Drivers/STM32G4xx_HAL_Driver/Src/stm32g4xx_hal_fdcan.c ****     {
 400:Drivers/STM32G4xx_HAL_Driver/Src/stm32g4xx_hal_fdcan.c ****       /* Update error code */
 401:Drivers/STM32G4xx_HAL_Driver/Src/stm32g4xx_hal_fdcan.c ****       hfdcan->ErrorCode |= HAL_FDCAN_ERROR_TIMEOUT;
 146              		.loc 1 401 13
 147 009e 7B68     		ldr	r3, [r7, #4]
 148 00a0 1B6E     		ldr	r3, [r3, #96]
 149              		.loc 1 401 25
 150 00a2 43F00102 		orr	r2, r3, #1
 151 00a6 7B68     		ldr	r3, [r7, #4]
 152 00a8 1A66     		str	r2, [r3, #96]
 402:Drivers/STM32G4xx_HAL_Driver/Src/stm32g4xx_hal_fdcan.c **** 
 403:Drivers/STM32G4xx_HAL_Driver/Src/stm32g4xx_hal_fdcan.c ****       /* Change FDCAN state */
 404:Drivers/STM32G4xx_HAL_Driver/Src/stm32g4xx_hal_fdcan.c ****       hfdcan->State = HAL_FDCAN_STATE_ERROR;
 153              		.loc 1 404 21
 154 00aa 7B68     		ldr	r3, [r7, #4]
 155 00ac 0322     		movs	r2, #3
 156 00ae 83F85C20 		strb	r2, [r3, #92]
 405:Drivers/STM32G4xx_HAL_Driver/Src/stm32g4xx_hal_fdcan.c **** 
 406:Drivers/STM32G4xx_HAL_Driver/Src/stm32g4xx_hal_fdcan.c ****       return HAL_ERROR;
 157              		.loc 1 406 14
 158 00b2 0123     		movs	r3, #1
 159 00b4 F5E0     		b	.L3
 160              	.L7:
ARM GAS  C:\Users\AURORA~1\AppData\Local\Temp\ccEbooPs.s 			page 11


 395:Drivers/STM32G4xx_HAL_Driver/Src/stm32g4xx_hal_fdcan.c ****   {
 161              		.loc 1 395 17
 162 00b6 7B68     		ldr	r3, [r7, #4]
 163 00b8 1B68     		ldr	r3, [r3]
 395:Drivers/STM32G4xx_HAL_Driver/Src/stm32g4xx_hal_fdcan.c ****   {
 164              		.loc 1 395 27
 165 00ba 9B69     		ldr	r3, [r3, #24]
 395:Drivers/STM32G4xx_HAL_Driver/Src/stm32g4xx_hal_fdcan.c ****   {
 166              		.loc 1 395 34
 167 00bc 03F00103 		and	r3, r3, #1
 395:Drivers/STM32G4xx_HAL_Driver/Src/stm32g4xx_hal_fdcan.c ****   {
 168              		.loc 1 395 53
 169 00c0 002B     		cmp	r3, #0
 170 00c2 E5D0     		beq	.L8
 407:Drivers/STM32G4xx_HAL_Driver/Src/stm32g4xx_hal_fdcan.c ****     }
 408:Drivers/STM32G4xx_HAL_Driver/Src/stm32g4xx_hal_fdcan.c ****   }
 409:Drivers/STM32G4xx_HAL_Driver/Src/stm32g4xx_hal_fdcan.c **** 
 410:Drivers/STM32G4xx_HAL_Driver/Src/stm32g4xx_hal_fdcan.c ****   /* Enable configuration change */
 411:Drivers/STM32G4xx_HAL_Driver/Src/stm32g4xx_hal_fdcan.c ****   SET_BIT(hfdcan->Instance->CCCR, FDCAN_CCCR_CCE);
 171              		.loc 1 411 3
 172 00c4 7B68     		ldr	r3, [r7, #4]
 173 00c6 1B68     		ldr	r3, [r3]
 174 00c8 9A69     		ldr	r2, [r3, #24]
 175 00ca 7B68     		ldr	r3, [r7, #4]
 176 00cc 1B68     		ldr	r3, [r3]
 177 00ce 42F00202 		orr	r2, r2, #2
 178 00d2 9A61     		str	r2, [r3, #24]
 412:Drivers/STM32G4xx_HAL_Driver/Src/stm32g4xx_hal_fdcan.c **** 
 413:Drivers/STM32G4xx_HAL_Driver/Src/stm32g4xx_hal_fdcan.c ****   /* Check FDCAN instance */
 414:Drivers/STM32G4xx_HAL_Driver/Src/stm32g4xx_hal_fdcan.c ****   if (hfdcan->Instance == FDCAN1)
 179              		.loc 1 414 13
 180 00d4 7B68     		ldr	r3, [r7, #4]
 181 00d6 1B68     		ldr	r3, [r3]
 182              		.loc 1 414 6
 183 00d8 744A     		ldr	r2, .L20
 184 00da 9342     		cmp	r3, r2
 185 00dc 03D1     		bne	.L9
 415:Drivers/STM32G4xx_HAL_Driver/Src/stm32g4xx_hal_fdcan.c ****   {
 416:Drivers/STM32G4xx_HAL_Driver/Src/stm32g4xx_hal_fdcan.c ****     /* Configure Clock divider */
 417:Drivers/STM32G4xx_HAL_Driver/Src/stm32g4xx_hal_fdcan.c ****     FDCAN_CONFIG->CKDIV = hfdcan->Init.ClockDivider;
 186              		.loc 1 417 17
 187 00de 744A     		ldr	r2, .L20+4
 188              		.loc 1 417 39
 189 00e0 7B68     		ldr	r3, [r7, #4]
 190 00e2 5B68     		ldr	r3, [r3, #4]
 191              		.loc 1 417 25
 192 00e4 1360     		str	r3, [r2]
 193              	.L9:
 418:Drivers/STM32G4xx_HAL_Driver/Src/stm32g4xx_hal_fdcan.c ****   }
 419:Drivers/STM32G4xx_HAL_Driver/Src/stm32g4xx_hal_fdcan.c **** 
 420:Drivers/STM32G4xx_HAL_Driver/Src/stm32g4xx_hal_fdcan.c ****   /* Set the no automatic retransmission */
 421:Drivers/STM32G4xx_HAL_Driver/Src/stm32g4xx_hal_fdcan.c ****   if (hfdcan->Init.AutoRetransmission == ENABLE)
 194              		.loc 1 421 19
 195 00e6 7B68     		ldr	r3, [r7, #4]
 196 00e8 1B7C     		ldrb	r3, [r3, #16]	@ zero_extendqisi2
 197              		.loc 1 421 6
 198 00ea 012B     		cmp	r3, #1
ARM GAS  C:\Users\AURORA~1\AppData\Local\Temp\ccEbooPs.s 			page 12


 199 00ec 08D1     		bne	.L10
 422:Drivers/STM32G4xx_HAL_Driver/Src/stm32g4xx_hal_fdcan.c ****   {
 423:Drivers/STM32G4xx_HAL_Driver/Src/stm32g4xx_hal_fdcan.c ****     CLEAR_BIT(hfdcan->Instance->CCCR, FDCAN_CCCR_DAR);
 200              		.loc 1 423 5
 201 00ee 7B68     		ldr	r3, [r7, #4]
 202 00f0 1B68     		ldr	r3, [r3]
 203 00f2 9A69     		ldr	r2, [r3, #24]
 204 00f4 7B68     		ldr	r3, [r7, #4]
 205 00f6 1B68     		ldr	r3, [r3]
 206 00f8 22F04002 		bic	r2, r2, #64
 207 00fc 9A61     		str	r2, [r3, #24]
 208 00fe 07E0     		b	.L11
 209              	.L10:
 424:Drivers/STM32G4xx_HAL_Driver/Src/stm32g4xx_hal_fdcan.c ****   }
 425:Drivers/STM32G4xx_HAL_Driver/Src/stm32g4xx_hal_fdcan.c ****   else
 426:Drivers/STM32G4xx_HAL_Driver/Src/stm32g4xx_hal_fdcan.c ****   {
 427:Drivers/STM32G4xx_HAL_Driver/Src/stm32g4xx_hal_fdcan.c ****     SET_BIT(hfdcan->Instance->CCCR, FDCAN_CCCR_DAR);
 210              		.loc 1 427 5
 211 0100 7B68     		ldr	r3, [r7, #4]
 212 0102 1B68     		ldr	r3, [r3]
 213 0104 9A69     		ldr	r2, [r3, #24]
 214 0106 7B68     		ldr	r3, [r7, #4]
 215 0108 1B68     		ldr	r3, [r3]
 216 010a 42F04002 		orr	r2, r2, #64
 217 010e 9A61     		str	r2, [r3, #24]
 218              	.L11:
 428:Drivers/STM32G4xx_HAL_Driver/Src/stm32g4xx_hal_fdcan.c ****   }
 429:Drivers/STM32G4xx_HAL_Driver/Src/stm32g4xx_hal_fdcan.c **** 
 430:Drivers/STM32G4xx_HAL_Driver/Src/stm32g4xx_hal_fdcan.c ****   /* Set the transmit pause feature */
 431:Drivers/STM32G4xx_HAL_Driver/Src/stm32g4xx_hal_fdcan.c ****   if (hfdcan->Init.TransmitPause == ENABLE)
 219              		.loc 1 431 19
 220 0110 7B68     		ldr	r3, [r7, #4]
 221 0112 5B7C     		ldrb	r3, [r3, #17]	@ zero_extendqisi2
 222              		.loc 1 431 6
 223 0114 012B     		cmp	r3, #1
 224 0116 08D1     		bne	.L12
 432:Drivers/STM32G4xx_HAL_Driver/Src/stm32g4xx_hal_fdcan.c ****   {
 433:Drivers/STM32G4xx_HAL_Driver/Src/stm32g4xx_hal_fdcan.c ****     SET_BIT(hfdcan->Instance->CCCR, FDCAN_CCCR_TXP);
 225              		.loc 1 433 5
 226 0118 7B68     		ldr	r3, [r7, #4]
 227 011a 1B68     		ldr	r3, [r3]
 228 011c 9A69     		ldr	r2, [r3, #24]
 229 011e 7B68     		ldr	r3, [r7, #4]
 230 0120 1B68     		ldr	r3, [r3]
 231 0122 42F48042 		orr	r2, r2, #16384
 232 0126 9A61     		str	r2, [r3, #24]
 233 0128 07E0     		b	.L13
 234              	.L12:
 434:Drivers/STM32G4xx_HAL_Driver/Src/stm32g4xx_hal_fdcan.c ****   }
 435:Drivers/STM32G4xx_HAL_Driver/Src/stm32g4xx_hal_fdcan.c ****   else
 436:Drivers/STM32G4xx_HAL_Driver/Src/stm32g4xx_hal_fdcan.c ****   {
 437:Drivers/STM32G4xx_HAL_Driver/Src/stm32g4xx_hal_fdcan.c ****     CLEAR_BIT(hfdcan->Instance->CCCR, FDCAN_CCCR_TXP);
 235              		.loc 1 437 5
 236 012a 7B68     		ldr	r3, [r7, #4]
 237 012c 1B68     		ldr	r3, [r3]
 238 012e 9A69     		ldr	r2, [r3, #24]
 239 0130 7B68     		ldr	r3, [r7, #4]
ARM GAS  C:\Users\AURORA~1\AppData\Local\Temp\ccEbooPs.s 			page 13


 240 0132 1B68     		ldr	r3, [r3]
 241 0134 22F48042 		bic	r2, r2, #16384
 242 0138 9A61     		str	r2, [r3, #24]
 243              	.L13:
 438:Drivers/STM32G4xx_HAL_Driver/Src/stm32g4xx_hal_fdcan.c ****   }
 439:Drivers/STM32G4xx_HAL_Driver/Src/stm32g4xx_hal_fdcan.c **** 
 440:Drivers/STM32G4xx_HAL_Driver/Src/stm32g4xx_hal_fdcan.c ****   /* Set the Protocol Exception Handling */
 441:Drivers/STM32G4xx_HAL_Driver/Src/stm32g4xx_hal_fdcan.c ****   if (hfdcan->Init.ProtocolException == ENABLE)
 244              		.loc 1 441 19
 245 013a 7B68     		ldr	r3, [r7, #4]
 246 013c 9B7C     		ldrb	r3, [r3, #18]	@ zero_extendqisi2
 247              		.loc 1 441 6
 248 013e 012B     		cmp	r3, #1
 249 0140 08D1     		bne	.L14
 442:Drivers/STM32G4xx_HAL_Driver/Src/stm32g4xx_hal_fdcan.c ****   {
 443:Drivers/STM32G4xx_HAL_Driver/Src/stm32g4xx_hal_fdcan.c ****     CLEAR_BIT(hfdcan->Instance->CCCR, FDCAN_CCCR_PXHD);
 250              		.loc 1 443 5
 251 0142 7B68     		ldr	r3, [r7, #4]
 252 0144 1B68     		ldr	r3, [r3]
 253 0146 9A69     		ldr	r2, [r3, #24]
 254 0148 7B68     		ldr	r3, [r7, #4]
 255 014a 1B68     		ldr	r3, [r3]
 256 014c 22F48052 		bic	r2, r2, #4096
 257 0150 9A61     		str	r2, [r3, #24]
 258 0152 07E0     		b	.L15
 259              	.L14:
 444:Drivers/STM32G4xx_HAL_Driver/Src/stm32g4xx_hal_fdcan.c ****   }
 445:Drivers/STM32G4xx_HAL_Driver/Src/stm32g4xx_hal_fdcan.c ****   else
 446:Drivers/STM32G4xx_HAL_Driver/Src/stm32g4xx_hal_fdcan.c ****   {
 447:Drivers/STM32G4xx_HAL_Driver/Src/stm32g4xx_hal_fdcan.c ****     SET_BIT(hfdcan->Instance->CCCR, FDCAN_CCCR_PXHD);
 260              		.loc 1 447 5
 261 0154 7B68     		ldr	r3, [r7, #4]
 262 0156 1B68     		ldr	r3, [r3]
 263 0158 9A69     		ldr	r2, [r3, #24]
 264 015a 7B68     		ldr	r3, [r7, #4]
 265 015c 1B68     		ldr	r3, [r3]
 266 015e 42F48052 		orr	r2, r2, #4096
 267 0162 9A61     		str	r2, [r3, #24]
 268              	.L15:
 448:Drivers/STM32G4xx_HAL_Driver/Src/stm32g4xx_hal_fdcan.c ****   }
 449:Drivers/STM32G4xx_HAL_Driver/Src/stm32g4xx_hal_fdcan.c **** 
 450:Drivers/STM32G4xx_HAL_Driver/Src/stm32g4xx_hal_fdcan.c ****   /* Set FDCAN Frame Format */
 451:Drivers/STM32G4xx_HAL_Driver/Src/stm32g4xx_hal_fdcan.c ****   MODIFY_REG(hfdcan->Instance->CCCR, FDCAN_FRAME_FD_BRS, hfdcan->Init.FrameFormat);
 269              		.loc 1 451 3
 270 0164 7B68     		ldr	r3, [r7, #4]
 271 0166 1B68     		ldr	r3, [r3]
 272 0168 9B69     		ldr	r3, [r3, #24]
 273 016a 23F44071 		bic	r1, r3, #768
 274 016e 7B68     		ldr	r3, [r7, #4]
 275 0170 9A68     		ldr	r2, [r3, #8]
 276 0172 7B68     		ldr	r3, [r7, #4]
 277 0174 1B68     		ldr	r3, [r3]
 278 0176 0A43     		orrs	r2, r2, r1
 279 0178 9A61     		str	r2, [r3, #24]
 452:Drivers/STM32G4xx_HAL_Driver/Src/stm32g4xx_hal_fdcan.c **** 
 453:Drivers/STM32G4xx_HAL_Driver/Src/stm32g4xx_hal_fdcan.c ****   /* Reset FDCAN Operation Mode */
 454:Drivers/STM32G4xx_HAL_Driver/Src/stm32g4xx_hal_fdcan.c ****   CLEAR_BIT(hfdcan->Instance->CCCR, (FDCAN_CCCR_TEST | FDCAN_CCCR_MON | FDCAN_CCCR_ASM));
ARM GAS  C:\Users\AURORA~1\AppData\Local\Temp\ccEbooPs.s 			page 14


 280              		.loc 1 454 3
 281 017a 7B68     		ldr	r3, [r7, #4]
 282 017c 1B68     		ldr	r3, [r3]
 283 017e 9A69     		ldr	r2, [r3, #24]
 284 0180 7B68     		ldr	r3, [r7, #4]
 285 0182 1B68     		ldr	r3, [r3]
 286 0184 22F0A402 		bic	r2, r2, #164
 287 0188 9A61     		str	r2, [r3, #24]
 455:Drivers/STM32G4xx_HAL_Driver/Src/stm32g4xx_hal_fdcan.c ****   CLEAR_BIT(hfdcan->Instance->TEST, FDCAN_TEST_LBCK);
 288              		.loc 1 455 3
 289 018a 7B68     		ldr	r3, [r7, #4]
 290 018c 1B68     		ldr	r3, [r3]
 291 018e 1A69     		ldr	r2, [r3, #16]
 292 0190 7B68     		ldr	r3, [r7, #4]
 293 0192 1B68     		ldr	r3, [r3]
 294 0194 22F01002 		bic	r2, r2, #16
 295 0198 1A61     		str	r2, [r3, #16]
 456:Drivers/STM32G4xx_HAL_Driver/Src/stm32g4xx_hal_fdcan.c **** 
 457:Drivers/STM32G4xx_HAL_Driver/Src/stm32g4xx_hal_fdcan.c ****   /* Set FDCAN Operating Mode:
 458:Drivers/STM32G4xx_HAL_Driver/Src/stm32g4xx_hal_fdcan.c ****                | Normal | Restricted |    Bus     | Internal | External
 459:Drivers/STM32G4xx_HAL_Driver/Src/stm32g4xx_hal_fdcan.c ****                |        | Operation  | Monitoring | LoopBack | LoopBack
 460:Drivers/STM32G4xx_HAL_Driver/Src/stm32g4xx_hal_fdcan.c ****      CCCR.TEST |   0    |     0      |     0      |    1     |    1
 461:Drivers/STM32G4xx_HAL_Driver/Src/stm32g4xx_hal_fdcan.c ****      CCCR.MON  |   0    |     0      |     1      |    1     |    0
 462:Drivers/STM32G4xx_HAL_Driver/Src/stm32g4xx_hal_fdcan.c ****      TEST.LBCK |   0    |     0      |     0      |    1     |    1
 463:Drivers/STM32G4xx_HAL_Driver/Src/stm32g4xx_hal_fdcan.c ****      CCCR.ASM  |   0    |     1      |     0      |    0     |    0
 464:Drivers/STM32G4xx_HAL_Driver/Src/stm32g4xx_hal_fdcan.c ****   */
 465:Drivers/STM32G4xx_HAL_Driver/Src/stm32g4xx_hal_fdcan.c ****   if (hfdcan->Init.Mode == FDCAN_MODE_RESTRICTED_OPERATION)
 296              		.loc 1 465 19
 297 019a 7B68     		ldr	r3, [r7, #4]
 298 019c DB68     		ldr	r3, [r3, #12]
 299              		.loc 1 465 6
 300 019e 012B     		cmp	r3, #1
 301 01a0 08D1     		bne	.L16
 466:Drivers/STM32G4xx_HAL_Driver/Src/stm32g4xx_hal_fdcan.c ****   {
 467:Drivers/STM32G4xx_HAL_Driver/Src/stm32g4xx_hal_fdcan.c ****     /* Enable Restricted Operation mode */
 468:Drivers/STM32G4xx_HAL_Driver/Src/stm32g4xx_hal_fdcan.c ****     SET_BIT(hfdcan->Instance->CCCR, FDCAN_CCCR_ASM);
 302              		.loc 1 468 5
 303 01a2 7B68     		ldr	r3, [r7, #4]
 304 01a4 1B68     		ldr	r3, [r3]
 305 01a6 9A69     		ldr	r2, [r3, #24]
 306 01a8 7B68     		ldr	r3, [r7, #4]
 307 01aa 1B68     		ldr	r3, [r3]
 308 01ac 42F00402 		orr	r2, r2, #4
 309 01b0 9A61     		str	r2, [r3, #24]
 310 01b2 2CE0     		b	.L17
 311              	.L16:
 469:Drivers/STM32G4xx_HAL_Driver/Src/stm32g4xx_hal_fdcan.c ****   }
 470:Drivers/STM32G4xx_HAL_Driver/Src/stm32g4xx_hal_fdcan.c ****   else if (hfdcan->Init.Mode != FDCAN_MODE_NORMAL)
 312              		.loc 1 470 24
 313 01b4 7B68     		ldr	r3, [r7, #4]
 314 01b6 DB68     		ldr	r3, [r3, #12]
 315              		.loc 1 470 11
 316 01b8 002B     		cmp	r3, #0
 317 01ba 28D0     		beq	.L17
 471:Drivers/STM32G4xx_HAL_Driver/Src/stm32g4xx_hal_fdcan.c ****   {
 472:Drivers/STM32G4xx_HAL_Driver/Src/stm32g4xx_hal_fdcan.c ****     if (hfdcan->Init.Mode != FDCAN_MODE_BUS_MONITORING)
 318              		.loc 1 472 21
ARM GAS  C:\Users\AURORA~1\AppData\Local\Temp\ccEbooPs.s 			page 15


 319 01bc 7B68     		ldr	r3, [r7, #4]
 320 01be DB68     		ldr	r3, [r3, #12]
 321              		.loc 1 472 8
 322 01c0 022B     		cmp	r3, #2
 323 01c2 1CD0     		beq	.L18
 473:Drivers/STM32G4xx_HAL_Driver/Src/stm32g4xx_hal_fdcan.c ****     {
 474:Drivers/STM32G4xx_HAL_Driver/Src/stm32g4xx_hal_fdcan.c ****       /* Enable write access to TEST register */
 475:Drivers/STM32G4xx_HAL_Driver/Src/stm32g4xx_hal_fdcan.c ****       SET_BIT(hfdcan->Instance->CCCR, FDCAN_CCCR_TEST);
 324              		.loc 1 475 7
 325 01c4 7B68     		ldr	r3, [r7, #4]
 326 01c6 1B68     		ldr	r3, [r3]
 327 01c8 9A69     		ldr	r2, [r3, #24]
 328 01ca 7B68     		ldr	r3, [r7, #4]
 329 01cc 1B68     		ldr	r3, [r3]
 330 01ce 42F08002 		orr	r2, r2, #128
 331 01d2 9A61     		str	r2, [r3, #24]
 476:Drivers/STM32G4xx_HAL_Driver/Src/stm32g4xx_hal_fdcan.c **** 
 477:Drivers/STM32G4xx_HAL_Driver/Src/stm32g4xx_hal_fdcan.c ****       /* Enable LoopBack mode */
 478:Drivers/STM32G4xx_HAL_Driver/Src/stm32g4xx_hal_fdcan.c ****       SET_BIT(hfdcan->Instance->TEST, FDCAN_TEST_LBCK);
 332              		.loc 1 478 7
 333 01d4 7B68     		ldr	r3, [r7, #4]
 334 01d6 1B68     		ldr	r3, [r3]
 335 01d8 1A69     		ldr	r2, [r3, #16]
 336 01da 7B68     		ldr	r3, [r7, #4]
 337 01dc 1B68     		ldr	r3, [r3]
 338 01de 42F01002 		orr	r2, r2, #16
 339 01e2 1A61     		str	r2, [r3, #16]
 479:Drivers/STM32G4xx_HAL_Driver/Src/stm32g4xx_hal_fdcan.c **** 
 480:Drivers/STM32G4xx_HAL_Driver/Src/stm32g4xx_hal_fdcan.c ****       if (hfdcan->Init.Mode == FDCAN_MODE_INTERNAL_LOOPBACK)
 340              		.loc 1 480 23
 341 01e4 7B68     		ldr	r3, [r7, #4]
 342 01e6 DB68     		ldr	r3, [r3, #12]
 343              		.loc 1 480 10
 344 01e8 032B     		cmp	r3, #3
 345 01ea 10D1     		bne	.L17
 481:Drivers/STM32G4xx_HAL_Driver/Src/stm32g4xx_hal_fdcan.c ****       {
 482:Drivers/STM32G4xx_HAL_Driver/Src/stm32g4xx_hal_fdcan.c ****         SET_BIT(hfdcan->Instance->CCCR, FDCAN_CCCR_MON);
 346              		.loc 1 482 9
 347 01ec 7B68     		ldr	r3, [r7, #4]
 348 01ee 1B68     		ldr	r3, [r3]
 349 01f0 9A69     		ldr	r2, [r3, #24]
 350 01f2 7B68     		ldr	r3, [r7, #4]
 351 01f4 1B68     		ldr	r3, [r3]
 352 01f6 42F02002 		orr	r2, r2, #32
 353 01fa 9A61     		str	r2, [r3, #24]
 354 01fc 07E0     		b	.L17
 355              	.L18:
 483:Drivers/STM32G4xx_HAL_Driver/Src/stm32g4xx_hal_fdcan.c ****       }
 484:Drivers/STM32G4xx_HAL_Driver/Src/stm32g4xx_hal_fdcan.c ****     }
 485:Drivers/STM32G4xx_HAL_Driver/Src/stm32g4xx_hal_fdcan.c ****     else
 486:Drivers/STM32G4xx_HAL_Driver/Src/stm32g4xx_hal_fdcan.c ****     {
 487:Drivers/STM32G4xx_HAL_Driver/Src/stm32g4xx_hal_fdcan.c ****       /* Enable bus monitoring mode */
 488:Drivers/STM32G4xx_HAL_Driver/Src/stm32g4xx_hal_fdcan.c ****       SET_BIT(hfdcan->Instance->CCCR, FDCAN_CCCR_MON);
 356              		.loc 1 488 7
 357 01fe 7B68     		ldr	r3, [r7, #4]
 358 0200 1B68     		ldr	r3, [r3]
 359 0202 9A69     		ldr	r2, [r3, #24]
ARM GAS  C:\Users\AURORA~1\AppData\Local\Temp\ccEbooPs.s 			page 16


 360 0204 7B68     		ldr	r3, [r7, #4]
 361 0206 1B68     		ldr	r3, [r3]
 362 0208 42F02002 		orr	r2, r2, #32
 363 020c 9A61     		str	r2, [r3, #24]
 364              	.L17:
 489:Drivers/STM32G4xx_HAL_Driver/Src/stm32g4xx_hal_fdcan.c ****     }
 490:Drivers/STM32G4xx_HAL_Driver/Src/stm32g4xx_hal_fdcan.c ****   }
 491:Drivers/STM32G4xx_HAL_Driver/Src/stm32g4xx_hal_fdcan.c ****   else
 492:Drivers/STM32G4xx_HAL_Driver/Src/stm32g4xx_hal_fdcan.c ****   {
 493:Drivers/STM32G4xx_HAL_Driver/Src/stm32g4xx_hal_fdcan.c ****     /* Nothing to do: normal mode */
 494:Drivers/STM32G4xx_HAL_Driver/Src/stm32g4xx_hal_fdcan.c ****   }
 495:Drivers/STM32G4xx_HAL_Driver/Src/stm32g4xx_hal_fdcan.c **** 
 496:Drivers/STM32G4xx_HAL_Driver/Src/stm32g4xx_hal_fdcan.c ****   /* Set the nominal bit timing register */
 497:Drivers/STM32G4xx_HAL_Driver/Src/stm32g4xx_hal_fdcan.c ****   hfdcan->Instance->NBTP = ((((uint32_t)hfdcan->Init.NominalSyncJumpWidth - 1U) << FDCAN_NBTP_NSJW_
 365              		.loc 1 497 53
 366 020e 7B68     		ldr	r3, [r7, #4]
 367 0210 9B69     		ldr	r3, [r3, #24]
 368              		.loc 1 497 75
 369 0212 013B     		subs	r3, r3, #1
 370              		.loc 1 497 81
 371 0214 5A06     		lsls	r2, r3, #25
 498:Drivers/STM32G4xx_HAL_Driver/Src/stm32g4xx_hal_fdcan.c ****                             (((uint32_t)hfdcan->Init.NominalTimeSeg1 - 1U) << FDCAN_NBTP_NTSEG1_Pos
 372              		.loc 1 498 53
 373 0216 7B68     		ldr	r3, [r7, #4]
 374 0218 DB69     		ldr	r3, [r3, #28]
 375              		.loc 1 498 70
 376 021a 013B     		subs	r3, r3, #1
 377              		.loc 1 498 76
 378 021c 1B02     		lsls	r3, r3, #8
 497:Drivers/STM32G4xx_HAL_Driver/Src/stm32g4xx_hal_fdcan.c ****                             (((uint32_t)hfdcan->Init.NominalTimeSeg1 - 1U) << FDCAN_NBTP_NTSEG1_Pos
 379              		.loc 1 497 105
 380 021e 1A43     		orrs	r2, r2, r3
 499:Drivers/STM32G4xx_HAL_Driver/Src/stm32g4xx_hal_fdcan.c ****                             (((uint32_t)hfdcan->Init.NominalTimeSeg2 - 1U) << FDCAN_NBTP_NTSEG2_Pos
 381              		.loc 1 499 53
 382 0220 7B68     		ldr	r3, [r7, #4]
 383 0222 1B6A     		ldr	r3, [r3, #32]
 384              		.loc 1 499 76
 385 0224 013B     		subs	r3, r3, #1
 498:Drivers/STM32G4xx_HAL_Driver/Src/stm32g4xx_hal_fdcan.c ****                             (((uint32_t)hfdcan->Init.NominalTimeSeg1 - 1U) << FDCAN_NBTP_NTSEG1_Pos
 386              		.loc 1 498 105
 387 0226 42EA0301 		orr	r1, r2, r3
 500:Drivers/STM32G4xx_HAL_Driver/Src/stm32g4xx_hal_fdcan.c ****                             (((uint32_t)hfdcan->Init.NominalPrescaler - 1U) << FDCAN_NBTP_NBRP_Pos)
 388              		.loc 1 500 53
 389 022a 7B68     		ldr	r3, [r7, #4]
 390 022c 5B69     		ldr	r3, [r3, #20]
 391              		.loc 1 500 71
 392 022e 013B     		subs	r3, r3, #1
 393              		.loc 1 500 77
 394 0230 1A04     		lsls	r2, r3, #16
 497:Drivers/STM32G4xx_HAL_Driver/Src/stm32g4xx_hal_fdcan.c ****                             (((uint32_t)hfdcan->Init.NominalTimeSeg1 - 1U) << FDCAN_NBTP_NTSEG1_Pos
 395              		.loc 1 497 9
 396 0232 7B68     		ldr	r3, [r7, #4]
 397 0234 1B68     		ldr	r3, [r3]
 499:Drivers/STM32G4xx_HAL_Driver/Src/stm32g4xx_hal_fdcan.c ****                             (((uint32_t)hfdcan->Init.NominalTimeSeg2 - 1U) << FDCAN_NBTP_NTSEG2_Pos
 398              		.loc 1 499 105
 399 0236 0A43     		orrs	r2, r2, r1
 497:Drivers/STM32G4xx_HAL_Driver/Src/stm32g4xx_hal_fdcan.c ****                             (((uint32_t)hfdcan->Init.NominalTimeSeg1 - 1U) << FDCAN_NBTP_NTSEG1_Pos
ARM GAS  C:\Users\AURORA~1\AppData\Local\Temp\ccEbooPs.s 			page 17


 400              		.loc 1 497 26
 401 0238 DA61     		str	r2, [r3, #28]
 501:Drivers/STM32G4xx_HAL_Driver/Src/stm32g4xx_hal_fdcan.c **** 
 502:Drivers/STM32G4xx_HAL_Driver/Src/stm32g4xx_hal_fdcan.c ****   /* If FD operation with BRS is selected, set the data bit timing register */
 503:Drivers/STM32G4xx_HAL_Driver/Src/stm32g4xx_hal_fdcan.c ****   if (hfdcan->Init.FrameFormat == FDCAN_FRAME_FD_BRS)
 402              		.loc 1 503 19
 403 023a 7B68     		ldr	r3, [r7, #4]
 404 023c 9B68     		ldr	r3, [r3, #8]
 405              		.loc 1 503 6
 406 023e B3F5407F 		cmp	r3, #768
 407 0242 15D1     		bne	.L19
 504:Drivers/STM32G4xx_HAL_Driver/Src/stm32g4xx_hal_fdcan.c ****   {
 505:Drivers/STM32G4xx_HAL_Driver/Src/stm32g4xx_hal_fdcan.c ****     hfdcan->Instance->DBTP = ((((uint32_t)hfdcan->Init.DataSyncJumpWidth - 1U) << FDCAN_DBTP_DSJW_P
 408              		.loc 1 505 55
 409 0244 7B68     		ldr	r3, [r7, #4]
 410 0246 9B6A     		ldr	r3, [r3, #40]
 411              		.loc 1 505 80
 412 0248 5A1E     		subs	r2, r3, #1
 506:Drivers/STM32G4xx_HAL_Driver/Src/stm32g4xx_hal_fdcan.c ****                               (((uint32_t)hfdcan->Init.DataTimeSeg1 - 1U) << FDCAN_DBTP_DTSEG1_Pos)
 413              		.loc 1 506 55
 414 024a 7B68     		ldr	r3, [r7, #4]
 415 024c DB6A     		ldr	r3, [r3, #44]
 416              		.loc 1 506 69
 417 024e 013B     		subs	r3, r3, #1
 418              		.loc 1 506 75
 419 0250 1B02     		lsls	r3, r3, #8
 505:Drivers/STM32G4xx_HAL_Driver/Src/stm32g4xx_hal_fdcan.c ****                               (((uint32_t)hfdcan->Init.DataTimeSeg1 - 1U) << FDCAN_DBTP_DTSEG1_Pos)
 420              		.loc 1 505 105
 421 0252 1A43     		orrs	r2, r2, r3
 507:Drivers/STM32G4xx_HAL_Driver/Src/stm32g4xx_hal_fdcan.c ****                               (((uint32_t)hfdcan->Init.DataTimeSeg2 - 1U) << FDCAN_DBTP_DTSEG2_Pos)
 422              		.loc 1 507 55
 423 0254 7B68     		ldr	r3, [r7, #4]
 424 0256 1B6B     		ldr	r3, [r3, #48]
 425              		.loc 1 507 69
 426 0258 013B     		subs	r3, r3, #1
 427              		.loc 1 507 75
 428 025a 1B01     		lsls	r3, r3, #4
 506:Drivers/STM32G4xx_HAL_Driver/Src/stm32g4xx_hal_fdcan.c ****                               (((uint32_t)hfdcan->Init.DataTimeSeg1 - 1U) << FDCAN_DBTP_DTSEG1_Pos)
 429              		.loc 1 506 105
 430 025c 42EA0301 		orr	r1, r2, r3
 508:Drivers/STM32G4xx_HAL_Driver/Src/stm32g4xx_hal_fdcan.c ****                               (((uint32_t)hfdcan->Init.DataPrescaler - 1U) << FDCAN_DBTP_DBRP_Pos))
 431              		.loc 1 508 55
 432 0260 7B68     		ldr	r3, [r7, #4]
 433 0262 5B6A     		ldr	r3, [r3, #36]
 434              		.loc 1 508 70
 435 0264 013B     		subs	r3, r3, #1
 436              		.loc 1 508 76
 437 0266 1A04     		lsls	r2, r3, #16
 505:Drivers/STM32G4xx_HAL_Driver/Src/stm32g4xx_hal_fdcan.c ****                               (((uint32_t)hfdcan->Init.DataTimeSeg1 - 1U) << FDCAN_DBTP_DTSEG1_Pos)
 438              		.loc 1 505 11
 439 0268 7B68     		ldr	r3, [r7, #4]
 440 026a 1B68     		ldr	r3, [r3]
 507:Drivers/STM32G4xx_HAL_Driver/Src/stm32g4xx_hal_fdcan.c ****                               (((uint32_t)hfdcan->Init.DataTimeSeg2 - 1U) << FDCAN_DBTP_DTSEG2_Pos)
 441              		.loc 1 507 105
 442 026c 0A43     		orrs	r2, r2, r1
 505:Drivers/STM32G4xx_HAL_Driver/Src/stm32g4xx_hal_fdcan.c ****                               (((uint32_t)hfdcan->Init.DataTimeSeg1 - 1U) << FDCAN_DBTP_DTSEG1_Pos)
 443              		.loc 1 505 28
ARM GAS  C:\Users\AURORA~1\AppData\Local\Temp\ccEbooPs.s 			page 18


 444 026e DA60     		str	r2, [r3, #12]
 445              	.L19:
 509:Drivers/STM32G4xx_HAL_Driver/Src/stm32g4xx_hal_fdcan.c ****   }
 510:Drivers/STM32G4xx_HAL_Driver/Src/stm32g4xx_hal_fdcan.c **** 
 511:Drivers/STM32G4xx_HAL_Driver/Src/stm32g4xx_hal_fdcan.c ****   /* Select between Tx FIFO and Tx Queue operation modes */
 512:Drivers/STM32G4xx_HAL_Driver/Src/stm32g4xx_hal_fdcan.c ****   SET_BIT(hfdcan->Instance->TXBC, hfdcan->Init.TxFifoQueueMode);
 446              		.loc 1 512 3
 447 0270 7B68     		ldr	r3, [r7, #4]
 448 0272 1B68     		ldr	r3, [r3]
 449 0274 D3F8C010 		ldr	r1, [r3, #192]
 450 0278 7B68     		ldr	r3, [r7, #4]
 451 027a DA6B     		ldr	r2, [r3, #60]
 452 027c 7B68     		ldr	r3, [r7, #4]
 453 027e 1B68     		ldr	r3, [r3]
 454 0280 0A43     		orrs	r2, r2, r1
 455 0282 C3F8C020 		str	r2, [r3, #192]
 513:Drivers/STM32G4xx_HAL_Driver/Src/stm32g4xx_hal_fdcan.c **** 
 514:Drivers/STM32G4xx_HAL_Driver/Src/stm32g4xx_hal_fdcan.c ****   /* Calculate each RAM block address */
 515:Drivers/STM32G4xx_HAL_Driver/Src/stm32g4xx_hal_fdcan.c ****   FDCAN_CalcultateRamBlockAddresses(hfdcan);
 456              		.loc 1 515 3
 457 0286 7868     		ldr	r0, [r7, #4]
 458 0288 FFF7FEFF 		bl	FDCAN_CalcultateRamBlockAddresses
 516:Drivers/STM32G4xx_HAL_Driver/Src/stm32g4xx_hal_fdcan.c **** 
 517:Drivers/STM32G4xx_HAL_Driver/Src/stm32g4xx_hal_fdcan.c ****   /* Initialize the Latest Tx request buffer index */
 518:Drivers/STM32G4xx_HAL_Driver/Src/stm32g4xx_hal_fdcan.c ****   hfdcan->LatestTxFifoQRequest = 0U;
 459              		.loc 1 518 32
 460 028c 7B68     		ldr	r3, [r7, #4]
 461 028e 0022     		movs	r2, #0
 462 0290 9A65     		str	r2, [r3, #88]
 519:Drivers/STM32G4xx_HAL_Driver/Src/stm32g4xx_hal_fdcan.c **** 
 520:Drivers/STM32G4xx_HAL_Driver/Src/stm32g4xx_hal_fdcan.c ****   /* Initialize the error code */
 521:Drivers/STM32G4xx_HAL_Driver/Src/stm32g4xx_hal_fdcan.c ****   hfdcan->ErrorCode = HAL_FDCAN_ERROR_NONE;
 463              		.loc 1 521 21
 464 0292 7B68     		ldr	r3, [r7, #4]
 465 0294 0022     		movs	r2, #0
 466 0296 1A66     		str	r2, [r3, #96]
 522:Drivers/STM32G4xx_HAL_Driver/Src/stm32g4xx_hal_fdcan.c **** 
 523:Drivers/STM32G4xx_HAL_Driver/Src/stm32g4xx_hal_fdcan.c ****   /* Initialize the FDCAN state */
 524:Drivers/STM32G4xx_HAL_Driver/Src/stm32g4xx_hal_fdcan.c ****   hfdcan->State = HAL_FDCAN_STATE_READY;
 467              		.loc 1 524 17
 468 0298 7B68     		ldr	r3, [r7, #4]
 469 029a 0122     		movs	r2, #1
 470 029c 83F85C20 		strb	r2, [r3, #92]
 525:Drivers/STM32G4xx_HAL_Driver/Src/stm32g4xx_hal_fdcan.c **** 
 526:Drivers/STM32G4xx_HAL_Driver/Src/stm32g4xx_hal_fdcan.c ****   /* Return function status */
 527:Drivers/STM32G4xx_HAL_Driver/Src/stm32g4xx_hal_fdcan.c ****   return HAL_OK;
 471              		.loc 1 527 10
 472 02a0 0023     		movs	r3, #0
 473              	.L3:
 528:Drivers/STM32G4xx_HAL_Driver/Src/stm32g4xx_hal_fdcan.c **** }
 474              		.loc 1 528 1
 475 02a2 1846     		mov	r0, r3
 476 02a4 1037     		adds	r7, r7, #16
 477              	.LCFI3:
 478              		.cfi_def_cfa_offset 8
 479 02a6 BD46     		mov	sp, r7
 480              	.LCFI4:
ARM GAS  C:\Users\AURORA~1\AppData\Local\Temp\ccEbooPs.s 			page 19


 481              		.cfi_def_cfa_register 13
 482              		@ sp needed
 483 02a8 80BD     		pop	{r7, pc}
 484              	.L21:
 485 02aa 00BF     		.align	2
 486              	.L20:
 487 02ac 00640040 		.word	1073767424
 488 02b0 00650040 		.word	1073767680
 489              		.cfi_endproc
 490              	.LFE132:
 492              		.section	.text.HAL_FDCAN_DeInit,"ax",%progbits
 493              		.align	1
 494              		.global	HAL_FDCAN_DeInit
 495              		.syntax unified
 496              		.thumb
 497              		.thumb_func
 499              	HAL_FDCAN_DeInit:
 500              	.LFB133:
 529:Drivers/STM32G4xx_HAL_Driver/Src/stm32g4xx_hal_fdcan.c **** 
 530:Drivers/STM32G4xx_HAL_Driver/Src/stm32g4xx_hal_fdcan.c **** /**
 531:Drivers/STM32G4xx_HAL_Driver/Src/stm32g4xx_hal_fdcan.c ****   * @brief  Deinitializes the FDCAN peripheral registers to their default reset values.
 532:Drivers/STM32G4xx_HAL_Driver/Src/stm32g4xx_hal_fdcan.c ****   * @param  hfdcan pointer to an FDCAN_HandleTypeDef structure that contains
 533:Drivers/STM32G4xx_HAL_Driver/Src/stm32g4xx_hal_fdcan.c ****   *         the configuration information for the specified FDCAN.
 534:Drivers/STM32G4xx_HAL_Driver/Src/stm32g4xx_hal_fdcan.c ****   * @retval HAL status
 535:Drivers/STM32G4xx_HAL_Driver/Src/stm32g4xx_hal_fdcan.c ****   */
 536:Drivers/STM32G4xx_HAL_Driver/Src/stm32g4xx_hal_fdcan.c **** HAL_StatusTypeDef HAL_FDCAN_DeInit(FDCAN_HandleTypeDef *hfdcan)
 537:Drivers/STM32G4xx_HAL_Driver/Src/stm32g4xx_hal_fdcan.c **** {
 501              		.loc 1 537 1
 502              		.cfi_startproc
 503              		@ args = 0, pretend = 0, frame = 8
 504              		@ frame_needed = 1, uses_anonymous_args = 0
 505 0000 80B5     		push	{r7, lr}
 506              	.LCFI5:
 507              		.cfi_def_cfa_offset 8
 508              		.cfi_offset 7, -8
 509              		.cfi_offset 14, -4
 510 0002 82B0     		sub	sp, sp, #8
 511              	.LCFI6:
 512              		.cfi_def_cfa_offset 16
 513 0004 00AF     		add	r7, sp, #0
 514              	.LCFI7:
 515              		.cfi_def_cfa_register 7
 516 0006 7860     		str	r0, [r7, #4]
 538:Drivers/STM32G4xx_HAL_Driver/Src/stm32g4xx_hal_fdcan.c ****   /* Check FDCAN handle */
 539:Drivers/STM32G4xx_HAL_Driver/Src/stm32g4xx_hal_fdcan.c ****   if (hfdcan == NULL)
 517              		.loc 1 539 6
 518 0008 7B68     		ldr	r3, [r7, #4]
 519 000a 002B     		cmp	r3, #0
 520 000c 01D1     		bne	.L23
 540:Drivers/STM32G4xx_HAL_Driver/Src/stm32g4xx_hal_fdcan.c ****   {
 541:Drivers/STM32G4xx_HAL_Driver/Src/stm32g4xx_hal_fdcan.c ****     return HAL_ERROR;
 521              		.loc 1 541 12
 522 000e 0123     		movs	r3, #1
 523 0010 15E0     		b	.L24
 524              	.L23:
 542:Drivers/STM32G4xx_HAL_Driver/Src/stm32g4xx_hal_fdcan.c ****   }
 543:Drivers/STM32G4xx_HAL_Driver/Src/stm32g4xx_hal_fdcan.c **** 
ARM GAS  C:\Users\AURORA~1\AppData\Local\Temp\ccEbooPs.s 			page 20


 544:Drivers/STM32G4xx_HAL_Driver/Src/stm32g4xx_hal_fdcan.c ****   /* Check function parameters */
 545:Drivers/STM32G4xx_HAL_Driver/Src/stm32g4xx_hal_fdcan.c ****   assert_param(IS_FDCAN_ALL_INSTANCE(hfdcan->Instance));
 546:Drivers/STM32G4xx_HAL_Driver/Src/stm32g4xx_hal_fdcan.c **** 
 547:Drivers/STM32G4xx_HAL_Driver/Src/stm32g4xx_hal_fdcan.c ****   /* Stop the FDCAN module: return value is voluntary ignored */
 548:Drivers/STM32G4xx_HAL_Driver/Src/stm32g4xx_hal_fdcan.c ****   (void)HAL_FDCAN_Stop(hfdcan);
 525              		.loc 1 548 9
 526 0012 7868     		ldr	r0, [r7, #4]
 527 0014 FFF7FEFF 		bl	HAL_FDCAN_Stop
 549:Drivers/STM32G4xx_HAL_Driver/Src/stm32g4xx_hal_fdcan.c **** 
 550:Drivers/STM32G4xx_HAL_Driver/Src/stm32g4xx_hal_fdcan.c ****   /* Disable Interrupt lines */
 551:Drivers/STM32G4xx_HAL_Driver/Src/stm32g4xx_hal_fdcan.c ****   CLEAR_BIT(hfdcan->Instance->ILE, (FDCAN_INTERRUPT_LINE0 | FDCAN_INTERRUPT_LINE1));
 528              		.loc 1 551 3
 529 0018 7B68     		ldr	r3, [r7, #4]
 530 001a 1B68     		ldr	r3, [r3]
 531 001c DA6D     		ldr	r2, [r3, #92]
 532 001e 7B68     		ldr	r3, [r7, #4]
 533 0020 1B68     		ldr	r3, [r3]
 534 0022 22F00302 		bic	r2, r2, #3
 535 0026 DA65     		str	r2, [r3, #92]
 552:Drivers/STM32G4xx_HAL_Driver/Src/stm32g4xx_hal_fdcan.c **** 
 553:Drivers/STM32G4xx_HAL_Driver/Src/stm32g4xx_hal_fdcan.c **** #if USE_HAL_FDCAN_REGISTER_CALLBACKS == 1
 554:Drivers/STM32G4xx_HAL_Driver/Src/stm32g4xx_hal_fdcan.c ****   if (hfdcan->MspDeInitCallback == NULL)
 555:Drivers/STM32G4xx_HAL_Driver/Src/stm32g4xx_hal_fdcan.c ****   {
 556:Drivers/STM32G4xx_HAL_Driver/Src/stm32g4xx_hal_fdcan.c ****     hfdcan->MspDeInitCallback = HAL_FDCAN_MspDeInit; /* Legacy weak MspDeInit */
 557:Drivers/STM32G4xx_HAL_Driver/Src/stm32g4xx_hal_fdcan.c ****   }
 558:Drivers/STM32G4xx_HAL_Driver/Src/stm32g4xx_hal_fdcan.c **** 
 559:Drivers/STM32G4xx_HAL_Driver/Src/stm32g4xx_hal_fdcan.c ****   /* DeInit the low level hardware: CLOCK, NVIC */
 560:Drivers/STM32G4xx_HAL_Driver/Src/stm32g4xx_hal_fdcan.c ****   hfdcan->MspDeInitCallback(hfdcan);
 561:Drivers/STM32G4xx_HAL_Driver/Src/stm32g4xx_hal_fdcan.c **** #else
 562:Drivers/STM32G4xx_HAL_Driver/Src/stm32g4xx_hal_fdcan.c ****   /* DeInit the low level hardware: CLOCK, NVIC */
 563:Drivers/STM32G4xx_HAL_Driver/Src/stm32g4xx_hal_fdcan.c ****   HAL_FDCAN_MspDeInit(hfdcan);
 536              		.loc 1 563 3
 537 0028 7868     		ldr	r0, [r7, #4]
 538 002a FFF7FEFF 		bl	HAL_FDCAN_MspDeInit
 564:Drivers/STM32G4xx_HAL_Driver/Src/stm32g4xx_hal_fdcan.c **** #endif /* USE_HAL_FDCAN_REGISTER_CALLBACKS */
 565:Drivers/STM32G4xx_HAL_Driver/Src/stm32g4xx_hal_fdcan.c **** 
 566:Drivers/STM32G4xx_HAL_Driver/Src/stm32g4xx_hal_fdcan.c ****   /* Reset the FDCAN ErrorCode */
 567:Drivers/STM32G4xx_HAL_Driver/Src/stm32g4xx_hal_fdcan.c ****   hfdcan->ErrorCode = HAL_FDCAN_ERROR_NONE;
 539              		.loc 1 567 21
 540 002e 7B68     		ldr	r3, [r7, #4]
 541 0030 0022     		movs	r2, #0
 542 0032 1A66     		str	r2, [r3, #96]
 568:Drivers/STM32G4xx_HAL_Driver/Src/stm32g4xx_hal_fdcan.c **** 
 569:Drivers/STM32G4xx_HAL_Driver/Src/stm32g4xx_hal_fdcan.c ****   /* Change FDCAN state */
 570:Drivers/STM32G4xx_HAL_Driver/Src/stm32g4xx_hal_fdcan.c ****   hfdcan->State = HAL_FDCAN_STATE_RESET;
 543              		.loc 1 570 17
 544 0034 7B68     		ldr	r3, [r7, #4]
 545 0036 0022     		movs	r2, #0
 546 0038 83F85C20 		strb	r2, [r3, #92]
 571:Drivers/STM32G4xx_HAL_Driver/Src/stm32g4xx_hal_fdcan.c **** 
 572:Drivers/STM32G4xx_HAL_Driver/Src/stm32g4xx_hal_fdcan.c ****   /* Return function status */
 573:Drivers/STM32G4xx_HAL_Driver/Src/stm32g4xx_hal_fdcan.c ****   return HAL_OK;
 547              		.loc 1 573 10
 548 003c 0023     		movs	r3, #0
 549              	.L24:
 574:Drivers/STM32G4xx_HAL_Driver/Src/stm32g4xx_hal_fdcan.c **** }
 550              		.loc 1 574 1
ARM GAS  C:\Users\AURORA~1\AppData\Local\Temp\ccEbooPs.s 			page 21


 551 003e 1846     		mov	r0, r3
 552 0040 0837     		adds	r7, r7, #8
 553              	.LCFI8:
 554              		.cfi_def_cfa_offset 8
 555 0042 BD46     		mov	sp, r7
 556              	.LCFI9:
 557              		.cfi_def_cfa_register 13
 558              		@ sp needed
 559 0044 80BD     		pop	{r7, pc}
 560              		.cfi_endproc
 561              	.LFE133:
 563              		.section	.text.HAL_FDCAN_MspInit,"ax",%progbits
 564              		.align	1
 565              		.weak	HAL_FDCAN_MspInit
 566              		.syntax unified
 567              		.thumb
 568              		.thumb_func
 570              	HAL_FDCAN_MspInit:
 571              	.LFB134:
 575:Drivers/STM32G4xx_HAL_Driver/Src/stm32g4xx_hal_fdcan.c **** 
 576:Drivers/STM32G4xx_HAL_Driver/Src/stm32g4xx_hal_fdcan.c **** /**
 577:Drivers/STM32G4xx_HAL_Driver/Src/stm32g4xx_hal_fdcan.c ****   * @brief  Initializes the FDCAN MSP.
 578:Drivers/STM32G4xx_HAL_Driver/Src/stm32g4xx_hal_fdcan.c ****   * @param  hfdcan pointer to an FDCAN_HandleTypeDef structure that contains
 579:Drivers/STM32G4xx_HAL_Driver/Src/stm32g4xx_hal_fdcan.c ****   *         the configuration information for the specified FDCAN.
 580:Drivers/STM32G4xx_HAL_Driver/Src/stm32g4xx_hal_fdcan.c ****   * @retval None
 581:Drivers/STM32G4xx_HAL_Driver/Src/stm32g4xx_hal_fdcan.c ****   */
 582:Drivers/STM32G4xx_HAL_Driver/Src/stm32g4xx_hal_fdcan.c **** __weak void HAL_FDCAN_MspInit(FDCAN_HandleTypeDef *hfdcan)
 583:Drivers/STM32G4xx_HAL_Driver/Src/stm32g4xx_hal_fdcan.c **** {
 572              		.loc 1 583 1
 573              		.cfi_startproc
 574              		@ args = 0, pretend = 0, frame = 8
 575              		@ frame_needed = 1, uses_anonymous_args = 0
 576              		@ link register save eliminated.
 577 0000 80B4     		push	{r7}
 578              	.LCFI10:
 579              		.cfi_def_cfa_offset 4
 580              		.cfi_offset 7, -4
 581 0002 83B0     		sub	sp, sp, #12
 582              	.LCFI11:
 583              		.cfi_def_cfa_offset 16
 584 0004 00AF     		add	r7, sp, #0
 585              	.LCFI12:
 586              		.cfi_def_cfa_register 7
 587 0006 7860     		str	r0, [r7, #4]
 584:Drivers/STM32G4xx_HAL_Driver/Src/stm32g4xx_hal_fdcan.c ****   /* Prevent unused argument(s) compilation warning */
 585:Drivers/STM32G4xx_HAL_Driver/Src/stm32g4xx_hal_fdcan.c ****   UNUSED(hfdcan);
 586:Drivers/STM32G4xx_HAL_Driver/Src/stm32g4xx_hal_fdcan.c ****   /* NOTE: This function Should not be modified, when the callback is needed,
 587:Drivers/STM32G4xx_HAL_Driver/Src/stm32g4xx_hal_fdcan.c ****             the HAL_FDCAN_MspInit could be implemented in the user file
 588:Drivers/STM32G4xx_HAL_Driver/Src/stm32g4xx_hal_fdcan.c ****    */
 589:Drivers/STM32G4xx_HAL_Driver/Src/stm32g4xx_hal_fdcan.c **** }
 588              		.loc 1 589 1
 589 0008 00BF     		nop
 590 000a 0C37     		adds	r7, r7, #12
 591              	.LCFI13:
 592              		.cfi_def_cfa_offset 4
 593 000c BD46     		mov	sp, r7
 594              	.LCFI14:
ARM GAS  C:\Users\AURORA~1\AppData\Local\Temp\ccEbooPs.s 			page 22


 595              		.cfi_def_cfa_register 13
 596              		@ sp needed
 597 000e 5DF8047B 		ldr	r7, [sp], #4
 598              	.LCFI15:
 599              		.cfi_restore 7
 600              		.cfi_def_cfa_offset 0
 601 0012 7047     		bx	lr
 602              		.cfi_endproc
 603              	.LFE134:
 605              		.section	.text.HAL_FDCAN_MspDeInit,"ax",%progbits
 606              		.align	1
 607              		.weak	HAL_FDCAN_MspDeInit
 608              		.syntax unified
 609              		.thumb
 610              		.thumb_func
 612              	HAL_FDCAN_MspDeInit:
 613              	.LFB135:
 590:Drivers/STM32G4xx_HAL_Driver/Src/stm32g4xx_hal_fdcan.c **** 
 591:Drivers/STM32G4xx_HAL_Driver/Src/stm32g4xx_hal_fdcan.c **** /**
 592:Drivers/STM32G4xx_HAL_Driver/Src/stm32g4xx_hal_fdcan.c ****   * @brief  DeInitializes the FDCAN MSP.
 593:Drivers/STM32G4xx_HAL_Driver/Src/stm32g4xx_hal_fdcan.c ****   * @param  hfdcan pointer to an FDCAN_HandleTypeDef structure that contains
 594:Drivers/STM32G4xx_HAL_Driver/Src/stm32g4xx_hal_fdcan.c ****   *         the configuration information for the specified FDCAN.
 595:Drivers/STM32G4xx_HAL_Driver/Src/stm32g4xx_hal_fdcan.c ****   * @retval None
 596:Drivers/STM32G4xx_HAL_Driver/Src/stm32g4xx_hal_fdcan.c ****   */
 597:Drivers/STM32G4xx_HAL_Driver/Src/stm32g4xx_hal_fdcan.c **** __weak void HAL_FDCAN_MspDeInit(FDCAN_HandleTypeDef *hfdcan)
 598:Drivers/STM32G4xx_HAL_Driver/Src/stm32g4xx_hal_fdcan.c **** {
 614              		.loc 1 598 1
 615              		.cfi_startproc
 616              		@ args = 0, pretend = 0, frame = 8
 617              		@ frame_needed = 1, uses_anonymous_args = 0
 618              		@ link register save eliminated.
 619 0000 80B4     		push	{r7}
 620              	.LCFI16:
 621              		.cfi_def_cfa_offset 4
 622              		.cfi_offset 7, -4
 623 0002 83B0     		sub	sp, sp, #12
 624              	.LCFI17:
 625              		.cfi_def_cfa_offset 16
 626 0004 00AF     		add	r7, sp, #0
 627              	.LCFI18:
 628              		.cfi_def_cfa_register 7
 629 0006 7860     		str	r0, [r7, #4]
 599:Drivers/STM32G4xx_HAL_Driver/Src/stm32g4xx_hal_fdcan.c ****   /* Prevent unused argument(s) compilation warning */
 600:Drivers/STM32G4xx_HAL_Driver/Src/stm32g4xx_hal_fdcan.c ****   UNUSED(hfdcan);
 601:Drivers/STM32G4xx_HAL_Driver/Src/stm32g4xx_hal_fdcan.c ****   /* NOTE: This function Should not be modified, when the callback is needed,
 602:Drivers/STM32G4xx_HAL_Driver/Src/stm32g4xx_hal_fdcan.c ****             the HAL_FDCAN_MspDeInit could be implemented in the user file
 603:Drivers/STM32G4xx_HAL_Driver/Src/stm32g4xx_hal_fdcan.c ****    */
 604:Drivers/STM32G4xx_HAL_Driver/Src/stm32g4xx_hal_fdcan.c **** }
 630              		.loc 1 604 1
 631 0008 00BF     		nop
 632 000a 0C37     		adds	r7, r7, #12
 633              	.LCFI19:
 634              		.cfi_def_cfa_offset 4
 635 000c BD46     		mov	sp, r7
 636              	.LCFI20:
 637              		.cfi_def_cfa_register 13
 638              		@ sp needed
ARM GAS  C:\Users\AURORA~1\AppData\Local\Temp\ccEbooPs.s 			page 23


 639 000e 5DF8047B 		ldr	r7, [sp], #4
 640              	.LCFI21:
 641              		.cfi_restore 7
 642              		.cfi_def_cfa_offset 0
 643 0012 7047     		bx	lr
 644              		.cfi_endproc
 645              	.LFE135:
 647              		.section	.text.HAL_FDCAN_EnterPowerDownMode,"ax",%progbits
 648              		.align	1
 649              		.global	HAL_FDCAN_EnterPowerDownMode
 650              		.syntax unified
 651              		.thumb
 652              		.thumb_func
 654              	HAL_FDCAN_EnterPowerDownMode:
 655              	.LFB136:
 605:Drivers/STM32G4xx_HAL_Driver/Src/stm32g4xx_hal_fdcan.c **** 
 606:Drivers/STM32G4xx_HAL_Driver/Src/stm32g4xx_hal_fdcan.c **** /**
 607:Drivers/STM32G4xx_HAL_Driver/Src/stm32g4xx_hal_fdcan.c ****   * @brief  Enter FDCAN peripheral in sleep mode.
 608:Drivers/STM32G4xx_HAL_Driver/Src/stm32g4xx_hal_fdcan.c ****   * @param  hfdcan pointer to an FDCAN_HandleTypeDef structure that contains
 609:Drivers/STM32G4xx_HAL_Driver/Src/stm32g4xx_hal_fdcan.c ****   *         the configuration information for the specified FDCAN.
 610:Drivers/STM32G4xx_HAL_Driver/Src/stm32g4xx_hal_fdcan.c ****   * @retval HAL status
 611:Drivers/STM32G4xx_HAL_Driver/Src/stm32g4xx_hal_fdcan.c ****   */
 612:Drivers/STM32G4xx_HAL_Driver/Src/stm32g4xx_hal_fdcan.c **** HAL_StatusTypeDef HAL_FDCAN_EnterPowerDownMode(FDCAN_HandleTypeDef *hfdcan)
 613:Drivers/STM32G4xx_HAL_Driver/Src/stm32g4xx_hal_fdcan.c **** {
 656              		.loc 1 613 1
 657              		.cfi_startproc
 658              		@ args = 0, pretend = 0, frame = 16
 659              		@ frame_needed = 1, uses_anonymous_args = 0
 660 0000 80B5     		push	{r7, lr}
 661              	.LCFI22:
 662              		.cfi_def_cfa_offset 8
 663              		.cfi_offset 7, -8
 664              		.cfi_offset 14, -4
 665 0002 84B0     		sub	sp, sp, #16
 666              	.LCFI23:
 667              		.cfi_def_cfa_offset 24
 668 0004 00AF     		add	r7, sp, #0
 669              	.LCFI24:
 670              		.cfi_def_cfa_register 7
 671 0006 7860     		str	r0, [r7, #4]
 614:Drivers/STM32G4xx_HAL_Driver/Src/stm32g4xx_hal_fdcan.c ****   uint32_t tickstart;
 615:Drivers/STM32G4xx_HAL_Driver/Src/stm32g4xx_hal_fdcan.c **** 
 616:Drivers/STM32G4xx_HAL_Driver/Src/stm32g4xx_hal_fdcan.c ****   /* Request clock stop */
 617:Drivers/STM32G4xx_HAL_Driver/Src/stm32g4xx_hal_fdcan.c ****   SET_BIT(hfdcan->Instance->CCCR, FDCAN_CCCR_CSR);
 672              		.loc 1 617 3
 673 0008 7B68     		ldr	r3, [r7, #4]
 674 000a 1B68     		ldr	r3, [r3]
 675 000c 9A69     		ldr	r2, [r3, #24]
 676 000e 7B68     		ldr	r3, [r7, #4]
 677 0010 1B68     		ldr	r3, [r3]
 678 0012 42F01002 		orr	r2, r2, #16
 679 0016 9A61     		str	r2, [r3, #24]
 618:Drivers/STM32G4xx_HAL_Driver/Src/stm32g4xx_hal_fdcan.c **** 
 619:Drivers/STM32G4xx_HAL_Driver/Src/stm32g4xx_hal_fdcan.c ****   /* Get tick */
 620:Drivers/STM32G4xx_HAL_Driver/Src/stm32g4xx_hal_fdcan.c ****   tickstart = HAL_GetTick();
 680              		.loc 1 620 15
 681 0018 FFF7FEFF 		bl	HAL_GetTick
ARM GAS  C:\Users\AURORA~1\AppData\Local\Temp\ccEbooPs.s 			page 24


 682 001c F860     		str	r0, [r7, #12]
 621:Drivers/STM32G4xx_HAL_Driver/Src/stm32g4xx_hal_fdcan.c **** 
 622:Drivers/STM32G4xx_HAL_Driver/Src/stm32g4xx_hal_fdcan.c ****   /* Wait until FDCAN is ready for power down */
 623:Drivers/STM32G4xx_HAL_Driver/Src/stm32g4xx_hal_fdcan.c ****   while ((hfdcan->Instance->CCCR & FDCAN_CCCR_CSA) == 0U)
 683              		.loc 1 623 9
 684 001e 12E0     		b	.L28
 685              	.L30:
 624:Drivers/STM32G4xx_HAL_Driver/Src/stm32g4xx_hal_fdcan.c ****   {
 625:Drivers/STM32G4xx_HAL_Driver/Src/stm32g4xx_hal_fdcan.c ****     if ((HAL_GetTick() - tickstart) > FDCAN_TIMEOUT_VALUE)
 686              		.loc 1 625 10
 687 0020 FFF7FEFF 		bl	HAL_GetTick
 688 0024 0246     		mov	r2, r0
 689              		.loc 1 625 24 discriminator 1
 690 0026 FB68     		ldr	r3, [r7, #12]
 691 0028 D31A     		subs	r3, r2, r3
 692              		.loc 1 625 8 discriminator 1
 693 002a 0A2B     		cmp	r3, #10
 694 002c 0BD9     		bls	.L28
 626:Drivers/STM32G4xx_HAL_Driver/Src/stm32g4xx_hal_fdcan.c ****     {
 627:Drivers/STM32G4xx_HAL_Driver/Src/stm32g4xx_hal_fdcan.c ****       /* Update error code */
 628:Drivers/STM32G4xx_HAL_Driver/Src/stm32g4xx_hal_fdcan.c ****       hfdcan->ErrorCode |= HAL_FDCAN_ERROR_TIMEOUT;
 695              		.loc 1 628 13
 696 002e 7B68     		ldr	r3, [r7, #4]
 697 0030 1B6E     		ldr	r3, [r3, #96]
 698              		.loc 1 628 25
 699 0032 43F00102 		orr	r2, r3, #1
 700 0036 7B68     		ldr	r3, [r7, #4]
 701 0038 1A66     		str	r2, [r3, #96]
 629:Drivers/STM32G4xx_HAL_Driver/Src/stm32g4xx_hal_fdcan.c **** 
 630:Drivers/STM32G4xx_HAL_Driver/Src/stm32g4xx_hal_fdcan.c ****       /* Change FDCAN state */
 631:Drivers/STM32G4xx_HAL_Driver/Src/stm32g4xx_hal_fdcan.c ****       hfdcan->State = HAL_FDCAN_STATE_ERROR;
 702              		.loc 1 631 21
 703 003a 7B68     		ldr	r3, [r7, #4]
 704 003c 0322     		movs	r2, #3
 705 003e 83F85C20 		strb	r2, [r3, #92]
 632:Drivers/STM32G4xx_HAL_Driver/Src/stm32g4xx_hal_fdcan.c **** 
 633:Drivers/STM32G4xx_HAL_Driver/Src/stm32g4xx_hal_fdcan.c ****       return HAL_ERROR;
 706              		.loc 1 633 14
 707 0042 0123     		movs	r3, #1
 708 0044 07E0     		b	.L29
 709              	.L28:
 623:Drivers/STM32G4xx_HAL_Driver/Src/stm32g4xx_hal_fdcan.c ****   {
 710              		.loc 1 623 17
 711 0046 7B68     		ldr	r3, [r7, #4]
 712 0048 1B68     		ldr	r3, [r3]
 623:Drivers/STM32G4xx_HAL_Driver/Src/stm32g4xx_hal_fdcan.c ****   {
 713              		.loc 1 623 27
 714 004a 9B69     		ldr	r3, [r3, #24]
 623:Drivers/STM32G4xx_HAL_Driver/Src/stm32g4xx_hal_fdcan.c ****   {
 715              		.loc 1 623 34
 716 004c 03F00803 		and	r3, r3, #8
 623:Drivers/STM32G4xx_HAL_Driver/Src/stm32g4xx_hal_fdcan.c ****   {
 717              		.loc 1 623 52
 718 0050 002B     		cmp	r3, #0
 719 0052 E5D0     		beq	.L30
 634:Drivers/STM32G4xx_HAL_Driver/Src/stm32g4xx_hal_fdcan.c ****     }
 635:Drivers/STM32G4xx_HAL_Driver/Src/stm32g4xx_hal_fdcan.c ****   }
ARM GAS  C:\Users\AURORA~1\AppData\Local\Temp\ccEbooPs.s 			page 25


 636:Drivers/STM32G4xx_HAL_Driver/Src/stm32g4xx_hal_fdcan.c **** 
 637:Drivers/STM32G4xx_HAL_Driver/Src/stm32g4xx_hal_fdcan.c ****   /* Return function status */
 638:Drivers/STM32G4xx_HAL_Driver/Src/stm32g4xx_hal_fdcan.c ****   return HAL_OK;
 720              		.loc 1 638 10
 721 0054 0023     		movs	r3, #0
 722              	.L29:
 639:Drivers/STM32G4xx_HAL_Driver/Src/stm32g4xx_hal_fdcan.c **** }
 723              		.loc 1 639 1
 724 0056 1846     		mov	r0, r3
 725 0058 1037     		adds	r7, r7, #16
 726              	.LCFI25:
 727              		.cfi_def_cfa_offset 8
 728 005a BD46     		mov	sp, r7
 729              	.LCFI26:
 730              		.cfi_def_cfa_register 13
 731              		@ sp needed
 732 005c 80BD     		pop	{r7, pc}
 733              		.cfi_endproc
 734              	.LFE136:
 736              		.section	.text.HAL_FDCAN_ExitPowerDownMode,"ax",%progbits
 737              		.align	1
 738              		.global	HAL_FDCAN_ExitPowerDownMode
 739              		.syntax unified
 740              		.thumb
 741              		.thumb_func
 743              	HAL_FDCAN_ExitPowerDownMode:
 744              	.LFB137:
 640:Drivers/STM32G4xx_HAL_Driver/Src/stm32g4xx_hal_fdcan.c **** 
 641:Drivers/STM32G4xx_HAL_Driver/Src/stm32g4xx_hal_fdcan.c **** /**
 642:Drivers/STM32G4xx_HAL_Driver/Src/stm32g4xx_hal_fdcan.c ****   * @brief  Exit power down mode.
 643:Drivers/STM32G4xx_HAL_Driver/Src/stm32g4xx_hal_fdcan.c ****   * @param  hfdcan pointer to an FDCAN_HandleTypeDef structure that contains
 644:Drivers/STM32G4xx_HAL_Driver/Src/stm32g4xx_hal_fdcan.c ****   *         the configuration information for the specified FDCAN.
 645:Drivers/STM32G4xx_HAL_Driver/Src/stm32g4xx_hal_fdcan.c ****   * @retval HAL status
 646:Drivers/STM32G4xx_HAL_Driver/Src/stm32g4xx_hal_fdcan.c ****   */
 647:Drivers/STM32G4xx_HAL_Driver/Src/stm32g4xx_hal_fdcan.c **** HAL_StatusTypeDef HAL_FDCAN_ExitPowerDownMode(FDCAN_HandleTypeDef *hfdcan)
 648:Drivers/STM32G4xx_HAL_Driver/Src/stm32g4xx_hal_fdcan.c **** {
 745              		.loc 1 648 1
 746              		.cfi_startproc
 747              		@ args = 0, pretend = 0, frame = 16
 748              		@ frame_needed = 1, uses_anonymous_args = 0
 749 0000 80B5     		push	{r7, lr}
 750              	.LCFI27:
 751              		.cfi_def_cfa_offset 8
 752              		.cfi_offset 7, -8
 753              		.cfi_offset 14, -4
 754 0002 84B0     		sub	sp, sp, #16
 755              	.LCFI28:
 756              		.cfi_def_cfa_offset 24
 757 0004 00AF     		add	r7, sp, #0
 758              	.LCFI29:
 759              		.cfi_def_cfa_register 7
 760 0006 7860     		str	r0, [r7, #4]
 649:Drivers/STM32G4xx_HAL_Driver/Src/stm32g4xx_hal_fdcan.c ****   uint32_t tickstart;
 650:Drivers/STM32G4xx_HAL_Driver/Src/stm32g4xx_hal_fdcan.c **** 
 651:Drivers/STM32G4xx_HAL_Driver/Src/stm32g4xx_hal_fdcan.c ****   /* Reset clock stop request */
 652:Drivers/STM32G4xx_HAL_Driver/Src/stm32g4xx_hal_fdcan.c ****   CLEAR_BIT(hfdcan->Instance->CCCR, FDCAN_CCCR_CSR);
 761              		.loc 1 652 3
ARM GAS  C:\Users\AURORA~1\AppData\Local\Temp\ccEbooPs.s 			page 26


 762 0008 7B68     		ldr	r3, [r7, #4]
 763 000a 1B68     		ldr	r3, [r3]
 764 000c 9A69     		ldr	r2, [r3, #24]
 765 000e 7B68     		ldr	r3, [r7, #4]
 766 0010 1B68     		ldr	r3, [r3]
 767 0012 22F01002 		bic	r2, r2, #16
 768 0016 9A61     		str	r2, [r3, #24]
 653:Drivers/STM32G4xx_HAL_Driver/Src/stm32g4xx_hal_fdcan.c **** 
 654:Drivers/STM32G4xx_HAL_Driver/Src/stm32g4xx_hal_fdcan.c ****   /* Get tick */
 655:Drivers/STM32G4xx_HAL_Driver/Src/stm32g4xx_hal_fdcan.c ****   tickstart = HAL_GetTick();
 769              		.loc 1 655 15
 770 0018 FFF7FEFF 		bl	HAL_GetTick
 771 001c F860     		str	r0, [r7, #12]
 656:Drivers/STM32G4xx_HAL_Driver/Src/stm32g4xx_hal_fdcan.c **** 
 657:Drivers/STM32G4xx_HAL_Driver/Src/stm32g4xx_hal_fdcan.c ****   /* Wait until FDCAN exits sleep mode */
 658:Drivers/STM32G4xx_HAL_Driver/Src/stm32g4xx_hal_fdcan.c ****   while ((hfdcan->Instance->CCCR & FDCAN_CCCR_CSA) == FDCAN_CCCR_CSA)
 772              		.loc 1 658 9
 773 001e 12E0     		b	.L32
 774              	.L34:
 659:Drivers/STM32G4xx_HAL_Driver/Src/stm32g4xx_hal_fdcan.c ****   {
 660:Drivers/STM32G4xx_HAL_Driver/Src/stm32g4xx_hal_fdcan.c ****     if ((HAL_GetTick() - tickstart) > FDCAN_TIMEOUT_VALUE)
 775              		.loc 1 660 10
 776 0020 FFF7FEFF 		bl	HAL_GetTick
 777 0024 0246     		mov	r2, r0
 778              		.loc 1 660 24 discriminator 1
 779 0026 FB68     		ldr	r3, [r7, #12]
 780 0028 D31A     		subs	r3, r2, r3
 781              		.loc 1 660 8 discriminator 1
 782 002a 0A2B     		cmp	r3, #10
 783 002c 0BD9     		bls	.L32
 661:Drivers/STM32G4xx_HAL_Driver/Src/stm32g4xx_hal_fdcan.c ****     {
 662:Drivers/STM32G4xx_HAL_Driver/Src/stm32g4xx_hal_fdcan.c ****       /* Update error code */
 663:Drivers/STM32G4xx_HAL_Driver/Src/stm32g4xx_hal_fdcan.c ****       hfdcan->ErrorCode |= HAL_FDCAN_ERROR_TIMEOUT;
 784              		.loc 1 663 13
 785 002e 7B68     		ldr	r3, [r7, #4]
 786 0030 1B6E     		ldr	r3, [r3, #96]
 787              		.loc 1 663 25
 788 0032 43F00102 		orr	r2, r3, #1
 789 0036 7B68     		ldr	r3, [r7, #4]
 790 0038 1A66     		str	r2, [r3, #96]
 664:Drivers/STM32G4xx_HAL_Driver/Src/stm32g4xx_hal_fdcan.c **** 
 665:Drivers/STM32G4xx_HAL_Driver/Src/stm32g4xx_hal_fdcan.c ****       /* Change FDCAN state */
 666:Drivers/STM32G4xx_HAL_Driver/Src/stm32g4xx_hal_fdcan.c ****       hfdcan->State = HAL_FDCAN_STATE_ERROR;
 791              		.loc 1 666 21
 792 003a 7B68     		ldr	r3, [r7, #4]
 793 003c 0322     		movs	r2, #3
 794 003e 83F85C20 		strb	r2, [r3, #92]
 667:Drivers/STM32G4xx_HAL_Driver/Src/stm32g4xx_hal_fdcan.c **** 
 668:Drivers/STM32G4xx_HAL_Driver/Src/stm32g4xx_hal_fdcan.c ****       return HAL_ERROR;
 795              		.loc 1 668 14
 796 0042 0123     		movs	r3, #1
 797 0044 0FE0     		b	.L33
 798              	.L32:
 658:Drivers/STM32G4xx_HAL_Driver/Src/stm32g4xx_hal_fdcan.c ****   {
 799              		.loc 1 658 17
 800 0046 7B68     		ldr	r3, [r7, #4]
 801 0048 1B68     		ldr	r3, [r3]
ARM GAS  C:\Users\AURORA~1\AppData\Local\Temp\ccEbooPs.s 			page 27


 658:Drivers/STM32G4xx_HAL_Driver/Src/stm32g4xx_hal_fdcan.c ****   {
 802              		.loc 1 658 27
 803 004a 9B69     		ldr	r3, [r3, #24]
 658:Drivers/STM32G4xx_HAL_Driver/Src/stm32g4xx_hal_fdcan.c ****   {
 804              		.loc 1 658 34
 805 004c 03F00803 		and	r3, r3, #8
 658:Drivers/STM32G4xx_HAL_Driver/Src/stm32g4xx_hal_fdcan.c ****   {
 806              		.loc 1 658 52
 807 0050 082B     		cmp	r3, #8
 808 0052 E5D0     		beq	.L34
 669:Drivers/STM32G4xx_HAL_Driver/Src/stm32g4xx_hal_fdcan.c ****     }
 670:Drivers/STM32G4xx_HAL_Driver/Src/stm32g4xx_hal_fdcan.c ****   }
 671:Drivers/STM32G4xx_HAL_Driver/Src/stm32g4xx_hal_fdcan.c **** 
 672:Drivers/STM32G4xx_HAL_Driver/Src/stm32g4xx_hal_fdcan.c ****   /* Enter normal operation */
 673:Drivers/STM32G4xx_HAL_Driver/Src/stm32g4xx_hal_fdcan.c ****   CLEAR_BIT(hfdcan->Instance->CCCR, FDCAN_CCCR_INIT);
 809              		.loc 1 673 3
 810 0054 7B68     		ldr	r3, [r7, #4]
 811 0056 1B68     		ldr	r3, [r3]
 812 0058 9A69     		ldr	r2, [r3, #24]
 813 005a 7B68     		ldr	r3, [r7, #4]
 814 005c 1B68     		ldr	r3, [r3]
 815 005e 22F00102 		bic	r2, r2, #1
 816 0062 9A61     		str	r2, [r3, #24]
 674:Drivers/STM32G4xx_HAL_Driver/Src/stm32g4xx_hal_fdcan.c **** 
 675:Drivers/STM32G4xx_HAL_Driver/Src/stm32g4xx_hal_fdcan.c ****   /* Return function status */
 676:Drivers/STM32G4xx_HAL_Driver/Src/stm32g4xx_hal_fdcan.c ****   return HAL_OK;
 817              		.loc 1 676 10
 818 0064 0023     		movs	r3, #0
 819              	.L33:
 677:Drivers/STM32G4xx_HAL_Driver/Src/stm32g4xx_hal_fdcan.c **** }
 820              		.loc 1 677 1
 821 0066 1846     		mov	r0, r3
 822 0068 1037     		adds	r7, r7, #16
 823              	.LCFI30:
 824              		.cfi_def_cfa_offset 8
 825 006a BD46     		mov	sp, r7
 826              	.LCFI31:
 827              		.cfi_def_cfa_register 13
 828              		@ sp needed
 829 006c 80BD     		pop	{r7, pc}
 830              		.cfi_endproc
 831              	.LFE137:
 833              		.section	.text.HAL_FDCAN_ConfigFilter,"ax",%progbits
 834              		.align	1
 835              		.global	HAL_FDCAN_ConfigFilter
 836              		.syntax unified
 837              		.thumb
 838              		.thumb_func
 840              	HAL_FDCAN_ConfigFilter:
 841              	.LFB138:
 678:Drivers/STM32G4xx_HAL_Driver/Src/stm32g4xx_hal_fdcan.c **** 
 679:Drivers/STM32G4xx_HAL_Driver/Src/stm32g4xx_hal_fdcan.c **** #if USE_HAL_FDCAN_REGISTER_CALLBACKS == 1
 680:Drivers/STM32G4xx_HAL_Driver/Src/stm32g4xx_hal_fdcan.c **** /**
 681:Drivers/STM32G4xx_HAL_Driver/Src/stm32g4xx_hal_fdcan.c ****   * @brief  Register a FDCAN CallBack.
 682:Drivers/STM32G4xx_HAL_Driver/Src/stm32g4xx_hal_fdcan.c ****   *         To be used instead of the weak predefined callback
 683:Drivers/STM32G4xx_HAL_Driver/Src/stm32g4xx_hal_fdcan.c ****   * @param  hfdcan pointer to a FDCAN_HandleTypeDef structure that contains
 684:Drivers/STM32G4xx_HAL_Driver/Src/stm32g4xx_hal_fdcan.c ****   *         the configuration information for FDCAN module
ARM GAS  C:\Users\AURORA~1\AppData\Local\Temp\ccEbooPs.s 			page 28


 685:Drivers/STM32G4xx_HAL_Driver/Src/stm32g4xx_hal_fdcan.c ****   * @param  CallbackID ID of the callback to be registered
 686:Drivers/STM32G4xx_HAL_Driver/Src/stm32g4xx_hal_fdcan.c ****   *         This parameter can be one of the following values:
 687:Drivers/STM32G4xx_HAL_Driver/Src/stm32g4xx_hal_fdcan.c ****   *           @arg @ref HAL_FDCAN_TX_FIFO_EMPTY_CB_ID Tx Fifo Empty callback ID
 688:Drivers/STM32G4xx_HAL_Driver/Src/stm32g4xx_hal_fdcan.c ****   *           @arg @ref HAL_FDCAN_HIGH_PRIO_MESSAGE_CB_ID High priority message callback ID
 689:Drivers/STM32G4xx_HAL_Driver/Src/stm32g4xx_hal_fdcan.c ****   *           @arg @ref HAL_FDCAN_TIMESTAMP_WRAPAROUND_CB_ID Timestamp wraparound callback ID
 690:Drivers/STM32G4xx_HAL_Driver/Src/stm32g4xx_hal_fdcan.c ****   *           @arg @ref HAL_FDCAN_TIMEOUT_OCCURRED_CB_ID Timeout occurred callback ID
 691:Drivers/STM32G4xx_HAL_Driver/Src/stm32g4xx_hal_fdcan.c ****   *           @arg @ref HAL_FDCAN_ERROR_CALLBACK_CB_ID Error callback ID
 692:Drivers/STM32G4xx_HAL_Driver/Src/stm32g4xx_hal_fdcan.c ****   *           @arg @ref HAL_FDCAN_MSPINIT_CB_ID MspInit callback ID
 693:Drivers/STM32G4xx_HAL_Driver/Src/stm32g4xx_hal_fdcan.c ****   *           @arg @ref HAL_FDCAN_MSPDEINIT_CB_ID MspDeInit callback ID
 694:Drivers/STM32G4xx_HAL_Driver/Src/stm32g4xx_hal_fdcan.c ****   * @param  pCallback pointer to the Callback function
 695:Drivers/STM32G4xx_HAL_Driver/Src/stm32g4xx_hal_fdcan.c ****   * @retval HAL status
 696:Drivers/STM32G4xx_HAL_Driver/Src/stm32g4xx_hal_fdcan.c ****   */
 697:Drivers/STM32G4xx_HAL_Driver/Src/stm32g4xx_hal_fdcan.c **** HAL_StatusTypeDef HAL_FDCAN_RegisterCallback(FDCAN_HandleTypeDef *hfdcan, HAL_FDCAN_CallbackIDTypeD
 698:Drivers/STM32G4xx_HAL_Driver/Src/stm32g4xx_hal_fdcan.c ****                                              void (* pCallback)(FDCAN_HandleTypeDef *_hFDCAN))
 699:Drivers/STM32G4xx_HAL_Driver/Src/stm32g4xx_hal_fdcan.c **** {
 700:Drivers/STM32G4xx_HAL_Driver/Src/stm32g4xx_hal_fdcan.c ****   HAL_StatusTypeDef status = HAL_OK;
 701:Drivers/STM32G4xx_HAL_Driver/Src/stm32g4xx_hal_fdcan.c **** 
 702:Drivers/STM32G4xx_HAL_Driver/Src/stm32g4xx_hal_fdcan.c ****   if (pCallback == NULL)
 703:Drivers/STM32G4xx_HAL_Driver/Src/stm32g4xx_hal_fdcan.c ****   {
 704:Drivers/STM32G4xx_HAL_Driver/Src/stm32g4xx_hal_fdcan.c ****     /* Update the error code */
 705:Drivers/STM32G4xx_HAL_Driver/Src/stm32g4xx_hal_fdcan.c ****     hfdcan->ErrorCode |= HAL_FDCAN_ERROR_INVALID_CALLBACK;
 706:Drivers/STM32G4xx_HAL_Driver/Src/stm32g4xx_hal_fdcan.c **** 
 707:Drivers/STM32G4xx_HAL_Driver/Src/stm32g4xx_hal_fdcan.c ****     return HAL_ERROR;
 708:Drivers/STM32G4xx_HAL_Driver/Src/stm32g4xx_hal_fdcan.c ****   }
 709:Drivers/STM32G4xx_HAL_Driver/Src/stm32g4xx_hal_fdcan.c **** 
 710:Drivers/STM32G4xx_HAL_Driver/Src/stm32g4xx_hal_fdcan.c ****   if (hfdcan->State == HAL_FDCAN_STATE_READY)
 711:Drivers/STM32G4xx_HAL_Driver/Src/stm32g4xx_hal_fdcan.c ****   {
 712:Drivers/STM32G4xx_HAL_Driver/Src/stm32g4xx_hal_fdcan.c ****     switch (CallbackID)
 713:Drivers/STM32G4xx_HAL_Driver/Src/stm32g4xx_hal_fdcan.c ****     {
 714:Drivers/STM32G4xx_HAL_Driver/Src/stm32g4xx_hal_fdcan.c ****       case HAL_FDCAN_TX_FIFO_EMPTY_CB_ID :
 715:Drivers/STM32G4xx_HAL_Driver/Src/stm32g4xx_hal_fdcan.c ****         hfdcan->TxFifoEmptyCallback = pCallback;
 716:Drivers/STM32G4xx_HAL_Driver/Src/stm32g4xx_hal_fdcan.c ****         break;
 717:Drivers/STM32G4xx_HAL_Driver/Src/stm32g4xx_hal_fdcan.c **** 
 718:Drivers/STM32G4xx_HAL_Driver/Src/stm32g4xx_hal_fdcan.c ****       case HAL_FDCAN_HIGH_PRIO_MESSAGE_CB_ID :
 719:Drivers/STM32G4xx_HAL_Driver/Src/stm32g4xx_hal_fdcan.c ****         hfdcan->HighPriorityMessageCallback = pCallback;
 720:Drivers/STM32G4xx_HAL_Driver/Src/stm32g4xx_hal_fdcan.c ****         break;
 721:Drivers/STM32G4xx_HAL_Driver/Src/stm32g4xx_hal_fdcan.c **** 
 722:Drivers/STM32G4xx_HAL_Driver/Src/stm32g4xx_hal_fdcan.c ****       case HAL_FDCAN_TIMESTAMP_WRAPAROUND_CB_ID :
 723:Drivers/STM32G4xx_HAL_Driver/Src/stm32g4xx_hal_fdcan.c ****         hfdcan->TimestampWraparoundCallback = pCallback;
 724:Drivers/STM32G4xx_HAL_Driver/Src/stm32g4xx_hal_fdcan.c ****         break;
 725:Drivers/STM32G4xx_HAL_Driver/Src/stm32g4xx_hal_fdcan.c **** 
 726:Drivers/STM32G4xx_HAL_Driver/Src/stm32g4xx_hal_fdcan.c ****       case HAL_FDCAN_TIMEOUT_OCCURRED_CB_ID :
 727:Drivers/STM32G4xx_HAL_Driver/Src/stm32g4xx_hal_fdcan.c ****         hfdcan->TimeoutOccurredCallback = pCallback;
 728:Drivers/STM32G4xx_HAL_Driver/Src/stm32g4xx_hal_fdcan.c ****         break;
 729:Drivers/STM32G4xx_HAL_Driver/Src/stm32g4xx_hal_fdcan.c **** 
 730:Drivers/STM32G4xx_HAL_Driver/Src/stm32g4xx_hal_fdcan.c ****       case HAL_FDCAN_ERROR_CALLBACK_CB_ID :
 731:Drivers/STM32G4xx_HAL_Driver/Src/stm32g4xx_hal_fdcan.c ****         hfdcan->ErrorCallback = pCallback;
 732:Drivers/STM32G4xx_HAL_Driver/Src/stm32g4xx_hal_fdcan.c ****         break;
 733:Drivers/STM32G4xx_HAL_Driver/Src/stm32g4xx_hal_fdcan.c **** 
 734:Drivers/STM32G4xx_HAL_Driver/Src/stm32g4xx_hal_fdcan.c ****       case HAL_FDCAN_MSPINIT_CB_ID :
 735:Drivers/STM32G4xx_HAL_Driver/Src/stm32g4xx_hal_fdcan.c ****         hfdcan->MspInitCallback = pCallback;
 736:Drivers/STM32G4xx_HAL_Driver/Src/stm32g4xx_hal_fdcan.c ****         break;
 737:Drivers/STM32G4xx_HAL_Driver/Src/stm32g4xx_hal_fdcan.c **** 
 738:Drivers/STM32G4xx_HAL_Driver/Src/stm32g4xx_hal_fdcan.c ****       case HAL_FDCAN_MSPDEINIT_CB_ID :
 739:Drivers/STM32G4xx_HAL_Driver/Src/stm32g4xx_hal_fdcan.c ****         hfdcan->MspDeInitCallback = pCallback;
 740:Drivers/STM32G4xx_HAL_Driver/Src/stm32g4xx_hal_fdcan.c ****         break;
 741:Drivers/STM32G4xx_HAL_Driver/Src/stm32g4xx_hal_fdcan.c **** 
ARM GAS  C:\Users\AURORA~1\AppData\Local\Temp\ccEbooPs.s 			page 29


 742:Drivers/STM32G4xx_HAL_Driver/Src/stm32g4xx_hal_fdcan.c ****       default :
 743:Drivers/STM32G4xx_HAL_Driver/Src/stm32g4xx_hal_fdcan.c ****         /* Update the error code */
 744:Drivers/STM32G4xx_HAL_Driver/Src/stm32g4xx_hal_fdcan.c ****         hfdcan->ErrorCode |= HAL_FDCAN_ERROR_INVALID_CALLBACK;
 745:Drivers/STM32G4xx_HAL_Driver/Src/stm32g4xx_hal_fdcan.c **** 
 746:Drivers/STM32G4xx_HAL_Driver/Src/stm32g4xx_hal_fdcan.c ****         /* Return error status */
 747:Drivers/STM32G4xx_HAL_Driver/Src/stm32g4xx_hal_fdcan.c ****         status =  HAL_ERROR;
 748:Drivers/STM32G4xx_HAL_Driver/Src/stm32g4xx_hal_fdcan.c ****         break;
 749:Drivers/STM32G4xx_HAL_Driver/Src/stm32g4xx_hal_fdcan.c ****     }
 750:Drivers/STM32G4xx_HAL_Driver/Src/stm32g4xx_hal_fdcan.c ****   }
 751:Drivers/STM32G4xx_HAL_Driver/Src/stm32g4xx_hal_fdcan.c ****   else if (hfdcan->State == HAL_FDCAN_STATE_RESET)
 752:Drivers/STM32G4xx_HAL_Driver/Src/stm32g4xx_hal_fdcan.c ****   {
 753:Drivers/STM32G4xx_HAL_Driver/Src/stm32g4xx_hal_fdcan.c ****     switch (CallbackID)
 754:Drivers/STM32G4xx_HAL_Driver/Src/stm32g4xx_hal_fdcan.c ****     {
 755:Drivers/STM32G4xx_HAL_Driver/Src/stm32g4xx_hal_fdcan.c ****       case HAL_FDCAN_MSPINIT_CB_ID :
 756:Drivers/STM32G4xx_HAL_Driver/Src/stm32g4xx_hal_fdcan.c ****         hfdcan->MspInitCallback = pCallback;
 757:Drivers/STM32G4xx_HAL_Driver/Src/stm32g4xx_hal_fdcan.c ****         break;
 758:Drivers/STM32G4xx_HAL_Driver/Src/stm32g4xx_hal_fdcan.c **** 
 759:Drivers/STM32G4xx_HAL_Driver/Src/stm32g4xx_hal_fdcan.c ****       case HAL_FDCAN_MSPDEINIT_CB_ID :
 760:Drivers/STM32G4xx_HAL_Driver/Src/stm32g4xx_hal_fdcan.c ****         hfdcan->MspDeInitCallback = pCallback;
 761:Drivers/STM32G4xx_HAL_Driver/Src/stm32g4xx_hal_fdcan.c ****         break;
 762:Drivers/STM32G4xx_HAL_Driver/Src/stm32g4xx_hal_fdcan.c **** 
 763:Drivers/STM32G4xx_HAL_Driver/Src/stm32g4xx_hal_fdcan.c ****       default :
 764:Drivers/STM32G4xx_HAL_Driver/Src/stm32g4xx_hal_fdcan.c ****         /* Update the error code */
 765:Drivers/STM32G4xx_HAL_Driver/Src/stm32g4xx_hal_fdcan.c ****         hfdcan->ErrorCode |= HAL_FDCAN_ERROR_INVALID_CALLBACK;
 766:Drivers/STM32G4xx_HAL_Driver/Src/stm32g4xx_hal_fdcan.c **** 
 767:Drivers/STM32G4xx_HAL_Driver/Src/stm32g4xx_hal_fdcan.c ****         /* Return error status */
 768:Drivers/STM32G4xx_HAL_Driver/Src/stm32g4xx_hal_fdcan.c ****         status =  HAL_ERROR;
 769:Drivers/STM32G4xx_HAL_Driver/Src/stm32g4xx_hal_fdcan.c ****         break;
 770:Drivers/STM32G4xx_HAL_Driver/Src/stm32g4xx_hal_fdcan.c ****     }
 771:Drivers/STM32G4xx_HAL_Driver/Src/stm32g4xx_hal_fdcan.c ****   }
 772:Drivers/STM32G4xx_HAL_Driver/Src/stm32g4xx_hal_fdcan.c ****   else
 773:Drivers/STM32G4xx_HAL_Driver/Src/stm32g4xx_hal_fdcan.c ****   {
 774:Drivers/STM32G4xx_HAL_Driver/Src/stm32g4xx_hal_fdcan.c ****     /* Update the error code */
 775:Drivers/STM32G4xx_HAL_Driver/Src/stm32g4xx_hal_fdcan.c ****     hfdcan->ErrorCode |= HAL_FDCAN_ERROR_INVALID_CALLBACK;
 776:Drivers/STM32G4xx_HAL_Driver/Src/stm32g4xx_hal_fdcan.c **** 
 777:Drivers/STM32G4xx_HAL_Driver/Src/stm32g4xx_hal_fdcan.c ****     /* Return error status */
 778:Drivers/STM32G4xx_HAL_Driver/Src/stm32g4xx_hal_fdcan.c ****     status =  HAL_ERROR;
 779:Drivers/STM32G4xx_HAL_Driver/Src/stm32g4xx_hal_fdcan.c ****   }
 780:Drivers/STM32G4xx_HAL_Driver/Src/stm32g4xx_hal_fdcan.c **** 
 781:Drivers/STM32G4xx_HAL_Driver/Src/stm32g4xx_hal_fdcan.c ****   return status;
 782:Drivers/STM32G4xx_HAL_Driver/Src/stm32g4xx_hal_fdcan.c **** }
 783:Drivers/STM32G4xx_HAL_Driver/Src/stm32g4xx_hal_fdcan.c **** 
 784:Drivers/STM32G4xx_HAL_Driver/Src/stm32g4xx_hal_fdcan.c **** /**
 785:Drivers/STM32G4xx_HAL_Driver/Src/stm32g4xx_hal_fdcan.c ****   * @brief  Unregister a FDCAN CallBack.
 786:Drivers/STM32G4xx_HAL_Driver/Src/stm32g4xx_hal_fdcan.c ****   *         FDCAN callback is redirected to the weak predefined callback
 787:Drivers/STM32G4xx_HAL_Driver/Src/stm32g4xx_hal_fdcan.c ****   * @param  hfdcan pointer to a FDCAN_HandleTypeDef structure that contains
 788:Drivers/STM32G4xx_HAL_Driver/Src/stm32g4xx_hal_fdcan.c ****   *         the configuration information for FDCAN module
 789:Drivers/STM32G4xx_HAL_Driver/Src/stm32g4xx_hal_fdcan.c ****   * @param  CallbackID ID of the callback to be unregistered
 790:Drivers/STM32G4xx_HAL_Driver/Src/stm32g4xx_hal_fdcan.c ****   *         This parameter can be one of the following values:
 791:Drivers/STM32G4xx_HAL_Driver/Src/stm32g4xx_hal_fdcan.c ****   *           @arg @ref HAL_FDCAN_TX_FIFO_EMPTY_CB_ID Tx Fifo Empty callback ID
 792:Drivers/STM32G4xx_HAL_Driver/Src/stm32g4xx_hal_fdcan.c ****   *           @arg @ref HAL_FDCAN_HIGH_PRIO_MESSAGE_CB_ID High priority message callback ID
 793:Drivers/STM32G4xx_HAL_Driver/Src/stm32g4xx_hal_fdcan.c ****   *           @arg @ref HAL_FDCAN_TIMESTAMP_WRAPAROUND_CB_ID Timestamp wraparound callback ID
 794:Drivers/STM32G4xx_HAL_Driver/Src/stm32g4xx_hal_fdcan.c ****   *           @arg @ref HAL_FDCAN_TIMEOUT_OCCURRED_CB_ID Timeout occurred callback ID
 795:Drivers/STM32G4xx_HAL_Driver/Src/stm32g4xx_hal_fdcan.c ****   *           @arg @ref HAL_FDCAN_ERROR_CALLBACK_CB_ID Error callback ID
 796:Drivers/STM32G4xx_HAL_Driver/Src/stm32g4xx_hal_fdcan.c ****   *           @arg @ref HAL_FDCAN_MSPINIT_CB_ID MspInit callback ID
 797:Drivers/STM32G4xx_HAL_Driver/Src/stm32g4xx_hal_fdcan.c ****   *           @arg @ref HAL_FDCAN_MSPDEINIT_CB_ID MspDeInit callback ID
 798:Drivers/STM32G4xx_HAL_Driver/Src/stm32g4xx_hal_fdcan.c ****   * @retval HAL status
ARM GAS  C:\Users\AURORA~1\AppData\Local\Temp\ccEbooPs.s 			page 30


 799:Drivers/STM32G4xx_HAL_Driver/Src/stm32g4xx_hal_fdcan.c ****   */
 800:Drivers/STM32G4xx_HAL_Driver/Src/stm32g4xx_hal_fdcan.c **** HAL_StatusTypeDef HAL_FDCAN_UnRegisterCallback(FDCAN_HandleTypeDef *hfdcan, HAL_FDCAN_CallbackIDTyp
 801:Drivers/STM32G4xx_HAL_Driver/Src/stm32g4xx_hal_fdcan.c **** {
 802:Drivers/STM32G4xx_HAL_Driver/Src/stm32g4xx_hal_fdcan.c ****   HAL_StatusTypeDef status = HAL_OK;
 803:Drivers/STM32G4xx_HAL_Driver/Src/stm32g4xx_hal_fdcan.c **** 
 804:Drivers/STM32G4xx_HAL_Driver/Src/stm32g4xx_hal_fdcan.c ****   if (hfdcan->State == HAL_FDCAN_STATE_READY)
 805:Drivers/STM32G4xx_HAL_Driver/Src/stm32g4xx_hal_fdcan.c ****   {
 806:Drivers/STM32G4xx_HAL_Driver/Src/stm32g4xx_hal_fdcan.c ****     switch (CallbackID)
 807:Drivers/STM32G4xx_HAL_Driver/Src/stm32g4xx_hal_fdcan.c ****     {
 808:Drivers/STM32G4xx_HAL_Driver/Src/stm32g4xx_hal_fdcan.c ****       case HAL_FDCAN_TX_FIFO_EMPTY_CB_ID :
 809:Drivers/STM32G4xx_HAL_Driver/Src/stm32g4xx_hal_fdcan.c ****         hfdcan->TxFifoEmptyCallback = HAL_FDCAN_TxFifoEmptyCallback;
 810:Drivers/STM32G4xx_HAL_Driver/Src/stm32g4xx_hal_fdcan.c ****         break;
 811:Drivers/STM32G4xx_HAL_Driver/Src/stm32g4xx_hal_fdcan.c **** 
 812:Drivers/STM32G4xx_HAL_Driver/Src/stm32g4xx_hal_fdcan.c ****       case HAL_FDCAN_HIGH_PRIO_MESSAGE_CB_ID :
 813:Drivers/STM32G4xx_HAL_Driver/Src/stm32g4xx_hal_fdcan.c ****         hfdcan->HighPriorityMessageCallback = HAL_FDCAN_HighPriorityMessageCallback;
 814:Drivers/STM32G4xx_HAL_Driver/Src/stm32g4xx_hal_fdcan.c ****         break;
 815:Drivers/STM32G4xx_HAL_Driver/Src/stm32g4xx_hal_fdcan.c **** 
 816:Drivers/STM32G4xx_HAL_Driver/Src/stm32g4xx_hal_fdcan.c ****       case HAL_FDCAN_TIMESTAMP_WRAPAROUND_CB_ID :
 817:Drivers/STM32G4xx_HAL_Driver/Src/stm32g4xx_hal_fdcan.c ****         hfdcan->TimestampWraparoundCallback = HAL_FDCAN_TimestampWraparoundCallback;
 818:Drivers/STM32G4xx_HAL_Driver/Src/stm32g4xx_hal_fdcan.c ****         break;
 819:Drivers/STM32G4xx_HAL_Driver/Src/stm32g4xx_hal_fdcan.c **** 
 820:Drivers/STM32G4xx_HAL_Driver/Src/stm32g4xx_hal_fdcan.c ****       case HAL_FDCAN_TIMEOUT_OCCURRED_CB_ID :
 821:Drivers/STM32G4xx_HAL_Driver/Src/stm32g4xx_hal_fdcan.c ****         hfdcan->TimeoutOccurredCallback = HAL_FDCAN_TimeoutOccurredCallback;
 822:Drivers/STM32G4xx_HAL_Driver/Src/stm32g4xx_hal_fdcan.c ****         break;
 823:Drivers/STM32G4xx_HAL_Driver/Src/stm32g4xx_hal_fdcan.c **** 
 824:Drivers/STM32G4xx_HAL_Driver/Src/stm32g4xx_hal_fdcan.c ****       case HAL_FDCAN_ERROR_CALLBACK_CB_ID :
 825:Drivers/STM32G4xx_HAL_Driver/Src/stm32g4xx_hal_fdcan.c ****         hfdcan->ErrorCallback = HAL_FDCAN_ErrorCallback;
 826:Drivers/STM32G4xx_HAL_Driver/Src/stm32g4xx_hal_fdcan.c ****         break;
 827:Drivers/STM32G4xx_HAL_Driver/Src/stm32g4xx_hal_fdcan.c **** 
 828:Drivers/STM32G4xx_HAL_Driver/Src/stm32g4xx_hal_fdcan.c ****       case HAL_FDCAN_MSPINIT_CB_ID :
 829:Drivers/STM32G4xx_HAL_Driver/Src/stm32g4xx_hal_fdcan.c ****         hfdcan->MspInitCallback = HAL_FDCAN_MspInit;
 830:Drivers/STM32G4xx_HAL_Driver/Src/stm32g4xx_hal_fdcan.c ****         break;
 831:Drivers/STM32G4xx_HAL_Driver/Src/stm32g4xx_hal_fdcan.c **** 
 832:Drivers/STM32G4xx_HAL_Driver/Src/stm32g4xx_hal_fdcan.c ****       case HAL_FDCAN_MSPDEINIT_CB_ID :
 833:Drivers/STM32G4xx_HAL_Driver/Src/stm32g4xx_hal_fdcan.c ****         hfdcan->MspDeInitCallback = HAL_FDCAN_MspDeInit;
 834:Drivers/STM32G4xx_HAL_Driver/Src/stm32g4xx_hal_fdcan.c ****         break;
 835:Drivers/STM32G4xx_HAL_Driver/Src/stm32g4xx_hal_fdcan.c **** 
 836:Drivers/STM32G4xx_HAL_Driver/Src/stm32g4xx_hal_fdcan.c ****       default :
 837:Drivers/STM32G4xx_HAL_Driver/Src/stm32g4xx_hal_fdcan.c ****         /* Update the error code */
 838:Drivers/STM32G4xx_HAL_Driver/Src/stm32g4xx_hal_fdcan.c ****         hfdcan->ErrorCode |= HAL_FDCAN_ERROR_INVALID_CALLBACK;
 839:Drivers/STM32G4xx_HAL_Driver/Src/stm32g4xx_hal_fdcan.c **** 
 840:Drivers/STM32G4xx_HAL_Driver/Src/stm32g4xx_hal_fdcan.c ****         /* Return error status */
 841:Drivers/STM32G4xx_HAL_Driver/Src/stm32g4xx_hal_fdcan.c ****         status =  HAL_ERROR;
 842:Drivers/STM32G4xx_HAL_Driver/Src/stm32g4xx_hal_fdcan.c ****         break;
 843:Drivers/STM32G4xx_HAL_Driver/Src/stm32g4xx_hal_fdcan.c ****     }
 844:Drivers/STM32G4xx_HAL_Driver/Src/stm32g4xx_hal_fdcan.c ****   }
 845:Drivers/STM32G4xx_HAL_Driver/Src/stm32g4xx_hal_fdcan.c ****   else if (hfdcan->State == HAL_FDCAN_STATE_RESET)
 846:Drivers/STM32G4xx_HAL_Driver/Src/stm32g4xx_hal_fdcan.c ****   {
 847:Drivers/STM32G4xx_HAL_Driver/Src/stm32g4xx_hal_fdcan.c ****     switch (CallbackID)
 848:Drivers/STM32G4xx_HAL_Driver/Src/stm32g4xx_hal_fdcan.c ****     {
 849:Drivers/STM32G4xx_HAL_Driver/Src/stm32g4xx_hal_fdcan.c ****       case HAL_FDCAN_MSPINIT_CB_ID :
 850:Drivers/STM32G4xx_HAL_Driver/Src/stm32g4xx_hal_fdcan.c ****         hfdcan->MspInitCallback = HAL_FDCAN_MspInit;
 851:Drivers/STM32G4xx_HAL_Driver/Src/stm32g4xx_hal_fdcan.c ****         break;
 852:Drivers/STM32G4xx_HAL_Driver/Src/stm32g4xx_hal_fdcan.c **** 
 853:Drivers/STM32G4xx_HAL_Driver/Src/stm32g4xx_hal_fdcan.c ****       case HAL_FDCAN_MSPDEINIT_CB_ID :
 854:Drivers/STM32G4xx_HAL_Driver/Src/stm32g4xx_hal_fdcan.c ****         hfdcan->MspDeInitCallback = HAL_FDCAN_MspDeInit;
 855:Drivers/STM32G4xx_HAL_Driver/Src/stm32g4xx_hal_fdcan.c ****         break;
ARM GAS  C:\Users\AURORA~1\AppData\Local\Temp\ccEbooPs.s 			page 31


 856:Drivers/STM32G4xx_HAL_Driver/Src/stm32g4xx_hal_fdcan.c **** 
 857:Drivers/STM32G4xx_HAL_Driver/Src/stm32g4xx_hal_fdcan.c ****       default :
 858:Drivers/STM32G4xx_HAL_Driver/Src/stm32g4xx_hal_fdcan.c ****         /* Update the error code */
 859:Drivers/STM32G4xx_HAL_Driver/Src/stm32g4xx_hal_fdcan.c ****         hfdcan->ErrorCode |= HAL_FDCAN_ERROR_INVALID_CALLBACK;
 860:Drivers/STM32G4xx_HAL_Driver/Src/stm32g4xx_hal_fdcan.c **** 
 861:Drivers/STM32G4xx_HAL_Driver/Src/stm32g4xx_hal_fdcan.c ****         /* Return error status */
 862:Drivers/STM32G4xx_HAL_Driver/Src/stm32g4xx_hal_fdcan.c ****         status =  HAL_ERROR;
 863:Drivers/STM32G4xx_HAL_Driver/Src/stm32g4xx_hal_fdcan.c ****         break;
 864:Drivers/STM32G4xx_HAL_Driver/Src/stm32g4xx_hal_fdcan.c ****     }
 865:Drivers/STM32G4xx_HAL_Driver/Src/stm32g4xx_hal_fdcan.c ****   }
 866:Drivers/STM32G4xx_HAL_Driver/Src/stm32g4xx_hal_fdcan.c ****   else
 867:Drivers/STM32G4xx_HAL_Driver/Src/stm32g4xx_hal_fdcan.c ****   {
 868:Drivers/STM32G4xx_HAL_Driver/Src/stm32g4xx_hal_fdcan.c ****     /* Update the error code */
 869:Drivers/STM32G4xx_HAL_Driver/Src/stm32g4xx_hal_fdcan.c ****     hfdcan->ErrorCode |= HAL_FDCAN_ERROR_INVALID_CALLBACK;
 870:Drivers/STM32G4xx_HAL_Driver/Src/stm32g4xx_hal_fdcan.c **** 
 871:Drivers/STM32G4xx_HAL_Driver/Src/stm32g4xx_hal_fdcan.c ****     /* Return error status */
 872:Drivers/STM32G4xx_HAL_Driver/Src/stm32g4xx_hal_fdcan.c ****     status =  HAL_ERROR;
 873:Drivers/STM32G4xx_HAL_Driver/Src/stm32g4xx_hal_fdcan.c ****   }
 874:Drivers/STM32G4xx_HAL_Driver/Src/stm32g4xx_hal_fdcan.c **** 
 875:Drivers/STM32G4xx_HAL_Driver/Src/stm32g4xx_hal_fdcan.c ****   return status;
 876:Drivers/STM32G4xx_HAL_Driver/Src/stm32g4xx_hal_fdcan.c **** }
 877:Drivers/STM32G4xx_HAL_Driver/Src/stm32g4xx_hal_fdcan.c **** 
 878:Drivers/STM32G4xx_HAL_Driver/Src/stm32g4xx_hal_fdcan.c **** /**
 879:Drivers/STM32G4xx_HAL_Driver/Src/stm32g4xx_hal_fdcan.c ****   * @brief  Register Tx Event Fifo FDCAN Callback
 880:Drivers/STM32G4xx_HAL_Driver/Src/stm32g4xx_hal_fdcan.c ****   *         To be used instead of the weak HAL_FDCAN_TxEventFifoCallback() predefined callback
 881:Drivers/STM32G4xx_HAL_Driver/Src/stm32g4xx_hal_fdcan.c ****   * @param  hfdcan FDCAN handle
 882:Drivers/STM32G4xx_HAL_Driver/Src/stm32g4xx_hal_fdcan.c ****   * @param  pCallback pointer to the Tx Event Fifo Callback function
 883:Drivers/STM32G4xx_HAL_Driver/Src/stm32g4xx_hal_fdcan.c ****   * @retval HAL status
 884:Drivers/STM32G4xx_HAL_Driver/Src/stm32g4xx_hal_fdcan.c ****   */
 885:Drivers/STM32G4xx_HAL_Driver/Src/stm32g4xx_hal_fdcan.c **** HAL_StatusTypeDef HAL_FDCAN_RegisterTxEventFifoCallback(FDCAN_HandleTypeDef *hfdcan,
 886:Drivers/STM32G4xx_HAL_Driver/Src/stm32g4xx_hal_fdcan.c ****                                                         pFDCAN_TxEventFifoCallbackTypeDef pCallback
 887:Drivers/STM32G4xx_HAL_Driver/Src/stm32g4xx_hal_fdcan.c **** {
 888:Drivers/STM32G4xx_HAL_Driver/Src/stm32g4xx_hal_fdcan.c ****   HAL_StatusTypeDef status = HAL_OK;
 889:Drivers/STM32G4xx_HAL_Driver/Src/stm32g4xx_hal_fdcan.c **** 
 890:Drivers/STM32G4xx_HAL_Driver/Src/stm32g4xx_hal_fdcan.c ****   if (pCallback == NULL)
 891:Drivers/STM32G4xx_HAL_Driver/Src/stm32g4xx_hal_fdcan.c ****   {
 892:Drivers/STM32G4xx_HAL_Driver/Src/stm32g4xx_hal_fdcan.c ****     /* Update the error code */
 893:Drivers/STM32G4xx_HAL_Driver/Src/stm32g4xx_hal_fdcan.c ****     hfdcan->ErrorCode |= HAL_FDCAN_ERROR_INVALID_CALLBACK;
 894:Drivers/STM32G4xx_HAL_Driver/Src/stm32g4xx_hal_fdcan.c ****     return HAL_ERROR;
 895:Drivers/STM32G4xx_HAL_Driver/Src/stm32g4xx_hal_fdcan.c ****   }
 896:Drivers/STM32G4xx_HAL_Driver/Src/stm32g4xx_hal_fdcan.c **** 
 897:Drivers/STM32G4xx_HAL_Driver/Src/stm32g4xx_hal_fdcan.c ****   if (hfdcan->State == HAL_FDCAN_STATE_READY)
 898:Drivers/STM32G4xx_HAL_Driver/Src/stm32g4xx_hal_fdcan.c ****   {
 899:Drivers/STM32G4xx_HAL_Driver/Src/stm32g4xx_hal_fdcan.c ****     hfdcan->TxEventFifoCallback = pCallback;
 900:Drivers/STM32G4xx_HAL_Driver/Src/stm32g4xx_hal_fdcan.c ****   }
 901:Drivers/STM32G4xx_HAL_Driver/Src/stm32g4xx_hal_fdcan.c ****   else
 902:Drivers/STM32G4xx_HAL_Driver/Src/stm32g4xx_hal_fdcan.c ****   {
 903:Drivers/STM32G4xx_HAL_Driver/Src/stm32g4xx_hal_fdcan.c ****     /* Update the error code */
 904:Drivers/STM32G4xx_HAL_Driver/Src/stm32g4xx_hal_fdcan.c ****     hfdcan->ErrorCode |= HAL_FDCAN_ERROR_INVALID_CALLBACK;
 905:Drivers/STM32G4xx_HAL_Driver/Src/stm32g4xx_hal_fdcan.c **** 
 906:Drivers/STM32G4xx_HAL_Driver/Src/stm32g4xx_hal_fdcan.c ****     /* Return error status */
 907:Drivers/STM32G4xx_HAL_Driver/Src/stm32g4xx_hal_fdcan.c ****     status =  HAL_ERROR;
 908:Drivers/STM32G4xx_HAL_Driver/Src/stm32g4xx_hal_fdcan.c ****   }
 909:Drivers/STM32G4xx_HAL_Driver/Src/stm32g4xx_hal_fdcan.c **** 
 910:Drivers/STM32G4xx_HAL_Driver/Src/stm32g4xx_hal_fdcan.c ****   return status;
 911:Drivers/STM32G4xx_HAL_Driver/Src/stm32g4xx_hal_fdcan.c **** }
 912:Drivers/STM32G4xx_HAL_Driver/Src/stm32g4xx_hal_fdcan.c **** 
ARM GAS  C:\Users\AURORA~1\AppData\Local\Temp\ccEbooPs.s 			page 32


 913:Drivers/STM32G4xx_HAL_Driver/Src/stm32g4xx_hal_fdcan.c **** /**
 914:Drivers/STM32G4xx_HAL_Driver/Src/stm32g4xx_hal_fdcan.c ****   * @brief  UnRegister the Tx Event Fifo FDCAN Callback
 915:Drivers/STM32G4xx_HAL_Driver/Src/stm32g4xx_hal_fdcan.c ****   *         Tx Event Fifo FDCAN Callback is redirected to the weak HAL_FDCAN_TxEventFifoCallback() 
 916:Drivers/STM32G4xx_HAL_Driver/Src/stm32g4xx_hal_fdcan.c ****   * @param  hfdcan FDCAN handle
 917:Drivers/STM32G4xx_HAL_Driver/Src/stm32g4xx_hal_fdcan.c ****   * @retval HAL status
 918:Drivers/STM32G4xx_HAL_Driver/Src/stm32g4xx_hal_fdcan.c ****   */
 919:Drivers/STM32G4xx_HAL_Driver/Src/stm32g4xx_hal_fdcan.c **** HAL_StatusTypeDef HAL_FDCAN_UnRegisterTxEventFifoCallback(FDCAN_HandleTypeDef *hfdcan)
 920:Drivers/STM32G4xx_HAL_Driver/Src/stm32g4xx_hal_fdcan.c **** {
 921:Drivers/STM32G4xx_HAL_Driver/Src/stm32g4xx_hal_fdcan.c ****   HAL_StatusTypeDef status = HAL_OK;
 922:Drivers/STM32G4xx_HAL_Driver/Src/stm32g4xx_hal_fdcan.c **** 
 923:Drivers/STM32G4xx_HAL_Driver/Src/stm32g4xx_hal_fdcan.c ****   if (hfdcan->State == HAL_FDCAN_STATE_READY)
 924:Drivers/STM32G4xx_HAL_Driver/Src/stm32g4xx_hal_fdcan.c ****   {
 925:Drivers/STM32G4xx_HAL_Driver/Src/stm32g4xx_hal_fdcan.c ****     hfdcan->TxEventFifoCallback = HAL_FDCAN_TxEventFifoCallback; /* Legacy weak TxEventFifoCallback
 926:Drivers/STM32G4xx_HAL_Driver/Src/stm32g4xx_hal_fdcan.c ****   }
 927:Drivers/STM32G4xx_HAL_Driver/Src/stm32g4xx_hal_fdcan.c ****   else
 928:Drivers/STM32G4xx_HAL_Driver/Src/stm32g4xx_hal_fdcan.c ****   {
 929:Drivers/STM32G4xx_HAL_Driver/Src/stm32g4xx_hal_fdcan.c ****     /* Update the error code */
 930:Drivers/STM32G4xx_HAL_Driver/Src/stm32g4xx_hal_fdcan.c ****     hfdcan->ErrorCode |= HAL_FDCAN_ERROR_INVALID_CALLBACK;
 931:Drivers/STM32G4xx_HAL_Driver/Src/stm32g4xx_hal_fdcan.c **** 
 932:Drivers/STM32G4xx_HAL_Driver/Src/stm32g4xx_hal_fdcan.c ****     /* Return error status */
 933:Drivers/STM32G4xx_HAL_Driver/Src/stm32g4xx_hal_fdcan.c ****     status =  HAL_ERROR;
 934:Drivers/STM32G4xx_HAL_Driver/Src/stm32g4xx_hal_fdcan.c ****   }
 935:Drivers/STM32G4xx_HAL_Driver/Src/stm32g4xx_hal_fdcan.c **** 
 936:Drivers/STM32G4xx_HAL_Driver/Src/stm32g4xx_hal_fdcan.c ****   return status;
 937:Drivers/STM32G4xx_HAL_Driver/Src/stm32g4xx_hal_fdcan.c **** }
 938:Drivers/STM32G4xx_HAL_Driver/Src/stm32g4xx_hal_fdcan.c **** 
 939:Drivers/STM32G4xx_HAL_Driver/Src/stm32g4xx_hal_fdcan.c **** /**
 940:Drivers/STM32G4xx_HAL_Driver/Src/stm32g4xx_hal_fdcan.c ****   * @brief  Register Rx Fifo 0 FDCAN Callback
 941:Drivers/STM32G4xx_HAL_Driver/Src/stm32g4xx_hal_fdcan.c ****   *         To be used instead of the weak HAL_FDCAN_RxFifo0Callback() predefined callback
 942:Drivers/STM32G4xx_HAL_Driver/Src/stm32g4xx_hal_fdcan.c ****   * @param  hfdcan FDCAN handle
 943:Drivers/STM32G4xx_HAL_Driver/Src/stm32g4xx_hal_fdcan.c ****   * @param  pCallback pointer to the Rx Fifo 0 Callback function
 944:Drivers/STM32G4xx_HAL_Driver/Src/stm32g4xx_hal_fdcan.c ****   * @retval HAL status
 945:Drivers/STM32G4xx_HAL_Driver/Src/stm32g4xx_hal_fdcan.c ****   */
 946:Drivers/STM32G4xx_HAL_Driver/Src/stm32g4xx_hal_fdcan.c **** HAL_StatusTypeDef HAL_FDCAN_RegisterRxFifo0Callback(FDCAN_HandleTypeDef *hfdcan,
 947:Drivers/STM32G4xx_HAL_Driver/Src/stm32g4xx_hal_fdcan.c ****                                                     pFDCAN_RxFifo0CallbackTypeDef pCallback)
 948:Drivers/STM32G4xx_HAL_Driver/Src/stm32g4xx_hal_fdcan.c **** {
 949:Drivers/STM32G4xx_HAL_Driver/Src/stm32g4xx_hal_fdcan.c ****   HAL_StatusTypeDef status = HAL_OK;
 950:Drivers/STM32G4xx_HAL_Driver/Src/stm32g4xx_hal_fdcan.c **** 
 951:Drivers/STM32G4xx_HAL_Driver/Src/stm32g4xx_hal_fdcan.c ****   if (pCallback == NULL)
 952:Drivers/STM32G4xx_HAL_Driver/Src/stm32g4xx_hal_fdcan.c ****   {
 953:Drivers/STM32G4xx_HAL_Driver/Src/stm32g4xx_hal_fdcan.c ****     /* Update the error code */
 954:Drivers/STM32G4xx_HAL_Driver/Src/stm32g4xx_hal_fdcan.c ****     hfdcan->ErrorCode |= HAL_FDCAN_ERROR_INVALID_CALLBACK;
 955:Drivers/STM32G4xx_HAL_Driver/Src/stm32g4xx_hal_fdcan.c ****     return HAL_ERROR;
 956:Drivers/STM32G4xx_HAL_Driver/Src/stm32g4xx_hal_fdcan.c ****   }
 957:Drivers/STM32G4xx_HAL_Driver/Src/stm32g4xx_hal_fdcan.c **** 
 958:Drivers/STM32G4xx_HAL_Driver/Src/stm32g4xx_hal_fdcan.c ****   if (hfdcan->State == HAL_FDCAN_STATE_READY)
 959:Drivers/STM32G4xx_HAL_Driver/Src/stm32g4xx_hal_fdcan.c ****   {
 960:Drivers/STM32G4xx_HAL_Driver/Src/stm32g4xx_hal_fdcan.c ****     hfdcan->RxFifo0Callback = pCallback;
 961:Drivers/STM32G4xx_HAL_Driver/Src/stm32g4xx_hal_fdcan.c ****   }
 962:Drivers/STM32G4xx_HAL_Driver/Src/stm32g4xx_hal_fdcan.c ****   else
 963:Drivers/STM32G4xx_HAL_Driver/Src/stm32g4xx_hal_fdcan.c ****   {
 964:Drivers/STM32G4xx_HAL_Driver/Src/stm32g4xx_hal_fdcan.c ****     /* Update the error code */
 965:Drivers/STM32G4xx_HAL_Driver/Src/stm32g4xx_hal_fdcan.c ****     hfdcan->ErrorCode |= HAL_FDCAN_ERROR_INVALID_CALLBACK;
 966:Drivers/STM32G4xx_HAL_Driver/Src/stm32g4xx_hal_fdcan.c **** 
 967:Drivers/STM32G4xx_HAL_Driver/Src/stm32g4xx_hal_fdcan.c ****     /* Return error status */
 968:Drivers/STM32G4xx_HAL_Driver/Src/stm32g4xx_hal_fdcan.c ****     status =  HAL_ERROR;
 969:Drivers/STM32G4xx_HAL_Driver/Src/stm32g4xx_hal_fdcan.c ****   }
ARM GAS  C:\Users\AURORA~1\AppData\Local\Temp\ccEbooPs.s 			page 33


 970:Drivers/STM32G4xx_HAL_Driver/Src/stm32g4xx_hal_fdcan.c **** 
 971:Drivers/STM32G4xx_HAL_Driver/Src/stm32g4xx_hal_fdcan.c ****   return status;
 972:Drivers/STM32G4xx_HAL_Driver/Src/stm32g4xx_hal_fdcan.c **** }
 973:Drivers/STM32G4xx_HAL_Driver/Src/stm32g4xx_hal_fdcan.c **** 
 974:Drivers/STM32G4xx_HAL_Driver/Src/stm32g4xx_hal_fdcan.c **** /**
 975:Drivers/STM32G4xx_HAL_Driver/Src/stm32g4xx_hal_fdcan.c ****   * @brief  UnRegister the Rx Fifo 0 FDCAN Callback
 976:Drivers/STM32G4xx_HAL_Driver/Src/stm32g4xx_hal_fdcan.c ****   *         Rx Fifo 0 FDCAN Callback is redirected to the weak HAL_FDCAN_RxFifo0Callback() predefin
 977:Drivers/STM32G4xx_HAL_Driver/Src/stm32g4xx_hal_fdcan.c ****   * @param  hfdcan FDCAN handle
 978:Drivers/STM32G4xx_HAL_Driver/Src/stm32g4xx_hal_fdcan.c ****   * @retval HAL status
 979:Drivers/STM32G4xx_HAL_Driver/Src/stm32g4xx_hal_fdcan.c ****   */
 980:Drivers/STM32G4xx_HAL_Driver/Src/stm32g4xx_hal_fdcan.c **** HAL_StatusTypeDef HAL_FDCAN_UnRegisterRxFifo0Callback(FDCAN_HandleTypeDef *hfdcan)
 981:Drivers/STM32G4xx_HAL_Driver/Src/stm32g4xx_hal_fdcan.c **** {
 982:Drivers/STM32G4xx_HAL_Driver/Src/stm32g4xx_hal_fdcan.c ****   HAL_StatusTypeDef status = HAL_OK;
 983:Drivers/STM32G4xx_HAL_Driver/Src/stm32g4xx_hal_fdcan.c **** 
 984:Drivers/STM32G4xx_HAL_Driver/Src/stm32g4xx_hal_fdcan.c ****   if (hfdcan->State == HAL_FDCAN_STATE_READY)
 985:Drivers/STM32G4xx_HAL_Driver/Src/stm32g4xx_hal_fdcan.c ****   {
 986:Drivers/STM32G4xx_HAL_Driver/Src/stm32g4xx_hal_fdcan.c ****     hfdcan->RxFifo0Callback = HAL_FDCAN_RxFifo0Callback; /* Legacy weak RxFifo0Callback  */
 987:Drivers/STM32G4xx_HAL_Driver/Src/stm32g4xx_hal_fdcan.c ****   }
 988:Drivers/STM32G4xx_HAL_Driver/Src/stm32g4xx_hal_fdcan.c ****   else
 989:Drivers/STM32G4xx_HAL_Driver/Src/stm32g4xx_hal_fdcan.c ****   {
 990:Drivers/STM32G4xx_HAL_Driver/Src/stm32g4xx_hal_fdcan.c ****     /* Update the error code */
 991:Drivers/STM32G4xx_HAL_Driver/Src/stm32g4xx_hal_fdcan.c ****     hfdcan->ErrorCode |= HAL_FDCAN_ERROR_INVALID_CALLBACK;
 992:Drivers/STM32G4xx_HAL_Driver/Src/stm32g4xx_hal_fdcan.c **** 
 993:Drivers/STM32G4xx_HAL_Driver/Src/stm32g4xx_hal_fdcan.c ****     /* Return error status */
 994:Drivers/STM32G4xx_HAL_Driver/Src/stm32g4xx_hal_fdcan.c ****     status =  HAL_ERROR;
 995:Drivers/STM32G4xx_HAL_Driver/Src/stm32g4xx_hal_fdcan.c ****   }
 996:Drivers/STM32G4xx_HAL_Driver/Src/stm32g4xx_hal_fdcan.c **** 
 997:Drivers/STM32G4xx_HAL_Driver/Src/stm32g4xx_hal_fdcan.c ****   return status;
 998:Drivers/STM32G4xx_HAL_Driver/Src/stm32g4xx_hal_fdcan.c **** }
 999:Drivers/STM32G4xx_HAL_Driver/Src/stm32g4xx_hal_fdcan.c **** 
1000:Drivers/STM32G4xx_HAL_Driver/Src/stm32g4xx_hal_fdcan.c **** /**
1001:Drivers/STM32G4xx_HAL_Driver/Src/stm32g4xx_hal_fdcan.c ****   * @brief  Register Rx Fifo 1 FDCAN Callback
1002:Drivers/STM32G4xx_HAL_Driver/Src/stm32g4xx_hal_fdcan.c ****   *         To be used instead of the weak HAL_FDCAN_RxFifo1Callback() predefined callback
1003:Drivers/STM32G4xx_HAL_Driver/Src/stm32g4xx_hal_fdcan.c ****   * @param  hfdcan FDCAN handle
1004:Drivers/STM32G4xx_HAL_Driver/Src/stm32g4xx_hal_fdcan.c ****   * @param  pCallback pointer to the Rx Fifo 1 Callback function
1005:Drivers/STM32G4xx_HAL_Driver/Src/stm32g4xx_hal_fdcan.c ****   * @retval HAL status
1006:Drivers/STM32G4xx_HAL_Driver/Src/stm32g4xx_hal_fdcan.c ****   */
1007:Drivers/STM32G4xx_HAL_Driver/Src/stm32g4xx_hal_fdcan.c **** HAL_StatusTypeDef HAL_FDCAN_RegisterRxFifo1Callback(FDCAN_HandleTypeDef *hfdcan,
1008:Drivers/STM32G4xx_HAL_Driver/Src/stm32g4xx_hal_fdcan.c ****                                                     pFDCAN_RxFifo1CallbackTypeDef pCallback)
1009:Drivers/STM32G4xx_HAL_Driver/Src/stm32g4xx_hal_fdcan.c **** {
1010:Drivers/STM32G4xx_HAL_Driver/Src/stm32g4xx_hal_fdcan.c ****   HAL_StatusTypeDef status = HAL_OK;
1011:Drivers/STM32G4xx_HAL_Driver/Src/stm32g4xx_hal_fdcan.c **** 
1012:Drivers/STM32G4xx_HAL_Driver/Src/stm32g4xx_hal_fdcan.c ****   if (pCallback == NULL)
1013:Drivers/STM32G4xx_HAL_Driver/Src/stm32g4xx_hal_fdcan.c ****   {
1014:Drivers/STM32G4xx_HAL_Driver/Src/stm32g4xx_hal_fdcan.c ****     /* Update the error code */
1015:Drivers/STM32G4xx_HAL_Driver/Src/stm32g4xx_hal_fdcan.c ****     hfdcan->ErrorCode |= HAL_FDCAN_ERROR_INVALID_CALLBACK;
1016:Drivers/STM32G4xx_HAL_Driver/Src/stm32g4xx_hal_fdcan.c ****     return HAL_ERROR;
1017:Drivers/STM32G4xx_HAL_Driver/Src/stm32g4xx_hal_fdcan.c ****   }
1018:Drivers/STM32G4xx_HAL_Driver/Src/stm32g4xx_hal_fdcan.c **** 
1019:Drivers/STM32G4xx_HAL_Driver/Src/stm32g4xx_hal_fdcan.c ****   if (hfdcan->State == HAL_FDCAN_STATE_READY)
1020:Drivers/STM32G4xx_HAL_Driver/Src/stm32g4xx_hal_fdcan.c ****   {
1021:Drivers/STM32G4xx_HAL_Driver/Src/stm32g4xx_hal_fdcan.c ****     hfdcan->RxFifo1Callback = pCallback;
1022:Drivers/STM32G4xx_HAL_Driver/Src/stm32g4xx_hal_fdcan.c ****   }
1023:Drivers/STM32G4xx_HAL_Driver/Src/stm32g4xx_hal_fdcan.c ****   else
1024:Drivers/STM32G4xx_HAL_Driver/Src/stm32g4xx_hal_fdcan.c ****   {
1025:Drivers/STM32G4xx_HAL_Driver/Src/stm32g4xx_hal_fdcan.c ****     /* Update the error code */
1026:Drivers/STM32G4xx_HAL_Driver/Src/stm32g4xx_hal_fdcan.c ****     hfdcan->ErrorCode |= HAL_FDCAN_ERROR_INVALID_CALLBACK;
ARM GAS  C:\Users\AURORA~1\AppData\Local\Temp\ccEbooPs.s 			page 34


1027:Drivers/STM32G4xx_HAL_Driver/Src/stm32g4xx_hal_fdcan.c **** 
1028:Drivers/STM32G4xx_HAL_Driver/Src/stm32g4xx_hal_fdcan.c ****     /* Return error status */
1029:Drivers/STM32G4xx_HAL_Driver/Src/stm32g4xx_hal_fdcan.c ****     status =  HAL_ERROR;
1030:Drivers/STM32G4xx_HAL_Driver/Src/stm32g4xx_hal_fdcan.c ****   }
1031:Drivers/STM32G4xx_HAL_Driver/Src/stm32g4xx_hal_fdcan.c **** 
1032:Drivers/STM32G4xx_HAL_Driver/Src/stm32g4xx_hal_fdcan.c ****   return status;
1033:Drivers/STM32G4xx_HAL_Driver/Src/stm32g4xx_hal_fdcan.c **** }
1034:Drivers/STM32G4xx_HAL_Driver/Src/stm32g4xx_hal_fdcan.c **** 
1035:Drivers/STM32G4xx_HAL_Driver/Src/stm32g4xx_hal_fdcan.c **** /**
1036:Drivers/STM32G4xx_HAL_Driver/Src/stm32g4xx_hal_fdcan.c ****   * @brief  UnRegister the Rx Fifo 1 FDCAN Callback
1037:Drivers/STM32G4xx_HAL_Driver/Src/stm32g4xx_hal_fdcan.c ****   *         Rx Fifo 1 FDCAN Callback is redirected to the weak HAL_FDCAN_RxFifo1Callback() predefin
1038:Drivers/STM32G4xx_HAL_Driver/Src/stm32g4xx_hal_fdcan.c ****   * @param  hfdcan FDCAN handle
1039:Drivers/STM32G4xx_HAL_Driver/Src/stm32g4xx_hal_fdcan.c ****   * @retval HAL status
1040:Drivers/STM32G4xx_HAL_Driver/Src/stm32g4xx_hal_fdcan.c ****   */
1041:Drivers/STM32G4xx_HAL_Driver/Src/stm32g4xx_hal_fdcan.c **** HAL_StatusTypeDef HAL_FDCAN_UnRegisterRxFifo1Callback(FDCAN_HandleTypeDef *hfdcan)
1042:Drivers/STM32G4xx_HAL_Driver/Src/stm32g4xx_hal_fdcan.c **** {
1043:Drivers/STM32G4xx_HAL_Driver/Src/stm32g4xx_hal_fdcan.c ****   HAL_StatusTypeDef status = HAL_OK;
1044:Drivers/STM32G4xx_HAL_Driver/Src/stm32g4xx_hal_fdcan.c **** 
1045:Drivers/STM32G4xx_HAL_Driver/Src/stm32g4xx_hal_fdcan.c ****   if (hfdcan->State == HAL_FDCAN_STATE_READY)
1046:Drivers/STM32G4xx_HAL_Driver/Src/stm32g4xx_hal_fdcan.c ****   {
1047:Drivers/STM32G4xx_HAL_Driver/Src/stm32g4xx_hal_fdcan.c ****     hfdcan->RxFifo1Callback = HAL_FDCAN_RxFifo1Callback; /* Legacy weak RxFifo1Callback  */
1048:Drivers/STM32G4xx_HAL_Driver/Src/stm32g4xx_hal_fdcan.c ****   }
1049:Drivers/STM32G4xx_HAL_Driver/Src/stm32g4xx_hal_fdcan.c ****   else
1050:Drivers/STM32G4xx_HAL_Driver/Src/stm32g4xx_hal_fdcan.c ****   {
1051:Drivers/STM32G4xx_HAL_Driver/Src/stm32g4xx_hal_fdcan.c ****     /* Update the error code */
1052:Drivers/STM32G4xx_HAL_Driver/Src/stm32g4xx_hal_fdcan.c ****     hfdcan->ErrorCode |= HAL_FDCAN_ERROR_INVALID_CALLBACK;
1053:Drivers/STM32G4xx_HAL_Driver/Src/stm32g4xx_hal_fdcan.c **** 
1054:Drivers/STM32G4xx_HAL_Driver/Src/stm32g4xx_hal_fdcan.c ****     /* Return error status */
1055:Drivers/STM32G4xx_HAL_Driver/Src/stm32g4xx_hal_fdcan.c ****     status =  HAL_ERROR;
1056:Drivers/STM32G4xx_HAL_Driver/Src/stm32g4xx_hal_fdcan.c ****   }
1057:Drivers/STM32G4xx_HAL_Driver/Src/stm32g4xx_hal_fdcan.c **** 
1058:Drivers/STM32G4xx_HAL_Driver/Src/stm32g4xx_hal_fdcan.c ****   return status;
1059:Drivers/STM32G4xx_HAL_Driver/Src/stm32g4xx_hal_fdcan.c **** }
1060:Drivers/STM32G4xx_HAL_Driver/Src/stm32g4xx_hal_fdcan.c **** 
1061:Drivers/STM32G4xx_HAL_Driver/Src/stm32g4xx_hal_fdcan.c **** /**
1062:Drivers/STM32G4xx_HAL_Driver/Src/stm32g4xx_hal_fdcan.c ****   * @brief  Register Tx Buffer Complete FDCAN Callback
1063:Drivers/STM32G4xx_HAL_Driver/Src/stm32g4xx_hal_fdcan.c ****   *         To be used instead of the weak HAL_FDCAN_TxBufferCompleteCallback() predefined callback
1064:Drivers/STM32G4xx_HAL_Driver/Src/stm32g4xx_hal_fdcan.c ****   * @param  hfdcan FDCAN handle
1065:Drivers/STM32G4xx_HAL_Driver/Src/stm32g4xx_hal_fdcan.c ****   * @param  pCallback pointer to the Tx Buffer Complete Callback function
1066:Drivers/STM32G4xx_HAL_Driver/Src/stm32g4xx_hal_fdcan.c ****   * @retval HAL status
1067:Drivers/STM32G4xx_HAL_Driver/Src/stm32g4xx_hal_fdcan.c ****   */
1068:Drivers/STM32G4xx_HAL_Driver/Src/stm32g4xx_hal_fdcan.c **** HAL_StatusTypeDef HAL_FDCAN_RegisterTxBufferCompleteCallback(FDCAN_HandleTypeDef *hfdcan,
1069:Drivers/STM32G4xx_HAL_Driver/Src/stm32g4xx_hal_fdcan.c ****                                                              pFDCAN_TxBufferCompleteCallbackTypeDef
1070:Drivers/STM32G4xx_HAL_Driver/Src/stm32g4xx_hal_fdcan.c **** {
1071:Drivers/STM32G4xx_HAL_Driver/Src/stm32g4xx_hal_fdcan.c ****   HAL_StatusTypeDef status = HAL_OK;
1072:Drivers/STM32G4xx_HAL_Driver/Src/stm32g4xx_hal_fdcan.c **** 
1073:Drivers/STM32G4xx_HAL_Driver/Src/stm32g4xx_hal_fdcan.c ****   if (pCallback == NULL)
1074:Drivers/STM32G4xx_HAL_Driver/Src/stm32g4xx_hal_fdcan.c ****   {
1075:Drivers/STM32G4xx_HAL_Driver/Src/stm32g4xx_hal_fdcan.c ****     /* Update the error code */
1076:Drivers/STM32G4xx_HAL_Driver/Src/stm32g4xx_hal_fdcan.c ****     hfdcan->ErrorCode |= HAL_FDCAN_ERROR_INVALID_CALLBACK;
1077:Drivers/STM32G4xx_HAL_Driver/Src/stm32g4xx_hal_fdcan.c ****     return HAL_ERROR;
1078:Drivers/STM32G4xx_HAL_Driver/Src/stm32g4xx_hal_fdcan.c ****   }
1079:Drivers/STM32G4xx_HAL_Driver/Src/stm32g4xx_hal_fdcan.c **** 
1080:Drivers/STM32G4xx_HAL_Driver/Src/stm32g4xx_hal_fdcan.c ****   if (hfdcan->State == HAL_FDCAN_STATE_READY)
1081:Drivers/STM32G4xx_HAL_Driver/Src/stm32g4xx_hal_fdcan.c ****   {
1082:Drivers/STM32G4xx_HAL_Driver/Src/stm32g4xx_hal_fdcan.c ****     hfdcan->TxBufferCompleteCallback = pCallback;
1083:Drivers/STM32G4xx_HAL_Driver/Src/stm32g4xx_hal_fdcan.c ****   }
ARM GAS  C:\Users\AURORA~1\AppData\Local\Temp\ccEbooPs.s 			page 35


1084:Drivers/STM32G4xx_HAL_Driver/Src/stm32g4xx_hal_fdcan.c ****   else
1085:Drivers/STM32G4xx_HAL_Driver/Src/stm32g4xx_hal_fdcan.c ****   {
1086:Drivers/STM32G4xx_HAL_Driver/Src/stm32g4xx_hal_fdcan.c ****     /* Update the error code */
1087:Drivers/STM32G4xx_HAL_Driver/Src/stm32g4xx_hal_fdcan.c ****     hfdcan->ErrorCode |= HAL_FDCAN_ERROR_INVALID_CALLBACK;
1088:Drivers/STM32G4xx_HAL_Driver/Src/stm32g4xx_hal_fdcan.c **** 
1089:Drivers/STM32G4xx_HAL_Driver/Src/stm32g4xx_hal_fdcan.c ****     /* Return error status */
1090:Drivers/STM32G4xx_HAL_Driver/Src/stm32g4xx_hal_fdcan.c ****     status =  HAL_ERROR;
1091:Drivers/STM32G4xx_HAL_Driver/Src/stm32g4xx_hal_fdcan.c ****   }
1092:Drivers/STM32G4xx_HAL_Driver/Src/stm32g4xx_hal_fdcan.c **** 
1093:Drivers/STM32G4xx_HAL_Driver/Src/stm32g4xx_hal_fdcan.c ****   return status;
1094:Drivers/STM32G4xx_HAL_Driver/Src/stm32g4xx_hal_fdcan.c **** }
1095:Drivers/STM32G4xx_HAL_Driver/Src/stm32g4xx_hal_fdcan.c **** 
1096:Drivers/STM32G4xx_HAL_Driver/Src/stm32g4xx_hal_fdcan.c **** /**
1097:Drivers/STM32G4xx_HAL_Driver/Src/stm32g4xx_hal_fdcan.c ****   * @brief  UnRegister the Tx Buffer Complete FDCAN Callback
1098:Drivers/STM32G4xx_HAL_Driver/Src/stm32g4xx_hal_fdcan.c ****   *         Tx Buffer Complete FDCAN Callback is redirected to
1099:Drivers/STM32G4xx_HAL_Driver/Src/stm32g4xx_hal_fdcan.c ****   *         the weak HAL_FDCAN_TxBufferCompleteCallback() predefined callback
1100:Drivers/STM32G4xx_HAL_Driver/Src/stm32g4xx_hal_fdcan.c ****   * @param  hfdcan FDCAN handle
1101:Drivers/STM32G4xx_HAL_Driver/Src/stm32g4xx_hal_fdcan.c ****   * @retval HAL status
1102:Drivers/STM32G4xx_HAL_Driver/Src/stm32g4xx_hal_fdcan.c ****   */
1103:Drivers/STM32G4xx_HAL_Driver/Src/stm32g4xx_hal_fdcan.c **** HAL_StatusTypeDef HAL_FDCAN_UnRegisterTxBufferCompleteCallback(FDCAN_HandleTypeDef *hfdcan)
1104:Drivers/STM32G4xx_HAL_Driver/Src/stm32g4xx_hal_fdcan.c **** {
1105:Drivers/STM32G4xx_HAL_Driver/Src/stm32g4xx_hal_fdcan.c ****   HAL_StatusTypeDef status = HAL_OK;
1106:Drivers/STM32G4xx_HAL_Driver/Src/stm32g4xx_hal_fdcan.c **** 
1107:Drivers/STM32G4xx_HAL_Driver/Src/stm32g4xx_hal_fdcan.c ****   if (hfdcan->State == HAL_FDCAN_STATE_READY)
1108:Drivers/STM32G4xx_HAL_Driver/Src/stm32g4xx_hal_fdcan.c ****   {
1109:Drivers/STM32G4xx_HAL_Driver/Src/stm32g4xx_hal_fdcan.c ****     hfdcan->TxBufferCompleteCallback = HAL_FDCAN_TxBufferCompleteCallback; /* Legacy weak TxBufferC
1110:Drivers/STM32G4xx_HAL_Driver/Src/stm32g4xx_hal_fdcan.c ****   }
1111:Drivers/STM32G4xx_HAL_Driver/Src/stm32g4xx_hal_fdcan.c ****   else
1112:Drivers/STM32G4xx_HAL_Driver/Src/stm32g4xx_hal_fdcan.c ****   {
1113:Drivers/STM32G4xx_HAL_Driver/Src/stm32g4xx_hal_fdcan.c ****     /* Update the error code */
1114:Drivers/STM32G4xx_HAL_Driver/Src/stm32g4xx_hal_fdcan.c ****     hfdcan->ErrorCode |= HAL_FDCAN_ERROR_INVALID_CALLBACK;
1115:Drivers/STM32G4xx_HAL_Driver/Src/stm32g4xx_hal_fdcan.c **** 
1116:Drivers/STM32G4xx_HAL_Driver/Src/stm32g4xx_hal_fdcan.c ****     /* Return error status */
1117:Drivers/STM32G4xx_HAL_Driver/Src/stm32g4xx_hal_fdcan.c ****     status =  HAL_ERROR;
1118:Drivers/STM32G4xx_HAL_Driver/Src/stm32g4xx_hal_fdcan.c ****   }
1119:Drivers/STM32G4xx_HAL_Driver/Src/stm32g4xx_hal_fdcan.c **** 
1120:Drivers/STM32G4xx_HAL_Driver/Src/stm32g4xx_hal_fdcan.c ****   return status;
1121:Drivers/STM32G4xx_HAL_Driver/Src/stm32g4xx_hal_fdcan.c **** }
1122:Drivers/STM32G4xx_HAL_Driver/Src/stm32g4xx_hal_fdcan.c **** 
1123:Drivers/STM32G4xx_HAL_Driver/Src/stm32g4xx_hal_fdcan.c **** /**
1124:Drivers/STM32G4xx_HAL_Driver/Src/stm32g4xx_hal_fdcan.c ****   * @brief  Register Tx Buffer Abort FDCAN Callback
1125:Drivers/STM32G4xx_HAL_Driver/Src/stm32g4xx_hal_fdcan.c ****   *         To be used instead of the weak HAL_FDCAN_TxBufferAbortCallback() predefined callback
1126:Drivers/STM32G4xx_HAL_Driver/Src/stm32g4xx_hal_fdcan.c ****   * @param  hfdcan FDCAN handle
1127:Drivers/STM32G4xx_HAL_Driver/Src/stm32g4xx_hal_fdcan.c ****   * @param  pCallback pointer to the Tx Buffer Abort Callback function
1128:Drivers/STM32G4xx_HAL_Driver/Src/stm32g4xx_hal_fdcan.c ****   * @retval HAL status
1129:Drivers/STM32G4xx_HAL_Driver/Src/stm32g4xx_hal_fdcan.c ****   */
1130:Drivers/STM32G4xx_HAL_Driver/Src/stm32g4xx_hal_fdcan.c **** HAL_StatusTypeDef HAL_FDCAN_RegisterTxBufferAbortCallback(FDCAN_HandleTypeDef *hfdcan,
1131:Drivers/STM32G4xx_HAL_Driver/Src/stm32g4xx_hal_fdcan.c ****                                                           pFDCAN_TxBufferAbortCallbackTypeDef pCall
1132:Drivers/STM32G4xx_HAL_Driver/Src/stm32g4xx_hal_fdcan.c **** {
1133:Drivers/STM32G4xx_HAL_Driver/Src/stm32g4xx_hal_fdcan.c ****   HAL_StatusTypeDef status = HAL_OK;
1134:Drivers/STM32G4xx_HAL_Driver/Src/stm32g4xx_hal_fdcan.c **** 
1135:Drivers/STM32G4xx_HAL_Driver/Src/stm32g4xx_hal_fdcan.c ****   if (pCallback == NULL)
1136:Drivers/STM32G4xx_HAL_Driver/Src/stm32g4xx_hal_fdcan.c ****   {
1137:Drivers/STM32G4xx_HAL_Driver/Src/stm32g4xx_hal_fdcan.c ****     /* Update the error code */
1138:Drivers/STM32G4xx_HAL_Driver/Src/stm32g4xx_hal_fdcan.c ****     hfdcan->ErrorCode |= HAL_FDCAN_ERROR_INVALID_CALLBACK;
1139:Drivers/STM32G4xx_HAL_Driver/Src/stm32g4xx_hal_fdcan.c ****     return HAL_ERROR;
1140:Drivers/STM32G4xx_HAL_Driver/Src/stm32g4xx_hal_fdcan.c ****   }
ARM GAS  C:\Users\AURORA~1\AppData\Local\Temp\ccEbooPs.s 			page 36


1141:Drivers/STM32G4xx_HAL_Driver/Src/stm32g4xx_hal_fdcan.c **** 
1142:Drivers/STM32G4xx_HAL_Driver/Src/stm32g4xx_hal_fdcan.c ****   if (hfdcan->State == HAL_FDCAN_STATE_READY)
1143:Drivers/STM32G4xx_HAL_Driver/Src/stm32g4xx_hal_fdcan.c ****   {
1144:Drivers/STM32G4xx_HAL_Driver/Src/stm32g4xx_hal_fdcan.c ****     hfdcan->TxBufferAbortCallback = pCallback;
1145:Drivers/STM32G4xx_HAL_Driver/Src/stm32g4xx_hal_fdcan.c ****   }
1146:Drivers/STM32G4xx_HAL_Driver/Src/stm32g4xx_hal_fdcan.c ****   else
1147:Drivers/STM32G4xx_HAL_Driver/Src/stm32g4xx_hal_fdcan.c ****   {
1148:Drivers/STM32G4xx_HAL_Driver/Src/stm32g4xx_hal_fdcan.c ****     /* Update the error code */
1149:Drivers/STM32G4xx_HAL_Driver/Src/stm32g4xx_hal_fdcan.c ****     hfdcan->ErrorCode |= HAL_FDCAN_ERROR_INVALID_CALLBACK;
1150:Drivers/STM32G4xx_HAL_Driver/Src/stm32g4xx_hal_fdcan.c **** 
1151:Drivers/STM32G4xx_HAL_Driver/Src/stm32g4xx_hal_fdcan.c ****     /* Return error status */
1152:Drivers/STM32G4xx_HAL_Driver/Src/stm32g4xx_hal_fdcan.c ****     status =  HAL_ERROR;
1153:Drivers/STM32G4xx_HAL_Driver/Src/stm32g4xx_hal_fdcan.c ****   }
1154:Drivers/STM32G4xx_HAL_Driver/Src/stm32g4xx_hal_fdcan.c **** 
1155:Drivers/STM32G4xx_HAL_Driver/Src/stm32g4xx_hal_fdcan.c ****   return status;
1156:Drivers/STM32G4xx_HAL_Driver/Src/stm32g4xx_hal_fdcan.c **** }
1157:Drivers/STM32G4xx_HAL_Driver/Src/stm32g4xx_hal_fdcan.c **** 
1158:Drivers/STM32G4xx_HAL_Driver/Src/stm32g4xx_hal_fdcan.c **** /**
1159:Drivers/STM32G4xx_HAL_Driver/Src/stm32g4xx_hal_fdcan.c ****   * @brief  UnRegister the Tx Buffer Abort FDCAN Callback
1160:Drivers/STM32G4xx_HAL_Driver/Src/stm32g4xx_hal_fdcan.c ****   *         Tx Buffer Abort FDCAN Callback is redirected to
1161:Drivers/STM32G4xx_HAL_Driver/Src/stm32g4xx_hal_fdcan.c ****   *         the weak HAL_FDCAN_TxBufferAbortCallback() predefined callback
1162:Drivers/STM32G4xx_HAL_Driver/Src/stm32g4xx_hal_fdcan.c ****   * @param  hfdcan FDCAN handle
1163:Drivers/STM32G4xx_HAL_Driver/Src/stm32g4xx_hal_fdcan.c ****   * @retval HAL status
1164:Drivers/STM32G4xx_HAL_Driver/Src/stm32g4xx_hal_fdcan.c ****   */
1165:Drivers/STM32G4xx_HAL_Driver/Src/stm32g4xx_hal_fdcan.c **** HAL_StatusTypeDef HAL_FDCAN_UnRegisterTxBufferAbortCallback(FDCAN_HandleTypeDef *hfdcan)
1166:Drivers/STM32G4xx_HAL_Driver/Src/stm32g4xx_hal_fdcan.c **** {
1167:Drivers/STM32G4xx_HAL_Driver/Src/stm32g4xx_hal_fdcan.c ****   HAL_StatusTypeDef status = HAL_OK;
1168:Drivers/STM32G4xx_HAL_Driver/Src/stm32g4xx_hal_fdcan.c **** 
1169:Drivers/STM32G4xx_HAL_Driver/Src/stm32g4xx_hal_fdcan.c ****   if (hfdcan->State == HAL_FDCAN_STATE_READY)
1170:Drivers/STM32G4xx_HAL_Driver/Src/stm32g4xx_hal_fdcan.c ****   {
1171:Drivers/STM32G4xx_HAL_Driver/Src/stm32g4xx_hal_fdcan.c ****     hfdcan->TxBufferAbortCallback = HAL_FDCAN_TxBufferAbortCallback; /* Legacy weak TxBufferAbortCa
1172:Drivers/STM32G4xx_HAL_Driver/Src/stm32g4xx_hal_fdcan.c ****   }
1173:Drivers/STM32G4xx_HAL_Driver/Src/stm32g4xx_hal_fdcan.c ****   else
1174:Drivers/STM32G4xx_HAL_Driver/Src/stm32g4xx_hal_fdcan.c ****   {
1175:Drivers/STM32G4xx_HAL_Driver/Src/stm32g4xx_hal_fdcan.c ****     /* Update the error code */
1176:Drivers/STM32G4xx_HAL_Driver/Src/stm32g4xx_hal_fdcan.c ****     hfdcan->ErrorCode |= HAL_FDCAN_ERROR_INVALID_CALLBACK;
1177:Drivers/STM32G4xx_HAL_Driver/Src/stm32g4xx_hal_fdcan.c **** 
1178:Drivers/STM32G4xx_HAL_Driver/Src/stm32g4xx_hal_fdcan.c ****     /* Return error status */
1179:Drivers/STM32G4xx_HAL_Driver/Src/stm32g4xx_hal_fdcan.c ****     status =  HAL_ERROR;
1180:Drivers/STM32G4xx_HAL_Driver/Src/stm32g4xx_hal_fdcan.c ****   }
1181:Drivers/STM32G4xx_HAL_Driver/Src/stm32g4xx_hal_fdcan.c **** 
1182:Drivers/STM32G4xx_HAL_Driver/Src/stm32g4xx_hal_fdcan.c ****   return status;
1183:Drivers/STM32G4xx_HAL_Driver/Src/stm32g4xx_hal_fdcan.c **** }
1184:Drivers/STM32G4xx_HAL_Driver/Src/stm32g4xx_hal_fdcan.c **** 
1185:Drivers/STM32G4xx_HAL_Driver/Src/stm32g4xx_hal_fdcan.c **** /**
1186:Drivers/STM32G4xx_HAL_Driver/Src/stm32g4xx_hal_fdcan.c ****   * @brief  Register Error Status FDCAN Callback
1187:Drivers/STM32G4xx_HAL_Driver/Src/stm32g4xx_hal_fdcan.c ****   *         To be used instead of the weak HAL_FDCAN_ErrorStatusCallback() predefined callback
1188:Drivers/STM32G4xx_HAL_Driver/Src/stm32g4xx_hal_fdcan.c ****   * @param  hfdcan FDCAN handle
1189:Drivers/STM32G4xx_HAL_Driver/Src/stm32g4xx_hal_fdcan.c ****   * @param  pCallback pointer to the Error Status Callback function
1190:Drivers/STM32G4xx_HAL_Driver/Src/stm32g4xx_hal_fdcan.c ****   * @retval HAL status
1191:Drivers/STM32G4xx_HAL_Driver/Src/stm32g4xx_hal_fdcan.c ****   */
1192:Drivers/STM32G4xx_HAL_Driver/Src/stm32g4xx_hal_fdcan.c **** HAL_StatusTypeDef HAL_FDCAN_RegisterErrorStatusCallback(FDCAN_HandleTypeDef *hfdcan,
1193:Drivers/STM32G4xx_HAL_Driver/Src/stm32g4xx_hal_fdcan.c ****                                                         pFDCAN_ErrorStatusCallbackTypeDef pCallback
1194:Drivers/STM32G4xx_HAL_Driver/Src/stm32g4xx_hal_fdcan.c **** {
1195:Drivers/STM32G4xx_HAL_Driver/Src/stm32g4xx_hal_fdcan.c ****   HAL_StatusTypeDef status = HAL_OK;
1196:Drivers/STM32G4xx_HAL_Driver/Src/stm32g4xx_hal_fdcan.c **** 
1197:Drivers/STM32G4xx_HAL_Driver/Src/stm32g4xx_hal_fdcan.c ****   if (pCallback == NULL)
ARM GAS  C:\Users\AURORA~1\AppData\Local\Temp\ccEbooPs.s 			page 37


1198:Drivers/STM32G4xx_HAL_Driver/Src/stm32g4xx_hal_fdcan.c ****   {
1199:Drivers/STM32G4xx_HAL_Driver/Src/stm32g4xx_hal_fdcan.c ****     /* Update the error code */
1200:Drivers/STM32G4xx_HAL_Driver/Src/stm32g4xx_hal_fdcan.c ****     hfdcan->ErrorCode |= HAL_FDCAN_ERROR_INVALID_CALLBACK;
1201:Drivers/STM32G4xx_HAL_Driver/Src/stm32g4xx_hal_fdcan.c ****     return HAL_ERROR;
1202:Drivers/STM32G4xx_HAL_Driver/Src/stm32g4xx_hal_fdcan.c ****   }
1203:Drivers/STM32G4xx_HAL_Driver/Src/stm32g4xx_hal_fdcan.c **** 
1204:Drivers/STM32G4xx_HAL_Driver/Src/stm32g4xx_hal_fdcan.c ****   if (hfdcan->State == HAL_FDCAN_STATE_READY)
1205:Drivers/STM32G4xx_HAL_Driver/Src/stm32g4xx_hal_fdcan.c ****   {
1206:Drivers/STM32G4xx_HAL_Driver/Src/stm32g4xx_hal_fdcan.c ****     hfdcan->ErrorStatusCallback = pCallback;
1207:Drivers/STM32G4xx_HAL_Driver/Src/stm32g4xx_hal_fdcan.c ****   }
1208:Drivers/STM32G4xx_HAL_Driver/Src/stm32g4xx_hal_fdcan.c ****   else
1209:Drivers/STM32G4xx_HAL_Driver/Src/stm32g4xx_hal_fdcan.c ****   {
1210:Drivers/STM32G4xx_HAL_Driver/Src/stm32g4xx_hal_fdcan.c ****     /* Update the error code */
1211:Drivers/STM32G4xx_HAL_Driver/Src/stm32g4xx_hal_fdcan.c ****     hfdcan->ErrorCode |= HAL_FDCAN_ERROR_INVALID_CALLBACK;
1212:Drivers/STM32G4xx_HAL_Driver/Src/stm32g4xx_hal_fdcan.c **** 
1213:Drivers/STM32G4xx_HAL_Driver/Src/stm32g4xx_hal_fdcan.c ****     /* Return error status */
1214:Drivers/STM32G4xx_HAL_Driver/Src/stm32g4xx_hal_fdcan.c ****     status =  HAL_ERROR;
1215:Drivers/STM32G4xx_HAL_Driver/Src/stm32g4xx_hal_fdcan.c ****   }
1216:Drivers/STM32G4xx_HAL_Driver/Src/stm32g4xx_hal_fdcan.c **** 
1217:Drivers/STM32G4xx_HAL_Driver/Src/stm32g4xx_hal_fdcan.c ****   return status;
1218:Drivers/STM32G4xx_HAL_Driver/Src/stm32g4xx_hal_fdcan.c **** }
1219:Drivers/STM32G4xx_HAL_Driver/Src/stm32g4xx_hal_fdcan.c **** 
1220:Drivers/STM32G4xx_HAL_Driver/Src/stm32g4xx_hal_fdcan.c **** /**
1221:Drivers/STM32G4xx_HAL_Driver/Src/stm32g4xx_hal_fdcan.c ****   * @brief  UnRegister the Error Status FDCAN Callback
1222:Drivers/STM32G4xx_HAL_Driver/Src/stm32g4xx_hal_fdcan.c ****   *         Error Status FDCAN Callback is redirected to the weak HAL_FDCAN_ErrorStatusCallback() p
1223:Drivers/STM32G4xx_HAL_Driver/Src/stm32g4xx_hal_fdcan.c ****   * @param  hfdcan FDCAN handle
1224:Drivers/STM32G4xx_HAL_Driver/Src/stm32g4xx_hal_fdcan.c ****   * @retval HAL status
1225:Drivers/STM32G4xx_HAL_Driver/Src/stm32g4xx_hal_fdcan.c ****   */
1226:Drivers/STM32G4xx_HAL_Driver/Src/stm32g4xx_hal_fdcan.c **** HAL_StatusTypeDef HAL_FDCAN_UnRegisterErrorStatusCallback(FDCAN_HandleTypeDef *hfdcan)
1227:Drivers/STM32G4xx_HAL_Driver/Src/stm32g4xx_hal_fdcan.c **** {
1228:Drivers/STM32G4xx_HAL_Driver/Src/stm32g4xx_hal_fdcan.c ****   HAL_StatusTypeDef status = HAL_OK;
1229:Drivers/STM32G4xx_HAL_Driver/Src/stm32g4xx_hal_fdcan.c **** 
1230:Drivers/STM32G4xx_HAL_Driver/Src/stm32g4xx_hal_fdcan.c ****   if (hfdcan->State == HAL_FDCAN_STATE_READY)
1231:Drivers/STM32G4xx_HAL_Driver/Src/stm32g4xx_hal_fdcan.c ****   {
1232:Drivers/STM32G4xx_HAL_Driver/Src/stm32g4xx_hal_fdcan.c ****     hfdcan->ErrorStatusCallback = HAL_FDCAN_ErrorStatusCallback; /* Legacy weak ErrorStatusCallback
1233:Drivers/STM32G4xx_HAL_Driver/Src/stm32g4xx_hal_fdcan.c ****   }
1234:Drivers/STM32G4xx_HAL_Driver/Src/stm32g4xx_hal_fdcan.c ****   else
1235:Drivers/STM32G4xx_HAL_Driver/Src/stm32g4xx_hal_fdcan.c ****   {
1236:Drivers/STM32G4xx_HAL_Driver/Src/stm32g4xx_hal_fdcan.c ****     /* Update the error code */
1237:Drivers/STM32G4xx_HAL_Driver/Src/stm32g4xx_hal_fdcan.c ****     hfdcan->ErrorCode |= HAL_FDCAN_ERROR_INVALID_CALLBACK;
1238:Drivers/STM32G4xx_HAL_Driver/Src/stm32g4xx_hal_fdcan.c **** 
1239:Drivers/STM32G4xx_HAL_Driver/Src/stm32g4xx_hal_fdcan.c ****     /* Return error status */
1240:Drivers/STM32G4xx_HAL_Driver/Src/stm32g4xx_hal_fdcan.c ****     status =  HAL_ERROR;
1241:Drivers/STM32G4xx_HAL_Driver/Src/stm32g4xx_hal_fdcan.c ****   }
1242:Drivers/STM32G4xx_HAL_Driver/Src/stm32g4xx_hal_fdcan.c **** 
1243:Drivers/STM32G4xx_HAL_Driver/Src/stm32g4xx_hal_fdcan.c ****   return status;
1244:Drivers/STM32G4xx_HAL_Driver/Src/stm32g4xx_hal_fdcan.c **** }
1245:Drivers/STM32G4xx_HAL_Driver/Src/stm32g4xx_hal_fdcan.c **** 
1246:Drivers/STM32G4xx_HAL_Driver/Src/stm32g4xx_hal_fdcan.c **** #endif /* USE_HAL_FDCAN_REGISTER_CALLBACKS */
1247:Drivers/STM32G4xx_HAL_Driver/Src/stm32g4xx_hal_fdcan.c **** 
1248:Drivers/STM32G4xx_HAL_Driver/Src/stm32g4xx_hal_fdcan.c **** /**
1249:Drivers/STM32G4xx_HAL_Driver/Src/stm32g4xx_hal_fdcan.c ****   * @}
1250:Drivers/STM32G4xx_HAL_Driver/Src/stm32g4xx_hal_fdcan.c ****   */
1251:Drivers/STM32G4xx_HAL_Driver/Src/stm32g4xx_hal_fdcan.c **** 
1252:Drivers/STM32G4xx_HAL_Driver/Src/stm32g4xx_hal_fdcan.c **** /** @defgroup FDCAN_Exported_Functions_Group2 Configuration functions
1253:Drivers/STM32G4xx_HAL_Driver/Src/stm32g4xx_hal_fdcan.c ****   *  @brief    FDCAN Configuration functions.
1254:Drivers/STM32G4xx_HAL_Driver/Src/stm32g4xx_hal_fdcan.c ****   *
ARM GAS  C:\Users\AURORA~1\AppData\Local\Temp\ccEbooPs.s 			page 38


1255:Drivers/STM32G4xx_HAL_Driver/Src/stm32g4xx_hal_fdcan.c **** @verbatim
1256:Drivers/STM32G4xx_HAL_Driver/Src/stm32g4xx_hal_fdcan.c ****   ==============================================================================
1257:Drivers/STM32G4xx_HAL_Driver/Src/stm32g4xx_hal_fdcan.c ****               ##### Configuration functions #####
1258:Drivers/STM32G4xx_HAL_Driver/Src/stm32g4xx_hal_fdcan.c ****   ==============================================================================
1259:Drivers/STM32G4xx_HAL_Driver/Src/stm32g4xx_hal_fdcan.c ****     [..]  This section provides functions allowing to:
1260:Drivers/STM32G4xx_HAL_Driver/Src/stm32g4xx_hal_fdcan.c ****       (+) HAL_FDCAN_ConfigFilter                  : Configure the FDCAN reception filters
1261:Drivers/STM32G4xx_HAL_Driver/Src/stm32g4xx_hal_fdcan.c ****       (+) HAL_FDCAN_ConfigGlobalFilter            : Configure the FDCAN global filter
1262:Drivers/STM32G4xx_HAL_Driver/Src/stm32g4xx_hal_fdcan.c ****       (+) HAL_FDCAN_ConfigExtendedIdMask          : Configure the extended ID mask
1263:Drivers/STM32G4xx_HAL_Driver/Src/stm32g4xx_hal_fdcan.c ****       (+) HAL_FDCAN_ConfigRxFifoOverwrite         : Configure the Rx FIFO operation mode
1264:Drivers/STM32G4xx_HAL_Driver/Src/stm32g4xx_hal_fdcan.c ****       (+) HAL_FDCAN_ConfigRamWatchdog             : Configure the RAM watchdog
1265:Drivers/STM32G4xx_HAL_Driver/Src/stm32g4xx_hal_fdcan.c ****       (+) HAL_FDCAN_ConfigTimestampCounter        : Configure the timestamp counter
1266:Drivers/STM32G4xx_HAL_Driver/Src/stm32g4xx_hal_fdcan.c ****         (+) HAL_FDCAN_EnableTimestampCounter        : Enable the timestamp counter
1267:Drivers/STM32G4xx_HAL_Driver/Src/stm32g4xx_hal_fdcan.c ****         (+) HAL_FDCAN_DisableTimestampCounter       : Disable the timestamp counter
1268:Drivers/STM32G4xx_HAL_Driver/Src/stm32g4xx_hal_fdcan.c ****         (+) HAL_FDCAN_GetTimestampCounter           : Get the timestamp counter value
1269:Drivers/STM32G4xx_HAL_Driver/Src/stm32g4xx_hal_fdcan.c ****         (+) HAL_FDCAN_ResetTimestampCounter         : Reset the timestamp counter to zero
1270:Drivers/STM32G4xx_HAL_Driver/Src/stm32g4xx_hal_fdcan.c ****       (+) HAL_FDCAN_ConfigTimeoutCounter          : Configure the timeout counter
1271:Drivers/STM32G4xx_HAL_Driver/Src/stm32g4xx_hal_fdcan.c ****         (+) HAL_FDCAN_EnableTimeoutCounter          : Enable the timeout counter
1272:Drivers/STM32G4xx_HAL_Driver/Src/stm32g4xx_hal_fdcan.c ****         (+) HAL_FDCAN_DisableTimeoutCounter         : Disable the timeout counter
1273:Drivers/STM32G4xx_HAL_Driver/Src/stm32g4xx_hal_fdcan.c ****         (+) HAL_FDCAN_GetTimeoutCounter             : Get the timeout counter value
1274:Drivers/STM32G4xx_HAL_Driver/Src/stm32g4xx_hal_fdcan.c ****         (+) HAL_FDCAN_ResetTimeoutCounter           : Reset the timeout counter to its start value
1275:Drivers/STM32G4xx_HAL_Driver/Src/stm32g4xx_hal_fdcan.c ****       (+) HAL_FDCAN_ConfigTxDelayCompensation     : Configure the transmitter delay compensation
1276:Drivers/STM32G4xx_HAL_Driver/Src/stm32g4xx_hal_fdcan.c ****         (+) HAL_FDCAN_EnableTxDelayCompensation     : Enable the transmitter delay compensation
1277:Drivers/STM32G4xx_HAL_Driver/Src/stm32g4xx_hal_fdcan.c ****         (+) HAL_FDCAN_DisableTxDelayCompensation    : Disable the transmitter delay compensation
1278:Drivers/STM32G4xx_HAL_Driver/Src/stm32g4xx_hal_fdcan.c ****       (+) HAL_FDCAN_EnableISOMode                 : Enable ISO 11898-1 protocol mode
1279:Drivers/STM32G4xx_HAL_Driver/Src/stm32g4xx_hal_fdcan.c ****       (+) HAL_FDCAN_DisableISOMode                : Disable ISO 11898-1 protocol mode
1280:Drivers/STM32G4xx_HAL_Driver/Src/stm32g4xx_hal_fdcan.c ****       (+) HAL_FDCAN_EnableEdgeFiltering           : Enable edge filtering during bus integration
1281:Drivers/STM32G4xx_HAL_Driver/Src/stm32g4xx_hal_fdcan.c ****       (+) HAL_FDCAN_DisableEdgeFiltering          : Disable edge filtering during bus integration
1282:Drivers/STM32G4xx_HAL_Driver/Src/stm32g4xx_hal_fdcan.c **** 
1283:Drivers/STM32G4xx_HAL_Driver/Src/stm32g4xx_hal_fdcan.c **** @endverbatim
1284:Drivers/STM32G4xx_HAL_Driver/Src/stm32g4xx_hal_fdcan.c ****   * @{
1285:Drivers/STM32G4xx_HAL_Driver/Src/stm32g4xx_hal_fdcan.c ****   */
1286:Drivers/STM32G4xx_HAL_Driver/Src/stm32g4xx_hal_fdcan.c **** 
1287:Drivers/STM32G4xx_HAL_Driver/Src/stm32g4xx_hal_fdcan.c **** /**
1288:Drivers/STM32G4xx_HAL_Driver/Src/stm32g4xx_hal_fdcan.c ****   * @brief  Configure the FDCAN reception filter according to the specified
1289:Drivers/STM32G4xx_HAL_Driver/Src/stm32g4xx_hal_fdcan.c ****   *         parameters in the FDCAN_FilterTypeDef structure.
1290:Drivers/STM32G4xx_HAL_Driver/Src/stm32g4xx_hal_fdcan.c ****   * @param  hfdcan pointer to an FDCAN_HandleTypeDef structure that contains
1291:Drivers/STM32G4xx_HAL_Driver/Src/stm32g4xx_hal_fdcan.c ****   *         the configuration information for the specified FDCAN.
1292:Drivers/STM32G4xx_HAL_Driver/Src/stm32g4xx_hal_fdcan.c ****   * @param  sFilterConfig pointer to an FDCAN_FilterTypeDef structure that
1293:Drivers/STM32G4xx_HAL_Driver/Src/stm32g4xx_hal_fdcan.c ****   *         contains the filter configuration information
1294:Drivers/STM32G4xx_HAL_Driver/Src/stm32g4xx_hal_fdcan.c ****   * @retval HAL status
1295:Drivers/STM32G4xx_HAL_Driver/Src/stm32g4xx_hal_fdcan.c ****   */
1296:Drivers/STM32G4xx_HAL_Driver/Src/stm32g4xx_hal_fdcan.c **** HAL_StatusTypeDef HAL_FDCAN_ConfigFilter(FDCAN_HandleTypeDef *hfdcan, const FDCAN_FilterTypeDef *sF
1297:Drivers/STM32G4xx_HAL_Driver/Src/stm32g4xx_hal_fdcan.c **** {
 842              		.loc 1 1297 1
 843              		.cfi_startproc
 844              		@ args = 0, pretend = 0, frame = 24
 845              		@ frame_needed = 1, uses_anonymous_args = 0
 846              		@ link register save eliminated.
 847 0000 80B4     		push	{r7}
 848              	.LCFI32:
 849              		.cfi_def_cfa_offset 4
 850              		.cfi_offset 7, -4
 851 0002 87B0     		sub	sp, sp, #28
 852              	.LCFI33:
 853              		.cfi_def_cfa_offset 32
 854 0004 00AF     		add	r7, sp, #0
 855              	.LCFI34:
ARM GAS  C:\Users\AURORA~1\AppData\Local\Temp\ccEbooPs.s 			page 39


 856              		.cfi_def_cfa_register 7
 857 0006 7860     		str	r0, [r7, #4]
 858 0008 3960     		str	r1, [r7]
1298:Drivers/STM32G4xx_HAL_Driver/Src/stm32g4xx_hal_fdcan.c ****   uint32_t FilterElementW1;
1299:Drivers/STM32G4xx_HAL_Driver/Src/stm32g4xx_hal_fdcan.c ****   uint32_t FilterElementW2;
1300:Drivers/STM32G4xx_HAL_Driver/Src/stm32g4xx_hal_fdcan.c ****   uint32_t *FilterAddress;
1301:Drivers/STM32G4xx_HAL_Driver/Src/stm32g4xx_hal_fdcan.c ****   HAL_FDCAN_StateTypeDef state = hfdcan->State;
 859              		.loc 1 1301 26
 860 000a 7B68     		ldr	r3, [r7, #4]
 861 000c 93F85C30 		ldrb	r3, [r3, #92]
 862 0010 FB75     		strb	r3, [r7, #23]
1302:Drivers/STM32G4xx_HAL_Driver/Src/stm32g4xx_hal_fdcan.c **** 
1303:Drivers/STM32G4xx_HAL_Driver/Src/stm32g4xx_hal_fdcan.c ****   if ((state == HAL_FDCAN_STATE_READY) || (state == HAL_FDCAN_STATE_BUSY))
 863              		.loc 1 1303 6
 864 0012 FB7D     		ldrb	r3, [r7, #23]	@ zero_extendqisi2
 865 0014 012B     		cmp	r3, #1
 866 0016 02D0     		beq	.L36
 867              		.loc 1 1303 40 discriminator 1
 868 0018 FB7D     		ldrb	r3, [r7, #23]	@ zero_extendqisi2
 869 001a 022B     		cmp	r3, #2
 870 001c 3DD1     		bne	.L37
 871              	.L36:
1304:Drivers/STM32G4xx_HAL_Driver/Src/stm32g4xx_hal_fdcan.c ****   {
1305:Drivers/STM32G4xx_HAL_Driver/Src/stm32g4xx_hal_fdcan.c ****     /* Check function parameters */
1306:Drivers/STM32G4xx_HAL_Driver/Src/stm32g4xx_hal_fdcan.c ****     assert_param(IS_FDCAN_ID_TYPE(sFilterConfig->IdType));
1307:Drivers/STM32G4xx_HAL_Driver/Src/stm32g4xx_hal_fdcan.c ****     assert_param(IS_FDCAN_FILTER_CFG(sFilterConfig->FilterConfig));
1308:Drivers/STM32G4xx_HAL_Driver/Src/stm32g4xx_hal_fdcan.c **** 
1309:Drivers/STM32G4xx_HAL_Driver/Src/stm32g4xx_hal_fdcan.c ****     if (sFilterConfig->IdType == FDCAN_STANDARD_ID)
 872              		.loc 1 1309 22
 873 001e 3B68     		ldr	r3, [r7]
 874 0020 1B68     		ldr	r3, [r3]
 875              		.loc 1 1309 8
 876 0022 002B     		cmp	r3, #0
 877 0024 19D1     		bne	.L38
1310:Drivers/STM32G4xx_HAL_Driver/Src/stm32g4xx_hal_fdcan.c ****     {
1311:Drivers/STM32G4xx_HAL_Driver/Src/stm32g4xx_hal_fdcan.c ****       /* Check function parameters */
1312:Drivers/STM32G4xx_HAL_Driver/Src/stm32g4xx_hal_fdcan.c ****       assert_param(IS_FDCAN_MAX_VALUE(sFilterConfig->FilterIndex, (hfdcan->Init.StdFiltersNbr - 1U)
1313:Drivers/STM32G4xx_HAL_Driver/Src/stm32g4xx_hal_fdcan.c ****       assert_param(IS_FDCAN_MAX_VALUE(sFilterConfig->FilterID1, 0x7FFU));
1314:Drivers/STM32G4xx_HAL_Driver/Src/stm32g4xx_hal_fdcan.c ****       assert_param(IS_FDCAN_MAX_VALUE(sFilterConfig->FilterID2, 0x7FFU));
1315:Drivers/STM32G4xx_HAL_Driver/Src/stm32g4xx_hal_fdcan.c ****       assert_param(IS_FDCAN_STD_FILTER_TYPE(sFilterConfig->FilterType));
1316:Drivers/STM32G4xx_HAL_Driver/Src/stm32g4xx_hal_fdcan.c **** 
1317:Drivers/STM32G4xx_HAL_Driver/Src/stm32g4xx_hal_fdcan.c ****       /* Build filter element */
1318:Drivers/STM32G4xx_HAL_Driver/Src/stm32g4xx_hal_fdcan.c ****       FilterElementW1 = ((sFilterConfig->FilterType << 30U)   |
 878              		.loc 1 1318 40
 879 0026 3B68     		ldr	r3, [r7]
 880 0028 9B68     		ldr	r3, [r3, #8]
 881              		.loc 1 1318 53
 882 002a 9A07     		lsls	r2, r3, #30
1319:Drivers/STM32G4xx_HAL_Driver/Src/stm32g4xx_hal_fdcan.c ****                          (sFilterConfig->FilterConfig << 27U) |
 883              		.loc 1 1319 40
 884 002c 3B68     		ldr	r3, [r7]
 885 002e DB68     		ldr	r3, [r3, #12]
 886              		.loc 1 1319 55
 887 0030 DB06     		lsls	r3, r3, #27
1318:Drivers/STM32G4xx_HAL_Driver/Src/stm32g4xx_hal_fdcan.c ****                          (sFilterConfig->FilterConfig << 27U) |
 888              		.loc 1 1318 63
 889 0032 1A43     		orrs	r2, r2, r3
ARM GAS  C:\Users\AURORA~1\AppData\Local\Temp\ccEbooPs.s 			page 40


1320:Drivers/STM32G4xx_HAL_Driver/Src/stm32g4xx_hal_fdcan.c ****                          (sFilterConfig->FilterID1 << 16U)    |
 890              		.loc 1 1320 40
 891 0034 3B68     		ldr	r3, [r7]
 892 0036 1B69     		ldr	r3, [r3, #16]
 893              		.loc 1 1320 52
 894 0038 1B04     		lsls	r3, r3, #16
1319:Drivers/STM32G4xx_HAL_Driver/Src/stm32g4xx_hal_fdcan.c ****                          (sFilterConfig->FilterConfig << 27U) |
 895              		.loc 1 1319 63
 896 003a 1A43     		orrs	r2, r2, r3
1321:Drivers/STM32G4xx_HAL_Driver/Src/stm32g4xx_hal_fdcan.c ****                          sFilterConfig->FilterID2);
 897              		.loc 1 1321 39
 898 003c 3B68     		ldr	r3, [r7]
 899 003e 5B69     		ldr	r3, [r3, #20]
1318:Drivers/STM32G4xx_HAL_Driver/Src/stm32g4xx_hal_fdcan.c ****                          (sFilterConfig->FilterConfig << 27U) |
 900              		.loc 1 1318 23
 901 0040 1343     		orrs	r3, r3, r2
 902 0042 3B61     		str	r3, [r7, #16]
1322:Drivers/STM32G4xx_HAL_Driver/Src/stm32g4xx_hal_fdcan.c **** 
1323:Drivers/STM32G4xx_HAL_Driver/Src/stm32g4xx_hal_fdcan.c ****       /* Calculate filter address */
1324:Drivers/STM32G4xx_HAL_Driver/Src/stm32g4xx_hal_fdcan.c ****       FilterAddress = (uint32_t *)(hfdcan->msgRam.StandardFilterSA + (sFilterConfig->FilterIndex * 
 903              		.loc 1 1324 50
 904 0044 7B68     		ldr	r3, [r7, #4]
 905 0046 1A6C     		ldr	r2, [r3, #64]
 906              		.loc 1 1324 84
 907 0048 3B68     		ldr	r3, [r7]
 908 004a 5B68     		ldr	r3, [r3, #4]
 909              		.loc 1 1324 98
 910 004c 9B00     		lsls	r3, r3, #2
 911              		.loc 1 1324 68
 912 004e 1344     		add	r3, r3, r2
 913              		.loc 1 1324 21
 914 0050 BB60     		str	r3, [r7, #8]
1325:Drivers/STM32G4xx_HAL_Driver/Src/stm32g4xx_hal_fdcan.c **** 
1326:Drivers/STM32G4xx_HAL_Driver/Src/stm32g4xx_hal_fdcan.c ****       /* Write filter element to the message RAM */
1327:Drivers/STM32G4xx_HAL_Driver/Src/stm32g4xx_hal_fdcan.c ****       *FilterAddress = FilterElementW1;
 915              		.loc 1 1327 22
 916 0052 BB68     		ldr	r3, [r7, #8]
 917 0054 3A69     		ldr	r2, [r7, #16]
 918 0056 1A60     		str	r2, [r3]
 919 0058 1DE0     		b	.L39
 920              	.L38:
1328:Drivers/STM32G4xx_HAL_Driver/Src/stm32g4xx_hal_fdcan.c ****     }
1329:Drivers/STM32G4xx_HAL_Driver/Src/stm32g4xx_hal_fdcan.c ****     else /* sFilterConfig->IdType == FDCAN_EXTENDED_ID */
1330:Drivers/STM32G4xx_HAL_Driver/Src/stm32g4xx_hal_fdcan.c ****     {
1331:Drivers/STM32G4xx_HAL_Driver/Src/stm32g4xx_hal_fdcan.c ****       /* Check function parameters */
1332:Drivers/STM32G4xx_HAL_Driver/Src/stm32g4xx_hal_fdcan.c ****       assert_param(IS_FDCAN_MAX_VALUE(sFilterConfig->FilterIndex, (hfdcan->Init.ExtFiltersNbr - 1U)
1333:Drivers/STM32G4xx_HAL_Driver/Src/stm32g4xx_hal_fdcan.c ****       assert_param(IS_FDCAN_MAX_VALUE(sFilterConfig->FilterID1, 0x1FFFFFFFU));
1334:Drivers/STM32G4xx_HAL_Driver/Src/stm32g4xx_hal_fdcan.c ****       assert_param(IS_FDCAN_MAX_VALUE(sFilterConfig->FilterID2, 0x1FFFFFFFU));
1335:Drivers/STM32G4xx_HAL_Driver/Src/stm32g4xx_hal_fdcan.c ****       assert_param(IS_FDCAN_EXT_FILTER_TYPE(sFilterConfig->FilterType));
1336:Drivers/STM32G4xx_HAL_Driver/Src/stm32g4xx_hal_fdcan.c **** 
1337:Drivers/STM32G4xx_HAL_Driver/Src/stm32g4xx_hal_fdcan.c ****       /* Build first word of filter element */
1338:Drivers/STM32G4xx_HAL_Driver/Src/stm32g4xx_hal_fdcan.c ****       FilterElementW1 = ((sFilterConfig->FilterConfig << 29U) | sFilterConfig->FilterID1);
 921              		.loc 1 1338 40
 922 005a 3B68     		ldr	r3, [r7]
 923 005c DB68     		ldr	r3, [r3, #12]
 924              		.loc 1 1338 55
 925 005e 5A07     		lsls	r2, r3, #29
ARM GAS  C:\Users\AURORA~1\AppData\Local\Temp\ccEbooPs.s 			page 41


 926              		.loc 1 1338 78
 927 0060 3B68     		ldr	r3, [r7]
 928 0062 1B69     		ldr	r3, [r3, #16]
 929              		.loc 1 1338 23
 930 0064 1343     		orrs	r3, r3, r2
 931 0066 3B61     		str	r3, [r7, #16]
1339:Drivers/STM32G4xx_HAL_Driver/Src/stm32g4xx_hal_fdcan.c **** 
1340:Drivers/STM32G4xx_HAL_Driver/Src/stm32g4xx_hal_fdcan.c ****       /* Build second word of filter element */
1341:Drivers/STM32G4xx_HAL_Driver/Src/stm32g4xx_hal_fdcan.c ****       FilterElementW2 = ((sFilterConfig->FilterType << 30U) | sFilterConfig->FilterID2);
 932              		.loc 1 1341 40
 933 0068 3B68     		ldr	r3, [r7]
 934 006a 9B68     		ldr	r3, [r3, #8]
 935              		.loc 1 1341 53
 936 006c 9A07     		lsls	r2, r3, #30
 937              		.loc 1 1341 76
 938 006e 3B68     		ldr	r3, [r7]
 939 0070 5B69     		ldr	r3, [r3, #20]
 940              		.loc 1 1341 23
 941 0072 1343     		orrs	r3, r3, r2
 942 0074 FB60     		str	r3, [r7, #12]
1342:Drivers/STM32G4xx_HAL_Driver/Src/stm32g4xx_hal_fdcan.c **** 
1343:Drivers/STM32G4xx_HAL_Driver/Src/stm32g4xx_hal_fdcan.c ****       /* Calculate filter address */
1344:Drivers/STM32G4xx_HAL_Driver/Src/stm32g4xx_hal_fdcan.c ****       FilterAddress = (uint32_t *)(hfdcan->msgRam.ExtendedFilterSA + (sFilterConfig->FilterIndex * 
 943              		.loc 1 1344 50
 944 0076 7B68     		ldr	r3, [r7, #4]
 945 0078 5A6C     		ldr	r2, [r3, #68]
 946              		.loc 1 1344 84
 947 007a 3B68     		ldr	r3, [r7]
 948 007c 5B68     		ldr	r3, [r3, #4]
 949              		.loc 1 1344 98
 950 007e DB00     		lsls	r3, r3, #3
 951              		.loc 1 1344 68
 952 0080 1344     		add	r3, r3, r2
 953              		.loc 1 1344 21
 954 0082 BB60     		str	r3, [r7, #8]
1345:Drivers/STM32G4xx_HAL_Driver/Src/stm32g4xx_hal_fdcan.c **** 
1346:Drivers/STM32G4xx_HAL_Driver/Src/stm32g4xx_hal_fdcan.c ****       /* Write filter element to the message RAM */
1347:Drivers/STM32G4xx_HAL_Driver/Src/stm32g4xx_hal_fdcan.c ****       *FilterAddress = FilterElementW1;
 955              		.loc 1 1347 22
 956 0084 BB68     		ldr	r3, [r7, #8]
 957 0086 3A69     		ldr	r2, [r7, #16]
 958 0088 1A60     		str	r2, [r3]
1348:Drivers/STM32G4xx_HAL_Driver/Src/stm32g4xx_hal_fdcan.c ****       FilterAddress++;
 959              		.loc 1 1348 20
 960 008a BB68     		ldr	r3, [r7, #8]
 961 008c 0433     		adds	r3, r3, #4
 962 008e BB60     		str	r3, [r7, #8]
1349:Drivers/STM32G4xx_HAL_Driver/Src/stm32g4xx_hal_fdcan.c ****       *FilterAddress = FilterElementW2;
 963              		.loc 1 1349 22
 964 0090 BB68     		ldr	r3, [r7, #8]
 965 0092 FA68     		ldr	r2, [r7, #12]
 966 0094 1A60     		str	r2, [r3]
 967              	.L39:
1350:Drivers/STM32G4xx_HAL_Driver/Src/stm32g4xx_hal_fdcan.c ****     }
1351:Drivers/STM32G4xx_HAL_Driver/Src/stm32g4xx_hal_fdcan.c **** 
1352:Drivers/STM32G4xx_HAL_Driver/Src/stm32g4xx_hal_fdcan.c ****     /* Return function status */
1353:Drivers/STM32G4xx_HAL_Driver/Src/stm32g4xx_hal_fdcan.c ****     return HAL_OK;
ARM GAS  C:\Users\AURORA~1\AppData\Local\Temp\ccEbooPs.s 			page 42


 968              		.loc 1 1353 12
 969 0096 0023     		movs	r3, #0
 970 0098 06E0     		b	.L40
 971              	.L37:
1354:Drivers/STM32G4xx_HAL_Driver/Src/stm32g4xx_hal_fdcan.c ****   }
1355:Drivers/STM32G4xx_HAL_Driver/Src/stm32g4xx_hal_fdcan.c ****   else
1356:Drivers/STM32G4xx_HAL_Driver/Src/stm32g4xx_hal_fdcan.c ****   {
1357:Drivers/STM32G4xx_HAL_Driver/Src/stm32g4xx_hal_fdcan.c ****     /* Update error code */
1358:Drivers/STM32G4xx_HAL_Driver/Src/stm32g4xx_hal_fdcan.c ****     hfdcan->ErrorCode |= HAL_FDCAN_ERROR_NOT_INITIALIZED;
 972              		.loc 1 1358 11
 973 009a 7B68     		ldr	r3, [r7, #4]
 974 009c 1B6E     		ldr	r3, [r3, #96]
 975              		.loc 1 1358 23
 976 009e 43F00202 		orr	r2, r3, #2
 977 00a2 7B68     		ldr	r3, [r7, #4]
 978 00a4 1A66     		str	r2, [r3, #96]
1359:Drivers/STM32G4xx_HAL_Driver/Src/stm32g4xx_hal_fdcan.c **** 
1360:Drivers/STM32G4xx_HAL_Driver/Src/stm32g4xx_hal_fdcan.c ****     return HAL_ERROR;
 979              		.loc 1 1360 12
 980 00a6 0123     		movs	r3, #1
 981              	.L40:
1361:Drivers/STM32G4xx_HAL_Driver/Src/stm32g4xx_hal_fdcan.c ****   }
1362:Drivers/STM32G4xx_HAL_Driver/Src/stm32g4xx_hal_fdcan.c **** }
 982              		.loc 1 1362 1
 983 00a8 1846     		mov	r0, r3
 984 00aa 1C37     		adds	r7, r7, #28
 985              	.LCFI35:
 986              		.cfi_def_cfa_offset 4
 987 00ac BD46     		mov	sp, r7
 988              	.LCFI36:
 989              		.cfi_def_cfa_register 13
 990              		@ sp needed
 991 00ae 5DF8047B 		ldr	r7, [sp], #4
 992              	.LCFI37:
 993              		.cfi_restore 7
 994              		.cfi_def_cfa_offset 0
 995 00b2 7047     		bx	lr
 996              		.cfi_endproc
 997              	.LFE138:
 999              		.section	.text.HAL_FDCAN_ConfigGlobalFilter,"ax",%progbits
 1000              		.align	1
 1001              		.global	HAL_FDCAN_ConfigGlobalFilter
 1002              		.syntax unified
 1003              		.thumb
 1004              		.thumb_func
 1006              	HAL_FDCAN_ConfigGlobalFilter:
 1007              	.LFB139:
1363:Drivers/STM32G4xx_HAL_Driver/Src/stm32g4xx_hal_fdcan.c **** 
1364:Drivers/STM32G4xx_HAL_Driver/Src/stm32g4xx_hal_fdcan.c **** /**
1365:Drivers/STM32G4xx_HAL_Driver/Src/stm32g4xx_hal_fdcan.c ****   * @brief  Configure the FDCAN global filter.
1366:Drivers/STM32G4xx_HAL_Driver/Src/stm32g4xx_hal_fdcan.c ****   * @param  hfdcan pointer to an FDCAN_HandleTypeDef structure that contains
1367:Drivers/STM32G4xx_HAL_Driver/Src/stm32g4xx_hal_fdcan.c ****   *         the configuration information for the specified FDCAN.
1368:Drivers/STM32G4xx_HAL_Driver/Src/stm32g4xx_hal_fdcan.c ****   * @param  NonMatchingStd Defines how received messages with 11-bit IDs that
1369:Drivers/STM32G4xx_HAL_Driver/Src/stm32g4xx_hal_fdcan.c ****   *         do not match any element of the filter list are treated.
1370:Drivers/STM32G4xx_HAL_Driver/Src/stm32g4xx_hal_fdcan.c ****   *         This parameter can be a value of @arg FDCAN_Non_Matching_Frames.
1371:Drivers/STM32G4xx_HAL_Driver/Src/stm32g4xx_hal_fdcan.c ****   * @param  NonMatchingExt Defines how received messages with 29-bit IDs that
1372:Drivers/STM32G4xx_HAL_Driver/Src/stm32g4xx_hal_fdcan.c ****   *         do not match any element of the filter list are treated.
ARM GAS  C:\Users\AURORA~1\AppData\Local\Temp\ccEbooPs.s 			page 43


1373:Drivers/STM32G4xx_HAL_Driver/Src/stm32g4xx_hal_fdcan.c ****   *         This parameter can be a value of @arg FDCAN_Non_Matching_Frames.
1374:Drivers/STM32G4xx_HAL_Driver/Src/stm32g4xx_hal_fdcan.c ****   * @param  RejectRemoteStd Filter or reject all the remote 11-bit IDs frames.
1375:Drivers/STM32G4xx_HAL_Driver/Src/stm32g4xx_hal_fdcan.c ****   *         This parameter can be a value of @arg FDCAN_Reject_Remote_Frames.
1376:Drivers/STM32G4xx_HAL_Driver/Src/stm32g4xx_hal_fdcan.c ****   * @param  RejectRemoteExt Filter or reject all the remote 29-bit IDs frames.
1377:Drivers/STM32G4xx_HAL_Driver/Src/stm32g4xx_hal_fdcan.c ****   *         This parameter can be a value of @arg FDCAN_Reject_Remote_Frames.
1378:Drivers/STM32G4xx_HAL_Driver/Src/stm32g4xx_hal_fdcan.c ****   * @retval HAL status
1379:Drivers/STM32G4xx_HAL_Driver/Src/stm32g4xx_hal_fdcan.c ****   */
1380:Drivers/STM32G4xx_HAL_Driver/Src/stm32g4xx_hal_fdcan.c **** HAL_StatusTypeDef HAL_FDCAN_ConfigGlobalFilter(FDCAN_HandleTypeDef *hfdcan,
1381:Drivers/STM32G4xx_HAL_Driver/Src/stm32g4xx_hal_fdcan.c ****                                                uint32_t NonMatchingStd,
1382:Drivers/STM32G4xx_HAL_Driver/Src/stm32g4xx_hal_fdcan.c ****                                                uint32_t NonMatchingExt,
1383:Drivers/STM32G4xx_HAL_Driver/Src/stm32g4xx_hal_fdcan.c ****                                                uint32_t RejectRemoteStd,
1384:Drivers/STM32G4xx_HAL_Driver/Src/stm32g4xx_hal_fdcan.c ****                                                uint32_t RejectRemoteExt)
1385:Drivers/STM32G4xx_HAL_Driver/Src/stm32g4xx_hal_fdcan.c **** {
 1008              		.loc 1 1385 1
 1009              		.cfi_startproc
 1010              		@ args = 4, pretend = 0, frame = 16
 1011              		@ frame_needed = 1, uses_anonymous_args = 0
 1012              		@ link register save eliminated.
 1013 0000 80B4     		push	{r7}
 1014              	.LCFI38:
 1015              		.cfi_def_cfa_offset 4
 1016              		.cfi_offset 7, -4
 1017 0002 85B0     		sub	sp, sp, #20
 1018              	.LCFI39:
 1019              		.cfi_def_cfa_offset 24
 1020 0004 00AF     		add	r7, sp, #0
 1021              	.LCFI40:
 1022              		.cfi_def_cfa_register 7
 1023 0006 F860     		str	r0, [r7, #12]
 1024 0008 B960     		str	r1, [r7, #8]
 1025 000a 7A60     		str	r2, [r7, #4]
 1026 000c 3B60     		str	r3, [r7]
1386:Drivers/STM32G4xx_HAL_Driver/Src/stm32g4xx_hal_fdcan.c ****   /* Check function parameters */
1387:Drivers/STM32G4xx_HAL_Driver/Src/stm32g4xx_hal_fdcan.c ****   assert_param(IS_FDCAN_NON_MATCHING(NonMatchingStd));
1388:Drivers/STM32G4xx_HAL_Driver/Src/stm32g4xx_hal_fdcan.c ****   assert_param(IS_FDCAN_NON_MATCHING(NonMatchingExt));
1389:Drivers/STM32G4xx_HAL_Driver/Src/stm32g4xx_hal_fdcan.c ****   assert_param(IS_FDCAN_REJECT_REMOTE(RejectRemoteStd));
1390:Drivers/STM32G4xx_HAL_Driver/Src/stm32g4xx_hal_fdcan.c ****   assert_param(IS_FDCAN_REJECT_REMOTE(RejectRemoteExt));
1391:Drivers/STM32G4xx_HAL_Driver/Src/stm32g4xx_hal_fdcan.c **** 
1392:Drivers/STM32G4xx_HAL_Driver/Src/stm32g4xx_hal_fdcan.c ****   if (hfdcan->State == HAL_FDCAN_STATE_READY)
 1027              		.loc 1 1392 13
 1028 000e FB68     		ldr	r3, [r7, #12]
 1029 0010 93F85C30 		ldrb	r3, [r3, #92]
 1030 0014 DBB2     		uxtb	r3, r3
 1031              		.loc 1 1392 6
 1032 0016 012B     		cmp	r3, #1
 1033 0018 16D1     		bne	.L42
1393:Drivers/STM32G4xx_HAL_Driver/Src/stm32g4xx_hal_fdcan.c ****   {
1394:Drivers/STM32G4xx_HAL_Driver/Src/stm32g4xx_hal_fdcan.c ****     /* Configure global filter */
1395:Drivers/STM32G4xx_HAL_Driver/Src/stm32g4xx_hal_fdcan.c ****     MODIFY_REG(hfdcan->Instance->RXGFC, (FDCAN_RXGFC_ANFS |
 1034              		.loc 1 1395 5
 1035 001a FB68     		ldr	r3, [r7, #12]
 1036 001c 1B68     		ldr	r3, [r3]
 1037 001e D3F88030 		ldr	r3, [r3, #128]
 1038 0022 23F03F01 		bic	r1, r3, #63
 1039 0026 BB68     		ldr	r3, [r7, #8]
 1040 0028 1A01     		lsls	r2, r3, #4
 1041 002a 7B68     		ldr	r3, [r7, #4]
ARM GAS  C:\Users\AURORA~1\AppData\Local\Temp\ccEbooPs.s 			page 44


 1042 002c 9B00     		lsls	r3, r3, #2
 1043 002e 1A43     		orrs	r2, r2, r3
 1044 0030 3B68     		ldr	r3, [r7]
 1045 0032 5B00     		lsls	r3, r3, #1
 1046 0034 1A43     		orrs	r2, r2, r3
 1047 0036 BB69     		ldr	r3, [r7, #24]
 1048 0038 1A43     		orrs	r2, r2, r3
 1049 003a FB68     		ldr	r3, [r7, #12]
 1050 003c 1B68     		ldr	r3, [r3]
 1051 003e 0A43     		orrs	r2, r2, r1
 1052 0040 C3F88020 		str	r2, [r3, #128]
1396:Drivers/STM32G4xx_HAL_Driver/Src/stm32g4xx_hal_fdcan.c ****                                          FDCAN_RXGFC_ANFE |
1397:Drivers/STM32G4xx_HAL_Driver/Src/stm32g4xx_hal_fdcan.c ****                                          FDCAN_RXGFC_RRFS |
1398:Drivers/STM32G4xx_HAL_Driver/Src/stm32g4xx_hal_fdcan.c ****                                          FDCAN_RXGFC_RRFE),
1399:Drivers/STM32G4xx_HAL_Driver/Src/stm32g4xx_hal_fdcan.c ****                ((NonMatchingStd << FDCAN_RXGFC_ANFS_Pos)  |
1400:Drivers/STM32G4xx_HAL_Driver/Src/stm32g4xx_hal_fdcan.c ****                 (NonMatchingExt << FDCAN_RXGFC_ANFE_Pos)  |
1401:Drivers/STM32G4xx_HAL_Driver/Src/stm32g4xx_hal_fdcan.c ****                 (RejectRemoteStd << FDCAN_RXGFC_RRFS_Pos) |
1402:Drivers/STM32G4xx_HAL_Driver/Src/stm32g4xx_hal_fdcan.c ****                 (RejectRemoteExt << FDCAN_RXGFC_RRFE_Pos)));
1403:Drivers/STM32G4xx_HAL_Driver/Src/stm32g4xx_hal_fdcan.c **** 
1404:Drivers/STM32G4xx_HAL_Driver/Src/stm32g4xx_hal_fdcan.c ****     /* Return function status */
1405:Drivers/STM32G4xx_HAL_Driver/Src/stm32g4xx_hal_fdcan.c ****     return HAL_OK;
 1053              		.loc 1 1405 12
 1054 0044 0023     		movs	r3, #0
 1055 0046 06E0     		b	.L43
 1056              	.L42:
1406:Drivers/STM32G4xx_HAL_Driver/Src/stm32g4xx_hal_fdcan.c ****   }
1407:Drivers/STM32G4xx_HAL_Driver/Src/stm32g4xx_hal_fdcan.c ****   else
1408:Drivers/STM32G4xx_HAL_Driver/Src/stm32g4xx_hal_fdcan.c ****   {
1409:Drivers/STM32G4xx_HAL_Driver/Src/stm32g4xx_hal_fdcan.c ****     /* Update error code */
1410:Drivers/STM32G4xx_HAL_Driver/Src/stm32g4xx_hal_fdcan.c ****     hfdcan->ErrorCode |= HAL_FDCAN_ERROR_NOT_READY;
 1057              		.loc 1 1410 11
 1058 0048 FB68     		ldr	r3, [r7, #12]
 1059 004a 1B6E     		ldr	r3, [r3, #96]
 1060              		.loc 1 1410 23
 1061 004c 43F00402 		orr	r2, r3, #4
 1062 0050 FB68     		ldr	r3, [r7, #12]
 1063 0052 1A66     		str	r2, [r3, #96]
1411:Drivers/STM32G4xx_HAL_Driver/Src/stm32g4xx_hal_fdcan.c **** 
1412:Drivers/STM32G4xx_HAL_Driver/Src/stm32g4xx_hal_fdcan.c ****     return HAL_ERROR;
 1064              		.loc 1 1412 12
 1065 0054 0123     		movs	r3, #1
 1066              	.L43:
1413:Drivers/STM32G4xx_HAL_Driver/Src/stm32g4xx_hal_fdcan.c ****   }
1414:Drivers/STM32G4xx_HAL_Driver/Src/stm32g4xx_hal_fdcan.c **** }
 1067              		.loc 1 1414 1
 1068 0056 1846     		mov	r0, r3
 1069 0058 1437     		adds	r7, r7, #20
 1070              	.LCFI41:
 1071              		.cfi_def_cfa_offset 4
 1072 005a BD46     		mov	sp, r7
 1073              	.LCFI42:
 1074              		.cfi_def_cfa_register 13
 1075              		@ sp needed
 1076 005c 5DF8047B 		ldr	r7, [sp], #4
 1077              	.LCFI43:
 1078              		.cfi_restore 7
 1079              		.cfi_def_cfa_offset 0
ARM GAS  C:\Users\AURORA~1\AppData\Local\Temp\ccEbooPs.s 			page 45


 1080 0060 7047     		bx	lr
 1081              		.cfi_endproc
 1082              	.LFE139:
 1084              		.section	.text.HAL_FDCAN_ConfigExtendedIdMask,"ax",%progbits
 1085              		.align	1
 1086              		.global	HAL_FDCAN_ConfigExtendedIdMask
 1087              		.syntax unified
 1088              		.thumb
 1089              		.thumb_func
 1091              	HAL_FDCAN_ConfigExtendedIdMask:
 1092              	.LFB140:
1415:Drivers/STM32G4xx_HAL_Driver/Src/stm32g4xx_hal_fdcan.c **** 
1416:Drivers/STM32G4xx_HAL_Driver/Src/stm32g4xx_hal_fdcan.c **** /**
1417:Drivers/STM32G4xx_HAL_Driver/Src/stm32g4xx_hal_fdcan.c ****   * @brief  Configure the extended ID mask.
1418:Drivers/STM32G4xx_HAL_Driver/Src/stm32g4xx_hal_fdcan.c ****   * @param  hfdcan pointer to an FDCAN_HandleTypeDef structure that contains
1419:Drivers/STM32G4xx_HAL_Driver/Src/stm32g4xx_hal_fdcan.c ****   *         the configuration information for the specified FDCAN.
1420:Drivers/STM32G4xx_HAL_Driver/Src/stm32g4xx_hal_fdcan.c ****   * @param  Mask Extended ID Mask.
1421:Drivers/STM32G4xx_HAL_Driver/Src/stm32g4xx_hal_fdcan.c ****   *         This parameter must be a number between 0 and 0x1FFFFFFF.
1422:Drivers/STM32G4xx_HAL_Driver/Src/stm32g4xx_hal_fdcan.c ****   * @retval HAL status
1423:Drivers/STM32G4xx_HAL_Driver/Src/stm32g4xx_hal_fdcan.c ****   */
1424:Drivers/STM32G4xx_HAL_Driver/Src/stm32g4xx_hal_fdcan.c **** HAL_StatusTypeDef HAL_FDCAN_ConfigExtendedIdMask(FDCAN_HandleTypeDef *hfdcan, uint32_t Mask)
1425:Drivers/STM32G4xx_HAL_Driver/Src/stm32g4xx_hal_fdcan.c **** {
 1093              		.loc 1 1425 1
 1094              		.cfi_startproc
 1095              		@ args = 0, pretend = 0, frame = 8
 1096              		@ frame_needed = 1, uses_anonymous_args = 0
 1097              		@ link register save eliminated.
 1098 0000 80B4     		push	{r7}
 1099              	.LCFI44:
 1100              		.cfi_def_cfa_offset 4
 1101              		.cfi_offset 7, -4
 1102 0002 83B0     		sub	sp, sp, #12
 1103              	.LCFI45:
 1104              		.cfi_def_cfa_offset 16
 1105 0004 00AF     		add	r7, sp, #0
 1106              	.LCFI46:
 1107              		.cfi_def_cfa_register 7
 1108 0006 7860     		str	r0, [r7, #4]
 1109 0008 3960     		str	r1, [r7]
1426:Drivers/STM32G4xx_HAL_Driver/Src/stm32g4xx_hal_fdcan.c ****   /* Check function parameters */
1427:Drivers/STM32G4xx_HAL_Driver/Src/stm32g4xx_hal_fdcan.c ****   assert_param(IS_FDCAN_MAX_VALUE(Mask, 0x1FFFFFFFU));
1428:Drivers/STM32G4xx_HAL_Driver/Src/stm32g4xx_hal_fdcan.c **** 
1429:Drivers/STM32G4xx_HAL_Driver/Src/stm32g4xx_hal_fdcan.c ****   if (hfdcan->State == HAL_FDCAN_STATE_READY)
 1110              		.loc 1 1429 13
 1111 000a 7B68     		ldr	r3, [r7, #4]
 1112 000c 93F85C30 		ldrb	r3, [r3, #92]
 1113 0010 DBB2     		uxtb	r3, r3
 1114              		.loc 1 1429 6
 1115 0012 012B     		cmp	r3, #1
 1116 0014 06D1     		bne	.L45
1430:Drivers/STM32G4xx_HAL_Driver/Src/stm32g4xx_hal_fdcan.c ****   {
1431:Drivers/STM32G4xx_HAL_Driver/Src/stm32g4xx_hal_fdcan.c ****     /* Configure the extended ID mask */
1432:Drivers/STM32G4xx_HAL_Driver/Src/stm32g4xx_hal_fdcan.c ****     hfdcan->Instance->XIDAM = Mask;
 1117              		.loc 1 1432 11
 1118 0016 7B68     		ldr	r3, [r7, #4]
 1119 0018 1B68     		ldr	r3, [r3]
 1120              		.loc 1 1432 29
ARM GAS  C:\Users\AURORA~1\AppData\Local\Temp\ccEbooPs.s 			page 46


 1121 001a 3A68     		ldr	r2, [r7]
 1122 001c C3F88420 		str	r2, [r3, #132]
1433:Drivers/STM32G4xx_HAL_Driver/Src/stm32g4xx_hal_fdcan.c **** 
1434:Drivers/STM32G4xx_HAL_Driver/Src/stm32g4xx_hal_fdcan.c ****     /* Return function status */
1435:Drivers/STM32G4xx_HAL_Driver/Src/stm32g4xx_hal_fdcan.c ****     return HAL_OK;
 1123              		.loc 1 1435 12
 1124 0020 0023     		movs	r3, #0
 1125 0022 06E0     		b	.L46
 1126              	.L45:
1436:Drivers/STM32G4xx_HAL_Driver/Src/stm32g4xx_hal_fdcan.c ****   }
1437:Drivers/STM32G4xx_HAL_Driver/Src/stm32g4xx_hal_fdcan.c ****   else
1438:Drivers/STM32G4xx_HAL_Driver/Src/stm32g4xx_hal_fdcan.c ****   {
1439:Drivers/STM32G4xx_HAL_Driver/Src/stm32g4xx_hal_fdcan.c ****     /* Update error code */
1440:Drivers/STM32G4xx_HAL_Driver/Src/stm32g4xx_hal_fdcan.c ****     hfdcan->ErrorCode |= HAL_FDCAN_ERROR_NOT_READY;
 1127              		.loc 1 1440 11
 1128 0024 7B68     		ldr	r3, [r7, #4]
 1129 0026 1B6E     		ldr	r3, [r3, #96]
 1130              		.loc 1 1440 23
 1131 0028 43F00402 		orr	r2, r3, #4
 1132 002c 7B68     		ldr	r3, [r7, #4]
 1133 002e 1A66     		str	r2, [r3, #96]
1441:Drivers/STM32G4xx_HAL_Driver/Src/stm32g4xx_hal_fdcan.c **** 
1442:Drivers/STM32G4xx_HAL_Driver/Src/stm32g4xx_hal_fdcan.c ****     return HAL_ERROR;
 1134              		.loc 1 1442 12
 1135 0030 0123     		movs	r3, #1
 1136              	.L46:
1443:Drivers/STM32G4xx_HAL_Driver/Src/stm32g4xx_hal_fdcan.c ****   }
1444:Drivers/STM32G4xx_HAL_Driver/Src/stm32g4xx_hal_fdcan.c **** }
 1137              		.loc 1 1444 1
 1138 0032 1846     		mov	r0, r3
 1139 0034 0C37     		adds	r7, r7, #12
 1140              	.LCFI47:
 1141              		.cfi_def_cfa_offset 4
 1142 0036 BD46     		mov	sp, r7
 1143              	.LCFI48:
 1144              		.cfi_def_cfa_register 13
 1145              		@ sp needed
 1146 0038 5DF8047B 		ldr	r7, [sp], #4
 1147              	.LCFI49:
 1148              		.cfi_restore 7
 1149              		.cfi_def_cfa_offset 0
 1150 003c 7047     		bx	lr
 1151              		.cfi_endproc
 1152              	.LFE140:
 1154              		.section	.text.HAL_FDCAN_ConfigRxFifoOverwrite,"ax",%progbits
 1155              		.align	1
 1156              		.global	HAL_FDCAN_ConfigRxFifoOverwrite
 1157              		.syntax unified
 1158              		.thumb
 1159              		.thumb_func
 1161              	HAL_FDCAN_ConfigRxFifoOverwrite:
 1162              	.LFB141:
1445:Drivers/STM32G4xx_HAL_Driver/Src/stm32g4xx_hal_fdcan.c **** 
1446:Drivers/STM32G4xx_HAL_Driver/Src/stm32g4xx_hal_fdcan.c **** /**
1447:Drivers/STM32G4xx_HAL_Driver/Src/stm32g4xx_hal_fdcan.c ****   * @brief  Configure the Rx FIFO operation mode.
1448:Drivers/STM32G4xx_HAL_Driver/Src/stm32g4xx_hal_fdcan.c ****   * @param  hfdcan pointer to an FDCAN_HandleTypeDef structure that contains
1449:Drivers/STM32G4xx_HAL_Driver/Src/stm32g4xx_hal_fdcan.c ****   *         the configuration information for the specified FDCAN.
ARM GAS  C:\Users\AURORA~1\AppData\Local\Temp\ccEbooPs.s 			page 47


1450:Drivers/STM32G4xx_HAL_Driver/Src/stm32g4xx_hal_fdcan.c ****   * @param  RxFifo Rx FIFO.
1451:Drivers/STM32G4xx_HAL_Driver/Src/stm32g4xx_hal_fdcan.c ****   *         This parameter can be one of the following values:
1452:Drivers/STM32G4xx_HAL_Driver/Src/stm32g4xx_hal_fdcan.c ****   *           @arg FDCAN_RX_FIFO0: Rx FIFO 0
1453:Drivers/STM32G4xx_HAL_Driver/Src/stm32g4xx_hal_fdcan.c ****   *           @arg FDCAN_RX_FIFO1: Rx FIFO 1
1454:Drivers/STM32G4xx_HAL_Driver/Src/stm32g4xx_hal_fdcan.c ****   * @param  OperationMode operation mode.
1455:Drivers/STM32G4xx_HAL_Driver/Src/stm32g4xx_hal_fdcan.c ****   *         This parameter can be a value of @arg FDCAN_Rx_FIFO_operation_mode.
1456:Drivers/STM32G4xx_HAL_Driver/Src/stm32g4xx_hal_fdcan.c ****   * @retval HAL status
1457:Drivers/STM32G4xx_HAL_Driver/Src/stm32g4xx_hal_fdcan.c ****   */
1458:Drivers/STM32G4xx_HAL_Driver/Src/stm32g4xx_hal_fdcan.c **** HAL_StatusTypeDef HAL_FDCAN_ConfigRxFifoOverwrite(FDCAN_HandleTypeDef *hfdcan, uint32_t RxFifo, uin
1459:Drivers/STM32G4xx_HAL_Driver/Src/stm32g4xx_hal_fdcan.c **** {
 1163              		.loc 1 1459 1
 1164              		.cfi_startproc
 1165              		@ args = 0, pretend = 0, frame = 16
 1166              		@ frame_needed = 1, uses_anonymous_args = 0
 1167              		@ link register save eliminated.
 1168 0000 80B4     		push	{r7}
 1169              	.LCFI50:
 1170              		.cfi_def_cfa_offset 4
 1171              		.cfi_offset 7, -4
 1172 0002 85B0     		sub	sp, sp, #20
 1173              	.LCFI51:
 1174              		.cfi_def_cfa_offset 24
 1175 0004 00AF     		add	r7, sp, #0
 1176              	.LCFI52:
 1177              		.cfi_def_cfa_register 7
 1178 0006 F860     		str	r0, [r7, #12]
 1179 0008 B960     		str	r1, [r7, #8]
 1180 000a 7A60     		str	r2, [r7, #4]
1460:Drivers/STM32G4xx_HAL_Driver/Src/stm32g4xx_hal_fdcan.c ****   /* Check function parameters */
1461:Drivers/STM32G4xx_HAL_Driver/Src/stm32g4xx_hal_fdcan.c ****   assert_param(IS_FDCAN_RX_FIFO(RxFifo));
1462:Drivers/STM32G4xx_HAL_Driver/Src/stm32g4xx_hal_fdcan.c ****   assert_param(IS_FDCAN_RX_FIFO_MODE(OperationMode));
1463:Drivers/STM32G4xx_HAL_Driver/Src/stm32g4xx_hal_fdcan.c **** 
1464:Drivers/STM32G4xx_HAL_Driver/Src/stm32g4xx_hal_fdcan.c ****   if (hfdcan->State == HAL_FDCAN_STATE_READY)
 1181              		.loc 1 1464 13
 1182 000c FB68     		ldr	r3, [r7, #12]
 1183 000e 93F85C30 		ldrb	r3, [r3, #92]
 1184 0012 DBB2     		uxtb	r3, r3
 1185              		.loc 1 1464 6
 1186 0014 012B     		cmp	r3, #1
 1187 0016 1FD1     		bne	.L48
1465:Drivers/STM32G4xx_HAL_Driver/Src/stm32g4xx_hal_fdcan.c ****   {
1466:Drivers/STM32G4xx_HAL_Driver/Src/stm32g4xx_hal_fdcan.c ****     if (RxFifo == FDCAN_RX_FIFO0)
 1188              		.loc 1 1466 8
 1189 0018 BB68     		ldr	r3, [r7, #8]
 1190 001a 402B     		cmp	r3, #64
 1191 001c 0DD1     		bne	.L49
1467:Drivers/STM32G4xx_HAL_Driver/Src/stm32g4xx_hal_fdcan.c ****     {
1468:Drivers/STM32G4xx_HAL_Driver/Src/stm32g4xx_hal_fdcan.c ****       /* Select FIFO 0 Operation Mode */
1469:Drivers/STM32G4xx_HAL_Driver/Src/stm32g4xx_hal_fdcan.c ****       MODIFY_REG(hfdcan->Instance->RXGFC, FDCAN_RXGFC_F0OM, (OperationMode << FDCAN_RXGFC_F0OM_Pos)
 1192              		.loc 1 1469 7
 1193 001e FB68     		ldr	r3, [r7, #12]
 1194 0020 1B68     		ldr	r3, [r3]
 1195 0022 D3F88030 		ldr	r3, [r3, #128]
 1196 0026 23F40071 		bic	r1, r3, #512
 1197 002a 7B68     		ldr	r3, [r7, #4]
 1198 002c 5A02     		lsls	r2, r3, #9
 1199 002e FB68     		ldr	r3, [r7, #12]
ARM GAS  C:\Users\AURORA~1\AppData\Local\Temp\ccEbooPs.s 			page 48


 1200 0030 1B68     		ldr	r3, [r3]
 1201 0032 0A43     		orrs	r2, r2, r1
 1202 0034 C3F88020 		str	r2, [r3, #128]
 1203 0038 0CE0     		b	.L50
 1204              	.L49:
1470:Drivers/STM32G4xx_HAL_Driver/Src/stm32g4xx_hal_fdcan.c ****     }
1471:Drivers/STM32G4xx_HAL_Driver/Src/stm32g4xx_hal_fdcan.c ****     else /* RxFifo == FDCAN_RX_FIFO1 */
1472:Drivers/STM32G4xx_HAL_Driver/Src/stm32g4xx_hal_fdcan.c ****     {
1473:Drivers/STM32G4xx_HAL_Driver/Src/stm32g4xx_hal_fdcan.c ****       /* Select FIFO 1 Operation Mode */
1474:Drivers/STM32G4xx_HAL_Driver/Src/stm32g4xx_hal_fdcan.c ****       MODIFY_REG(hfdcan->Instance->RXGFC, FDCAN_RXGFC_F1OM, (OperationMode << FDCAN_RXGFC_F1OM_Pos)
 1205              		.loc 1 1474 7
 1206 003a FB68     		ldr	r3, [r7, #12]
 1207 003c 1B68     		ldr	r3, [r3]
 1208 003e D3F88030 		ldr	r3, [r3, #128]
 1209 0042 23F48071 		bic	r1, r3, #256
 1210 0046 7B68     		ldr	r3, [r7, #4]
 1211 0048 1A02     		lsls	r2, r3, #8
 1212 004a FB68     		ldr	r3, [r7, #12]
 1213 004c 1B68     		ldr	r3, [r3]
 1214 004e 0A43     		orrs	r2, r2, r1
 1215 0050 C3F88020 		str	r2, [r3, #128]
 1216              	.L50:
1475:Drivers/STM32G4xx_HAL_Driver/Src/stm32g4xx_hal_fdcan.c ****     }
1476:Drivers/STM32G4xx_HAL_Driver/Src/stm32g4xx_hal_fdcan.c **** 
1477:Drivers/STM32G4xx_HAL_Driver/Src/stm32g4xx_hal_fdcan.c ****     /* Return function status */
1478:Drivers/STM32G4xx_HAL_Driver/Src/stm32g4xx_hal_fdcan.c ****     return HAL_OK;
 1217              		.loc 1 1478 12
 1218 0054 0023     		movs	r3, #0
 1219 0056 06E0     		b	.L51
 1220              	.L48:
1479:Drivers/STM32G4xx_HAL_Driver/Src/stm32g4xx_hal_fdcan.c ****   }
1480:Drivers/STM32G4xx_HAL_Driver/Src/stm32g4xx_hal_fdcan.c ****   else
1481:Drivers/STM32G4xx_HAL_Driver/Src/stm32g4xx_hal_fdcan.c ****   {
1482:Drivers/STM32G4xx_HAL_Driver/Src/stm32g4xx_hal_fdcan.c ****     /* Update error code */
1483:Drivers/STM32G4xx_HAL_Driver/Src/stm32g4xx_hal_fdcan.c ****     hfdcan->ErrorCode |= HAL_FDCAN_ERROR_NOT_READY;
 1221              		.loc 1 1483 11
 1222 0058 FB68     		ldr	r3, [r7, #12]
 1223 005a 1B6E     		ldr	r3, [r3, #96]
 1224              		.loc 1 1483 23
 1225 005c 43F00402 		orr	r2, r3, #4
 1226 0060 FB68     		ldr	r3, [r7, #12]
 1227 0062 1A66     		str	r2, [r3, #96]
1484:Drivers/STM32G4xx_HAL_Driver/Src/stm32g4xx_hal_fdcan.c **** 
1485:Drivers/STM32G4xx_HAL_Driver/Src/stm32g4xx_hal_fdcan.c ****     return HAL_ERROR;
 1228              		.loc 1 1485 12
 1229 0064 0123     		movs	r3, #1
 1230              	.L51:
1486:Drivers/STM32G4xx_HAL_Driver/Src/stm32g4xx_hal_fdcan.c ****   }
1487:Drivers/STM32G4xx_HAL_Driver/Src/stm32g4xx_hal_fdcan.c **** }
 1231              		.loc 1 1487 1
 1232 0066 1846     		mov	r0, r3
 1233 0068 1437     		adds	r7, r7, #20
 1234              	.LCFI53:
 1235              		.cfi_def_cfa_offset 4
 1236 006a BD46     		mov	sp, r7
 1237              	.LCFI54:
 1238              		.cfi_def_cfa_register 13
ARM GAS  C:\Users\AURORA~1\AppData\Local\Temp\ccEbooPs.s 			page 49


 1239              		@ sp needed
 1240 006c 5DF8047B 		ldr	r7, [sp], #4
 1241              	.LCFI55:
 1242              		.cfi_restore 7
 1243              		.cfi_def_cfa_offset 0
 1244 0070 7047     		bx	lr
 1245              		.cfi_endproc
 1246              	.LFE141:
 1248              		.section	.text.HAL_FDCAN_ConfigRamWatchdog,"ax",%progbits
 1249              		.align	1
 1250              		.global	HAL_FDCAN_ConfigRamWatchdog
 1251              		.syntax unified
 1252              		.thumb
 1253              		.thumb_func
 1255              	HAL_FDCAN_ConfigRamWatchdog:
 1256              	.LFB142:
1488:Drivers/STM32G4xx_HAL_Driver/Src/stm32g4xx_hal_fdcan.c **** 
1489:Drivers/STM32G4xx_HAL_Driver/Src/stm32g4xx_hal_fdcan.c **** /**
1490:Drivers/STM32G4xx_HAL_Driver/Src/stm32g4xx_hal_fdcan.c ****   * @brief  Configure the RAM watchdog.
1491:Drivers/STM32G4xx_HAL_Driver/Src/stm32g4xx_hal_fdcan.c ****   * @param  hfdcan pointer to an FDCAN_HandleTypeDef structure that contains
1492:Drivers/STM32G4xx_HAL_Driver/Src/stm32g4xx_hal_fdcan.c ****   *         the configuration information for the specified FDCAN.
1493:Drivers/STM32G4xx_HAL_Driver/Src/stm32g4xx_hal_fdcan.c ****   * @param  CounterStartValue Start value of the Message RAM Watchdog Counter,
1494:Drivers/STM32G4xx_HAL_Driver/Src/stm32g4xx_hal_fdcan.c ****   *         This parameter must be a number between 0x00 and 0xFF,
1495:Drivers/STM32G4xx_HAL_Driver/Src/stm32g4xx_hal_fdcan.c ****   *         with the reset value of 0x00 the counter is disabled.
1496:Drivers/STM32G4xx_HAL_Driver/Src/stm32g4xx_hal_fdcan.c ****   * @retval HAL status
1497:Drivers/STM32G4xx_HAL_Driver/Src/stm32g4xx_hal_fdcan.c ****   */
1498:Drivers/STM32G4xx_HAL_Driver/Src/stm32g4xx_hal_fdcan.c **** HAL_StatusTypeDef HAL_FDCAN_ConfigRamWatchdog(FDCAN_HandleTypeDef *hfdcan, uint32_t CounterStartVal
1499:Drivers/STM32G4xx_HAL_Driver/Src/stm32g4xx_hal_fdcan.c **** {
 1257              		.loc 1 1499 1
 1258              		.cfi_startproc
 1259              		@ args = 0, pretend = 0, frame = 8
 1260              		@ frame_needed = 1, uses_anonymous_args = 0
 1261              		@ link register save eliminated.
 1262 0000 80B4     		push	{r7}
 1263              	.LCFI56:
 1264              		.cfi_def_cfa_offset 4
 1265              		.cfi_offset 7, -4
 1266 0002 83B0     		sub	sp, sp, #12
 1267              	.LCFI57:
 1268              		.cfi_def_cfa_offset 16
 1269 0004 00AF     		add	r7, sp, #0
 1270              	.LCFI58:
 1271              		.cfi_def_cfa_register 7
 1272 0006 7860     		str	r0, [r7, #4]
 1273 0008 3960     		str	r1, [r7]
1500:Drivers/STM32G4xx_HAL_Driver/Src/stm32g4xx_hal_fdcan.c ****   /* Check function parameters */
1501:Drivers/STM32G4xx_HAL_Driver/Src/stm32g4xx_hal_fdcan.c ****   assert_param(IS_FDCAN_MAX_VALUE(CounterStartValue, 0xFFU));
1502:Drivers/STM32G4xx_HAL_Driver/Src/stm32g4xx_hal_fdcan.c **** 
1503:Drivers/STM32G4xx_HAL_Driver/Src/stm32g4xx_hal_fdcan.c ****   if (hfdcan->State == HAL_FDCAN_STATE_READY)
 1274              		.loc 1 1503 13
 1275 000a 7B68     		ldr	r3, [r7, #4]
 1276 000c 93F85C30 		ldrb	r3, [r3, #92]
 1277 0010 DBB2     		uxtb	r3, r3
 1278              		.loc 1 1503 6
 1279 0012 012B     		cmp	r3, #1
 1280 0014 0BD1     		bne	.L53
1504:Drivers/STM32G4xx_HAL_Driver/Src/stm32g4xx_hal_fdcan.c ****   {
ARM GAS  C:\Users\AURORA~1\AppData\Local\Temp\ccEbooPs.s 			page 50


1505:Drivers/STM32G4xx_HAL_Driver/Src/stm32g4xx_hal_fdcan.c ****     /* Configure the RAM watchdog counter start value */
1506:Drivers/STM32G4xx_HAL_Driver/Src/stm32g4xx_hal_fdcan.c ****     MODIFY_REG(hfdcan->Instance->RWD, FDCAN_RWD_WDC, CounterStartValue);
 1281              		.loc 1 1506 5
 1282 0016 7B68     		ldr	r3, [r7, #4]
 1283 0018 1B68     		ldr	r3, [r3]
 1284 001a 5B69     		ldr	r3, [r3, #20]
 1285 001c 23F0FF01 		bic	r1, r3, #255
 1286 0020 7B68     		ldr	r3, [r7, #4]
 1287 0022 1B68     		ldr	r3, [r3]
 1288 0024 3A68     		ldr	r2, [r7]
 1289 0026 0A43     		orrs	r2, r2, r1
 1290 0028 5A61     		str	r2, [r3, #20]
1507:Drivers/STM32G4xx_HAL_Driver/Src/stm32g4xx_hal_fdcan.c **** 
1508:Drivers/STM32G4xx_HAL_Driver/Src/stm32g4xx_hal_fdcan.c ****     /* Return function status */
1509:Drivers/STM32G4xx_HAL_Driver/Src/stm32g4xx_hal_fdcan.c ****     return HAL_OK;
 1291              		.loc 1 1509 12
 1292 002a 0023     		movs	r3, #0
 1293 002c 06E0     		b	.L54
 1294              	.L53:
1510:Drivers/STM32G4xx_HAL_Driver/Src/stm32g4xx_hal_fdcan.c ****   }
1511:Drivers/STM32G4xx_HAL_Driver/Src/stm32g4xx_hal_fdcan.c ****   else
1512:Drivers/STM32G4xx_HAL_Driver/Src/stm32g4xx_hal_fdcan.c ****   {
1513:Drivers/STM32G4xx_HAL_Driver/Src/stm32g4xx_hal_fdcan.c ****     /* Update error code */
1514:Drivers/STM32G4xx_HAL_Driver/Src/stm32g4xx_hal_fdcan.c ****     hfdcan->ErrorCode |= HAL_FDCAN_ERROR_NOT_READY;
 1295              		.loc 1 1514 11
 1296 002e 7B68     		ldr	r3, [r7, #4]
 1297 0030 1B6E     		ldr	r3, [r3, #96]
 1298              		.loc 1 1514 23
 1299 0032 43F00402 		orr	r2, r3, #4
 1300 0036 7B68     		ldr	r3, [r7, #4]
 1301 0038 1A66     		str	r2, [r3, #96]
1515:Drivers/STM32G4xx_HAL_Driver/Src/stm32g4xx_hal_fdcan.c **** 
1516:Drivers/STM32G4xx_HAL_Driver/Src/stm32g4xx_hal_fdcan.c ****     return HAL_ERROR;
 1302              		.loc 1 1516 12
 1303 003a 0123     		movs	r3, #1
 1304              	.L54:
1517:Drivers/STM32G4xx_HAL_Driver/Src/stm32g4xx_hal_fdcan.c ****   }
1518:Drivers/STM32G4xx_HAL_Driver/Src/stm32g4xx_hal_fdcan.c **** }
 1305              		.loc 1 1518 1
 1306 003c 1846     		mov	r0, r3
 1307 003e 0C37     		adds	r7, r7, #12
 1308              	.LCFI59:
 1309              		.cfi_def_cfa_offset 4
 1310 0040 BD46     		mov	sp, r7
 1311              	.LCFI60:
 1312              		.cfi_def_cfa_register 13
 1313              		@ sp needed
 1314 0042 5DF8047B 		ldr	r7, [sp], #4
 1315              	.LCFI61:
 1316              		.cfi_restore 7
 1317              		.cfi_def_cfa_offset 0
 1318 0046 7047     		bx	lr
 1319              		.cfi_endproc
 1320              	.LFE142:
 1322              		.section	.text.HAL_FDCAN_ConfigTimestampCounter,"ax",%progbits
 1323              		.align	1
 1324              		.global	HAL_FDCAN_ConfigTimestampCounter
ARM GAS  C:\Users\AURORA~1\AppData\Local\Temp\ccEbooPs.s 			page 51


 1325              		.syntax unified
 1326              		.thumb
 1327              		.thumb_func
 1329              	HAL_FDCAN_ConfigTimestampCounter:
 1330              	.LFB143:
1519:Drivers/STM32G4xx_HAL_Driver/Src/stm32g4xx_hal_fdcan.c **** 
1520:Drivers/STM32G4xx_HAL_Driver/Src/stm32g4xx_hal_fdcan.c **** /**
1521:Drivers/STM32G4xx_HAL_Driver/Src/stm32g4xx_hal_fdcan.c ****   * @brief  Configure the timestamp counter.
1522:Drivers/STM32G4xx_HAL_Driver/Src/stm32g4xx_hal_fdcan.c ****   * @param  hfdcan pointer to an FDCAN_HandleTypeDef structure that contains
1523:Drivers/STM32G4xx_HAL_Driver/Src/stm32g4xx_hal_fdcan.c ****   *         the configuration information for the specified FDCAN.
1524:Drivers/STM32G4xx_HAL_Driver/Src/stm32g4xx_hal_fdcan.c ****   * @param  TimestampPrescaler Timestamp Counter Prescaler.
1525:Drivers/STM32G4xx_HAL_Driver/Src/stm32g4xx_hal_fdcan.c ****   *         This parameter can be a value of @arg FDCAN_Timestamp_Prescaler.
1526:Drivers/STM32G4xx_HAL_Driver/Src/stm32g4xx_hal_fdcan.c ****   * @retval HAL status
1527:Drivers/STM32G4xx_HAL_Driver/Src/stm32g4xx_hal_fdcan.c ****   */
1528:Drivers/STM32G4xx_HAL_Driver/Src/stm32g4xx_hal_fdcan.c **** HAL_StatusTypeDef HAL_FDCAN_ConfigTimestampCounter(FDCAN_HandleTypeDef *hfdcan, uint32_t TimestampP
1529:Drivers/STM32G4xx_HAL_Driver/Src/stm32g4xx_hal_fdcan.c **** {
 1331              		.loc 1 1529 1
 1332              		.cfi_startproc
 1333              		@ args = 0, pretend = 0, frame = 8
 1334              		@ frame_needed = 1, uses_anonymous_args = 0
 1335              		@ link register save eliminated.
 1336 0000 80B4     		push	{r7}
 1337              	.LCFI62:
 1338              		.cfi_def_cfa_offset 4
 1339              		.cfi_offset 7, -4
 1340 0002 83B0     		sub	sp, sp, #12
 1341              	.LCFI63:
 1342              		.cfi_def_cfa_offset 16
 1343 0004 00AF     		add	r7, sp, #0
 1344              	.LCFI64:
 1345              		.cfi_def_cfa_register 7
 1346 0006 7860     		str	r0, [r7, #4]
 1347 0008 3960     		str	r1, [r7]
1530:Drivers/STM32G4xx_HAL_Driver/Src/stm32g4xx_hal_fdcan.c ****   /* Check function parameters */
1531:Drivers/STM32G4xx_HAL_Driver/Src/stm32g4xx_hal_fdcan.c ****   assert_param(IS_FDCAN_TIMESTAMP_PRESCALER(TimestampPrescaler));
1532:Drivers/STM32G4xx_HAL_Driver/Src/stm32g4xx_hal_fdcan.c **** 
1533:Drivers/STM32G4xx_HAL_Driver/Src/stm32g4xx_hal_fdcan.c ****   if (hfdcan->State == HAL_FDCAN_STATE_READY)
 1348              		.loc 1 1533 13
 1349 000a 7B68     		ldr	r3, [r7, #4]
 1350 000c 93F85C30 		ldrb	r3, [r3, #92]
 1351 0010 DBB2     		uxtb	r3, r3
 1352              		.loc 1 1533 6
 1353 0012 012B     		cmp	r3, #1
 1354 0014 0BD1     		bne	.L56
1534:Drivers/STM32G4xx_HAL_Driver/Src/stm32g4xx_hal_fdcan.c ****   {
1535:Drivers/STM32G4xx_HAL_Driver/Src/stm32g4xx_hal_fdcan.c ****     /* Configure prescaler */
1536:Drivers/STM32G4xx_HAL_Driver/Src/stm32g4xx_hal_fdcan.c ****     MODIFY_REG(hfdcan->Instance->TSCC, FDCAN_TSCC_TCP, TimestampPrescaler);
 1355              		.loc 1 1536 5
 1356 0016 7B68     		ldr	r3, [r7, #4]
 1357 0018 1B68     		ldr	r3, [r3]
 1358 001a 1B6A     		ldr	r3, [r3, #32]
 1359 001c 23F47021 		bic	r1, r3, #983040
 1360 0020 7B68     		ldr	r3, [r7, #4]
 1361 0022 1B68     		ldr	r3, [r3]
 1362 0024 3A68     		ldr	r2, [r7]
 1363 0026 0A43     		orrs	r2, r2, r1
 1364 0028 1A62     		str	r2, [r3, #32]
ARM GAS  C:\Users\AURORA~1\AppData\Local\Temp\ccEbooPs.s 			page 52


1537:Drivers/STM32G4xx_HAL_Driver/Src/stm32g4xx_hal_fdcan.c **** 
1538:Drivers/STM32G4xx_HAL_Driver/Src/stm32g4xx_hal_fdcan.c ****     /* Return function status */
1539:Drivers/STM32G4xx_HAL_Driver/Src/stm32g4xx_hal_fdcan.c ****     return HAL_OK;
 1365              		.loc 1 1539 12
 1366 002a 0023     		movs	r3, #0
 1367 002c 06E0     		b	.L57
 1368              	.L56:
1540:Drivers/STM32G4xx_HAL_Driver/Src/stm32g4xx_hal_fdcan.c ****   }
1541:Drivers/STM32G4xx_HAL_Driver/Src/stm32g4xx_hal_fdcan.c ****   else
1542:Drivers/STM32G4xx_HAL_Driver/Src/stm32g4xx_hal_fdcan.c ****   {
1543:Drivers/STM32G4xx_HAL_Driver/Src/stm32g4xx_hal_fdcan.c ****     /* Update error code */
1544:Drivers/STM32G4xx_HAL_Driver/Src/stm32g4xx_hal_fdcan.c ****     hfdcan->ErrorCode |= HAL_FDCAN_ERROR_NOT_READY;
 1369              		.loc 1 1544 11
 1370 002e 7B68     		ldr	r3, [r7, #4]
 1371 0030 1B6E     		ldr	r3, [r3, #96]
 1372              		.loc 1 1544 23
 1373 0032 43F00402 		orr	r2, r3, #4
 1374 0036 7B68     		ldr	r3, [r7, #4]
 1375 0038 1A66     		str	r2, [r3, #96]
1545:Drivers/STM32G4xx_HAL_Driver/Src/stm32g4xx_hal_fdcan.c **** 
1546:Drivers/STM32G4xx_HAL_Driver/Src/stm32g4xx_hal_fdcan.c ****     return HAL_ERROR;
 1376              		.loc 1 1546 12
 1377 003a 0123     		movs	r3, #1
 1378              	.L57:
1547:Drivers/STM32G4xx_HAL_Driver/Src/stm32g4xx_hal_fdcan.c ****   }
1548:Drivers/STM32G4xx_HAL_Driver/Src/stm32g4xx_hal_fdcan.c **** }
 1379              		.loc 1 1548 1
 1380 003c 1846     		mov	r0, r3
 1381 003e 0C37     		adds	r7, r7, #12
 1382              	.LCFI65:
 1383              		.cfi_def_cfa_offset 4
 1384 0040 BD46     		mov	sp, r7
 1385              	.LCFI66:
 1386              		.cfi_def_cfa_register 13
 1387              		@ sp needed
 1388 0042 5DF8047B 		ldr	r7, [sp], #4
 1389              	.LCFI67:
 1390              		.cfi_restore 7
 1391              		.cfi_def_cfa_offset 0
 1392 0046 7047     		bx	lr
 1393              		.cfi_endproc
 1394              	.LFE143:
 1396              		.section	.text.HAL_FDCAN_EnableTimestampCounter,"ax",%progbits
 1397              		.align	1
 1398              		.global	HAL_FDCAN_EnableTimestampCounter
 1399              		.syntax unified
 1400              		.thumb
 1401              		.thumb_func
 1403              	HAL_FDCAN_EnableTimestampCounter:
 1404              	.LFB144:
1549:Drivers/STM32G4xx_HAL_Driver/Src/stm32g4xx_hal_fdcan.c **** 
1550:Drivers/STM32G4xx_HAL_Driver/Src/stm32g4xx_hal_fdcan.c **** /**
1551:Drivers/STM32G4xx_HAL_Driver/Src/stm32g4xx_hal_fdcan.c ****   * @brief  Enable the timestamp counter.
1552:Drivers/STM32G4xx_HAL_Driver/Src/stm32g4xx_hal_fdcan.c ****   * @param  hfdcan pointer to an FDCAN_HandleTypeDef structure that contains
1553:Drivers/STM32G4xx_HAL_Driver/Src/stm32g4xx_hal_fdcan.c ****   *         the configuration information for the specified FDCAN.
1554:Drivers/STM32G4xx_HAL_Driver/Src/stm32g4xx_hal_fdcan.c ****   * @param  TimestampOperation Timestamp counter operation.
1555:Drivers/STM32G4xx_HAL_Driver/Src/stm32g4xx_hal_fdcan.c ****   *         This parameter can be a value of @arg FDCAN_Timestamp.
ARM GAS  C:\Users\AURORA~1\AppData\Local\Temp\ccEbooPs.s 			page 53


1556:Drivers/STM32G4xx_HAL_Driver/Src/stm32g4xx_hal_fdcan.c ****   * @retval HAL status
1557:Drivers/STM32G4xx_HAL_Driver/Src/stm32g4xx_hal_fdcan.c ****   */
1558:Drivers/STM32G4xx_HAL_Driver/Src/stm32g4xx_hal_fdcan.c **** HAL_StatusTypeDef HAL_FDCAN_EnableTimestampCounter(FDCAN_HandleTypeDef *hfdcan, uint32_t TimestampO
1559:Drivers/STM32G4xx_HAL_Driver/Src/stm32g4xx_hal_fdcan.c **** {
 1405              		.loc 1 1559 1
 1406              		.cfi_startproc
 1407              		@ args = 0, pretend = 0, frame = 8
 1408              		@ frame_needed = 1, uses_anonymous_args = 0
 1409              		@ link register save eliminated.
 1410 0000 80B4     		push	{r7}
 1411              	.LCFI68:
 1412              		.cfi_def_cfa_offset 4
 1413              		.cfi_offset 7, -4
 1414 0002 83B0     		sub	sp, sp, #12
 1415              	.LCFI69:
 1416              		.cfi_def_cfa_offset 16
 1417 0004 00AF     		add	r7, sp, #0
 1418              	.LCFI70:
 1419              		.cfi_def_cfa_register 7
 1420 0006 7860     		str	r0, [r7, #4]
 1421 0008 3960     		str	r1, [r7]
1560:Drivers/STM32G4xx_HAL_Driver/Src/stm32g4xx_hal_fdcan.c ****   /* Check function parameters */
1561:Drivers/STM32G4xx_HAL_Driver/Src/stm32g4xx_hal_fdcan.c ****   assert_param(IS_FDCAN_TIMESTAMP(TimestampOperation));
1562:Drivers/STM32G4xx_HAL_Driver/Src/stm32g4xx_hal_fdcan.c **** 
1563:Drivers/STM32G4xx_HAL_Driver/Src/stm32g4xx_hal_fdcan.c ****   if (hfdcan->State == HAL_FDCAN_STATE_READY)
 1422              		.loc 1 1563 13
 1423 000a 7B68     		ldr	r3, [r7, #4]
 1424 000c 93F85C30 		ldrb	r3, [r3, #92]
 1425 0010 DBB2     		uxtb	r3, r3
 1426              		.loc 1 1563 6
 1427 0012 012B     		cmp	r3, #1
 1428 0014 0BD1     		bne	.L59
1564:Drivers/STM32G4xx_HAL_Driver/Src/stm32g4xx_hal_fdcan.c ****   {
1565:Drivers/STM32G4xx_HAL_Driver/Src/stm32g4xx_hal_fdcan.c ****     /* Enable timestamp counter */
1566:Drivers/STM32G4xx_HAL_Driver/Src/stm32g4xx_hal_fdcan.c ****     MODIFY_REG(hfdcan->Instance->TSCC, FDCAN_TSCC_TSS, TimestampOperation);
 1429              		.loc 1 1566 5
 1430 0016 7B68     		ldr	r3, [r7, #4]
 1431 0018 1B68     		ldr	r3, [r3]
 1432 001a 1B6A     		ldr	r3, [r3, #32]
 1433 001c 23F00301 		bic	r1, r3, #3
 1434 0020 7B68     		ldr	r3, [r7, #4]
 1435 0022 1B68     		ldr	r3, [r3]
 1436 0024 3A68     		ldr	r2, [r7]
 1437 0026 0A43     		orrs	r2, r2, r1
 1438 0028 1A62     		str	r2, [r3, #32]
1567:Drivers/STM32G4xx_HAL_Driver/Src/stm32g4xx_hal_fdcan.c **** 
1568:Drivers/STM32G4xx_HAL_Driver/Src/stm32g4xx_hal_fdcan.c ****     /* Return function status */
1569:Drivers/STM32G4xx_HAL_Driver/Src/stm32g4xx_hal_fdcan.c ****     return HAL_OK;
 1439              		.loc 1 1569 12
 1440 002a 0023     		movs	r3, #0
 1441 002c 06E0     		b	.L60
 1442              	.L59:
1570:Drivers/STM32G4xx_HAL_Driver/Src/stm32g4xx_hal_fdcan.c ****   }
1571:Drivers/STM32G4xx_HAL_Driver/Src/stm32g4xx_hal_fdcan.c ****   else
1572:Drivers/STM32G4xx_HAL_Driver/Src/stm32g4xx_hal_fdcan.c ****   {
1573:Drivers/STM32G4xx_HAL_Driver/Src/stm32g4xx_hal_fdcan.c ****     /* Update error code */
1574:Drivers/STM32G4xx_HAL_Driver/Src/stm32g4xx_hal_fdcan.c ****     hfdcan->ErrorCode |= HAL_FDCAN_ERROR_NOT_READY;
ARM GAS  C:\Users\AURORA~1\AppData\Local\Temp\ccEbooPs.s 			page 54


 1443              		.loc 1 1574 11
 1444 002e 7B68     		ldr	r3, [r7, #4]
 1445 0030 1B6E     		ldr	r3, [r3, #96]
 1446              		.loc 1 1574 23
 1447 0032 43F00402 		orr	r2, r3, #4
 1448 0036 7B68     		ldr	r3, [r7, #4]
 1449 0038 1A66     		str	r2, [r3, #96]
1575:Drivers/STM32G4xx_HAL_Driver/Src/stm32g4xx_hal_fdcan.c **** 
1576:Drivers/STM32G4xx_HAL_Driver/Src/stm32g4xx_hal_fdcan.c ****     return HAL_ERROR;
 1450              		.loc 1 1576 12
 1451 003a 0123     		movs	r3, #1
 1452              	.L60:
1577:Drivers/STM32G4xx_HAL_Driver/Src/stm32g4xx_hal_fdcan.c ****   }
1578:Drivers/STM32G4xx_HAL_Driver/Src/stm32g4xx_hal_fdcan.c **** }
 1453              		.loc 1 1578 1
 1454 003c 1846     		mov	r0, r3
 1455 003e 0C37     		adds	r7, r7, #12
 1456              	.LCFI71:
 1457              		.cfi_def_cfa_offset 4
 1458 0040 BD46     		mov	sp, r7
 1459              	.LCFI72:
 1460              		.cfi_def_cfa_register 13
 1461              		@ sp needed
 1462 0042 5DF8047B 		ldr	r7, [sp], #4
 1463              	.LCFI73:
 1464              		.cfi_restore 7
 1465              		.cfi_def_cfa_offset 0
 1466 0046 7047     		bx	lr
 1467              		.cfi_endproc
 1468              	.LFE144:
 1470              		.section	.text.HAL_FDCAN_DisableTimestampCounter,"ax",%progbits
 1471              		.align	1
 1472              		.global	HAL_FDCAN_DisableTimestampCounter
 1473              		.syntax unified
 1474              		.thumb
 1475              		.thumb_func
 1477              	HAL_FDCAN_DisableTimestampCounter:
 1478              	.LFB145:
1579:Drivers/STM32G4xx_HAL_Driver/Src/stm32g4xx_hal_fdcan.c **** 
1580:Drivers/STM32G4xx_HAL_Driver/Src/stm32g4xx_hal_fdcan.c **** /**
1581:Drivers/STM32G4xx_HAL_Driver/Src/stm32g4xx_hal_fdcan.c ****   * @brief  Disable the timestamp counter.
1582:Drivers/STM32G4xx_HAL_Driver/Src/stm32g4xx_hal_fdcan.c ****   * @param  hfdcan pointer to an FDCAN_HandleTypeDef structure that contains
1583:Drivers/STM32G4xx_HAL_Driver/Src/stm32g4xx_hal_fdcan.c ****   *         the configuration information for the specified FDCAN.
1584:Drivers/STM32G4xx_HAL_Driver/Src/stm32g4xx_hal_fdcan.c ****   * @retval HAL status
1585:Drivers/STM32G4xx_HAL_Driver/Src/stm32g4xx_hal_fdcan.c ****   */
1586:Drivers/STM32G4xx_HAL_Driver/Src/stm32g4xx_hal_fdcan.c **** HAL_StatusTypeDef HAL_FDCAN_DisableTimestampCounter(FDCAN_HandleTypeDef *hfdcan)
1587:Drivers/STM32G4xx_HAL_Driver/Src/stm32g4xx_hal_fdcan.c **** {
 1479              		.loc 1 1587 1
 1480              		.cfi_startproc
 1481              		@ args = 0, pretend = 0, frame = 8
 1482              		@ frame_needed = 1, uses_anonymous_args = 0
 1483              		@ link register save eliminated.
 1484 0000 80B4     		push	{r7}
 1485              	.LCFI74:
 1486              		.cfi_def_cfa_offset 4
 1487              		.cfi_offset 7, -4
 1488 0002 83B0     		sub	sp, sp, #12
ARM GAS  C:\Users\AURORA~1\AppData\Local\Temp\ccEbooPs.s 			page 55


 1489              	.LCFI75:
 1490              		.cfi_def_cfa_offset 16
 1491 0004 00AF     		add	r7, sp, #0
 1492              	.LCFI76:
 1493              		.cfi_def_cfa_register 7
 1494 0006 7860     		str	r0, [r7, #4]
1588:Drivers/STM32G4xx_HAL_Driver/Src/stm32g4xx_hal_fdcan.c ****   if (hfdcan->State == HAL_FDCAN_STATE_READY)
 1495              		.loc 1 1588 13
 1496 0008 7B68     		ldr	r3, [r7, #4]
 1497 000a 93F85C30 		ldrb	r3, [r3, #92]
 1498 000e DBB2     		uxtb	r3, r3
 1499              		.loc 1 1588 6
 1500 0010 012B     		cmp	r3, #1
 1501 0012 09D1     		bne	.L62
1589:Drivers/STM32G4xx_HAL_Driver/Src/stm32g4xx_hal_fdcan.c ****   {
1590:Drivers/STM32G4xx_HAL_Driver/Src/stm32g4xx_hal_fdcan.c ****     /* Disable timestamp counter */
1591:Drivers/STM32G4xx_HAL_Driver/Src/stm32g4xx_hal_fdcan.c ****     CLEAR_BIT(hfdcan->Instance->TSCC, FDCAN_TSCC_TSS);
 1502              		.loc 1 1591 5
 1503 0014 7B68     		ldr	r3, [r7, #4]
 1504 0016 1B68     		ldr	r3, [r3]
 1505 0018 1A6A     		ldr	r2, [r3, #32]
 1506 001a 7B68     		ldr	r3, [r7, #4]
 1507 001c 1B68     		ldr	r3, [r3]
 1508 001e 22F00302 		bic	r2, r2, #3
 1509 0022 1A62     		str	r2, [r3, #32]
1592:Drivers/STM32G4xx_HAL_Driver/Src/stm32g4xx_hal_fdcan.c **** 
1593:Drivers/STM32G4xx_HAL_Driver/Src/stm32g4xx_hal_fdcan.c ****     /* Return function status */
1594:Drivers/STM32G4xx_HAL_Driver/Src/stm32g4xx_hal_fdcan.c ****     return HAL_OK;
 1510              		.loc 1 1594 12
 1511 0024 0023     		movs	r3, #0
 1512 0026 06E0     		b	.L63
 1513              	.L62:
1595:Drivers/STM32G4xx_HAL_Driver/Src/stm32g4xx_hal_fdcan.c ****   }
1596:Drivers/STM32G4xx_HAL_Driver/Src/stm32g4xx_hal_fdcan.c ****   else
1597:Drivers/STM32G4xx_HAL_Driver/Src/stm32g4xx_hal_fdcan.c ****   {
1598:Drivers/STM32G4xx_HAL_Driver/Src/stm32g4xx_hal_fdcan.c ****     /* Update error code */
1599:Drivers/STM32G4xx_HAL_Driver/Src/stm32g4xx_hal_fdcan.c ****     hfdcan->ErrorCode |= HAL_FDCAN_ERROR_NOT_READY;
 1514              		.loc 1 1599 11
 1515 0028 7B68     		ldr	r3, [r7, #4]
 1516 002a 1B6E     		ldr	r3, [r3, #96]
 1517              		.loc 1 1599 23
 1518 002c 43F00402 		orr	r2, r3, #4
 1519 0030 7B68     		ldr	r3, [r7, #4]
 1520 0032 1A66     		str	r2, [r3, #96]
1600:Drivers/STM32G4xx_HAL_Driver/Src/stm32g4xx_hal_fdcan.c **** 
1601:Drivers/STM32G4xx_HAL_Driver/Src/stm32g4xx_hal_fdcan.c ****     return HAL_ERROR;
 1521              		.loc 1 1601 12
 1522 0034 0123     		movs	r3, #1
 1523              	.L63:
1602:Drivers/STM32G4xx_HAL_Driver/Src/stm32g4xx_hal_fdcan.c ****   }
1603:Drivers/STM32G4xx_HAL_Driver/Src/stm32g4xx_hal_fdcan.c **** }
 1524              		.loc 1 1603 1
 1525 0036 1846     		mov	r0, r3
 1526 0038 0C37     		adds	r7, r7, #12
 1527              	.LCFI77:
 1528              		.cfi_def_cfa_offset 4
 1529 003a BD46     		mov	sp, r7
ARM GAS  C:\Users\AURORA~1\AppData\Local\Temp\ccEbooPs.s 			page 56


 1530              	.LCFI78:
 1531              		.cfi_def_cfa_register 13
 1532              		@ sp needed
 1533 003c 5DF8047B 		ldr	r7, [sp], #4
 1534              	.LCFI79:
 1535              		.cfi_restore 7
 1536              		.cfi_def_cfa_offset 0
 1537 0040 7047     		bx	lr
 1538              		.cfi_endproc
 1539              	.LFE145:
 1541              		.section	.text.HAL_FDCAN_GetTimestampCounter,"ax",%progbits
 1542              		.align	1
 1543              		.global	HAL_FDCAN_GetTimestampCounter
 1544              		.syntax unified
 1545              		.thumb
 1546              		.thumb_func
 1548              	HAL_FDCAN_GetTimestampCounter:
 1549              	.LFB146:
1604:Drivers/STM32G4xx_HAL_Driver/Src/stm32g4xx_hal_fdcan.c **** 
1605:Drivers/STM32G4xx_HAL_Driver/Src/stm32g4xx_hal_fdcan.c **** /**
1606:Drivers/STM32G4xx_HAL_Driver/Src/stm32g4xx_hal_fdcan.c ****   * @brief  Get the timestamp counter value.
1607:Drivers/STM32G4xx_HAL_Driver/Src/stm32g4xx_hal_fdcan.c ****   * @param  hfdcan pointer to an FDCAN_HandleTypeDef structure that contains
1608:Drivers/STM32G4xx_HAL_Driver/Src/stm32g4xx_hal_fdcan.c ****   *         the configuration information for the specified FDCAN.
1609:Drivers/STM32G4xx_HAL_Driver/Src/stm32g4xx_hal_fdcan.c ****   * @retval Timestamp counter value
1610:Drivers/STM32G4xx_HAL_Driver/Src/stm32g4xx_hal_fdcan.c ****   */
1611:Drivers/STM32G4xx_HAL_Driver/Src/stm32g4xx_hal_fdcan.c **** uint16_t HAL_FDCAN_GetTimestampCounter(const FDCAN_HandleTypeDef *hfdcan)
1612:Drivers/STM32G4xx_HAL_Driver/Src/stm32g4xx_hal_fdcan.c **** {
 1550              		.loc 1 1612 1
 1551              		.cfi_startproc
 1552              		@ args = 0, pretend = 0, frame = 8
 1553              		@ frame_needed = 1, uses_anonymous_args = 0
 1554              		@ link register save eliminated.
 1555 0000 80B4     		push	{r7}
 1556              	.LCFI80:
 1557              		.cfi_def_cfa_offset 4
 1558              		.cfi_offset 7, -4
 1559 0002 83B0     		sub	sp, sp, #12
 1560              	.LCFI81:
 1561              		.cfi_def_cfa_offset 16
 1562 0004 00AF     		add	r7, sp, #0
 1563              	.LCFI82:
 1564              		.cfi_def_cfa_register 7
 1565 0006 7860     		str	r0, [r7, #4]
1613:Drivers/STM32G4xx_HAL_Driver/Src/stm32g4xx_hal_fdcan.c ****   return (uint16_t)(hfdcan->Instance->TSCV);
 1566              		.loc 1 1613 27
 1567 0008 7B68     		ldr	r3, [r7, #4]
 1568 000a 1B68     		ldr	r3, [r3]
 1569              		.loc 1 1613 37
 1570 000c 5B6A     		ldr	r3, [r3, #36]
 1571              		.loc 1 1613 10
 1572 000e 9BB2     		uxth	r3, r3
1614:Drivers/STM32G4xx_HAL_Driver/Src/stm32g4xx_hal_fdcan.c **** }
 1573              		.loc 1 1614 1
 1574 0010 1846     		mov	r0, r3
 1575 0012 0C37     		adds	r7, r7, #12
 1576              	.LCFI83:
 1577              		.cfi_def_cfa_offset 4
ARM GAS  C:\Users\AURORA~1\AppData\Local\Temp\ccEbooPs.s 			page 57


 1578 0014 BD46     		mov	sp, r7
 1579              	.LCFI84:
 1580              		.cfi_def_cfa_register 13
 1581              		@ sp needed
 1582 0016 5DF8047B 		ldr	r7, [sp], #4
 1583              	.LCFI85:
 1584              		.cfi_restore 7
 1585              		.cfi_def_cfa_offset 0
 1586 001a 7047     		bx	lr
 1587              		.cfi_endproc
 1588              	.LFE146:
 1590              		.section	.text.HAL_FDCAN_ResetTimestampCounter,"ax",%progbits
 1591              		.align	1
 1592              		.global	HAL_FDCAN_ResetTimestampCounter
 1593              		.syntax unified
 1594              		.thumb
 1595              		.thumb_func
 1597              	HAL_FDCAN_ResetTimestampCounter:
 1598              	.LFB147:
1615:Drivers/STM32G4xx_HAL_Driver/Src/stm32g4xx_hal_fdcan.c **** 
1616:Drivers/STM32G4xx_HAL_Driver/Src/stm32g4xx_hal_fdcan.c **** /**
1617:Drivers/STM32G4xx_HAL_Driver/Src/stm32g4xx_hal_fdcan.c ****   * @brief  Reset the timestamp counter to zero.
1618:Drivers/STM32G4xx_HAL_Driver/Src/stm32g4xx_hal_fdcan.c ****   * @param  hfdcan pointer to an FDCAN_HandleTypeDef structure that contains
1619:Drivers/STM32G4xx_HAL_Driver/Src/stm32g4xx_hal_fdcan.c ****   *         the configuration information for the specified FDCAN.
1620:Drivers/STM32G4xx_HAL_Driver/Src/stm32g4xx_hal_fdcan.c ****   * @retval HAL status
1621:Drivers/STM32G4xx_HAL_Driver/Src/stm32g4xx_hal_fdcan.c ****   */
1622:Drivers/STM32G4xx_HAL_Driver/Src/stm32g4xx_hal_fdcan.c **** HAL_StatusTypeDef HAL_FDCAN_ResetTimestampCounter(FDCAN_HandleTypeDef *hfdcan)
1623:Drivers/STM32G4xx_HAL_Driver/Src/stm32g4xx_hal_fdcan.c **** {
 1599              		.loc 1 1623 1
 1600              		.cfi_startproc
 1601              		@ args = 0, pretend = 0, frame = 8
 1602              		@ frame_needed = 1, uses_anonymous_args = 0
 1603              		@ link register save eliminated.
 1604 0000 80B4     		push	{r7}
 1605              	.LCFI86:
 1606              		.cfi_def_cfa_offset 4
 1607              		.cfi_offset 7, -4
 1608 0002 83B0     		sub	sp, sp, #12
 1609              	.LCFI87:
 1610              		.cfi_def_cfa_offset 16
 1611 0004 00AF     		add	r7, sp, #0
 1612              	.LCFI88:
 1613              		.cfi_def_cfa_register 7
 1614 0006 7860     		str	r0, [r7, #4]
1624:Drivers/STM32G4xx_HAL_Driver/Src/stm32g4xx_hal_fdcan.c ****   if ((hfdcan->Instance->TSCC & FDCAN_TSCC_TSS) != FDCAN_TIMESTAMP_EXTERNAL)
 1615              		.loc 1 1624 14
 1616 0008 7B68     		ldr	r3, [r7, #4]
 1617 000a 1B68     		ldr	r3, [r3]
 1618              		.loc 1 1624 24
 1619 000c 1B6A     		ldr	r3, [r3, #32]
 1620              		.loc 1 1624 31
 1621 000e 03F00303 		and	r3, r3, #3
 1622              		.loc 1 1624 6
 1623 0012 022B     		cmp	r3, #2
 1624 0014 05D0     		beq	.L67
1625:Drivers/STM32G4xx_HAL_Driver/Src/stm32g4xx_hal_fdcan.c ****   {
1626:Drivers/STM32G4xx_HAL_Driver/Src/stm32g4xx_hal_fdcan.c ****     /* Reset timestamp counter.
ARM GAS  C:\Users\AURORA~1\AppData\Local\Temp\ccEbooPs.s 			page 58


1627:Drivers/STM32G4xx_HAL_Driver/Src/stm32g4xx_hal_fdcan.c ****        Actually any write operation to TSCV clears the counter */
1628:Drivers/STM32G4xx_HAL_Driver/Src/stm32g4xx_hal_fdcan.c ****     CLEAR_REG(hfdcan->Instance->TSCV);
 1625              		.loc 1 1628 5
 1626 0016 7B68     		ldr	r3, [r7, #4]
 1627 0018 1B68     		ldr	r3, [r3]
 1628 001a 0022     		movs	r2, #0
 1629 001c 5A62     		str	r2, [r3, #36]
1629:Drivers/STM32G4xx_HAL_Driver/Src/stm32g4xx_hal_fdcan.c ****   }
1630:Drivers/STM32G4xx_HAL_Driver/Src/stm32g4xx_hal_fdcan.c ****   else
1631:Drivers/STM32G4xx_HAL_Driver/Src/stm32g4xx_hal_fdcan.c ****   {
1632:Drivers/STM32G4xx_HAL_Driver/Src/stm32g4xx_hal_fdcan.c ****     /* Update error code.
1633:Drivers/STM32G4xx_HAL_Driver/Src/stm32g4xx_hal_fdcan.c ****        Unable to reset external counter */
1634:Drivers/STM32G4xx_HAL_Driver/Src/stm32g4xx_hal_fdcan.c ****     hfdcan->ErrorCode |= HAL_FDCAN_ERROR_NOT_SUPPORTED;
1635:Drivers/STM32G4xx_HAL_Driver/Src/stm32g4xx_hal_fdcan.c **** 
1636:Drivers/STM32G4xx_HAL_Driver/Src/stm32g4xx_hal_fdcan.c ****     return HAL_ERROR;
1637:Drivers/STM32G4xx_HAL_Driver/Src/stm32g4xx_hal_fdcan.c ****   }
1638:Drivers/STM32G4xx_HAL_Driver/Src/stm32g4xx_hal_fdcan.c **** 
1639:Drivers/STM32G4xx_HAL_Driver/Src/stm32g4xx_hal_fdcan.c ****   /* Return function status */
1640:Drivers/STM32G4xx_HAL_Driver/Src/stm32g4xx_hal_fdcan.c ****   return HAL_OK;
 1630              		.loc 1 1640 10
 1631 001e 0023     		movs	r3, #0
 1632 0020 06E0     		b	.L69
 1633              	.L67:
1634:Drivers/STM32G4xx_HAL_Driver/Src/stm32g4xx_hal_fdcan.c **** 
 1634              		.loc 1 1634 11
 1635 0022 7B68     		ldr	r3, [r7, #4]
 1636 0024 1B6E     		ldr	r3, [r3, #96]
1634:Drivers/STM32G4xx_HAL_Driver/Src/stm32g4xx_hal_fdcan.c **** 
 1637              		.loc 1 1634 23
 1638 0026 43F01002 		orr	r2, r3, #16
 1639 002a 7B68     		ldr	r3, [r7, #4]
 1640 002c 1A66     		str	r2, [r3, #96]
1636:Drivers/STM32G4xx_HAL_Driver/Src/stm32g4xx_hal_fdcan.c ****   }
 1641              		.loc 1 1636 12
 1642 002e 0123     		movs	r3, #1
 1643              	.L69:
1641:Drivers/STM32G4xx_HAL_Driver/Src/stm32g4xx_hal_fdcan.c **** }
 1644              		.loc 1 1641 1
 1645 0030 1846     		mov	r0, r3
 1646 0032 0C37     		adds	r7, r7, #12
 1647              	.LCFI89:
 1648              		.cfi_def_cfa_offset 4
 1649 0034 BD46     		mov	sp, r7
 1650              	.LCFI90:
 1651              		.cfi_def_cfa_register 13
 1652              		@ sp needed
 1653 0036 5DF8047B 		ldr	r7, [sp], #4
 1654              	.LCFI91:
 1655              		.cfi_restore 7
 1656              		.cfi_def_cfa_offset 0
 1657 003a 7047     		bx	lr
 1658              		.cfi_endproc
 1659              	.LFE147:
 1661              		.section	.text.HAL_FDCAN_ConfigTimeoutCounter,"ax",%progbits
 1662              		.align	1
 1663              		.global	HAL_FDCAN_ConfigTimeoutCounter
 1664              		.syntax unified
ARM GAS  C:\Users\AURORA~1\AppData\Local\Temp\ccEbooPs.s 			page 59


 1665              		.thumb
 1666              		.thumb_func
 1668              	HAL_FDCAN_ConfigTimeoutCounter:
 1669              	.LFB148:
1642:Drivers/STM32G4xx_HAL_Driver/Src/stm32g4xx_hal_fdcan.c **** 
1643:Drivers/STM32G4xx_HAL_Driver/Src/stm32g4xx_hal_fdcan.c **** /**
1644:Drivers/STM32G4xx_HAL_Driver/Src/stm32g4xx_hal_fdcan.c ****   * @brief  Configure the timeout counter.
1645:Drivers/STM32G4xx_HAL_Driver/Src/stm32g4xx_hal_fdcan.c ****   * @param  hfdcan pointer to an FDCAN_HandleTypeDef structure that contains
1646:Drivers/STM32G4xx_HAL_Driver/Src/stm32g4xx_hal_fdcan.c ****   *         the configuration information for the specified FDCAN.
1647:Drivers/STM32G4xx_HAL_Driver/Src/stm32g4xx_hal_fdcan.c ****   * @param  TimeoutOperation Timeout counter operation.
1648:Drivers/STM32G4xx_HAL_Driver/Src/stm32g4xx_hal_fdcan.c ****   *         This parameter can be a value of @arg FDCAN_Timeout_Operation.
1649:Drivers/STM32G4xx_HAL_Driver/Src/stm32g4xx_hal_fdcan.c ****   * @param  TimeoutPeriod Start value of the timeout down-counter.
1650:Drivers/STM32G4xx_HAL_Driver/Src/stm32g4xx_hal_fdcan.c ****   *         This parameter must be a number between 0x0000 and 0xFFFF
1651:Drivers/STM32G4xx_HAL_Driver/Src/stm32g4xx_hal_fdcan.c ****   * @retval HAL status
1652:Drivers/STM32G4xx_HAL_Driver/Src/stm32g4xx_hal_fdcan.c ****   */
1653:Drivers/STM32G4xx_HAL_Driver/Src/stm32g4xx_hal_fdcan.c **** HAL_StatusTypeDef HAL_FDCAN_ConfigTimeoutCounter(FDCAN_HandleTypeDef *hfdcan, uint32_t TimeoutOpera
1654:Drivers/STM32G4xx_HAL_Driver/Src/stm32g4xx_hal_fdcan.c ****                                                  uint32_t TimeoutPeriod)
1655:Drivers/STM32G4xx_HAL_Driver/Src/stm32g4xx_hal_fdcan.c **** {
 1670              		.loc 1 1655 1
 1671              		.cfi_startproc
 1672              		@ args = 0, pretend = 0, frame = 16
 1673              		@ frame_needed = 1, uses_anonymous_args = 0
 1674              		@ link register save eliminated.
 1675 0000 80B4     		push	{r7}
 1676              	.LCFI92:
 1677              		.cfi_def_cfa_offset 4
 1678              		.cfi_offset 7, -4
 1679 0002 85B0     		sub	sp, sp, #20
 1680              	.LCFI93:
 1681              		.cfi_def_cfa_offset 24
 1682 0004 00AF     		add	r7, sp, #0
 1683              	.LCFI94:
 1684              		.cfi_def_cfa_register 7
 1685 0006 F860     		str	r0, [r7, #12]
 1686 0008 B960     		str	r1, [r7, #8]
 1687 000a 7A60     		str	r2, [r7, #4]
1656:Drivers/STM32G4xx_HAL_Driver/Src/stm32g4xx_hal_fdcan.c ****   /* Check function parameters */
1657:Drivers/STM32G4xx_HAL_Driver/Src/stm32g4xx_hal_fdcan.c ****   assert_param(IS_FDCAN_TIMEOUT(TimeoutOperation));
1658:Drivers/STM32G4xx_HAL_Driver/Src/stm32g4xx_hal_fdcan.c ****   assert_param(IS_FDCAN_MAX_VALUE(TimeoutPeriod, 0xFFFFU));
1659:Drivers/STM32G4xx_HAL_Driver/Src/stm32g4xx_hal_fdcan.c **** 
1660:Drivers/STM32G4xx_HAL_Driver/Src/stm32g4xx_hal_fdcan.c ****   if (hfdcan->State == HAL_FDCAN_STATE_READY)
 1688              		.loc 1 1660 13
 1689 000c FB68     		ldr	r3, [r7, #12]
 1690 000e 93F85C30 		ldrb	r3, [r3, #92]
 1691 0012 DBB2     		uxtb	r3, r3
 1692              		.loc 1 1660 6
 1693 0014 012B     		cmp	r3, #1
 1694 0016 0FD1     		bne	.L71
1661:Drivers/STM32G4xx_HAL_Driver/Src/stm32g4xx_hal_fdcan.c ****   {
1662:Drivers/STM32G4xx_HAL_Driver/Src/stm32g4xx_hal_fdcan.c ****     /* Select timeout operation and configure period */
1663:Drivers/STM32G4xx_HAL_Driver/Src/stm32g4xx_hal_fdcan.c ****     MODIFY_REG(hfdcan->Instance->TOCC,
 1695              		.loc 1 1663 5
 1696 0018 FB68     		ldr	r3, [r7, #12]
 1697 001a 1B68     		ldr	r3, [r3]
 1698 001c 9A6A     		ldr	r2, [r3, #40]
 1699 001e 4FF6F973 		movw	r3, #65529
 1700 0022 1340     		ands	r3, r3, r2
ARM GAS  C:\Users\AURORA~1\AppData\Local\Temp\ccEbooPs.s 			page 60


 1701 0024 7A68     		ldr	r2, [r7, #4]
 1702 0026 1104     		lsls	r1, r2, #16
 1703 0028 BA68     		ldr	r2, [r7, #8]
 1704 002a 1143     		orrs	r1, r1, r2
 1705 002c FA68     		ldr	r2, [r7, #12]
 1706 002e 1268     		ldr	r2, [r2]
 1707 0030 0B43     		orrs	r3, r3, r1
 1708 0032 9362     		str	r3, [r2, #40]
1664:Drivers/STM32G4xx_HAL_Driver/Src/stm32g4xx_hal_fdcan.c ****                (FDCAN_TOCC_TOS | FDCAN_TOCC_TOP), (TimeoutOperation | (TimeoutPeriod << FDCAN_TOCC_
1665:Drivers/STM32G4xx_HAL_Driver/Src/stm32g4xx_hal_fdcan.c **** 
1666:Drivers/STM32G4xx_HAL_Driver/Src/stm32g4xx_hal_fdcan.c ****     /* Return function status */
1667:Drivers/STM32G4xx_HAL_Driver/Src/stm32g4xx_hal_fdcan.c ****     return HAL_OK;
 1709              		.loc 1 1667 12
 1710 0034 0023     		movs	r3, #0
 1711 0036 06E0     		b	.L72
 1712              	.L71:
1668:Drivers/STM32G4xx_HAL_Driver/Src/stm32g4xx_hal_fdcan.c ****   }
1669:Drivers/STM32G4xx_HAL_Driver/Src/stm32g4xx_hal_fdcan.c ****   else
1670:Drivers/STM32G4xx_HAL_Driver/Src/stm32g4xx_hal_fdcan.c ****   {
1671:Drivers/STM32G4xx_HAL_Driver/Src/stm32g4xx_hal_fdcan.c ****     /* Update error code */
1672:Drivers/STM32G4xx_HAL_Driver/Src/stm32g4xx_hal_fdcan.c ****     hfdcan->ErrorCode |= HAL_FDCAN_ERROR_NOT_READY;
 1713              		.loc 1 1672 11
 1714 0038 FB68     		ldr	r3, [r7, #12]
 1715 003a 1B6E     		ldr	r3, [r3, #96]
 1716              		.loc 1 1672 23
 1717 003c 43F00402 		orr	r2, r3, #4
 1718 0040 FB68     		ldr	r3, [r7, #12]
 1719 0042 1A66     		str	r2, [r3, #96]
1673:Drivers/STM32G4xx_HAL_Driver/Src/stm32g4xx_hal_fdcan.c **** 
1674:Drivers/STM32G4xx_HAL_Driver/Src/stm32g4xx_hal_fdcan.c ****     return HAL_ERROR;
 1720              		.loc 1 1674 12
 1721 0044 0123     		movs	r3, #1
 1722              	.L72:
1675:Drivers/STM32G4xx_HAL_Driver/Src/stm32g4xx_hal_fdcan.c ****   }
1676:Drivers/STM32G4xx_HAL_Driver/Src/stm32g4xx_hal_fdcan.c **** }
 1723              		.loc 1 1676 1
 1724 0046 1846     		mov	r0, r3
 1725 0048 1437     		adds	r7, r7, #20
 1726              	.LCFI95:
 1727              		.cfi_def_cfa_offset 4
 1728 004a BD46     		mov	sp, r7
 1729              	.LCFI96:
 1730              		.cfi_def_cfa_register 13
 1731              		@ sp needed
 1732 004c 5DF8047B 		ldr	r7, [sp], #4
 1733              	.LCFI97:
 1734              		.cfi_restore 7
 1735              		.cfi_def_cfa_offset 0
 1736 0050 7047     		bx	lr
 1737              		.cfi_endproc
 1738              	.LFE148:
 1740              		.section	.text.HAL_FDCAN_EnableTimeoutCounter,"ax",%progbits
 1741              		.align	1
 1742              		.global	HAL_FDCAN_EnableTimeoutCounter
 1743              		.syntax unified
 1744              		.thumb
 1745              		.thumb_func
ARM GAS  C:\Users\AURORA~1\AppData\Local\Temp\ccEbooPs.s 			page 61


 1747              	HAL_FDCAN_EnableTimeoutCounter:
 1748              	.LFB149:
1677:Drivers/STM32G4xx_HAL_Driver/Src/stm32g4xx_hal_fdcan.c **** 
1678:Drivers/STM32G4xx_HAL_Driver/Src/stm32g4xx_hal_fdcan.c **** /**
1679:Drivers/STM32G4xx_HAL_Driver/Src/stm32g4xx_hal_fdcan.c ****   * @brief  Enable the timeout counter.
1680:Drivers/STM32G4xx_HAL_Driver/Src/stm32g4xx_hal_fdcan.c ****   * @param  hfdcan pointer to an FDCAN_HandleTypeDef structure that contains
1681:Drivers/STM32G4xx_HAL_Driver/Src/stm32g4xx_hal_fdcan.c ****   *         the configuration information for the specified FDCAN.
1682:Drivers/STM32G4xx_HAL_Driver/Src/stm32g4xx_hal_fdcan.c ****   * @retval HAL status
1683:Drivers/STM32G4xx_HAL_Driver/Src/stm32g4xx_hal_fdcan.c ****   */
1684:Drivers/STM32G4xx_HAL_Driver/Src/stm32g4xx_hal_fdcan.c **** HAL_StatusTypeDef HAL_FDCAN_EnableTimeoutCounter(FDCAN_HandleTypeDef *hfdcan)
1685:Drivers/STM32G4xx_HAL_Driver/Src/stm32g4xx_hal_fdcan.c **** {
 1749              		.loc 1 1685 1
 1750              		.cfi_startproc
 1751              		@ args = 0, pretend = 0, frame = 8
 1752              		@ frame_needed = 1, uses_anonymous_args = 0
 1753              		@ link register save eliminated.
 1754 0000 80B4     		push	{r7}
 1755              	.LCFI98:
 1756              		.cfi_def_cfa_offset 4
 1757              		.cfi_offset 7, -4
 1758 0002 83B0     		sub	sp, sp, #12
 1759              	.LCFI99:
 1760              		.cfi_def_cfa_offset 16
 1761 0004 00AF     		add	r7, sp, #0
 1762              	.LCFI100:
 1763              		.cfi_def_cfa_register 7
 1764 0006 7860     		str	r0, [r7, #4]
1686:Drivers/STM32G4xx_HAL_Driver/Src/stm32g4xx_hal_fdcan.c ****   if (hfdcan->State == HAL_FDCAN_STATE_READY)
 1765              		.loc 1 1686 13
 1766 0008 7B68     		ldr	r3, [r7, #4]
 1767 000a 93F85C30 		ldrb	r3, [r3, #92]
 1768 000e DBB2     		uxtb	r3, r3
 1769              		.loc 1 1686 6
 1770 0010 012B     		cmp	r3, #1
 1771 0012 09D1     		bne	.L74
1687:Drivers/STM32G4xx_HAL_Driver/Src/stm32g4xx_hal_fdcan.c ****   {
1688:Drivers/STM32G4xx_HAL_Driver/Src/stm32g4xx_hal_fdcan.c ****     /* Enable timeout counter */
1689:Drivers/STM32G4xx_HAL_Driver/Src/stm32g4xx_hal_fdcan.c ****     SET_BIT(hfdcan->Instance->TOCC, FDCAN_TOCC_ETOC);
 1772              		.loc 1 1689 5
 1773 0014 7B68     		ldr	r3, [r7, #4]
 1774 0016 1B68     		ldr	r3, [r3]
 1775 0018 9A6A     		ldr	r2, [r3, #40]
 1776 001a 7B68     		ldr	r3, [r7, #4]
 1777 001c 1B68     		ldr	r3, [r3]
 1778 001e 42F00102 		orr	r2, r2, #1
 1779 0022 9A62     		str	r2, [r3, #40]
1690:Drivers/STM32G4xx_HAL_Driver/Src/stm32g4xx_hal_fdcan.c **** 
1691:Drivers/STM32G4xx_HAL_Driver/Src/stm32g4xx_hal_fdcan.c ****     /* Return function status */
1692:Drivers/STM32G4xx_HAL_Driver/Src/stm32g4xx_hal_fdcan.c ****     return HAL_OK;
 1780              		.loc 1 1692 12
 1781 0024 0023     		movs	r3, #0
 1782 0026 06E0     		b	.L75
 1783              	.L74:
1693:Drivers/STM32G4xx_HAL_Driver/Src/stm32g4xx_hal_fdcan.c ****   }
1694:Drivers/STM32G4xx_HAL_Driver/Src/stm32g4xx_hal_fdcan.c ****   else
1695:Drivers/STM32G4xx_HAL_Driver/Src/stm32g4xx_hal_fdcan.c ****   {
1696:Drivers/STM32G4xx_HAL_Driver/Src/stm32g4xx_hal_fdcan.c ****     /* Update error code */
ARM GAS  C:\Users\AURORA~1\AppData\Local\Temp\ccEbooPs.s 			page 62


1697:Drivers/STM32G4xx_HAL_Driver/Src/stm32g4xx_hal_fdcan.c ****     hfdcan->ErrorCode |= HAL_FDCAN_ERROR_NOT_READY;
 1784              		.loc 1 1697 11
 1785 0028 7B68     		ldr	r3, [r7, #4]
 1786 002a 1B6E     		ldr	r3, [r3, #96]
 1787              		.loc 1 1697 23
 1788 002c 43F00402 		orr	r2, r3, #4
 1789 0030 7B68     		ldr	r3, [r7, #4]
 1790 0032 1A66     		str	r2, [r3, #96]
1698:Drivers/STM32G4xx_HAL_Driver/Src/stm32g4xx_hal_fdcan.c **** 
1699:Drivers/STM32G4xx_HAL_Driver/Src/stm32g4xx_hal_fdcan.c ****     return HAL_ERROR;
 1791              		.loc 1 1699 12
 1792 0034 0123     		movs	r3, #1
 1793              	.L75:
1700:Drivers/STM32G4xx_HAL_Driver/Src/stm32g4xx_hal_fdcan.c ****   }
1701:Drivers/STM32G4xx_HAL_Driver/Src/stm32g4xx_hal_fdcan.c **** }
 1794              		.loc 1 1701 1
 1795 0036 1846     		mov	r0, r3
 1796 0038 0C37     		adds	r7, r7, #12
 1797              	.LCFI101:
 1798              		.cfi_def_cfa_offset 4
 1799 003a BD46     		mov	sp, r7
 1800              	.LCFI102:
 1801              		.cfi_def_cfa_register 13
 1802              		@ sp needed
 1803 003c 5DF8047B 		ldr	r7, [sp], #4
 1804              	.LCFI103:
 1805              		.cfi_restore 7
 1806              		.cfi_def_cfa_offset 0
 1807 0040 7047     		bx	lr
 1808              		.cfi_endproc
 1809              	.LFE149:
 1811              		.section	.text.HAL_FDCAN_DisableTimeoutCounter,"ax",%progbits
 1812              		.align	1
 1813              		.global	HAL_FDCAN_DisableTimeoutCounter
 1814              		.syntax unified
 1815              		.thumb
 1816              		.thumb_func
 1818              	HAL_FDCAN_DisableTimeoutCounter:
 1819              	.LFB150:
1702:Drivers/STM32G4xx_HAL_Driver/Src/stm32g4xx_hal_fdcan.c **** 
1703:Drivers/STM32G4xx_HAL_Driver/Src/stm32g4xx_hal_fdcan.c **** /**
1704:Drivers/STM32G4xx_HAL_Driver/Src/stm32g4xx_hal_fdcan.c ****   * @brief  Disable the timeout counter.
1705:Drivers/STM32G4xx_HAL_Driver/Src/stm32g4xx_hal_fdcan.c ****   * @param  hfdcan pointer to an FDCAN_HandleTypeDef structure that contains
1706:Drivers/STM32G4xx_HAL_Driver/Src/stm32g4xx_hal_fdcan.c ****   *         the configuration information for the specified FDCAN.
1707:Drivers/STM32G4xx_HAL_Driver/Src/stm32g4xx_hal_fdcan.c ****   * @retval HAL status
1708:Drivers/STM32G4xx_HAL_Driver/Src/stm32g4xx_hal_fdcan.c ****   */
1709:Drivers/STM32G4xx_HAL_Driver/Src/stm32g4xx_hal_fdcan.c **** HAL_StatusTypeDef HAL_FDCAN_DisableTimeoutCounter(FDCAN_HandleTypeDef *hfdcan)
1710:Drivers/STM32G4xx_HAL_Driver/Src/stm32g4xx_hal_fdcan.c **** {
 1820              		.loc 1 1710 1
 1821              		.cfi_startproc
 1822              		@ args = 0, pretend = 0, frame = 8
 1823              		@ frame_needed = 1, uses_anonymous_args = 0
 1824              		@ link register save eliminated.
 1825 0000 80B4     		push	{r7}
 1826              	.LCFI104:
 1827              		.cfi_def_cfa_offset 4
 1828              		.cfi_offset 7, -4
ARM GAS  C:\Users\AURORA~1\AppData\Local\Temp\ccEbooPs.s 			page 63


 1829 0002 83B0     		sub	sp, sp, #12
 1830              	.LCFI105:
 1831              		.cfi_def_cfa_offset 16
 1832 0004 00AF     		add	r7, sp, #0
 1833              	.LCFI106:
 1834              		.cfi_def_cfa_register 7
 1835 0006 7860     		str	r0, [r7, #4]
1711:Drivers/STM32G4xx_HAL_Driver/Src/stm32g4xx_hal_fdcan.c ****   if (hfdcan->State == HAL_FDCAN_STATE_READY)
 1836              		.loc 1 1711 13
 1837 0008 7B68     		ldr	r3, [r7, #4]
 1838 000a 93F85C30 		ldrb	r3, [r3, #92]
 1839 000e DBB2     		uxtb	r3, r3
 1840              		.loc 1 1711 6
 1841 0010 012B     		cmp	r3, #1
 1842 0012 09D1     		bne	.L77
1712:Drivers/STM32G4xx_HAL_Driver/Src/stm32g4xx_hal_fdcan.c ****   {
1713:Drivers/STM32G4xx_HAL_Driver/Src/stm32g4xx_hal_fdcan.c ****     /* Disable timeout counter */
1714:Drivers/STM32G4xx_HAL_Driver/Src/stm32g4xx_hal_fdcan.c ****     CLEAR_BIT(hfdcan->Instance->TOCC, FDCAN_TOCC_ETOC);
 1843              		.loc 1 1714 5
 1844 0014 7B68     		ldr	r3, [r7, #4]
 1845 0016 1B68     		ldr	r3, [r3]
 1846 0018 9A6A     		ldr	r2, [r3, #40]
 1847 001a 7B68     		ldr	r3, [r7, #4]
 1848 001c 1B68     		ldr	r3, [r3]
 1849 001e 22F00102 		bic	r2, r2, #1
 1850 0022 9A62     		str	r2, [r3, #40]
1715:Drivers/STM32G4xx_HAL_Driver/Src/stm32g4xx_hal_fdcan.c **** 
1716:Drivers/STM32G4xx_HAL_Driver/Src/stm32g4xx_hal_fdcan.c ****     /* Return function status */
1717:Drivers/STM32G4xx_HAL_Driver/Src/stm32g4xx_hal_fdcan.c ****     return HAL_OK;
 1851              		.loc 1 1717 12
 1852 0024 0023     		movs	r3, #0
 1853 0026 06E0     		b	.L78
 1854              	.L77:
1718:Drivers/STM32G4xx_HAL_Driver/Src/stm32g4xx_hal_fdcan.c ****   }
1719:Drivers/STM32G4xx_HAL_Driver/Src/stm32g4xx_hal_fdcan.c ****   else
1720:Drivers/STM32G4xx_HAL_Driver/Src/stm32g4xx_hal_fdcan.c ****   {
1721:Drivers/STM32G4xx_HAL_Driver/Src/stm32g4xx_hal_fdcan.c ****     /* Update error code */
1722:Drivers/STM32G4xx_HAL_Driver/Src/stm32g4xx_hal_fdcan.c ****     hfdcan->ErrorCode |= HAL_FDCAN_ERROR_NOT_READY;
 1855              		.loc 1 1722 11
 1856 0028 7B68     		ldr	r3, [r7, #4]
 1857 002a 1B6E     		ldr	r3, [r3, #96]
 1858              		.loc 1 1722 23
 1859 002c 43F00402 		orr	r2, r3, #4
 1860 0030 7B68     		ldr	r3, [r7, #4]
 1861 0032 1A66     		str	r2, [r3, #96]
1723:Drivers/STM32G4xx_HAL_Driver/Src/stm32g4xx_hal_fdcan.c **** 
1724:Drivers/STM32G4xx_HAL_Driver/Src/stm32g4xx_hal_fdcan.c ****     return HAL_ERROR;
 1862              		.loc 1 1724 12
 1863 0034 0123     		movs	r3, #1
 1864              	.L78:
1725:Drivers/STM32G4xx_HAL_Driver/Src/stm32g4xx_hal_fdcan.c ****   }
1726:Drivers/STM32G4xx_HAL_Driver/Src/stm32g4xx_hal_fdcan.c **** }
 1865              		.loc 1 1726 1
 1866 0036 1846     		mov	r0, r3
 1867 0038 0C37     		adds	r7, r7, #12
 1868              	.LCFI107:
 1869              		.cfi_def_cfa_offset 4
ARM GAS  C:\Users\AURORA~1\AppData\Local\Temp\ccEbooPs.s 			page 64


 1870 003a BD46     		mov	sp, r7
 1871              	.LCFI108:
 1872              		.cfi_def_cfa_register 13
 1873              		@ sp needed
 1874 003c 5DF8047B 		ldr	r7, [sp], #4
 1875              	.LCFI109:
 1876              		.cfi_restore 7
 1877              		.cfi_def_cfa_offset 0
 1878 0040 7047     		bx	lr
 1879              		.cfi_endproc
 1880              	.LFE150:
 1882              		.section	.text.HAL_FDCAN_GetTimeoutCounter,"ax",%progbits
 1883              		.align	1
 1884              		.global	HAL_FDCAN_GetTimeoutCounter
 1885              		.syntax unified
 1886              		.thumb
 1887              		.thumb_func
 1889              	HAL_FDCAN_GetTimeoutCounter:
 1890              	.LFB151:
1727:Drivers/STM32G4xx_HAL_Driver/Src/stm32g4xx_hal_fdcan.c **** 
1728:Drivers/STM32G4xx_HAL_Driver/Src/stm32g4xx_hal_fdcan.c **** /**
1729:Drivers/STM32G4xx_HAL_Driver/Src/stm32g4xx_hal_fdcan.c ****   * @brief  Get the timeout counter value.
1730:Drivers/STM32G4xx_HAL_Driver/Src/stm32g4xx_hal_fdcan.c ****   * @param  hfdcan pointer to an FDCAN_HandleTypeDef structure that contains
1731:Drivers/STM32G4xx_HAL_Driver/Src/stm32g4xx_hal_fdcan.c ****   *         the configuration information for the specified FDCAN.
1732:Drivers/STM32G4xx_HAL_Driver/Src/stm32g4xx_hal_fdcan.c ****   * @retval Timeout counter value
1733:Drivers/STM32G4xx_HAL_Driver/Src/stm32g4xx_hal_fdcan.c ****   */
1734:Drivers/STM32G4xx_HAL_Driver/Src/stm32g4xx_hal_fdcan.c **** uint16_t HAL_FDCAN_GetTimeoutCounter(const FDCAN_HandleTypeDef *hfdcan)
1735:Drivers/STM32G4xx_HAL_Driver/Src/stm32g4xx_hal_fdcan.c **** {
 1891              		.loc 1 1735 1
 1892              		.cfi_startproc
 1893              		@ args = 0, pretend = 0, frame = 8
 1894              		@ frame_needed = 1, uses_anonymous_args = 0
 1895              		@ link register save eliminated.
 1896 0000 80B4     		push	{r7}
 1897              	.LCFI110:
 1898              		.cfi_def_cfa_offset 4
 1899              		.cfi_offset 7, -4
 1900 0002 83B0     		sub	sp, sp, #12
 1901              	.LCFI111:
 1902              		.cfi_def_cfa_offset 16
 1903 0004 00AF     		add	r7, sp, #0
 1904              	.LCFI112:
 1905              		.cfi_def_cfa_register 7
 1906 0006 7860     		str	r0, [r7, #4]
1736:Drivers/STM32G4xx_HAL_Driver/Src/stm32g4xx_hal_fdcan.c ****   return (uint16_t)(hfdcan->Instance->TOCV);
 1907              		.loc 1 1736 27
 1908 0008 7B68     		ldr	r3, [r7, #4]
 1909 000a 1B68     		ldr	r3, [r3]
 1910              		.loc 1 1736 37
 1911 000c DB6A     		ldr	r3, [r3, #44]
 1912              		.loc 1 1736 10
 1913 000e 9BB2     		uxth	r3, r3
1737:Drivers/STM32G4xx_HAL_Driver/Src/stm32g4xx_hal_fdcan.c **** }
 1914              		.loc 1 1737 1
 1915 0010 1846     		mov	r0, r3
 1916 0012 0C37     		adds	r7, r7, #12
 1917              	.LCFI113:
ARM GAS  C:\Users\AURORA~1\AppData\Local\Temp\ccEbooPs.s 			page 65


 1918              		.cfi_def_cfa_offset 4
 1919 0014 BD46     		mov	sp, r7
 1920              	.LCFI114:
 1921              		.cfi_def_cfa_register 13
 1922              		@ sp needed
 1923 0016 5DF8047B 		ldr	r7, [sp], #4
 1924              	.LCFI115:
 1925              		.cfi_restore 7
 1926              		.cfi_def_cfa_offset 0
 1927 001a 7047     		bx	lr
 1928              		.cfi_endproc
 1929              	.LFE151:
 1931              		.section	.text.HAL_FDCAN_ResetTimeoutCounter,"ax",%progbits
 1932              		.align	1
 1933              		.global	HAL_FDCAN_ResetTimeoutCounter
 1934              		.syntax unified
 1935              		.thumb
 1936              		.thumb_func
 1938              	HAL_FDCAN_ResetTimeoutCounter:
 1939              	.LFB152:
1738:Drivers/STM32G4xx_HAL_Driver/Src/stm32g4xx_hal_fdcan.c **** 
1739:Drivers/STM32G4xx_HAL_Driver/Src/stm32g4xx_hal_fdcan.c **** /**
1740:Drivers/STM32G4xx_HAL_Driver/Src/stm32g4xx_hal_fdcan.c ****   * @brief  Reset the timeout counter to its start value.
1741:Drivers/STM32G4xx_HAL_Driver/Src/stm32g4xx_hal_fdcan.c ****   * @param  hfdcan pointer to an FDCAN_HandleTypeDef structure that contains
1742:Drivers/STM32G4xx_HAL_Driver/Src/stm32g4xx_hal_fdcan.c ****   *         the configuration information for the specified FDCAN.
1743:Drivers/STM32G4xx_HAL_Driver/Src/stm32g4xx_hal_fdcan.c ****   * @retval HAL status
1744:Drivers/STM32G4xx_HAL_Driver/Src/stm32g4xx_hal_fdcan.c ****   */
1745:Drivers/STM32G4xx_HAL_Driver/Src/stm32g4xx_hal_fdcan.c **** HAL_StatusTypeDef HAL_FDCAN_ResetTimeoutCounter(FDCAN_HandleTypeDef *hfdcan)
1746:Drivers/STM32G4xx_HAL_Driver/Src/stm32g4xx_hal_fdcan.c **** {
 1940              		.loc 1 1746 1
 1941              		.cfi_startproc
 1942              		@ args = 0, pretend = 0, frame = 8
 1943              		@ frame_needed = 1, uses_anonymous_args = 0
 1944              		@ link register save eliminated.
 1945 0000 80B4     		push	{r7}
 1946              	.LCFI116:
 1947              		.cfi_def_cfa_offset 4
 1948              		.cfi_offset 7, -4
 1949 0002 83B0     		sub	sp, sp, #12
 1950              	.LCFI117:
 1951              		.cfi_def_cfa_offset 16
 1952 0004 00AF     		add	r7, sp, #0
 1953              	.LCFI118:
 1954              		.cfi_def_cfa_register 7
 1955 0006 7860     		str	r0, [r7, #4]
1747:Drivers/STM32G4xx_HAL_Driver/Src/stm32g4xx_hal_fdcan.c ****   if ((hfdcan->Instance->TOCC & FDCAN_TOCC_TOS) == FDCAN_TIMEOUT_CONTINUOUS)
 1956              		.loc 1 1747 14
 1957 0008 7B68     		ldr	r3, [r7, #4]
 1958 000a 1B68     		ldr	r3, [r3]
 1959              		.loc 1 1747 24
 1960 000c 9B6A     		ldr	r3, [r3, #40]
 1961              		.loc 1 1747 31
 1962 000e 03F00603 		and	r3, r3, #6
 1963              		.loc 1 1747 6
 1964 0012 002B     		cmp	r3, #0
 1965 0014 05D1     		bne	.L82
1748:Drivers/STM32G4xx_HAL_Driver/Src/stm32g4xx_hal_fdcan.c ****   {
ARM GAS  C:\Users\AURORA~1\AppData\Local\Temp\ccEbooPs.s 			page 66


1749:Drivers/STM32G4xx_HAL_Driver/Src/stm32g4xx_hal_fdcan.c ****     /* Reset timeout counter to start value */
1750:Drivers/STM32G4xx_HAL_Driver/Src/stm32g4xx_hal_fdcan.c ****     CLEAR_REG(hfdcan->Instance->TOCV);
 1966              		.loc 1 1750 5
 1967 0016 7B68     		ldr	r3, [r7, #4]
 1968 0018 1B68     		ldr	r3, [r3]
 1969 001a 0022     		movs	r2, #0
 1970 001c DA62     		str	r2, [r3, #44]
1751:Drivers/STM32G4xx_HAL_Driver/Src/stm32g4xx_hal_fdcan.c **** 
1752:Drivers/STM32G4xx_HAL_Driver/Src/stm32g4xx_hal_fdcan.c ****     /* Return function status */
1753:Drivers/STM32G4xx_HAL_Driver/Src/stm32g4xx_hal_fdcan.c ****     return HAL_OK;
 1971              		.loc 1 1753 12
 1972 001e 0023     		movs	r3, #0
 1973 0020 06E0     		b	.L83
 1974              	.L82:
1754:Drivers/STM32G4xx_HAL_Driver/Src/stm32g4xx_hal_fdcan.c ****   }
1755:Drivers/STM32G4xx_HAL_Driver/Src/stm32g4xx_hal_fdcan.c ****   else
1756:Drivers/STM32G4xx_HAL_Driver/Src/stm32g4xx_hal_fdcan.c ****   {
1757:Drivers/STM32G4xx_HAL_Driver/Src/stm32g4xx_hal_fdcan.c ****     /* Update error code.
1758:Drivers/STM32G4xx_HAL_Driver/Src/stm32g4xx_hal_fdcan.c ****        Unable to reset counter: controlled only by FIFO empty state */
1759:Drivers/STM32G4xx_HAL_Driver/Src/stm32g4xx_hal_fdcan.c ****     hfdcan->ErrorCode |= HAL_FDCAN_ERROR_NOT_SUPPORTED;
 1975              		.loc 1 1759 11
 1976 0022 7B68     		ldr	r3, [r7, #4]
 1977 0024 1B6E     		ldr	r3, [r3, #96]
 1978              		.loc 1 1759 23
 1979 0026 43F01002 		orr	r2, r3, #16
 1980 002a 7B68     		ldr	r3, [r7, #4]
 1981 002c 1A66     		str	r2, [r3, #96]
1760:Drivers/STM32G4xx_HAL_Driver/Src/stm32g4xx_hal_fdcan.c **** 
1761:Drivers/STM32G4xx_HAL_Driver/Src/stm32g4xx_hal_fdcan.c ****     return HAL_ERROR;
 1982              		.loc 1 1761 12
 1983 002e 0123     		movs	r3, #1
 1984              	.L83:
1762:Drivers/STM32G4xx_HAL_Driver/Src/stm32g4xx_hal_fdcan.c ****   }
1763:Drivers/STM32G4xx_HAL_Driver/Src/stm32g4xx_hal_fdcan.c **** }
 1985              		.loc 1 1763 1
 1986 0030 1846     		mov	r0, r3
 1987 0032 0C37     		adds	r7, r7, #12
 1988              	.LCFI119:
 1989              		.cfi_def_cfa_offset 4
 1990 0034 BD46     		mov	sp, r7
 1991              	.LCFI120:
 1992              		.cfi_def_cfa_register 13
 1993              		@ sp needed
 1994 0036 5DF8047B 		ldr	r7, [sp], #4
 1995              	.LCFI121:
 1996              		.cfi_restore 7
 1997              		.cfi_def_cfa_offset 0
 1998 003a 7047     		bx	lr
 1999              		.cfi_endproc
 2000              	.LFE152:
 2002              		.section	.text.HAL_FDCAN_ConfigTxDelayCompensation,"ax",%progbits
 2003              		.align	1
 2004              		.global	HAL_FDCAN_ConfigTxDelayCompensation
 2005              		.syntax unified
 2006              		.thumb
 2007              		.thumb_func
 2009              	HAL_FDCAN_ConfigTxDelayCompensation:
ARM GAS  C:\Users\AURORA~1\AppData\Local\Temp\ccEbooPs.s 			page 67


 2010              	.LFB153:
1764:Drivers/STM32G4xx_HAL_Driver/Src/stm32g4xx_hal_fdcan.c **** 
1765:Drivers/STM32G4xx_HAL_Driver/Src/stm32g4xx_hal_fdcan.c **** /**
1766:Drivers/STM32G4xx_HAL_Driver/Src/stm32g4xx_hal_fdcan.c ****   * @brief  Configure the transmitter delay compensation.
1767:Drivers/STM32G4xx_HAL_Driver/Src/stm32g4xx_hal_fdcan.c ****   * @param  hfdcan pointer to an FDCAN_HandleTypeDef structure that contains
1768:Drivers/STM32G4xx_HAL_Driver/Src/stm32g4xx_hal_fdcan.c ****   *         the configuration information for the specified FDCAN.
1769:Drivers/STM32G4xx_HAL_Driver/Src/stm32g4xx_hal_fdcan.c ****   * @param  TdcOffset Transmitter Delay Compensation Offset.
1770:Drivers/STM32G4xx_HAL_Driver/Src/stm32g4xx_hal_fdcan.c ****   *         This parameter must be a number between 0x00 and 0x7F.
1771:Drivers/STM32G4xx_HAL_Driver/Src/stm32g4xx_hal_fdcan.c ****   * @param  TdcFilter Transmitter Delay Compensation Filter Window Length.
1772:Drivers/STM32G4xx_HAL_Driver/Src/stm32g4xx_hal_fdcan.c ****   *         This parameter must be a number between 0x00 and 0x7F.
1773:Drivers/STM32G4xx_HAL_Driver/Src/stm32g4xx_hal_fdcan.c ****   * @retval HAL status
1774:Drivers/STM32G4xx_HAL_Driver/Src/stm32g4xx_hal_fdcan.c ****   */
1775:Drivers/STM32G4xx_HAL_Driver/Src/stm32g4xx_hal_fdcan.c **** HAL_StatusTypeDef HAL_FDCAN_ConfigTxDelayCompensation(FDCAN_HandleTypeDef *hfdcan, uint32_t TdcOffs
1776:Drivers/STM32G4xx_HAL_Driver/Src/stm32g4xx_hal_fdcan.c ****                                                       uint32_t TdcFilter)
1777:Drivers/STM32G4xx_HAL_Driver/Src/stm32g4xx_hal_fdcan.c **** {
 2011              		.loc 1 1777 1
 2012              		.cfi_startproc
 2013              		@ args = 0, pretend = 0, frame = 16
 2014              		@ frame_needed = 1, uses_anonymous_args = 0
 2015              		@ link register save eliminated.
 2016 0000 80B4     		push	{r7}
 2017              	.LCFI122:
 2018              		.cfi_def_cfa_offset 4
 2019              		.cfi_offset 7, -4
 2020 0002 85B0     		sub	sp, sp, #20
 2021              	.LCFI123:
 2022              		.cfi_def_cfa_offset 24
 2023 0004 00AF     		add	r7, sp, #0
 2024              	.LCFI124:
 2025              		.cfi_def_cfa_register 7
 2026 0006 F860     		str	r0, [r7, #12]
 2027 0008 B960     		str	r1, [r7, #8]
 2028 000a 7A60     		str	r2, [r7, #4]
1778:Drivers/STM32G4xx_HAL_Driver/Src/stm32g4xx_hal_fdcan.c ****   /* Check function parameters */
1779:Drivers/STM32G4xx_HAL_Driver/Src/stm32g4xx_hal_fdcan.c ****   assert_param(IS_FDCAN_MAX_VALUE(TdcOffset, 0x7FU));
1780:Drivers/STM32G4xx_HAL_Driver/Src/stm32g4xx_hal_fdcan.c ****   assert_param(IS_FDCAN_MAX_VALUE(TdcFilter, 0x7FU));
1781:Drivers/STM32G4xx_HAL_Driver/Src/stm32g4xx_hal_fdcan.c **** 
1782:Drivers/STM32G4xx_HAL_Driver/Src/stm32g4xx_hal_fdcan.c ****   if (hfdcan->State == HAL_FDCAN_STATE_READY)
 2029              		.loc 1 1782 13
 2030 000c FB68     		ldr	r3, [r7, #12]
 2031 000e 93F85C30 		ldrb	r3, [r3, #92]
 2032 0012 DBB2     		uxtb	r3, r3
 2033              		.loc 1 1782 6
 2034 0014 012B     		cmp	r3, #1
 2035 0016 08D1     		bne	.L85
1783:Drivers/STM32G4xx_HAL_Driver/Src/stm32g4xx_hal_fdcan.c ****   {
1784:Drivers/STM32G4xx_HAL_Driver/Src/stm32g4xx_hal_fdcan.c ****     /* Configure TDC offset and filter window */
1785:Drivers/STM32G4xx_HAL_Driver/Src/stm32g4xx_hal_fdcan.c ****     hfdcan->Instance->TDCR = ((TdcFilter << FDCAN_TDCR_TDCF_Pos) | (TdcOffset << FDCAN_TDCR_TDCO_Po
 2036              		.loc 1 1785 79
 2037 0018 BB68     		ldr	r3, [r7, #8]
 2038 001a 1902     		lsls	r1, r3, #8
 2039              		.loc 1 1785 11
 2040 001c FB68     		ldr	r3, [r7, #12]
 2041 001e 1B68     		ldr	r3, [r3]
 2042              		.loc 1 1785 66
 2043 0020 7A68     		ldr	r2, [r7, #4]
 2044 0022 0A43     		orrs	r2, r2, r1
ARM GAS  C:\Users\AURORA~1\AppData\Local\Temp\ccEbooPs.s 			page 68


 2045              		.loc 1 1785 28
 2046 0024 9A64     		str	r2, [r3, #72]
1786:Drivers/STM32G4xx_HAL_Driver/Src/stm32g4xx_hal_fdcan.c **** 
1787:Drivers/STM32G4xx_HAL_Driver/Src/stm32g4xx_hal_fdcan.c ****     /* Return function status */
1788:Drivers/STM32G4xx_HAL_Driver/Src/stm32g4xx_hal_fdcan.c ****     return HAL_OK;
 2047              		.loc 1 1788 12
 2048 0026 0023     		movs	r3, #0
 2049 0028 06E0     		b	.L86
 2050              	.L85:
1789:Drivers/STM32G4xx_HAL_Driver/Src/stm32g4xx_hal_fdcan.c ****   }
1790:Drivers/STM32G4xx_HAL_Driver/Src/stm32g4xx_hal_fdcan.c ****   else
1791:Drivers/STM32G4xx_HAL_Driver/Src/stm32g4xx_hal_fdcan.c ****   {
1792:Drivers/STM32G4xx_HAL_Driver/Src/stm32g4xx_hal_fdcan.c ****     /* Update error code */
1793:Drivers/STM32G4xx_HAL_Driver/Src/stm32g4xx_hal_fdcan.c ****     hfdcan->ErrorCode |= HAL_FDCAN_ERROR_NOT_READY;
 2051              		.loc 1 1793 11
 2052 002a FB68     		ldr	r3, [r7, #12]
 2053 002c 1B6E     		ldr	r3, [r3, #96]
 2054              		.loc 1 1793 23
 2055 002e 43F00402 		orr	r2, r3, #4
 2056 0032 FB68     		ldr	r3, [r7, #12]
 2057 0034 1A66     		str	r2, [r3, #96]
1794:Drivers/STM32G4xx_HAL_Driver/Src/stm32g4xx_hal_fdcan.c **** 
1795:Drivers/STM32G4xx_HAL_Driver/Src/stm32g4xx_hal_fdcan.c ****     return HAL_ERROR;
 2058              		.loc 1 1795 12
 2059 0036 0123     		movs	r3, #1
 2060              	.L86:
1796:Drivers/STM32G4xx_HAL_Driver/Src/stm32g4xx_hal_fdcan.c ****   }
1797:Drivers/STM32G4xx_HAL_Driver/Src/stm32g4xx_hal_fdcan.c **** }
 2061              		.loc 1 1797 1
 2062 0038 1846     		mov	r0, r3
 2063 003a 1437     		adds	r7, r7, #20
 2064              	.LCFI125:
 2065              		.cfi_def_cfa_offset 4
 2066 003c BD46     		mov	sp, r7
 2067              	.LCFI126:
 2068              		.cfi_def_cfa_register 13
 2069              		@ sp needed
 2070 003e 5DF8047B 		ldr	r7, [sp], #4
 2071              	.LCFI127:
 2072              		.cfi_restore 7
 2073              		.cfi_def_cfa_offset 0
 2074 0042 7047     		bx	lr
 2075              		.cfi_endproc
 2076              	.LFE153:
 2078              		.section	.text.HAL_FDCAN_EnableTxDelayCompensation,"ax",%progbits
 2079              		.align	1
 2080              		.global	HAL_FDCAN_EnableTxDelayCompensation
 2081              		.syntax unified
 2082              		.thumb
 2083              		.thumb_func
 2085              	HAL_FDCAN_EnableTxDelayCompensation:
 2086              	.LFB154:
1798:Drivers/STM32G4xx_HAL_Driver/Src/stm32g4xx_hal_fdcan.c **** 
1799:Drivers/STM32G4xx_HAL_Driver/Src/stm32g4xx_hal_fdcan.c **** /**
1800:Drivers/STM32G4xx_HAL_Driver/Src/stm32g4xx_hal_fdcan.c ****   * @brief  Enable the transmitter delay compensation.
1801:Drivers/STM32G4xx_HAL_Driver/Src/stm32g4xx_hal_fdcan.c ****   * @param  hfdcan pointer to an FDCAN_HandleTypeDef structure that contains
1802:Drivers/STM32G4xx_HAL_Driver/Src/stm32g4xx_hal_fdcan.c ****   *         the configuration information for the specified FDCAN.
ARM GAS  C:\Users\AURORA~1\AppData\Local\Temp\ccEbooPs.s 			page 69


1803:Drivers/STM32G4xx_HAL_Driver/Src/stm32g4xx_hal_fdcan.c ****   * @retval HAL status
1804:Drivers/STM32G4xx_HAL_Driver/Src/stm32g4xx_hal_fdcan.c ****   */
1805:Drivers/STM32G4xx_HAL_Driver/Src/stm32g4xx_hal_fdcan.c **** HAL_StatusTypeDef HAL_FDCAN_EnableTxDelayCompensation(FDCAN_HandleTypeDef *hfdcan)
1806:Drivers/STM32G4xx_HAL_Driver/Src/stm32g4xx_hal_fdcan.c **** {
 2087              		.loc 1 1806 1
 2088              		.cfi_startproc
 2089              		@ args = 0, pretend = 0, frame = 8
 2090              		@ frame_needed = 1, uses_anonymous_args = 0
 2091              		@ link register save eliminated.
 2092 0000 80B4     		push	{r7}
 2093              	.LCFI128:
 2094              		.cfi_def_cfa_offset 4
 2095              		.cfi_offset 7, -4
 2096 0002 83B0     		sub	sp, sp, #12
 2097              	.LCFI129:
 2098              		.cfi_def_cfa_offset 16
 2099 0004 00AF     		add	r7, sp, #0
 2100              	.LCFI130:
 2101              		.cfi_def_cfa_register 7
 2102 0006 7860     		str	r0, [r7, #4]
1807:Drivers/STM32G4xx_HAL_Driver/Src/stm32g4xx_hal_fdcan.c ****   if (hfdcan->State == HAL_FDCAN_STATE_READY)
 2103              		.loc 1 1807 13
 2104 0008 7B68     		ldr	r3, [r7, #4]
 2105 000a 93F85C30 		ldrb	r3, [r3, #92]
 2106 000e DBB2     		uxtb	r3, r3
 2107              		.loc 1 1807 6
 2108 0010 012B     		cmp	r3, #1
 2109 0012 09D1     		bne	.L88
1808:Drivers/STM32G4xx_HAL_Driver/Src/stm32g4xx_hal_fdcan.c ****   {
1809:Drivers/STM32G4xx_HAL_Driver/Src/stm32g4xx_hal_fdcan.c ****     /* Enable transmitter delay compensation */
1810:Drivers/STM32G4xx_HAL_Driver/Src/stm32g4xx_hal_fdcan.c ****     SET_BIT(hfdcan->Instance->DBTP, FDCAN_DBTP_TDC);
 2110              		.loc 1 1810 5
 2111 0014 7B68     		ldr	r3, [r7, #4]
 2112 0016 1B68     		ldr	r3, [r3]
 2113 0018 DA68     		ldr	r2, [r3, #12]
 2114 001a 7B68     		ldr	r3, [r7, #4]
 2115 001c 1B68     		ldr	r3, [r3]
 2116 001e 42F40002 		orr	r2, r2, #8388608
 2117 0022 DA60     		str	r2, [r3, #12]
1811:Drivers/STM32G4xx_HAL_Driver/Src/stm32g4xx_hal_fdcan.c **** 
1812:Drivers/STM32G4xx_HAL_Driver/Src/stm32g4xx_hal_fdcan.c ****     /* Return function status */
1813:Drivers/STM32G4xx_HAL_Driver/Src/stm32g4xx_hal_fdcan.c ****     return HAL_OK;
 2118              		.loc 1 1813 12
 2119 0024 0023     		movs	r3, #0
 2120 0026 06E0     		b	.L89
 2121              	.L88:
1814:Drivers/STM32G4xx_HAL_Driver/Src/stm32g4xx_hal_fdcan.c ****   }
1815:Drivers/STM32G4xx_HAL_Driver/Src/stm32g4xx_hal_fdcan.c ****   else
1816:Drivers/STM32G4xx_HAL_Driver/Src/stm32g4xx_hal_fdcan.c ****   {
1817:Drivers/STM32G4xx_HAL_Driver/Src/stm32g4xx_hal_fdcan.c ****     /* Update error code */
1818:Drivers/STM32G4xx_HAL_Driver/Src/stm32g4xx_hal_fdcan.c ****     hfdcan->ErrorCode |= HAL_FDCAN_ERROR_NOT_READY;
 2122              		.loc 1 1818 11
 2123 0028 7B68     		ldr	r3, [r7, #4]
 2124 002a 1B6E     		ldr	r3, [r3, #96]
 2125              		.loc 1 1818 23
 2126 002c 43F00402 		orr	r2, r3, #4
 2127 0030 7B68     		ldr	r3, [r7, #4]
ARM GAS  C:\Users\AURORA~1\AppData\Local\Temp\ccEbooPs.s 			page 70


 2128 0032 1A66     		str	r2, [r3, #96]
1819:Drivers/STM32G4xx_HAL_Driver/Src/stm32g4xx_hal_fdcan.c **** 
1820:Drivers/STM32G4xx_HAL_Driver/Src/stm32g4xx_hal_fdcan.c ****     return HAL_ERROR;
 2129              		.loc 1 1820 12
 2130 0034 0123     		movs	r3, #1
 2131              	.L89:
1821:Drivers/STM32G4xx_HAL_Driver/Src/stm32g4xx_hal_fdcan.c ****   }
1822:Drivers/STM32G4xx_HAL_Driver/Src/stm32g4xx_hal_fdcan.c **** }
 2132              		.loc 1 1822 1
 2133 0036 1846     		mov	r0, r3
 2134 0038 0C37     		adds	r7, r7, #12
 2135              	.LCFI131:
 2136              		.cfi_def_cfa_offset 4
 2137 003a BD46     		mov	sp, r7
 2138              	.LCFI132:
 2139              		.cfi_def_cfa_register 13
 2140              		@ sp needed
 2141 003c 5DF8047B 		ldr	r7, [sp], #4
 2142              	.LCFI133:
 2143              		.cfi_restore 7
 2144              		.cfi_def_cfa_offset 0
 2145 0040 7047     		bx	lr
 2146              		.cfi_endproc
 2147              	.LFE154:
 2149              		.section	.text.HAL_FDCAN_DisableTxDelayCompensation,"ax",%progbits
 2150              		.align	1
 2151              		.global	HAL_FDCAN_DisableTxDelayCompensation
 2152              		.syntax unified
 2153              		.thumb
 2154              		.thumb_func
 2156              	HAL_FDCAN_DisableTxDelayCompensation:
 2157              	.LFB155:
1823:Drivers/STM32G4xx_HAL_Driver/Src/stm32g4xx_hal_fdcan.c **** 
1824:Drivers/STM32G4xx_HAL_Driver/Src/stm32g4xx_hal_fdcan.c **** /**
1825:Drivers/STM32G4xx_HAL_Driver/Src/stm32g4xx_hal_fdcan.c ****   * @brief  Disable the transmitter delay compensation.
1826:Drivers/STM32G4xx_HAL_Driver/Src/stm32g4xx_hal_fdcan.c ****   * @param  hfdcan pointer to an FDCAN_HandleTypeDef structure that contains
1827:Drivers/STM32G4xx_HAL_Driver/Src/stm32g4xx_hal_fdcan.c ****   *         the configuration information for the specified FDCAN.
1828:Drivers/STM32G4xx_HAL_Driver/Src/stm32g4xx_hal_fdcan.c ****   * @retval HAL status
1829:Drivers/STM32G4xx_HAL_Driver/Src/stm32g4xx_hal_fdcan.c ****   */
1830:Drivers/STM32G4xx_HAL_Driver/Src/stm32g4xx_hal_fdcan.c **** HAL_StatusTypeDef HAL_FDCAN_DisableTxDelayCompensation(FDCAN_HandleTypeDef *hfdcan)
1831:Drivers/STM32G4xx_HAL_Driver/Src/stm32g4xx_hal_fdcan.c **** {
 2158              		.loc 1 1831 1
 2159              		.cfi_startproc
 2160              		@ args = 0, pretend = 0, frame = 8
 2161              		@ frame_needed = 1, uses_anonymous_args = 0
 2162              		@ link register save eliminated.
 2163 0000 80B4     		push	{r7}
 2164              	.LCFI134:
 2165              		.cfi_def_cfa_offset 4
 2166              		.cfi_offset 7, -4
 2167 0002 83B0     		sub	sp, sp, #12
 2168              	.LCFI135:
 2169              		.cfi_def_cfa_offset 16
 2170 0004 00AF     		add	r7, sp, #0
 2171              	.LCFI136:
 2172              		.cfi_def_cfa_register 7
 2173 0006 7860     		str	r0, [r7, #4]
ARM GAS  C:\Users\AURORA~1\AppData\Local\Temp\ccEbooPs.s 			page 71


1832:Drivers/STM32G4xx_HAL_Driver/Src/stm32g4xx_hal_fdcan.c ****   if (hfdcan->State == HAL_FDCAN_STATE_READY)
 2174              		.loc 1 1832 13
 2175 0008 7B68     		ldr	r3, [r7, #4]
 2176 000a 93F85C30 		ldrb	r3, [r3, #92]
 2177 000e DBB2     		uxtb	r3, r3
 2178              		.loc 1 1832 6
 2179 0010 012B     		cmp	r3, #1
 2180 0012 09D1     		bne	.L91
1833:Drivers/STM32G4xx_HAL_Driver/Src/stm32g4xx_hal_fdcan.c ****   {
1834:Drivers/STM32G4xx_HAL_Driver/Src/stm32g4xx_hal_fdcan.c ****     /* Disable transmitter delay compensation */
1835:Drivers/STM32G4xx_HAL_Driver/Src/stm32g4xx_hal_fdcan.c ****     CLEAR_BIT(hfdcan->Instance->DBTP, FDCAN_DBTP_TDC);
 2181              		.loc 1 1835 5
 2182 0014 7B68     		ldr	r3, [r7, #4]
 2183 0016 1B68     		ldr	r3, [r3]
 2184 0018 DA68     		ldr	r2, [r3, #12]
 2185 001a 7B68     		ldr	r3, [r7, #4]
 2186 001c 1B68     		ldr	r3, [r3]
 2187 001e 22F40002 		bic	r2, r2, #8388608
 2188 0022 DA60     		str	r2, [r3, #12]
1836:Drivers/STM32G4xx_HAL_Driver/Src/stm32g4xx_hal_fdcan.c **** 
1837:Drivers/STM32G4xx_HAL_Driver/Src/stm32g4xx_hal_fdcan.c ****     /* Return function status */
1838:Drivers/STM32G4xx_HAL_Driver/Src/stm32g4xx_hal_fdcan.c ****     return HAL_OK;
 2189              		.loc 1 1838 12
 2190 0024 0023     		movs	r3, #0
 2191 0026 06E0     		b	.L92
 2192              	.L91:
1839:Drivers/STM32G4xx_HAL_Driver/Src/stm32g4xx_hal_fdcan.c ****   }
1840:Drivers/STM32G4xx_HAL_Driver/Src/stm32g4xx_hal_fdcan.c ****   else
1841:Drivers/STM32G4xx_HAL_Driver/Src/stm32g4xx_hal_fdcan.c ****   {
1842:Drivers/STM32G4xx_HAL_Driver/Src/stm32g4xx_hal_fdcan.c ****     /* Update error code */
1843:Drivers/STM32G4xx_HAL_Driver/Src/stm32g4xx_hal_fdcan.c ****     hfdcan->ErrorCode |= HAL_FDCAN_ERROR_NOT_READY;
 2193              		.loc 1 1843 11
 2194 0028 7B68     		ldr	r3, [r7, #4]
 2195 002a 1B6E     		ldr	r3, [r3, #96]
 2196              		.loc 1 1843 23
 2197 002c 43F00402 		orr	r2, r3, #4
 2198 0030 7B68     		ldr	r3, [r7, #4]
 2199 0032 1A66     		str	r2, [r3, #96]
1844:Drivers/STM32G4xx_HAL_Driver/Src/stm32g4xx_hal_fdcan.c **** 
1845:Drivers/STM32G4xx_HAL_Driver/Src/stm32g4xx_hal_fdcan.c ****     return HAL_ERROR;
 2200              		.loc 1 1845 12
 2201 0034 0123     		movs	r3, #1
 2202              	.L92:
1846:Drivers/STM32G4xx_HAL_Driver/Src/stm32g4xx_hal_fdcan.c ****   }
1847:Drivers/STM32G4xx_HAL_Driver/Src/stm32g4xx_hal_fdcan.c **** }
 2203              		.loc 1 1847 1
 2204 0036 1846     		mov	r0, r3
 2205 0038 0C37     		adds	r7, r7, #12
 2206              	.LCFI137:
 2207              		.cfi_def_cfa_offset 4
 2208 003a BD46     		mov	sp, r7
 2209              	.LCFI138:
 2210              		.cfi_def_cfa_register 13
 2211              		@ sp needed
 2212 003c 5DF8047B 		ldr	r7, [sp], #4
 2213              	.LCFI139:
 2214              		.cfi_restore 7
ARM GAS  C:\Users\AURORA~1\AppData\Local\Temp\ccEbooPs.s 			page 72


 2215              		.cfi_def_cfa_offset 0
 2216 0040 7047     		bx	lr
 2217              		.cfi_endproc
 2218              	.LFE155:
 2220              		.section	.text.HAL_FDCAN_EnableISOMode,"ax",%progbits
 2221              		.align	1
 2222              		.global	HAL_FDCAN_EnableISOMode
 2223              		.syntax unified
 2224              		.thumb
 2225              		.thumb_func
 2227              	HAL_FDCAN_EnableISOMode:
 2228              	.LFB156:
1848:Drivers/STM32G4xx_HAL_Driver/Src/stm32g4xx_hal_fdcan.c **** 
1849:Drivers/STM32G4xx_HAL_Driver/Src/stm32g4xx_hal_fdcan.c **** /**
1850:Drivers/STM32G4xx_HAL_Driver/Src/stm32g4xx_hal_fdcan.c ****   * @brief  Enable ISO 11898-1 protocol mode.
1851:Drivers/STM32G4xx_HAL_Driver/Src/stm32g4xx_hal_fdcan.c ****   *         CAN FD frame format is according to ISO 11898-1 standard.
1852:Drivers/STM32G4xx_HAL_Driver/Src/stm32g4xx_hal_fdcan.c ****   * @param  hfdcan pointer to an FDCAN_HandleTypeDef structure that contains
1853:Drivers/STM32G4xx_HAL_Driver/Src/stm32g4xx_hal_fdcan.c ****   *         the configuration information for the specified FDCAN.
1854:Drivers/STM32G4xx_HAL_Driver/Src/stm32g4xx_hal_fdcan.c ****   * @retval HAL status
1855:Drivers/STM32G4xx_HAL_Driver/Src/stm32g4xx_hal_fdcan.c ****   */
1856:Drivers/STM32G4xx_HAL_Driver/Src/stm32g4xx_hal_fdcan.c **** HAL_StatusTypeDef HAL_FDCAN_EnableISOMode(FDCAN_HandleTypeDef *hfdcan)
1857:Drivers/STM32G4xx_HAL_Driver/Src/stm32g4xx_hal_fdcan.c **** {
 2229              		.loc 1 1857 1
 2230              		.cfi_startproc
 2231              		@ args = 0, pretend = 0, frame = 8
 2232              		@ frame_needed = 1, uses_anonymous_args = 0
 2233              		@ link register save eliminated.
 2234 0000 80B4     		push	{r7}
 2235              	.LCFI140:
 2236              		.cfi_def_cfa_offset 4
 2237              		.cfi_offset 7, -4
 2238 0002 83B0     		sub	sp, sp, #12
 2239              	.LCFI141:
 2240              		.cfi_def_cfa_offset 16
 2241 0004 00AF     		add	r7, sp, #0
 2242              	.LCFI142:
 2243              		.cfi_def_cfa_register 7
 2244 0006 7860     		str	r0, [r7, #4]
1858:Drivers/STM32G4xx_HAL_Driver/Src/stm32g4xx_hal_fdcan.c ****   if (hfdcan->State == HAL_FDCAN_STATE_READY)
 2245              		.loc 1 1858 13
 2246 0008 7B68     		ldr	r3, [r7, #4]
 2247 000a 93F85C30 		ldrb	r3, [r3, #92]
 2248 000e DBB2     		uxtb	r3, r3
 2249              		.loc 1 1858 6
 2250 0010 012B     		cmp	r3, #1
 2251 0012 09D1     		bne	.L94
1859:Drivers/STM32G4xx_HAL_Driver/Src/stm32g4xx_hal_fdcan.c ****   {
1860:Drivers/STM32G4xx_HAL_Driver/Src/stm32g4xx_hal_fdcan.c ****     /* Disable Non ISO protocol mode */
1861:Drivers/STM32G4xx_HAL_Driver/Src/stm32g4xx_hal_fdcan.c ****     CLEAR_BIT(hfdcan->Instance->CCCR, FDCAN_CCCR_NISO);
 2252              		.loc 1 1861 5
 2253 0014 7B68     		ldr	r3, [r7, #4]
 2254 0016 1B68     		ldr	r3, [r3]
 2255 0018 9A69     		ldr	r2, [r3, #24]
 2256 001a 7B68     		ldr	r3, [r7, #4]
 2257 001c 1B68     		ldr	r3, [r3]
 2258 001e 22F40042 		bic	r2, r2, #32768
 2259 0022 9A61     		str	r2, [r3, #24]
ARM GAS  C:\Users\AURORA~1\AppData\Local\Temp\ccEbooPs.s 			page 73


1862:Drivers/STM32G4xx_HAL_Driver/Src/stm32g4xx_hal_fdcan.c **** 
1863:Drivers/STM32G4xx_HAL_Driver/Src/stm32g4xx_hal_fdcan.c ****     /* Return function status */
1864:Drivers/STM32G4xx_HAL_Driver/Src/stm32g4xx_hal_fdcan.c ****     return HAL_OK;
 2260              		.loc 1 1864 12
 2261 0024 0023     		movs	r3, #0
 2262 0026 06E0     		b	.L95
 2263              	.L94:
1865:Drivers/STM32G4xx_HAL_Driver/Src/stm32g4xx_hal_fdcan.c ****   }
1866:Drivers/STM32G4xx_HAL_Driver/Src/stm32g4xx_hal_fdcan.c ****   else
1867:Drivers/STM32G4xx_HAL_Driver/Src/stm32g4xx_hal_fdcan.c ****   {
1868:Drivers/STM32G4xx_HAL_Driver/Src/stm32g4xx_hal_fdcan.c ****     /* Update error code */
1869:Drivers/STM32G4xx_HAL_Driver/Src/stm32g4xx_hal_fdcan.c ****     hfdcan->ErrorCode |= HAL_FDCAN_ERROR_NOT_READY;
 2264              		.loc 1 1869 11
 2265 0028 7B68     		ldr	r3, [r7, #4]
 2266 002a 1B6E     		ldr	r3, [r3, #96]
 2267              		.loc 1 1869 23
 2268 002c 43F00402 		orr	r2, r3, #4
 2269 0030 7B68     		ldr	r3, [r7, #4]
 2270 0032 1A66     		str	r2, [r3, #96]
1870:Drivers/STM32G4xx_HAL_Driver/Src/stm32g4xx_hal_fdcan.c **** 
1871:Drivers/STM32G4xx_HAL_Driver/Src/stm32g4xx_hal_fdcan.c ****     return HAL_ERROR;
 2271              		.loc 1 1871 12
 2272 0034 0123     		movs	r3, #1
 2273              	.L95:
1872:Drivers/STM32G4xx_HAL_Driver/Src/stm32g4xx_hal_fdcan.c ****   }
1873:Drivers/STM32G4xx_HAL_Driver/Src/stm32g4xx_hal_fdcan.c **** }
 2274              		.loc 1 1873 1
 2275 0036 1846     		mov	r0, r3
 2276 0038 0C37     		adds	r7, r7, #12
 2277              	.LCFI143:
 2278              		.cfi_def_cfa_offset 4
 2279 003a BD46     		mov	sp, r7
 2280              	.LCFI144:
 2281              		.cfi_def_cfa_register 13
 2282              		@ sp needed
 2283 003c 5DF8047B 		ldr	r7, [sp], #4
 2284              	.LCFI145:
 2285              		.cfi_restore 7
 2286              		.cfi_def_cfa_offset 0
 2287 0040 7047     		bx	lr
 2288              		.cfi_endproc
 2289              	.LFE156:
 2291              		.section	.text.HAL_FDCAN_DisableISOMode,"ax",%progbits
 2292              		.align	1
 2293              		.global	HAL_FDCAN_DisableISOMode
 2294              		.syntax unified
 2295              		.thumb
 2296              		.thumb_func
 2298              	HAL_FDCAN_DisableISOMode:
 2299              	.LFB157:
1874:Drivers/STM32G4xx_HAL_Driver/Src/stm32g4xx_hal_fdcan.c **** 
1875:Drivers/STM32G4xx_HAL_Driver/Src/stm32g4xx_hal_fdcan.c **** /**
1876:Drivers/STM32G4xx_HAL_Driver/Src/stm32g4xx_hal_fdcan.c ****   * @brief  Disable ISO 11898-1 protocol mode.
1877:Drivers/STM32G4xx_HAL_Driver/Src/stm32g4xx_hal_fdcan.c ****   *         CAN FD frame format is according to Bosch CAN FD specification V1.0.
1878:Drivers/STM32G4xx_HAL_Driver/Src/stm32g4xx_hal_fdcan.c ****   * @param  hfdcan pointer to an FDCAN_HandleTypeDef structure that contains
1879:Drivers/STM32G4xx_HAL_Driver/Src/stm32g4xx_hal_fdcan.c ****   *         the configuration information for the specified FDCAN.
1880:Drivers/STM32G4xx_HAL_Driver/Src/stm32g4xx_hal_fdcan.c ****   * @retval HAL status
ARM GAS  C:\Users\AURORA~1\AppData\Local\Temp\ccEbooPs.s 			page 74


1881:Drivers/STM32G4xx_HAL_Driver/Src/stm32g4xx_hal_fdcan.c ****   */
1882:Drivers/STM32G4xx_HAL_Driver/Src/stm32g4xx_hal_fdcan.c **** HAL_StatusTypeDef HAL_FDCAN_DisableISOMode(FDCAN_HandleTypeDef *hfdcan)
1883:Drivers/STM32G4xx_HAL_Driver/Src/stm32g4xx_hal_fdcan.c **** {
 2300              		.loc 1 1883 1
 2301              		.cfi_startproc
 2302              		@ args = 0, pretend = 0, frame = 8
 2303              		@ frame_needed = 1, uses_anonymous_args = 0
 2304              		@ link register save eliminated.
 2305 0000 80B4     		push	{r7}
 2306              	.LCFI146:
 2307              		.cfi_def_cfa_offset 4
 2308              		.cfi_offset 7, -4
 2309 0002 83B0     		sub	sp, sp, #12
 2310              	.LCFI147:
 2311              		.cfi_def_cfa_offset 16
 2312 0004 00AF     		add	r7, sp, #0
 2313              	.LCFI148:
 2314              		.cfi_def_cfa_register 7
 2315 0006 7860     		str	r0, [r7, #4]
1884:Drivers/STM32G4xx_HAL_Driver/Src/stm32g4xx_hal_fdcan.c ****   if (hfdcan->State == HAL_FDCAN_STATE_READY)
 2316              		.loc 1 1884 13
 2317 0008 7B68     		ldr	r3, [r7, #4]
 2318 000a 93F85C30 		ldrb	r3, [r3, #92]
 2319 000e DBB2     		uxtb	r3, r3
 2320              		.loc 1 1884 6
 2321 0010 012B     		cmp	r3, #1
 2322 0012 09D1     		bne	.L97
1885:Drivers/STM32G4xx_HAL_Driver/Src/stm32g4xx_hal_fdcan.c ****   {
1886:Drivers/STM32G4xx_HAL_Driver/Src/stm32g4xx_hal_fdcan.c ****     /* Enable Non ISO protocol mode */
1887:Drivers/STM32G4xx_HAL_Driver/Src/stm32g4xx_hal_fdcan.c ****     SET_BIT(hfdcan->Instance->CCCR, FDCAN_CCCR_NISO);
 2323              		.loc 1 1887 5
 2324 0014 7B68     		ldr	r3, [r7, #4]
 2325 0016 1B68     		ldr	r3, [r3]
 2326 0018 9A69     		ldr	r2, [r3, #24]
 2327 001a 7B68     		ldr	r3, [r7, #4]
 2328 001c 1B68     		ldr	r3, [r3]
 2329 001e 42F40042 		orr	r2, r2, #32768
 2330 0022 9A61     		str	r2, [r3, #24]
1888:Drivers/STM32G4xx_HAL_Driver/Src/stm32g4xx_hal_fdcan.c **** 
1889:Drivers/STM32G4xx_HAL_Driver/Src/stm32g4xx_hal_fdcan.c ****     /* Return function status */
1890:Drivers/STM32G4xx_HAL_Driver/Src/stm32g4xx_hal_fdcan.c ****     return HAL_OK;
 2331              		.loc 1 1890 12
 2332 0024 0023     		movs	r3, #0
 2333 0026 06E0     		b	.L98
 2334              	.L97:
1891:Drivers/STM32G4xx_HAL_Driver/Src/stm32g4xx_hal_fdcan.c ****   }
1892:Drivers/STM32G4xx_HAL_Driver/Src/stm32g4xx_hal_fdcan.c ****   else
1893:Drivers/STM32G4xx_HAL_Driver/Src/stm32g4xx_hal_fdcan.c ****   {
1894:Drivers/STM32G4xx_HAL_Driver/Src/stm32g4xx_hal_fdcan.c ****     /* Update error code */
1895:Drivers/STM32G4xx_HAL_Driver/Src/stm32g4xx_hal_fdcan.c ****     hfdcan->ErrorCode |= HAL_FDCAN_ERROR_NOT_READY;
 2335              		.loc 1 1895 11
 2336 0028 7B68     		ldr	r3, [r7, #4]
 2337 002a 1B6E     		ldr	r3, [r3, #96]
 2338              		.loc 1 1895 23
 2339 002c 43F00402 		orr	r2, r3, #4
 2340 0030 7B68     		ldr	r3, [r7, #4]
 2341 0032 1A66     		str	r2, [r3, #96]
ARM GAS  C:\Users\AURORA~1\AppData\Local\Temp\ccEbooPs.s 			page 75


1896:Drivers/STM32G4xx_HAL_Driver/Src/stm32g4xx_hal_fdcan.c **** 
1897:Drivers/STM32G4xx_HAL_Driver/Src/stm32g4xx_hal_fdcan.c ****     return HAL_ERROR;
 2342              		.loc 1 1897 12
 2343 0034 0123     		movs	r3, #1
 2344              	.L98:
1898:Drivers/STM32G4xx_HAL_Driver/Src/stm32g4xx_hal_fdcan.c ****   }
1899:Drivers/STM32G4xx_HAL_Driver/Src/stm32g4xx_hal_fdcan.c **** }
 2345              		.loc 1 1899 1
 2346 0036 1846     		mov	r0, r3
 2347 0038 0C37     		adds	r7, r7, #12
 2348              	.LCFI149:
 2349              		.cfi_def_cfa_offset 4
 2350 003a BD46     		mov	sp, r7
 2351              	.LCFI150:
 2352              		.cfi_def_cfa_register 13
 2353              		@ sp needed
 2354 003c 5DF8047B 		ldr	r7, [sp], #4
 2355              	.LCFI151:
 2356              		.cfi_restore 7
 2357              		.cfi_def_cfa_offset 0
 2358 0040 7047     		bx	lr
 2359              		.cfi_endproc
 2360              	.LFE157:
 2362              		.section	.text.HAL_FDCAN_EnableEdgeFiltering,"ax",%progbits
 2363              		.align	1
 2364              		.global	HAL_FDCAN_EnableEdgeFiltering
 2365              		.syntax unified
 2366              		.thumb
 2367              		.thumb_func
 2369              	HAL_FDCAN_EnableEdgeFiltering:
 2370              	.LFB158:
1900:Drivers/STM32G4xx_HAL_Driver/Src/stm32g4xx_hal_fdcan.c **** 
1901:Drivers/STM32G4xx_HAL_Driver/Src/stm32g4xx_hal_fdcan.c **** /**
1902:Drivers/STM32G4xx_HAL_Driver/Src/stm32g4xx_hal_fdcan.c ****   * @brief  Enable edge filtering during bus integration.
1903:Drivers/STM32G4xx_HAL_Driver/Src/stm32g4xx_hal_fdcan.c ****   *         Two consecutive dominant tq are required to detect an edge for hard synchronization.
1904:Drivers/STM32G4xx_HAL_Driver/Src/stm32g4xx_hal_fdcan.c ****   * @param  hfdcan pointer to an FDCAN_HandleTypeDef structure that contains
1905:Drivers/STM32G4xx_HAL_Driver/Src/stm32g4xx_hal_fdcan.c ****   *         the configuration information for the specified FDCAN.
1906:Drivers/STM32G4xx_HAL_Driver/Src/stm32g4xx_hal_fdcan.c ****   * @retval HAL status
1907:Drivers/STM32G4xx_HAL_Driver/Src/stm32g4xx_hal_fdcan.c ****   */
1908:Drivers/STM32G4xx_HAL_Driver/Src/stm32g4xx_hal_fdcan.c **** HAL_StatusTypeDef HAL_FDCAN_EnableEdgeFiltering(FDCAN_HandleTypeDef *hfdcan)
1909:Drivers/STM32G4xx_HAL_Driver/Src/stm32g4xx_hal_fdcan.c **** {
 2371              		.loc 1 1909 1
 2372              		.cfi_startproc
 2373              		@ args = 0, pretend = 0, frame = 8
 2374              		@ frame_needed = 1, uses_anonymous_args = 0
 2375              		@ link register save eliminated.
 2376 0000 80B4     		push	{r7}
 2377              	.LCFI152:
 2378              		.cfi_def_cfa_offset 4
 2379              		.cfi_offset 7, -4
 2380 0002 83B0     		sub	sp, sp, #12
 2381              	.LCFI153:
 2382              		.cfi_def_cfa_offset 16
 2383 0004 00AF     		add	r7, sp, #0
 2384              	.LCFI154:
 2385              		.cfi_def_cfa_register 7
 2386 0006 7860     		str	r0, [r7, #4]
ARM GAS  C:\Users\AURORA~1\AppData\Local\Temp\ccEbooPs.s 			page 76


1910:Drivers/STM32G4xx_HAL_Driver/Src/stm32g4xx_hal_fdcan.c ****   if (hfdcan->State == HAL_FDCAN_STATE_READY)
 2387              		.loc 1 1910 13
 2388 0008 7B68     		ldr	r3, [r7, #4]
 2389 000a 93F85C30 		ldrb	r3, [r3, #92]
 2390 000e DBB2     		uxtb	r3, r3
 2391              		.loc 1 1910 6
 2392 0010 012B     		cmp	r3, #1
 2393 0012 09D1     		bne	.L100
1911:Drivers/STM32G4xx_HAL_Driver/Src/stm32g4xx_hal_fdcan.c ****   {
1912:Drivers/STM32G4xx_HAL_Driver/Src/stm32g4xx_hal_fdcan.c ****     /* Enable edge filtering */
1913:Drivers/STM32G4xx_HAL_Driver/Src/stm32g4xx_hal_fdcan.c ****     SET_BIT(hfdcan->Instance->CCCR, FDCAN_CCCR_EFBI);
 2394              		.loc 1 1913 5
 2395 0014 7B68     		ldr	r3, [r7, #4]
 2396 0016 1B68     		ldr	r3, [r3]
 2397 0018 9A69     		ldr	r2, [r3, #24]
 2398 001a 7B68     		ldr	r3, [r7, #4]
 2399 001c 1B68     		ldr	r3, [r3]
 2400 001e 42F40052 		orr	r2, r2, #8192
 2401 0022 9A61     		str	r2, [r3, #24]
1914:Drivers/STM32G4xx_HAL_Driver/Src/stm32g4xx_hal_fdcan.c **** 
1915:Drivers/STM32G4xx_HAL_Driver/Src/stm32g4xx_hal_fdcan.c ****     /* Return function status */
1916:Drivers/STM32G4xx_HAL_Driver/Src/stm32g4xx_hal_fdcan.c ****     return HAL_OK;
 2402              		.loc 1 1916 12
 2403 0024 0023     		movs	r3, #0
 2404 0026 06E0     		b	.L101
 2405              	.L100:
1917:Drivers/STM32G4xx_HAL_Driver/Src/stm32g4xx_hal_fdcan.c ****   }
1918:Drivers/STM32G4xx_HAL_Driver/Src/stm32g4xx_hal_fdcan.c ****   else
1919:Drivers/STM32G4xx_HAL_Driver/Src/stm32g4xx_hal_fdcan.c ****   {
1920:Drivers/STM32G4xx_HAL_Driver/Src/stm32g4xx_hal_fdcan.c ****     /* Update error code */
1921:Drivers/STM32G4xx_HAL_Driver/Src/stm32g4xx_hal_fdcan.c ****     hfdcan->ErrorCode |= HAL_FDCAN_ERROR_NOT_READY;
 2406              		.loc 1 1921 11
 2407 0028 7B68     		ldr	r3, [r7, #4]
 2408 002a 1B6E     		ldr	r3, [r3, #96]
 2409              		.loc 1 1921 23
 2410 002c 43F00402 		orr	r2, r3, #4
 2411 0030 7B68     		ldr	r3, [r7, #4]
 2412 0032 1A66     		str	r2, [r3, #96]
1922:Drivers/STM32G4xx_HAL_Driver/Src/stm32g4xx_hal_fdcan.c **** 
1923:Drivers/STM32G4xx_HAL_Driver/Src/stm32g4xx_hal_fdcan.c ****     return HAL_ERROR;
 2413              		.loc 1 1923 12
 2414 0034 0123     		movs	r3, #1
 2415              	.L101:
1924:Drivers/STM32G4xx_HAL_Driver/Src/stm32g4xx_hal_fdcan.c ****   }
1925:Drivers/STM32G4xx_HAL_Driver/Src/stm32g4xx_hal_fdcan.c **** }
 2416              		.loc 1 1925 1
 2417 0036 1846     		mov	r0, r3
 2418 0038 0C37     		adds	r7, r7, #12
 2419              	.LCFI155:
 2420              		.cfi_def_cfa_offset 4
 2421 003a BD46     		mov	sp, r7
 2422              	.LCFI156:
 2423              		.cfi_def_cfa_register 13
 2424              		@ sp needed
 2425 003c 5DF8047B 		ldr	r7, [sp], #4
 2426              	.LCFI157:
 2427              		.cfi_restore 7
ARM GAS  C:\Users\AURORA~1\AppData\Local\Temp\ccEbooPs.s 			page 77


 2428              		.cfi_def_cfa_offset 0
 2429 0040 7047     		bx	lr
 2430              		.cfi_endproc
 2431              	.LFE158:
 2433              		.section	.text.HAL_FDCAN_DisableEdgeFiltering,"ax",%progbits
 2434              		.align	1
 2435              		.global	HAL_FDCAN_DisableEdgeFiltering
 2436              		.syntax unified
 2437              		.thumb
 2438              		.thumb_func
 2440              	HAL_FDCAN_DisableEdgeFiltering:
 2441              	.LFB159:
1926:Drivers/STM32G4xx_HAL_Driver/Src/stm32g4xx_hal_fdcan.c **** 
1927:Drivers/STM32G4xx_HAL_Driver/Src/stm32g4xx_hal_fdcan.c **** /**
1928:Drivers/STM32G4xx_HAL_Driver/Src/stm32g4xx_hal_fdcan.c ****   * @brief  Disable edge filtering during bus integration.
1929:Drivers/STM32G4xx_HAL_Driver/Src/stm32g4xx_hal_fdcan.c ****   *         One dominant tq is required to detect an edge for hard synchronization.
1930:Drivers/STM32G4xx_HAL_Driver/Src/stm32g4xx_hal_fdcan.c ****   * @param  hfdcan pointer to an FDCAN_HandleTypeDef structure that contains
1931:Drivers/STM32G4xx_HAL_Driver/Src/stm32g4xx_hal_fdcan.c ****   *         the configuration information for the specified FDCAN.
1932:Drivers/STM32G4xx_HAL_Driver/Src/stm32g4xx_hal_fdcan.c ****   * @retval HAL status
1933:Drivers/STM32G4xx_HAL_Driver/Src/stm32g4xx_hal_fdcan.c ****   */
1934:Drivers/STM32G4xx_HAL_Driver/Src/stm32g4xx_hal_fdcan.c **** HAL_StatusTypeDef HAL_FDCAN_DisableEdgeFiltering(FDCAN_HandleTypeDef *hfdcan)
1935:Drivers/STM32G4xx_HAL_Driver/Src/stm32g4xx_hal_fdcan.c **** {
 2442              		.loc 1 1935 1
 2443              		.cfi_startproc
 2444              		@ args = 0, pretend = 0, frame = 8
 2445              		@ frame_needed = 1, uses_anonymous_args = 0
 2446              		@ link register save eliminated.
 2447 0000 80B4     		push	{r7}
 2448              	.LCFI158:
 2449              		.cfi_def_cfa_offset 4
 2450              		.cfi_offset 7, -4
 2451 0002 83B0     		sub	sp, sp, #12
 2452              	.LCFI159:
 2453              		.cfi_def_cfa_offset 16
 2454 0004 00AF     		add	r7, sp, #0
 2455              	.LCFI160:
 2456              		.cfi_def_cfa_register 7
 2457 0006 7860     		str	r0, [r7, #4]
1936:Drivers/STM32G4xx_HAL_Driver/Src/stm32g4xx_hal_fdcan.c ****   if (hfdcan->State == HAL_FDCAN_STATE_READY)
 2458              		.loc 1 1936 13
 2459 0008 7B68     		ldr	r3, [r7, #4]
 2460 000a 93F85C30 		ldrb	r3, [r3, #92]
 2461 000e DBB2     		uxtb	r3, r3
 2462              		.loc 1 1936 6
 2463 0010 012B     		cmp	r3, #1
 2464 0012 09D1     		bne	.L103
1937:Drivers/STM32G4xx_HAL_Driver/Src/stm32g4xx_hal_fdcan.c ****   {
1938:Drivers/STM32G4xx_HAL_Driver/Src/stm32g4xx_hal_fdcan.c ****     /* Disable edge filtering */
1939:Drivers/STM32G4xx_HAL_Driver/Src/stm32g4xx_hal_fdcan.c ****     CLEAR_BIT(hfdcan->Instance->CCCR, FDCAN_CCCR_EFBI);
 2465              		.loc 1 1939 5
 2466 0014 7B68     		ldr	r3, [r7, #4]
 2467 0016 1B68     		ldr	r3, [r3]
 2468 0018 9A69     		ldr	r2, [r3, #24]
 2469 001a 7B68     		ldr	r3, [r7, #4]
 2470 001c 1B68     		ldr	r3, [r3]
 2471 001e 22F40052 		bic	r2, r2, #8192
 2472 0022 9A61     		str	r2, [r3, #24]
ARM GAS  C:\Users\AURORA~1\AppData\Local\Temp\ccEbooPs.s 			page 78


1940:Drivers/STM32G4xx_HAL_Driver/Src/stm32g4xx_hal_fdcan.c **** 
1941:Drivers/STM32G4xx_HAL_Driver/Src/stm32g4xx_hal_fdcan.c ****     /* Return function status */
1942:Drivers/STM32G4xx_HAL_Driver/Src/stm32g4xx_hal_fdcan.c ****     return HAL_OK;
 2473              		.loc 1 1942 12
 2474 0024 0023     		movs	r3, #0
 2475 0026 06E0     		b	.L104
 2476              	.L103:
1943:Drivers/STM32G4xx_HAL_Driver/Src/stm32g4xx_hal_fdcan.c ****   }
1944:Drivers/STM32G4xx_HAL_Driver/Src/stm32g4xx_hal_fdcan.c ****   else
1945:Drivers/STM32G4xx_HAL_Driver/Src/stm32g4xx_hal_fdcan.c ****   {
1946:Drivers/STM32G4xx_HAL_Driver/Src/stm32g4xx_hal_fdcan.c ****     /* Update error code */
1947:Drivers/STM32G4xx_HAL_Driver/Src/stm32g4xx_hal_fdcan.c ****     hfdcan->ErrorCode |= HAL_FDCAN_ERROR_NOT_READY;
 2477              		.loc 1 1947 11
 2478 0028 7B68     		ldr	r3, [r7, #4]
 2479 002a 1B6E     		ldr	r3, [r3, #96]
 2480              		.loc 1 1947 23
 2481 002c 43F00402 		orr	r2, r3, #4
 2482 0030 7B68     		ldr	r3, [r7, #4]
 2483 0032 1A66     		str	r2, [r3, #96]
1948:Drivers/STM32G4xx_HAL_Driver/Src/stm32g4xx_hal_fdcan.c **** 
1949:Drivers/STM32G4xx_HAL_Driver/Src/stm32g4xx_hal_fdcan.c ****     return HAL_ERROR;
 2484              		.loc 1 1949 12
 2485 0034 0123     		movs	r3, #1
 2486              	.L104:
1950:Drivers/STM32G4xx_HAL_Driver/Src/stm32g4xx_hal_fdcan.c ****   }
1951:Drivers/STM32G4xx_HAL_Driver/Src/stm32g4xx_hal_fdcan.c **** }
 2487              		.loc 1 1951 1
 2488 0036 1846     		mov	r0, r3
 2489 0038 0C37     		adds	r7, r7, #12
 2490              	.LCFI161:
 2491              		.cfi_def_cfa_offset 4
 2492 003a BD46     		mov	sp, r7
 2493              	.LCFI162:
 2494              		.cfi_def_cfa_register 13
 2495              		@ sp needed
 2496 003c 5DF8047B 		ldr	r7, [sp], #4
 2497              	.LCFI163:
 2498              		.cfi_restore 7
 2499              		.cfi_def_cfa_offset 0
 2500 0040 7047     		bx	lr
 2501              		.cfi_endproc
 2502              	.LFE159:
 2504              		.section	.text.HAL_FDCAN_Start,"ax",%progbits
 2505              		.align	1
 2506              		.global	HAL_FDCAN_Start
 2507              		.syntax unified
 2508              		.thumb
 2509              		.thumb_func
 2511              	HAL_FDCAN_Start:
 2512              	.LFB160:
1952:Drivers/STM32G4xx_HAL_Driver/Src/stm32g4xx_hal_fdcan.c **** 
1953:Drivers/STM32G4xx_HAL_Driver/Src/stm32g4xx_hal_fdcan.c **** /**
1954:Drivers/STM32G4xx_HAL_Driver/Src/stm32g4xx_hal_fdcan.c ****   * @}
1955:Drivers/STM32G4xx_HAL_Driver/Src/stm32g4xx_hal_fdcan.c ****   */
1956:Drivers/STM32G4xx_HAL_Driver/Src/stm32g4xx_hal_fdcan.c **** 
1957:Drivers/STM32G4xx_HAL_Driver/Src/stm32g4xx_hal_fdcan.c **** /** @defgroup FDCAN_Exported_Functions_Group3 Control functions
1958:Drivers/STM32G4xx_HAL_Driver/Src/stm32g4xx_hal_fdcan.c ****   *  @brief    Control functions
ARM GAS  C:\Users\AURORA~1\AppData\Local\Temp\ccEbooPs.s 			page 79


1959:Drivers/STM32G4xx_HAL_Driver/Src/stm32g4xx_hal_fdcan.c ****   *
1960:Drivers/STM32G4xx_HAL_Driver/Src/stm32g4xx_hal_fdcan.c **** @verbatim
1961:Drivers/STM32G4xx_HAL_Driver/Src/stm32g4xx_hal_fdcan.c ****   ==============================================================================
1962:Drivers/STM32G4xx_HAL_Driver/Src/stm32g4xx_hal_fdcan.c ****                           ##### Control functions #####
1963:Drivers/STM32G4xx_HAL_Driver/Src/stm32g4xx_hal_fdcan.c ****   ==============================================================================
1964:Drivers/STM32G4xx_HAL_Driver/Src/stm32g4xx_hal_fdcan.c ****     [..]  This section provides functions allowing to:
1965:Drivers/STM32G4xx_HAL_Driver/Src/stm32g4xx_hal_fdcan.c ****       (+) HAL_FDCAN_Start                         : Start the FDCAN module
1966:Drivers/STM32G4xx_HAL_Driver/Src/stm32g4xx_hal_fdcan.c ****       (+) HAL_FDCAN_Stop                          : Stop the FDCAN module and enable access to conf
1967:Drivers/STM32G4xx_HAL_Driver/Src/stm32g4xx_hal_fdcan.c ****       (+) HAL_FDCAN_AddMessageToTxFifoQ           : Add a message to the Tx FIFO/Queue and activate
1968:Drivers/STM32G4xx_HAL_Driver/Src/stm32g4xx_hal_fdcan.c ****                                                     transmission request
1969:Drivers/STM32G4xx_HAL_Driver/Src/stm32g4xx_hal_fdcan.c ****       (+) HAL_FDCAN_GetLatestTxFifoQRequestBuffer : Get Tx buffer index of latest Tx FIFO/Queue req
1970:Drivers/STM32G4xx_HAL_Driver/Src/stm32g4xx_hal_fdcan.c ****       (+) HAL_FDCAN_AbortTxRequest                : Abort transmission request
1971:Drivers/STM32G4xx_HAL_Driver/Src/stm32g4xx_hal_fdcan.c ****       (+) HAL_FDCAN_GetRxMessage                  : Get an FDCAN frame from the Rx FIFO zone into t
1972:Drivers/STM32G4xx_HAL_Driver/Src/stm32g4xx_hal_fdcan.c ****       (+) HAL_FDCAN_GetTxEvent                    : Get an FDCAN Tx event from the Tx Event FIFO zo
1973:Drivers/STM32G4xx_HAL_Driver/Src/stm32g4xx_hal_fdcan.c ****                                                     into the message RAM
1974:Drivers/STM32G4xx_HAL_Driver/Src/stm32g4xx_hal_fdcan.c ****       (+) HAL_FDCAN_GetHighPriorityMessageStatus  : Get high priority message status
1975:Drivers/STM32G4xx_HAL_Driver/Src/stm32g4xx_hal_fdcan.c ****       (+) HAL_FDCAN_GetProtocolStatus             : Get protocol status
1976:Drivers/STM32G4xx_HAL_Driver/Src/stm32g4xx_hal_fdcan.c ****       (+) HAL_FDCAN_GetErrorCounters              : Get error counter values
1977:Drivers/STM32G4xx_HAL_Driver/Src/stm32g4xx_hal_fdcan.c ****       (+) HAL_FDCAN_IsTxBufferMessagePending      : Check if a transmission request is pending
1978:Drivers/STM32G4xx_HAL_Driver/Src/stm32g4xx_hal_fdcan.c ****                                                     on the selected Tx buffer
1979:Drivers/STM32G4xx_HAL_Driver/Src/stm32g4xx_hal_fdcan.c ****       (+) HAL_FDCAN_GetRxFifoFillLevel            : Return Rx FIFO fill level
1980:Drivers/STM32G4xx_HAL_Driver/Src/stm32g4xx_hal_fdcan.c ****       (+) HAL_FDCAN_GetTxFifoFreeLevel            : Return Tx FIFO free level
1981:Drivers/STM32G4xx_HAL_Driver/Src/stm32g4xx_hal_fdcan.c ****       (+) HAL_FDCAN_IsRestrictedOperationMode     : Check if the FDCAN peripheral entered Restricte
1982:Drivers/STM32G4xx_HAL_Driver/Src/stm32g4xx_hal_fdcan.c ****       (+) HAL_FDCAN_ExitRestrictedOperationMode   : Exit Restricted Operation Mode
1983:Drivers/STM32G4xx_HAL_Driver/Src/stm32g4xx_hal_fdcan.c **** 
1984:Drivers/STM32G4xx_HAL_Driver/Src/stm32g4xx_hal_fdcan.c **** @endverbatim
1985:Drivers/STM32G4xx_HAL_Driver/Src/stm32g4xx_hal_fdcan.c ****   * @{
1986:Drivers/STM32G4xx_HAL_Driver/Src/stm32g4xx_hal_fdcan.c ****   */
1987:Drivers/STM32G4xx_HAL_Driver/Src/stm32g4xx_hal_fdcan.c **** 
1988:Drivers/STM32G4xx_HAL_Driver/Src/stm32g4xx_hal_fdcan.c **** /**
1989:Drivers/STM32G4xx_HAL_Driver/Src/stm32g4xx_hal_fdcan.c ****   * @brief  Start the FDCAN module.
1990:Drivers/STM32G4xx_HAL_Driver/Src/stm32g4xx_hal_fdcan.c ****   * @param  hfdcan pointer to an FDCAN_HandleTypeDef structure that contains
1991:Drivers/STM32G4xx_HAL_Driver/Src/stm32g4xx_hal_fdcan.c ****   *         the configuration information for the specified FDCAN.
1992:Drivers/STM32G4xx_HAL_Driver/Src/stm32g4xx_hal_fdcan.c ****   * @retval HAL status
1993:Drivers/STM32G4xx_HAL_Driver/Src/stm32g4xx_hal_fdcan.c ****   */
1994:Drivers/STM32G4xx_HAL_Driver/Src/stm32g4xx_hal_fdcan.c **** HAL_StatusTypeDef HAL_FDCAN_Start(FDCAN_HandleTypeDef *hfdcan)
1995:Drivers/STM32G4xx_HAL_Driver/Src/stm32g4xx_hal_fdcan.c **** {
 2513              		.loc 1 1995 1
 2514              		.cfi_startproc
 2515              		@ args = 0, pretend = 0, frame = 8
 2516              		@ frame_needed = 1, uses_anonymous_args = 0
 2517              		@ link register save eliminated.
 2518 0000 80B4     		push	{r7}
 2519              	.LCFI164:
 2520              		.cfi_def_cfa_offset 4
 2521              		.cfi_offset 7, -4
 2522 0002 83B0     		sub	sp, sp, #12
 2523              	.LCFI165:
 2524              		.cfi_def_cfa_offset 16
 2525 0004 00AF     		add	r7, sp, #0
 2526              	.LCFI166:
 2527              		.cfi_def_cfa_register 7
 2528 0006 7860     		str	r0, [r7, #4]
1996:Drivers/STM32G4xx_HAL_Driver/Src/stm32g4xx_hal_fdcan.c ****   if (hfdcan->State == HAL_FDCAN_STATE_READY)
 2529              		.loc 1 1996 13
 2530 0008 7B68     		ldr	r3, [r7, #4]
 2531 000a 93F85C30 		ldrb	r3, [r3, #92]
ARM GAS  C:\Users\AURORA~1\AppData\Local\Temp\ccEbooPs.s 			page 80


 2532 000e DBB2     		uxtb	r3, r3
 2533              		.loc 1 1996 6
 2534 0010 012B     		cmp	r3, #1
 2535 0012 10D1     		bne	.L106
1997:Drivers/STM32G4xx_HAL_Driver/Src/stm32g4xx_hal_fdcan.c ****   {
1998:Drivers/STM32G4xx_HAL_Driver/Src/stm32g4xx_hal_fdcan.c ****     /* Change FDCAN peripheral state */
1999:Drivers/STM32G4xx_HAL_Driver/Src/stm32g4xx_hal_fdcan.c ****     hfdcan->State = HAL_FDCAN_STATE_BUSY;
 2536              		.loc 1 1999 19
 2537 0014 7B68     		ldr	r3, [r7, #4]
 2538 0016 0222     		movs	r2, #2
 2539 0018 83F85C20 		strb	r2, [r3, #92]
2000:Drivers/STM32G4xx_HAL_Driver/Src/stm32g4xx_hal_fdcan.c **** 
2001:Drivers/STM32G4xx_HAL_Driver/Src/stm32g4xx_hal_fdcan.c ****     /* Request leave initialisation */
2002:Drivers/STM32G4xx_HAL_Driver/Src/stm32g4xx_hal_fdcan.c ****     CLEAR_BIT(hfdcan->Instance->CCCR, FDCAN_CCCR_INIT);
 2540              		.loc 1 2002 5
 2541 001c 7B68     		ldr	r3, [r7, #4]
 2542 001e 1B68     		ldr	r3, [r3]
 2543 0020 9A69     		ldr	r2, [r3, #24]
 2544 0022 7B68     		ldr	r3, [r7, #4]
 2545 0024 1B68     		ldr	r3, [r3]
 2546 0026 22F00102 		bic	r2, r2, #1
 2547 002a 9A61     		str	r2, [r3, #24]
2003:Drivers/STM32G4xx_HAL_Driver/Src/stm32g4xx_hal_fdcan.c **** 
2004:Drivers/STM32G4xx_HAL_Driver/Src/stm32g4xx_hal_fdcan.c ****     /* Reset the FDCAN ErrorCode */
2005:Drivers/STM32G4xx_HAL_Driver/Src/stm32g4xx_hal_fdcan.c ****     hfdcan->ErrorCode = HAL_FDCAN_ERROR_NONE;
 2548              		.loc 1 2005 23
 2549 002c 7B68     		ldr	r3, [r7, #4]
 2550 002e 0022     		movs	r2, #0
 2551 0030 1A66     		str	r2, [r3, #96]
2006:Drivers/STM32G4xx_HAL_Driver/Src/stm32g4xx_hal_fdcan.c **** 
2007:Drivers/STM32G4xx_HAL_Driver/Src/stm32g4xx_hal_fdcan.c ****     /* Return function status */
2008:Drivers/STM32G4xx_HAL_Driver/Src/stm32g4xx_hal_fdcan.c ****     return HAL_OK;
 2552              		.loc 1 2008 12
 2553 0032 0023     		movs	r3, #0
 2554 0034 06E0     		b	.L107
 2555              	.L106:
2009:Drivers/STM32G4xx_HAL_Driver/Src/stm32g4xx_hal_fdcan.c ****   }
2010:Drivers/STM32G4xx_HAL_Driver/Src/stm32g4xx_hal_fdcan.c ****   else
2011:Drivers/STM32G4xx_HAL_Driver/Src/stm32g4xx_hal_fdcan.c ****   {
2012:Drivers/STM32G4xx_HAL_Driver/Src/stm32g4xx_hal_fdcan.c ****     /* Update error code */
2013:Drivers/STM32G4xx_HAL_Driver/Src/stm32g4xx_hal_fdcan.c ****     hfdcan->ErrorCode |= HAL_FDCAN_ERROR_NOT_READY;
 2556              		.loc 1 2013 11
 2557 0036 7B68     		ldr	r3, [r7, #4]
 2558 0038 1B6E     		ldr	r3, [r3, #96]
 2559              		.loc 1 2013 23
 2560 003a 43F00402 		orr	r2, r3, #4
 2561 003e 7B68     		ldr	r3, [r7, #4]
 2562 0040 1A66     		str	r2, [r3, #96]
2014:Drivers/STM32G4xx_HAL_Driver/Src/stm32g4xx_hal_fdcan.c **** 
2015:Drivers/STM32G4xx_HAL_Driver/Src/stm32g4xx_hal_fdcan.c ****     return HAL_ERROR;
 2563              		.loc 1 2015 12
 2564 0042 0123     		movs	r3, #1
 2565              	.L107:
2016:Drivers/STM32G4xx_HAL_Driver/Src/stm32g4xx_hal_fdcan.c ****   }
2017:Drivers/STM32G4xx_HAL_Driver/Src/stm32g4xx_hal_fdcan.c **** }
 2566              		.loc 1 2017 1
 2567 0044 1846     		mov	r0, r3
ARM GAS  C:\Users\AURORA~1\AppData\Local\Temp\ccEbooPs.s 			page 81


 2568 0046 0C37     		adds	r7, r7, #12
 2569              	.LCFI167:
 2570              		.cfi_def_cfa_offset 4
 2571 0048 BD46     		mov	sp, r7
 2572              	.LCFI168:
 2573              		.cfi_def_cfa_register 13
 2574              		@ sp needed
 2575 004a 5DF8047B 		ldr	r7, [sp], #4
 2576              	.LCFI169:
 2577              		.cfi_restore 7
 2578              		.cfi_def_cfa_offset 0
 2579 004e 7047     		bx	lr
 2580              		.cfi_endproc
 2581              	.LFE160:
 2583              		.section	.text.HAL_FDCAN_Stop,"ax",%progbits
 2584              		.align	1
 2585              		.global	HAL_FDCAN_Stop
 2586              		.syntax unified
 2587              		.thumb
 2588              		.thumb_func
 2590              	HAL_FDCAN_Stop:
 2591              	.LFB161:
2018:Drivers/STM32G4xx_HAL_Driver/Src/stm32g4xx_hal_fdcan.c **** 
2019:Drivers/STM32G4xx_HAL_Driver/Src/stm32g4xx_hal_fdcan.c **** /**
2020:Drivers/STM32G4xx_HAL_Driver/Src/stm32g4xx_hal_fdcan.c ****   * @brief  Stop the FDCAN module and enable access to configuration registers.
2021:Drivers/STM32G4xx_HAL_Driver/Src/stm32g4xx_hal_fdcan.c ****   * @param  hfdcan pointer to an FDCAN_HandleTypeDef structure that contains
2022:Drivers/STM32G4xx_HAL_Driver/Src/stm32g4xx_hal_fdcan.c ****   *         the configuration information for the specified FDCAN.
2023:Drivers/STM32G4xx_HAL_Driver/Src/stm32g4xx_hal_fdcan.c ****   * @retval HAL status
2024:Drivers/STM32G4xx_HAL_Driver/Src/stm32g4xx_hal_fdcan.c ****   */
2025:Drivers/STM32G4xx_HAL_Driver/Src/stm32g4xx_hal_fdcan.c **** HAL_StatusTypeDef HAL_FDCAN_Stop(FDCAN_HandleTypeDef *hfdcan)
2026:Drivers/STM32G4xx_HAL_Driver/Src/stm32g4xx_hal_fdcan.c **** {
 2592              		.loc 1 2026 1
 2593              		.cfi_startproc
 2594              		@ args = 0, pretend = 0, frame = 16
 2595              		@ frame_needed = 1, uses_anonymous_args = 0
 2596              		@ link register save eliminated.
 2597 0000 80B4     		push	{r7}
 2598              	.LCFI170:
 2599              		.cfi_def_cfa_offset 4
 2600              		.cfi_offset 7, -4
 2601 0002 85B0     		sub	sp, sp, #20
 2602              	.LCFI171:
 2603              		.cfi_def_cfa_offset 24
 2604 0004 00AF     		add	r7, sp, #0
 2605              	.LCFI172:
 2606              		.cfi_def_cfa_register 7
 2607 0006 7860     		str	r0, [r7, #4]
2027:Drivers/STM32G4xx_HAL_Driver/Src/stm32g4xx_hal_fdcan.c ****   uint32_t Counter = 0U;
 2608              		.loc 1 2027 12
 2609 0008 0023     		movs	r3, #0
 2610 000a FB60     		str	r3, [r7, #12]
2028:Drivers/STM32G4xx_HAL_Driver/Src/stm32g4xx_hal_fdcan.c **** 
2029:Drivers/STM32G4xx_HAL_Driver/Src/stm32g4xx_hal_fdcan.c ****   if (hfdcan->State == HAL_FDCAN_STATE_BUSY)
 2611              		.loc 1 2029 13
 2612 000c 7B68     		ldr	r3, [r7, #4]
 2613 000e 93F85C30 		ldrb	r3, [r3, #92]
 2614 0012 DBB2     		uxtb	r3, r3
ARM GAS  C:\Users\AURORA~1\AppData\Local\Temp\ccEbooPs.s 			page 82


 2615              		.loc 1 2029 6
 2616 0014 022B     		cmp	r3, #2
 2617 0016 56D1     		bne	.L109
2030:Drivers/STM32G4xx_HAL_Driver/Src/stm32g4xx_hal_fdcan.c ****   {
2031:Drivers/STM32G4xx_HAL_Driver/Src/stm32g4xx_hal_fdcan.c ****     /* Request initialisation */
2032:Drivers/STM32G4xx_HAL_Driver/Src/stm32g4xx_hal_fdcan.c ****     SET_BIT(hfdcan->Instance->CCCR, FDCAN_CCCR_INIT);
 2618              		.loc 1 2032 5
 2619 0018 7B68     		ldr	r3, [r7, #4]
 2620 001a 1B68     		ldr	r3, [r3]
 2621 001c 9A69     		ldr	r2, [r3, #24]
 2622 001e 7B68     		ldr	r3, [r7, #4]
 2623 0020 1B68     		ldr	r3, [r3]
 2624 0022 42F00102 		orr	r2, r2, #1
 2625 0026 9A61     		str	r2, [r3, #24]
2033:Drivers/STM32G4xx_HAL_Driver/Src/stm32g4xx_hal_fdcan.c **** 
2034:Drivers/STM32G4xx_HAL_Driver/Src/stm32g4xx_hal_fdcan.c ****     /* Wait until the INIT bit into CCCR register is set */
2035:Drivers/STM32G4xx_HAL_Driver/Src/stm32g4xx_hal_fdcan.c ****     while ((hfdcan->Instance->CCCR & FDCAN_CCCR_INIT) == 0U)
 2626              		.loc 1 2035 11
 2627 0028 11E0     		b	.L110
 2628              	.L113:
2036:Drivers/STM32G4xx_HAL_Driver/Src/stm32g4xx_hal_fdcan.c ****     {
2037:Drivers/STM32G4xx_HAL_Driver/Src/stm32g4xx_hal_fdcan.c ****       /* Check for the Timeout */
2038:Drivers/STM32G4xx_HAL_Driver/Src/stm32g4xx_hal_fdcan.c ****       if (Counter > FDCAN_TIMEOUT_VALUE)
 2629              		.loc 1 2038 10
 2630 002a FB68     		ldr	r3, [r7, #12]
 2631 002c 0A2B     		cmp	r3, #10
 2632 002e 0BD9     		bls	.L111
2039:Drivers/STM32G4xx_HAL_Driver/Src/stm32g4xx_hal_fdcan.c ****       {
2040:Drivers/STM32G4xx_HAL_Driver/Src/stm32g4xx_hal_fdcan.c ****         /* Update error code */
2041:Drivers/STM32G4xx_HAL_Driver/Src/stm32g4xx_hal_fdcan.c ****         hfdcan->ErrorCode |= HAL_FDCAN_ERROR_TIMEOUT;
 2633              		.loc 1 2041 15
 2634 0030 7B68     		ldr	r3, [r7, #4]
 2635 0032 1B6E     		ldr	r3, [r3, #96]
 2636              		.loc 1 2041 27
 2637 0034 43F00102 		orr	r2, r3, #1
 2638 0038 7B68     		ldr	r3, [r7, #4]
 2639 003a 1A66     		str	r2, [r3, #96]
2042:Drivers/STM32G4xx_HAL_Driver/Src/stm32g4xx_hal_fdcan.c **** 
2043:Drivers/STM32G4xx_HAL_Driver/Src/stm32g4xx_hal_fdcan.c ****         /* Change FDCAN state */
2044:Drivers/STM32G4xx_HAL_Driver/Src/stm32g4xx_hal_fdcan.c ****         hfdcan->State = HAL_FDCAN_STATE_ERROR;
 2640              		.loc 1 2044 23
 2641 003c 7B68     		ldr	r3, [r7, #4]
 2642 003e 0322     		movs	r2, #3
 2643 0040 83F85C20 		strb	r2, [r3, #92]
2045:Drivers/STM32G4xx_HAL_Driver/Src/stm32g4xx_hal_fdcan.c **** 
2046:Drivers/STM32G4xx_HAL_Driver/Src/stm32g4xx_hal_fdcan.c ****         return HAL_ERROR;
 2644              		.loc 1 2046 16
 2645 0044 0123     		movs	r3, #1
 2646 0046 45E0     		b	.L112
 2647              	.L111:
2047:Drivers/STM32G4xx_HAL_Driver/Src/stm32g4xx_hal_fdcan.c ****       }
2048:Drivers/STM32G4xx_HAL_Driver/Src/stm32g4xx_hal_fdcan.c **** 
2049:Drivers/STM32G4xx_HAL_Driver/Src/stm32g4xx_hal_fdcan.c ****       /* Increment counter */
2050:Drivers/STM32G4xx_HAL_Driver/Src/stm32g4xx_hal_fdcan.c ****       Counter++;
 2648              		.loc 1 2050 14
 2649 0048 FB68     		ldr	r3, [r7, #12]
 2650 004a 0133     		adds	r3, r3, #1
ARM GAS  C:\Users\AURORA~1\AppData\Local\Temp\ccEbooPs.s 			page 83


 2651 004c FB60     		str	r3, [r7, #12]
 2652              	.L110:
2035:Drivers/STM32G4xx_HAL_Driver/Src/stm32g4xx_hal_fdcan.c ****     {
 2653              		.loc 1 2035 19
 2654 004e 7B68     		ldr	r3, [r7, #4]
 2655 0050 1B68     		ldr	r3, [r3]
2035:Drivers/STM32G4xx_HAL_Driver/Src/stm32g4xx_hal_fdcan.c ****     {
 2656              		.loc 1 2035 29
 2657 0052 9B69     		ldr	r3, [r3, #24]
2035:Drivers/STM32G4xx_HAL_Driver/Src/stm32g4xx_hal_fdcan.c ****     {
 2658              		.loc 1 2035 36
 2659 0054 03F00103 		and	r3, r3, #1
2035:Drivers/STM32G4xx_HAL_Driver/Src/stm32g4xx_hal_fdcan.c ****     {
 2660              		.loc 1 2035 55
 2661 0058 002B     		cmp	r3, #0
 2662 005a E6D0     		beq	.L113
2051:Drivers/STM32G4xx_HAL_Driver/Src/stm32g4xx_hal_fdcan.c ****     }
2052:Drivers/STM32G4xx_HAL_Driver/Src/stm32g4xx_hal_fdcan.c **** 
2053:Drivers/STM32G4xx_HAL_Driver/Src/stm32g4xx_hal_fdcan.c ****     /* Reset counter */
2054:Drivers/STM32G4xx_HAL_Driver/Src/stm32g4xx_hal_fdcan.c ****     Counter = 0U;
 2663              		.loc 1 2054 13
 2664 005c 0023     		movs	r3, #0
 2665 005e FB60     		str	r3, [r7, #12]
2055:Drivers/STM32G4xx_HAL_Driver/Src/stm32g4xx_hal_fdcan.c **** 
2056:Drivers/STM32G4xx_HAL_Driver/Src/stm32g4xx_hal_fdcan.c ****     /* Exit from Sleep mode */
2057:Drivers/STM32G4xx_HAL_Driver/Src/stm32g4xx_hal_fdcan.c ****     CLEAR_BIT(hfdcan->Instance->CCCR, FDCAN_CCCR_CSR);
 2666              		.loc 1 2057 5
 2667 0060 7B68     		ldr	r3, [r7, #4]
 2668 0062 1B68     		ldr	r3, [r3]
 2669 0064 9A69     		ldr	r2, [r3, #24]
 2670 0066 7B68     		ldr	r3, [r7, #4]
 2671 0068 1B68     		ldr	r3, [r3]
 2672 006a 22F01002 		bic	r2, r2, #16
 2673 006e 9A61     		str	r2, [r3, #24]
2058:Drivers/STM32G4xx_HAL_Driver/Src/stm32g4xx_hal_fdcan.c **** 
2059:Drivers/STM32G4xx_HAL_Driver/Src/stm32g4xx_hal_fdcan.c ****     /* Wait until FDCAN exits sleep mode */
2060:Drivers/STM32G4xx_HAL_Driver/Src/stm32g4xx_hal_fdcan.c ****     while ((hfdcan->Instance->CCCR & FDCAN_CCCR_CSA) == FDCAN_CCCR_CSA)
 2674              		.loc 1 2060 11
 2675 0070 11E0     		b	.L114
 2676              	.L116:
2061:Drivers/STM32G4xx_HAL_Driver/Src/stm32g4xx_hal_fdcan.c ****     {
2062:Drivers/STM32G4xx_HAL_Driver/Src/stm32g4xx_hal_fdcan.c ****       /* Check for the Timeout */
2063:Drivers/STM32G4xx_HAL_Driver/Src/stm32g4xx_hal_fdcan.c ****       if (Counter > FDCAN_TIMEOUT_VALUE)
 2677              		.loc 1 2063 10
 2678 0072 FB68     		ldr	r3, [r7, #12]
 2679 0074 0A2B     		cmp	r3, #10
 2680 0076 0BD9     		bls	.L115
2064:Drivers/STM32G4xx_HAL_Driver/Src/stm32g4xx_hal_fdcan.c ****       {
2065:Drivers/STM32G4xx_HAL_Driver/Src/stm32g4xx_hal_fdcan.c ****         /* Update error code */
2066:Drivers/STM32G4xx_HAL_Driver/Src/stm32g4xx_hal_fdcan.c ****         hfdcan->ErrorCode |= HAL_FDCAN_ERROR_TIMEOUT;
 2681              		.loc 1 2066 15
 2682 0078 7B68     		ldr	r3, [r7, #4]
 2683 007a 1B6E     		ldr	r3, [r3, #96]
 2684              		.loc 1 2066 27
 2685 007c 43F00102 		orr	r2, r3, #1
 2686 0080 7B68     		ldr	r3, [r7, #4]
 2687 0082 1A66     		str	r2, [r3, #96]
ARM GAS  C:\Users\AURORA~1\AppData\Local\Temp\ccEbooPs.s 			page 84


2067:Drivers/STM32G4xx_HAL_Driver/Src/stm32g4xx_hal_fdcan.c **** 
2068:Drivers/STM32G4xx_HAL_Driver/Src/stm32g4xx_hal_fdcan.c ****         /* Change FDCAN state */
2069:Drivers/STM32G4xx_HAL_Driver/Src/stm32g4xx_hal_fdcan.c ****         hfdcan->State = HAL_FDCAN_STATE_ERROR;
 2688              		.loc 1 2069 23
 2689 0084 7B68     		ldr	r3, [r7, #4]
 2690 0086 0322     		movs	r2, #3
 2691 0088 83F85C20 		strb	r2, [r3, #92]
2070:Drivers/STM32G4xx_HAL_Driver/Src/stm32g4xx_hal_fdcan.c **** 
2071:Drivers/STM32G4xx_HAL_Driver/Src/stm32g4xx_hal_fdcan.c ****         return HAL_ERROR;
 2692              		.loc 1 2071 16
 2693 008c 0123     		movs	r3, #1
 2694 008e 21E0     		b	.L112
 2695              	.L115:
2072:Drivers/STM32G4xx_HAL_Driver/Src/stm32g4xx_hal_fdcan.c ****       }
2073:Drivers/STM32G4xx_HAL_Driver/Src/stm32g4xx_hal_fdcan.c **** 
2074:Drivers/STM32G4xx_HAL_Driver/Src/stm32g4xx_hal_fdcan.c ****       /* Increment counter */
2075:Drivers/STM32G4xx_HAL_Driver/Src/stm32g4xx_hal_fdcan.c ****       Counter++;
 2696              		.loc 1 2075 14
 2697 0090 FB68     		ldr	r3, [r7, #12]
 2698 0092 0133     		adds	r3, r3, #1
 2699 0094 FB60     		str	r3, [r7, #12]
 2700              	.L114:
2060:Drivers/STM32G4xx_HAL_Driver/Src/stm32g4xx_hal_fdcan.c ****     {
 2701              		.loc 1 2060 19
 2702 0096 7B68     		ldr	r3, [r7, #4]
 2703 0098 1B68     		ldr	r3, [r3]
2060:Drivers/STM32G4xx_HAL_Driver/Src/stm32g4xx_hal_fdcan.c ****     {
 2704              		.loc 1 2060 29
 2705 009a 9B69     		ldr	r3, [r3, #24]
2060:Drivers/STM32G4xx_HAL_Driver/Src/stm32g4xx_hal_fdcan.c ****     {
 2706              		.loc 1 2060 36
 2707 009c 03F00803 		and	r3, r3, #8
2060:Drivers/STM32G4xx_HAL_Driver/Src/stm32g4xx_hal_fdcan.c ****     {
 2708              		.loc 1 2060 54
 2709 00a0 082B     		cmp	r3, #8
 2710 00a2 E6D0     		beq	.L116
2076:Drivers/STM32G4xx_HAL_Driver/Src/stm32g4xx_hal_fdcan.c ****     }
2077:Drivers/STM32G4xx_HAL_Driver/Src/stm32g4xx_hal_fdcan.c **** 
2078:Drivers/STM32G4xx_HAL_Driver/Src/stm32g4xx_hal_fdcan.c ****     /* Enable configuration change */
2079:Drivers/STM32G4xx_HAL_Driver/Src/stm32g4xx_hal_fdcan.c ****     SET_BIT(hfdcan->Instance->CCCR, FDCAN_CCCR_CCE);
 2711              		.loc 1 2079 5
 2712 00a4 7B68     		ldr	r3, [r7, #4]
 2713 00a6 1B68     		ldr	r3, [r3]
 2714 00a8 9A69     		ldr	r2, [r3, #24]
 2715 00aa 7B68     		ldr	r3, [r7, #4]
 2716 00ac 1B68     		ldr	r3, [r3]
 2717 00ae 42F00202 		orr	r2, r2, #2
 2718 00b2 9A61     		str	r2, [r3, #24]
2080:Drivers/STM32G4xx_HAL_Driver/Src/stm32g4xx_hal_fdcan.c **** 
2081:Drivers/STM32G4xx_HAL_Driver/Src/stm32g4xx_hal_fdcan.c ****     /* Reset Latest Tx FIFO/Queue Request Buffer Index */
2082:Drivers/STM32G4xx_HAL_Driver/Src/stm32g4xx_hal_fdcan.c ****     hfdcan->LatestTxFifoQRequest = 0U;
 2719              		.loc 1 2082 34
 2720 00b4 7B68     		ldr	r3, [r7, #4]
 2721 00b6 0022     		movs	r2, #0
 2722 00b8 9A65     		str	r2, [r3, #88]
2083:Drivers/STM32G4xx_HAL_Driver/Src/stm32g4xx_hal_fdcan.c **** 
2084:Drivers/STM32G4xx_HAL_Driver/Src/stm32g4xx_hal_fdcan.c ****     /* Change FDCAN peripheral state */
ARM GAS  C:\Users\AURORA~1\AppData\Local\Temp\ccEbooPs.s 			page 85


2085:Drivers/STM32G4xx_HAL_Driver/Src/stm32g4xx_hal_fdcan.c ****     hfdcan->State = HAL_FDCAN_STATE_READY;
 2723              		.loc 1 2085 19
 2724 00ba 7B68     		ldr	r3, [r7, #4]
 2725 00bc 0122     		movs	r2, #1
 2726 00be 83F85C20 		strb	r2, [r3, #92]
2086:Drivers/STM32G4xx_HAL_Driver/Src/stm32g4xx_hal_fdcan.c **** 
2087:Drivers/STM32G4xx_HAL_Driver/Src/stm32g4xx_hal_fdcan.c ****     /* Return function status */
2088:Drivers/STM32G4xx_HAL_Driver/Src/stm32g4xx_hal_fdcan.c ****     return HAL_OK;
 2727              		.loc 1 2088 12
 2728 00c2 0023     		movs	r3, #0
 2729 00c4 06E0     		b	.L112
 2730              	.L109:
2089:Drivers/STM32G4xx_HAL_Driver/Src/stm32g4xx_hal_fdcan.c ****   }
2090:Drivers/STM32G4xx_HAL_Driver/Src/stm32g4xx_hal_fdcan.c ****   else
2091:Drivers/STM32G4xx_HAL_Driver/Src/stm32g4xx_hal_fdcan.c ****   {
2092:Drivers/STM32G4xx_HAL_Driver/Src/stm32g4xx_hal_fdcan.c ****     /* Update error code */
2093:Drivers/STM32G4xx_HAL_Driver/Src/stm32g4xx_hal_fdcan.c ****     hfdcan->ErrorCode |= HAL_FDCAN_ERROR_NOT_STARTED;
 2731              		.loc 1 2093 11
 2732 00c6 7B68     		ldr	r3, [r7, #4]
 2733 00c8 1B6E     		ldr	r3, [r3, #96]
 2734              		.loc 1 2093 23
 2735 00ca 43F00802 		orr	r2, r3, #8
 2736 00ce 7B68     		ldr	r3, [r7, #4]
 2737 00d0 1A66     		str	r2, [r3, #96]
2094:Drivers/STM32G4xx_HAL_Driver/Src/stm32g4xx_hal_fdcan.c **** 
2095:Drivers/STM32G4xx_HAL_Driver/Src/stm32g4xx_hal_fdcan.c ****     return HAL_ERROR;
 2738              		.loc 1 2095 12
 2739 00d2 0123     		movs	r3, #1
 2740              	.L112:
2096:Drivers/STM32G4xx_HAL_Driver/Src/stm32g4xx_hal_fdcan.c ****   }
2097:Drivers/STM32G4xx_HAL_Driver/Src/stm32g4xx_hal_fdcan.c **** }
 2741              		.loc 1 2097 1
 2742 00d4 1846     		mov	r0, r3
 2743 00d6 1437     		adds	r7, r7, #20
 2744              	.LCFI173:
 2745              		.cfi_def_cfa_offset 4
 2746 00d8 BD46     		mov	sp, r7
 2747              	.LCFI174:
 2748              		.cfi_def_cfa_register 13
 2749              		@ sp needed
 2750 00da 5DF8047B 		ldr	r7, [sp], #4
 2751              	.LCFI175:
 2752              		.cfi_restore 7
 2753              		.cfi_def_cfa_offset 0
 2754 00de 7047     		bx	lr
 2755              		.cfi_endproc
 2756              	.LFE161:
 2758              		.section	.text.HAL_FDCAN_AddMessageToTxFifoQ,"ax",%progbits
 2759              		.align	1
 2760              		.global	HAL_FDCAN_AddMessageToTxFifoQ
 2761              		.syntax unified
 2762              		.thumb
 2763              		.thumb_func
 2765              	HAL_FDCAN_AddMessageToTxFifoQ:
 2766              	.LFB162:
2098:Drivers/STM32G4xx_HAL_Driver/Src/stm32g4xx_hal_fdcan.c **** 
2099:Drivers/STM32G4xx_HAL_Driver/Src/stm32g4xx_hal_fdcan.c **** /**
ARM GAS  C:\Users\AURORA~1\AppData\Local\Temp\ccEbooPs.s 			page 86


2100:Drivers/STM32G4xx_HAL_Driver/Src/stm32g4xx_hal_fdcan.c ****   * @brief  Add a message to the Tx FIFO/Queue and activate the corresponding transmission request
2101:Drivers/STM32G4xx_HAL_Driver/Src/stm32g4xx_hal_fdcan.c ****   * @param  hfdcan pointer to an FDCAN_HandleTypeDef structure that contains
2102:Drivers/STM32G4xx_HAL_Driver/Src/stm32g4xx_hal_fdcan.c ****   *         the configuration information for the specified FDCAN.
2103:Drivers/STM32G4xx_HAL_Driver/Src/stm32g4xx_hal_fdcan.c ****   * @param  pTxHeader pointer to a FDCAN_TxHeaderTypeDef structure.
2104:Drivers/STM32G4xx_HAL_Driver/Src/stm32g4xx_hal_fdcan.c ****   * @param  pTxData pointer to a buffer containing the payload of the Tx frame.
2105:Drivers/STM32G4xx_HAL_Driver/Src/stm32g4xx_hal_fdcan.c ****   * @retval HAL status
2106:Drivers/STM32G4xx_HAL_Driver/Src/stm32g4xx_hal_fdcan.c ****   */
2107:Drivers/STM32G4xx_HAL_Driver/Src/stm32g4xx_hal_fdcan.c **** HAL_StatusTypeDef HAL_FDCAN_AddMessageToTxFifoQ(FDCAN_HandleTypeDef *hfdcan, const FDCAN_TxHeaderTy
2108:Drivers/STM32G4xx_HAL_Driver/Src/stm32g4xx_hal_fdcan.c ****                                                 const uint8_t *pTxData)
2109:Drivers/STM32G4xx_HAL_Driver/Src/stm32g4xx_hal_fdcan.c **** {
 2767              		.loc 1 2109 1
 2768              		.cfi_startproc
 2769              		@ args = 0, pretend = 0, frame = 24
 2770              		@ frame_needed = 1, uses_anonymous_args = 0
 2771 0000 80B5     		push	{r7, lr}
 2772              	.LCFI176:
 2773              		.cfi_def_cfa_offset 8
 2774              		.cfi_offset 7, -8
 2775              		.cfi_offset 14, -4
 2776 0002 86B0     		sub	sp, sp, #24
 2777              	.LCFI177:
 2778              		.cfi_def_cfa_offset 32
 2779 0004 00AF     		add	r7, sp, #0
 2780              	.LCFI178:
 2781              		.cfi_def_cfa_register 7
 2782 0006 F860     		str	r0, [r7, #12]
 2783 0008 B960     		str	r1, [r7, #8]
 2784 000a 7A60     		str	r2, [r7, #4]
2110:Drivers/STM32G4xx_HAL_Driver/Src/stm32g4xx_hal_fdcan.c ****   uint32_t PutIndex;
2111:Drivers/STM32G4xx_HAL_Driver/Src/stm32g4xx_hal_fdcan.c **** 
2112:Drivers/STM32G4xx_HAL_Driver/Src/stm32g4xx_hal_fdcan.c ****   /* Check function parameters */
2113:Drivers/STM32G4xx_HAL_Driver/Src/stm32g4xx_hal_fdcan.c ****   assert_param(IS_FDCAN_ID_TYPE(pTxHeader->IdType));
2114:Drivers/STM32G4xx_HAL_Driver/Src/stm32g4xx_hal_fdcan.c ****   if (pTxHeader->IdType == FDCAN_STANDARD_ID)
2115:Drivers/STM32G4xx_HAL_Driver/Src/stm32g4xx_hal_fdcan.c ****   {
2116:Drivers/STM32G4xx_HAL_Driver/Src/stm32g4xx_hal_fdcan.c ****     assert_param(IS_FDCAN_MAX_VALUE(pTxHeader->Identifier, 0x7FFU));
2117:Drivers/STM32G4xx_HAL_Driver/Src/stm32g4xx_hal_fdcan.c ****   }
2118:Drivers/STM32G4xx_HAL_Driver/Src/stm32g4xx_hal_fdcan.c ****   else /* pTxHeader->IdType == FDCAN_EXTENDED_ID */
2119:Drivers/STM32G4xx_HAL_Driver/Src/stm32g4xx_hal_fdcan.c ****   {
2120:Drivers/STM32G4xx_HAL_Driver/Src/stm32g4xx_hal_fdcan.c ****     assert_param(IS_FDCAN_MAX_VALUE(pTxHeader->Identifier, 0x1FFFFFFFU));
2121:Drivers/STM32G4xx_HAL_Driver/Src/stm32g4xx_hal_fdcan.c ****   }
2122:Drivers/STM32G4xx_HAL_Driver/Src/stm32g4xx_hal_fdcan.c ****   assert_param(IS_FDCAN_FRAME_TYPE(pTxHeader->TxFrameType));
2123:Drivers/STM32G4xx_HAL_Driver/Src/stm32g4xx_hal_fdcan.c ****   assert_param(IS_FDCAN_DLC(pTxHeader->DataLength));
2124:Drivers/STM32G4xx_HAL_Driver/Src/stm32g4xx_hal_fdcan.c ****   assert_param(IS_FDCAN_ESI(pTxHeader->ErrorStateIndicator));
2125:Drivers/STM32G4xx_HAL_Driver/Src/stm32g4xx_hal_fdcan.c ****   assert_param(IS_FDCAN_BRS(pTxHeader->BitRateSwitch));
2126:Drivers/STM32G4xx_HAL_Driver/Src/stm32g4xx_hal_fdcan.c ****   assert_param(IS_FDCAN_FDF(pTxHeader->FDFormat));
2127:Drivers/STM32G4xx_HAL_Driver/Src/stm32g4xx_hal_fdcan.c ****   assert_param(IS_FDCAN_EFC(pTxHeader->TxEventFifoControl));
2128:Drivers/STM32G4xx_HAL_Driver/Src/stm32g4xx_hal_fdcan.c ****   assert_param(IS_FDCAN_MAX_VALUE(pTxHeader->MessageMarker, 0xFFU));
2129:Drivers/STM32G4xx_HAL_Driver/Src/stm32g4xx_hal_fdcan.c **** 
2130:Drivers/STM32G4xx_HAL_Driver/Src/stm32g4xx_hal_fdcan.c ****   if (hfdcan->State == HAL_FDCAN_STATE_BUSY)
 2785              		.loc 1 2130 13
 2786 000c FB68     		ldr	r3, [r7, #12]
 2787 000e 93F85C30 		ldrb	r3, [r3, #92]
 2788 0012 DBB2     		uxtb	r3, r3
 2789              		.loc 1 2130 6
 2790 0014 022B     		cmp	r3, #2
 2791 0016 2CD1     		bne	.L118
2131:Drivers/STM32G4xx_HAL_Driver/Src/stm32g4xx_hal_fdcan.c ****   {
ARM GAS  C:\Users\AURORA~1\AppData\Local\Temp\ccEbooPs.s 			page 87


2132:Drivers/STM32G4xx_HAL_Driver/Src/stm32g4xx_hal_fdcan.c ****     /* Check that the Tx FIFO/Queue is not full */
2133:Drivers/STM32G4xx_HAL_Driver/Src/stm32g4xx_hal_fdcan.c ****     if ((hfdcan->Instance->TXFQS & FDCAN_TXFQS_TFQF) != 0U)
 2792              		.loc 1 2133 16
 2793 0018 FB68     		ldr	r3, [r7, #12]
 2794 001a 1B68     		ldr	r3, [r3]
 2795              		.loc 1 2133 26
 2796 001c D3F8C430 		ldr	r3, [r3, #196]
 2797              		.loc 1 2133 34
 2798 0020 03F40013 		and	r3, r3, #2097152
 2799              		.loc 1 2133 8
 2800 0024 002B     		cmp	r3, #0
 2801 0026 07D0     		beq	.L119
2134:Drivers/STM32G4xx_HAL_Driver/Src/stm32g4xx_hal_fdcan.c ****     {
2135:Drivers/STM32G4xx_HAL_Driver/Src/stm32g4xx_hal_fdcan.c ****       /* Update error code */
2136:Drivers/STM32G4xx_HAL_Driver/Src/stm32g4xx_hal_fdcan.c ****       hfdcan->ErrorCode |= HAL_FDCAN_ERROR_FIFO_FULL;
 2802              		.loc 1 2136 13
 2803 0028 FB68     		ldr	r3, [r7, #12]
 2804 002a 1B6E     		ldr	r3, [r3, #96]
 2805              		.loc 1 2136 25
 2806 002c 43F40072 		orr	r2, r3, #512
 2807 0030 FB68     		ldr	r3, [r7, #12]
 2808 0032 1A66     		str	r2, [r3, #96]
2137:Drivers/STM32G4xx_HAL_Driver/Src/stm32g4xx_hal_fdcan.c **** 
2138:Drivers/STM32G4xx_HAL_Driver/Src/stm32g4xx_hal_fdcan.c ****       return HAL_ERROR;
 2809              		.loc 1 2138 14
 2810 0034 0123     		movs	r3, #1
 2811 0036 23E0     		b	.L120
 2812              	.L119:
2139:Drivers/STM32G4xx_HAL_Driver/Src/stm32g4xx_hal_fdcan.c ****     }
2140:Drivers/STM32G4xx_HAL_Driver/Src/stm32g4xx_hal_fdcan.c ****     else
2141:Drivers/STM32G4xx_HAL_Driver/Src/stm32g4xx_hal_fdcan.c ****     {
2142:Drivers/STM32G4xx_HAL_Driver/Src/stm32g4xx_hal_fdcan.c ****       /* Retrieve the Tx FIFO PutIndex */
2143:Drivers/STM32G4xx_HAL_Driver/Src/stm32g4xx_hal_fdcan.c ****       PutIndex = ((hfdcan->Instance->TXFQS & FDCAN_TXFQS_TFQPI) >> FDCAN_TXFQS_TFQPI_Pos);
 2813              		.loc 1 2143 26
 2814 0038 FB68     		ldr	r3, [r7, #12]
 2815 003a 1B68     		ldr	r3, [r3]
 2816              		.loc 1 2143 36
 2817 003c D3F8C430 		ldr	r3, [r3, #196]
 2818              		.loc 1 2143 65
 2819 0040 1B0C     		lsrs	r3, r3, #16
 2820              		.loc 1 2143 16
 2821 0042 03F00303 		and	r3, r3, #3
 2822 0046 7B61     		str	r3, [r7, #20]
2144:Drivers/STM32G4xx_HAL_Driver/Src/stm32g4xx_hal_fdcan.c **** 
2145:Drivers/STM32G4xx_HAL_Driver/Src/stm32g4xx_hal_fdcan.c ****       /* Add the message to the Tx FIFO/Queue */
2146:Drivers/STM32G4xx_HAL_Driver/Src/stm32g4xx_hal_fdcan.c ****       FDCAN_CopyMessageToRAM(hfdcan, pTxHeader, pTxData, PutIndex);
 2823              		.loc 1 2146 7
 2824 0048 7B69     		ldr	r3, [r7, #20]
 2825 004a 7A68     		ldr	r2, [r7, #4]
 2826 004c B968     		ldr	r1, [r7, #8]
 2827 004e F868     		ldr	r0, [r7, #12]
 2828 0050 FFF7FEFF 		bl	FDCAN_CopyMessageToRAM
2147:Drivers/STM32G4xx_HAL_Driver/Src/stm32g4xx_hal_fdcan.c **** 
2148:Drivers/STM32G4xx_HAL_Driver/Src/stm32g4xx_hal_fdcan.c ****       /* Activate the corresponding transmission request */
2149:Drivers/STM32G4xx_HAL_Driver/Src/stm32g4xx_hal_fdcan.c ****       hfdcan->Instance->TXBAR = ((uint32_t)1 << PutIndex);
 2829              		.loc 1 2149 13
 2830 0054 FB68     		ldr	r3, [r7, #12]
ARM GAS  C:\Users\AURORA~1\AppData\Local\Temp\ccEbooPs.s 			page 88


 2831 0056 1B68     		ldr	r3, [r3]
 2832              		.loc 1 2149 46
 2833 0058 0121     		movs	r1, #1
 2834 005a 7A69     		ldr	r2, [r7, #20]
 2835 005c 01FA02F2 		lsl	r2, r1, r2
 2836              		.loc 1 2149 31
 2837 0060 C3F8CC20 		str	r2, [r3, #204]
2150:Drivers/STM32G4xx_HAL_Driver/Src/stm32g4xx_hal_fdcan.c **** 
2151:Drivers/STM32G4xx_HAL_Driver/Src/stm32g4xx_hal_fdcan.c ****       /* Store the Latest Tx FIFO/Queue Request Buffer Index */
2152:Drivers/STM32G4xx_HAL_Driver/Src/stm32g4xx_hal_fdcan.c ****       hfdcan->LatestTxFifoQRequest = ((uint32_t)1 << PutIndex);
 2838              		.loc 1 2152 51
 2839 0064 0122     		movs	r2, #1
 2840 0066 7B69     		ldr	r3, [r7, #20]
 2841 0068 9A40     		lsls	r2, r2, r3
 2842              		.loc 1 2152 36
 2843 006a FB68     		ldr	r3, [r7, #12]
 2844 006c 9A65     		str	r2, [r3, #88]
2153:Drivers/STM32G4xx_HAL_Driver/Src/stm32g4xx_hal_fdcan.c ****     }
2154:Drivers/STM32G4xx_HAL_Driver/Src/stm32g4xx_hal_fdcan.c **** 
2155:Drivers/STM32G4xx_HAL_Driver/Src/stm32g4xx_hal_fdcan.c ****     /* Return function status */
2156:Drivers/STM32G4xx_HAL_Driver/Src/stm32g4xx_hal_fdcan.c ****     return HAL_OK;
 2845              		.loc 1 2156 12
 2846 006e 0023     		movs	r3, #0
 2847 0070 06E0     		b	.L120
 2848              	.L118:
2157:Drivers/STM32G4xx_HAL_Driver/Src/stm32g4xx_hal_fdcan.c ****   }
2158:Drivers/STM32G4xx_HAL_Driver/Src/stm32g4xx_hal_fdcan.c ****   else
2159:Drivers/STM32G4xx_HAL_Driver/Src/stm32g4xx_hal_fdcan.c ****   {
2160:Drivers/STM32G4xx_HAL_Driver/Src/stm32g4xx_hal_fdcan.c ****     /* Update error code */
2161:Drivers/STM32G4xx_HAL_Driver/Src/stm32g4xx_hal_fdcan.c ****     hfdcan->ErrorCode |= HAL_FDCAN_ERROR_NOT_STARTED;
 2849              		.loc 1 2161 11
 2850 0072 FB68     		ldr	r3, [r7, #12]
 2851 0074 1B6E     		ldr	r3, [r3, #96]
 2852              		.loc 1 2161 23
 2853 0076 43F00802 		orr	r2, r3, #8
 2854 007a FB68     		ldr	r3, [r7, #12]
 2855 007c 1A66     		str	r2, [r3, #96]
2162:Drivers/STM32G4xx_HAL_Driver/Src/stm32g4xx_hal_fdcan.c **** 
2163:Drivers/STM32G4xx_HAL_Driver/Src/stm32g4xx_hal_fdcan.c ****     return HAL_ERROR;
 2856              		.loc 1 2163 12
 2857 007e 0123     		movs	r3, #1
 2858              	.L120:
2164:Drivers/STM32G4xx_HAL_Driver/Src/stm32g4xx_hal_fdcan.c ****   }
2165:Drivers/STM32G4xx_HAL_Driver/Src/stm32g4xx_hal_fdcan.c **** }
 2859              		.loc 1 2165 1
 2860 0080 1846     		mov	r0, r3
 2861 0082 1837     		adds	r7, r7, #24
 2862              	.LCFI179:
 2863              		.cfi_def_cfa_offset 8
 2864 0084 BD46     		mov	sp, r7
 2865              	.LCFI180:
 2866              		.cfi_def_cfa_register 13
 2867              		@ sp needed
 2868 0086 80BD     		pop	{r7, pc}
 2869              		.cfi_endproc
 2870              	.LFE162:
 2872              		.section	.text.HAL_FDCAN_GetLatestTxFifoQRequestBuffer,"ax",%progbits
ARM GAS  C:\Users\AURORA~1\AppData\Local\Temp\ccEbooPs.s 			page 89


 2873              		.align	1
 2874              		.global	HAL_FDCAN_GetLatestTxFifoQRequestBuffer
 2875              		.syntax unified
 2876              		.thumb
 2877              		.thumb_func
 2879              	HAL_FDCAN_GetLatestTxFifoQRequestBuffer:
 2880              	.LFB163:
2166:Drivers/STM32G4xx_HAL_Driver/Src/stm32g4xx_hal_fdcan.c **** 
2167:Drivers/STM32G4xx_HAL_Driver/Src/stm32g4xx_hal_fdcan.c **** /**
2168:Drivers/STM32G4xx_HAL_Driver/Src/stm32g4xx_hal_fdcan.c ****   * @brief  Get Tx buffer index of latest Tx FIFO/Queue request
2169:Drivers/STM32G4xx_HAL_Driver/Src/stm32g4xx_hal_fdcan.c ****   * @param  hfdcan pointer to an FDCAN_HandleTypeDef structure that contains
2170:Drivers/STM32G4xx_HAL_Driver/Src/stm32g4xx_hal_fdcan.c ****   *         the configuration information for the specified FDCAN.
2171:Drivers/STM32G4xx_HAL_Driver/Src/stm32g4xx_hal_fdcan.c ****   * @retval Tx buffer index of last Tx FIFO/Queue request
2172:Drivers/STM32G4xx_HAL_Driver/Src/stm32g4xx_hal_fdcan.c ****   *          - Any value of @arg FDCAN_Tx_location if Tx request has been submitted.
2173:Drivers/STM32G4xx_HAL_Driver/Src/stm32g4xx_hal_fdcan.c ****   *          - 0 if no Tx FIFO/Queue request have been submitted.
2174:Drivers/STM32G4xx_HAL_Driver/Src/stm32g4xx_hal_fdcan.c ****   */
2175:Drivers/STM32G4xx_HAL_Driver/Src/stm32g4xx_hal_fdcan.c **** uint32_t HAL_FDCAN_GetLatestTxFifoQRequestBuffer(const FDCAN_HandleTypeDef *hfdcan)
2176:Drivers/STM32G4xx_HAL_Driver/Src/stm32g4xx_hal_fdcan.c **** {
 2881              		.loc 1 2176 1
 2882              		.cfi_startproc
 2883              		@ args = 0, pretend = 0, frame = 8
 2884              		@ frame_needed = 1, uses_anonymous_args = 0
 2885              		@ link register save eliminated.
 2886 0000 80B4     		push	{r7}
 2887              	.LCFI181:
 2888              		.cfi_def_cfa_offset 4
 2889              		.cfi_offset 7, -4
 2890 0002 83B0     		sub	sp, sp, #12
 2891              	.LCFI182:
 2892              		.cfi_def_cfa_offset 16
 2893 0004 00AF     		add	r7, sp, #0
 2894              	.LCFI183:
 2895              		.cfi_def_cfa_register 7
 2896 0006 7860     		str	r0, [r7, #4]
2177:Drivers/STM32G4xx_HAL_Driver/Src/stm32g4xx_hal_fdcan.c ****   /* Return Last Tx FIFO/Queue Request Buffer */
2178:Drivers/STM32G4xx_HAL_Driver/Src/stm32g4xx_hal_fdcan.c ****   return hfdcan->LatestTxFifoQRequest;
 2897              		.loc 1 2178 16
 2898 0008 7B68     		ldr	r3, [r7, #4]
 2899 000a 9B6D     		ldr	r3, [r3, #88]
2179:Drivers/STM32G4xx_HAL_Driver/Src/stm32g4xx_hal_fdcan.c **** }
 2900              		.loc 1 2179 1
 2901 000c 1846     		mov	r0, r3
 2902 000e 0C37     		adds	r7, r7, #12
 2903              	.LCFI184:
 2904              		.cfi_def_cfa_offset 4
 2905 0010 BD46     		mov	sp, r7
 2906              	.LCFI185:
 2907              		.cfi_def_cfa_register 13
 2908              		@ sp needed
 2909 0012 5DF8047B 		ldr	r7, [sp], #4
 2910              	.LCFI186:
 2911              		.cfi_restore 7
 2912              		.cfi_def_cfa_offset 0
 2913 0016 7047     		bx	lr
 2914              		.cfi_endproc
 2915              	.LFE163:
 2917              		.section	.text.HAL_FDCAN_AbortTxRequest,"ax",%progbits
ARM GAS  C:\Users\AURORA~1\AppData\Local\Temp\ccEbooPs.s 			page 90


 2918              		.align	1
 2919              		.global	HAL_FDCAN_AbortTxRequest
 2920              		.syntax unified
 2921              		.thumb
 2922              		.thumb_func
 2924              	HAL_FDCAN_AbortTxRequest:
 2925              	.LFB164:
2180:Drivers/STM32G4xx_HAL_Driver/Src/stm32g4xx_hal_fdcan.c **** 
2181:Drivers/STM32G4xx_HAL_Driver/Src/stm32g4xx_hal_fdcan.c **** /**
2182:Drivers/STM32G4xx_HAL_Driver/Src/stm32g4xx_hal_fdcan.c ****   * @brief  Abort transmission request
2183:Drivers/STM32G4xx_HAL_Driver/Src/stm32g4xx_hal_fdcan.c ****   * @param  hfdcan pointer to an FDCAN_HandleTypeDef structure that contains
2184:Drivers/STM32G4xx_HAL_Driver/Src/stm32g4xx_hal_fdcan.c ****   *         the configuration information for the specified FDCAN.
2185:Drivers/STM32G4xx_HAL_Driver/Src/stm32g4xx_hal_fdcan.c ****   * @param  BufferIndex buffer index.
2186:Drivers/STM32G4xx_HAL_Driver/Src/stm32g4xx_hal_fdcan.c ****   *         This parameter can be any combination of @arg FDCAN_Tx_location.
2187:Drivers/STM32G4xx_HAL_Driver/Src/stm32g4xx_hal_fdcan.c ****   * @retval HAL status
2188:Drivers/STM32G4xx_HAL_Driver/Src/stm32g4xx_hal_fdcan.c ****   */
2189:Drivers/STM32G4xx_HAL_Driver/Src/stm32g4xx_hal_fdcan.c **** HAL_StatusTypeDef HAL_FDCAN_AbortTxRequest(FDCAN_HandleTypeDef *hfdcan, uint32_t BufferIndex)
2190:Drivers/STM32G4xx_HAL_Driver/Src/stm32g4xx_hal_fdcan.c **** {
 2926              		.loc 1 2190 1
 2927              		.cfi_startproc
 2928              		@ args = 0, pretend = 0, frame = 8
 2929              		@ frame_needed = 1, uses_anonymous_args = 0
 2930              		@ link register save eliminated.
 2931 0000 80B4     		push	{r7}
 2932              	.LCFI187:
 2933              		.cfi_def_cfa_offset 4
 2934              		.cfi_offset 7, -4
 2935 0002 83B0     		sub	sp, sp, #12
 2936              	.LCFI188:
 2937              		.cfi_def_cfa_offset 16
 2938 0004 00AF     		add	r7, sp, #0
 2939              	.LCFI189:
 2940              		.cfi_def_cfa_register 7
 2941 0006 7860     		str	r0, [r7, #4]
 2942 0008 3960     		str	r1, [r7]
2191:Drivers/STM32G4xx_HAL_Driver/Src/stm32g4xx_hal_fdcan.c ****   /* Check function parameters */
2192:Drivers/STM32G4xx_HAL_Driver/Src/stm32g4xx_hal_fdcan.c ****   assert_param(IS_FDCAN_TX_LOCATION_LIST(BufferIndex));
2193:Drivers/STM32G4xx_HAL_Driver/Src/stm32g4xx_hal_fdcan.c **** 
2194:Drivers/STM32G4xx_HAL_Driver/Src/stm32g4xx_hal_fdcan.c ****   if (hfdcan->State == HAL_FDCAN_STATE_BUSY)
 2943              		.loc 1 2194 13
 2944 000a 7B68     		ldr	r3, [r7, #4]
 2945 000c 93F85C30 		ldrb	r3, [r3, #92]
 2946 0010 DBB2     		uxtb	r3, r3
 2947              		.loc 1 2194 6
 2948 0012 022B     		cmp	r3, #2
 2949 0014 06D1     		bne	.L124
2195:Drivers/STM32G4xx_HAL_Driver/Src/stm32g4xx_hal_fdcan.c ****   {
2196:Drivers/STM32G4xx_HAL_Driver/Src/stm32g4xx_hal_fdcan.c ****     /* Add cancellation request */
2197:Drivers/STM32G4xx_HAL_Driver/Src/stm32g4xx_hal_fdcan.c ****     hfdcan->Instance->TXBCR = BufferIndex;
 2950              		.loc 1 2197 11
 2951 0016 7B68     		ldr	r3, [r7, #4]
 2952 0018 1B68     		ldr	r3, [r3]
 2953              		.loc 1 2197 29
 2954 001a 3A68     		ldr	r2, [r7]
 2955 001c C3F8D020 		str	r2, [r3, #208]
2198:Drivers/STM32G4xx_HAL_Driver/Src/stm32g4xx_hal_fdcan.c **** 
2199:Drivers/STM32G4xx_HAL_Driver/Src/stm32g4xx_hal_fdcan.c ****     /* Return function status */
ARM GAS  C:\Users\AURORA~1\AppData\Local\Temp\ccEbooPs.s 			page 91


2200:Drivers/STM32G4xx_HAL_Driver/Src/stm32g4xx_hal_fdcan.c ****     return HAL_OK;
 2956              		.loc 1 2200 12
 2957 0020 0023     		movs	r3, #0
 2958 0022 06E0     		b	.L125
 2959              	.L124:
2201:Drivers/STM32G4xx_HAL_Driver/Src/stm32g4xx_hal_fdcan.c ****   }
2202:Drivers/STM32G4xx_HAL_Driver/Src/stm32g4xx_hal_fdcan.c ****   else
2203:Drivers/STM32G4xx_HAL_Driver/Src/stm32g4xx_hal_fdcan.c ****   {
2204:Drivers/STM32G4xx_HAL_Driver/Src/stm32g4xx_hal_fdcan.c ****     /* Update error code */
2205:Drivers/STM32G4xx_HAL_Driver/Src/stm32g4xx_hal_fdcan.c ****     hfdcan->ErrorCode |= HAL_FDCAN_ERROR_NOT_STARTED;
 2960              		.loc 1 2205 11
 2961 0024 7B68     		ldr	r3, [r7, #4]
 2962 0026 1B6E     		ldr	r3, [r3, #96]
 2963              		.loc 1 2205 23
 2964 0028 43F00802 		orr	r2, r3, #8
 2965 002c 7B68     		ldr	r3, [r7, #4]
 2966 002e 1A66     		str	r2, [r3, #96]
2206:Drivers/STM32G4xx_HAL_Driver/Src/stm32g4xx_hal_fdcan.c **** 
2207:Drivers/STM32G4xx_HAL_Driver/Src/stm32g4xx_hal_fdcan.c ****     return HAL_ERROR;
 2967              		.loc 1 2207 12
 2968 0030 0123     		movs	r3, #1
 2969              	.L125:
2208:Drivers/STM32G4xx_HAL_Driver/Src/stm32g4xx_hal_fdcan.c ****   }
2209:Drivers/STM32G4xx_HAL_Driver/Src/stm32g4xx_hal_fdcan.c **** }
 2970              		.loc 1 2209 1
 2971 0032 1846     		mov	r0, r3
 2972 0034 0C37     		adds	r7, r7, #12
 2973              	.LCFI190:
 2974              		.cfi_def_cfa_offset 4
 2975 0036 BD46     		mov	sp, r7
 2976              	.LCFI191:
 2977              		.cfi_def_cfa_register 13
 2978              		@ sp needed
 2979 0038 5DF8047B 		ldr	r7, [sp], #4
 2980              	.LCFI192:
 2981              		.cfi_restore 7
 2982              		.cfi_def_cfa_offset 0
 2983 003c 7047     		bx	lr
 2984              		.cfi_endproc
 2985              	.LFE164:
 2987              		.section	.text.HAL_FDCAN_GetRxMessage,"ax",%progbits
 2988              		.align	1
 2989              		.global	HAL_FDCAN_GetRxMessage
 2990              		.syntax unified
 2991              		.thumb
 2992              		.thumb_func
 2994              	HAL_FDCAN_GetRxMessage:
 2995              	.LFB165:
2210:Drivers/STM32G4xx_HAL_Driver/Src/stm32g4xx_hal_fdcan.c **** 
2211:Drivers/STM32G4xx_HAL_Driver/Src/stm32g4xx_hal_fdcan.c **** /**
2212:Drivers/STM32G4xx_HAL_Driver/Src/stm32g4xx_hal_fdcan.c ****   * @brief  Get an FDCAN frame from the Rx FIFO zone into the message RAM.
2213:Drivers/STM32G4xx_HAL_Driver/Src/stm32g4xx_hal_fdcan.c ****   * @param  hfdcan pointer to an FDCAN_HandleTypeDef structure that contains
2214:Drivers/STM32G4xx_HAL_Driver/Src/stm32g4xx_hal_fdcan.c ****   *         the configuration information for the specified FDCAN.
2215:Drivers/STM32G4xx_HAL_Driver/Src/stm32g4xx_hal_fdcan.c ****   * @param  RxLocation Location of the received message to be read.
2216:Drivers/STM32G4xx_HAL_Driver/Src/stm32g4xx_hal_fdcan.c ****   *         This parameter can be a value of @arg FDCAN_Rx_location.
2217:Drivers/STM32G4xx_HAL_Driver/Src/stm32g4xx_hal_fdcan.c ****   * @param  pRxHeader pointer to a FDCAN_RxHeaderTypeDef structure.
2218:Drivers/STM32G4xx_HAL_Driver/Src/stm32g4xx_hal_fdcan.c ****   * @param  pRxData pointer to a buffer where the payload of the Rx frame will be stored.
ARM GAS  C:\Users\AURORA~1\AppData\Local\Temp\ccEbooPs.s 			page 92


2219:Drivers/STM32G4xx_HAL_Driver/Src/stm32g4xx_hal_fdcan.c ****   * @retval HAL status
2220:Drivers/STM32G4xx_HAL_Driver/Src/stm32g4xx_hal_fdcan.c ****   */
2221:Drivers/STM32G4xx_HAL_Driver/Src/stm32g4xx_hal_fdcan.c **** HAL_StatusTypeDef HAL_FDCAN_GetRxMessage(FDCAN_HandleTypeDef *hfdcan, uint32_t RxLocation,
2222:Drivers/STM32G4xx_HAL_Driver/Src/stm32g4xx_hal_fdcan.c ****                                          FDCAN_RxHeaderTypeDef *pRxHeader, uint8_t *pRxData)
2223:Drivers/STM32G4xx_HAL_Driver/Src/stm32g4xx_hal_fdcan.c **** {
 2996              		.loc 1 2223 1
 2997              		.cfi_startproc
 2998              		@ args = 0, pretend = 0, frame = 40
 2999              		@ frame_needed = 1, uses_anonymous_args = 0
 3000              		@ link register save eliminated.
 3001 0000 80B4     		push	{r7}
 3002              	.LCFI193:
 3003              		.cfi_def_cfa_offset 4
 3004              		.cfi_offset 7, -4
 3005 0002 8BB0     		sub	sp, sp, #44
 3006              	.LCFI194:
 3007              		.cfi_def_cfa_offset 48
 3008 0004 00AF     		add	r7, sp, #0
 3009              	.LCFI195:
 3010              		.cfi_def_cfa_register 7
 3011 0006 F860     		str	r0, [r7, #12]
 3012 0008 B960     		str	r1, [r7, #8]
 3013 000a 7A60     		str	r2, [r7, #4]
 3014 000c 3B60     		str	r3, [r7]
2224:Drivers/STM32G4xx_HAL_Driver/Src/stm32g4xx_hal_fdcan.c ****   uint32_t *RxAddress;
2225:Drivers/STM32G4xx_HAL_Driver/Src/stm32g4xx_hal_fdcan.c ****   uint8_t  *pData;
2226:Drivers/STM32G4xx_HAL_Driver/Src/stm32g4xx_hal_fdcan.c ****   uint32_t ByteCounter;
2227:Drivers/STM32G4xx_HAL_Driver/Src/stm32g4xx_hal_fdcan.c ****   uint32_t GetIndex = 0;
 3015              		.loc 1 2227 12
 3016 000e 0023     		movs	r3, #0
 3017 0010 FB61     		str	r3, [r7, #28]
2228:Drivers/STM32G4xx_HAL_Driver/Src/stm32g4xx_hal_fdcan.c ****   HAL_FDCAN_StateTypeDef state = hfdcan->State;
 3018              		.loc 1 2228 26
 3019 0012 FB68     		ldr	r3, [r7, #12]
 3020 0014 93F85C30 		ldrb	r3, [r3, #92]
 3021 0018 FB76     		strb	r3, [r7, #27]
2229:Drivers/STM32G4xx_HAL_Driver/Src/stm32g4xx_hal_fdcan.c **** 
2230:Drivers/STM32G4xx_HAL_Driver/Src/stm32g4xx_hal_fdcan.c ****   /* Check function parameters */
2231:Drivers/STM32G4xx_HAL_Driver/Src/stm32g4xx_hal_fdcan.c ****   assert_param(IS_FDCAN_RX_FIFO(RxLocation));
2232:Drivers/STM32G4xx_HAL_Driver/Src/stm32g4xx_hal_fdcan.c **** 
2233:Drivers/STM32G4xx_HAL_Driver/Src/stm32g4xx_hal_fdcan.c ****   if (state == HAL_FDCAN_STATE_BUSY)
 3022              		.loc 1 2233 6
 3023 001a FB7E     		ldrb	r3, [r7, #27]	@ zero_extendqisi2
 3024 001c 022B     		cmp	r3, #2
 3025 001e 40F0E880 		bne	.L127
2234:Drivers/STM32G4xx_HAL_Driver/Src/stm32g4xx_hal_fdcan.c ****   {
2235:Drivers/STM32G4xx_HAL_Driver/Src/stm32g4xx_hal_fdcan.c ****     if (RxLocation == FDCAN_RX_FIFO0) /* Rx element is assigned to the Rx FIFO 0 */
 3026              		.loc 1 2235 8
 3027 0022 BB68     		ldr	r3, [r7, #8]
 3028 0024 402B     		cmp	r3, #64
 3029 0026 37D1     		bne	.L128
2236:Drivers/STM32G4xx_HAL_Driver/Src/stm32g4xx_hal_fdcan.c ****     {
2237:Drivers/STM32G4xx_HAL_Driver/Src/stm32g4xx_hal_fdcan.c ****       /* Check that the Rx FIFO 0 is not empty */
2238:Drivers/STM32G4xx_HAL_Driver/Src/stm32g4xx_hal_fdcan.c ****       if ((hfdcan->Instance->RXF0S & FDCAN_RXF0S_F0FL) == 0U)
 3030              		.loc 1 2238 18
 3031 0028 FB68     		ldr	r3, [r7, #12]
 3032 002a 1B68     		ldr	r3, [r3]
ARM GAS  C:\Users\AURORA~1\AppData\Local\Temp\ccEbooPs.s 			page 93


 3033              		.loc 1 2238 28
 3034 002c D3F89030 		ldr	r3, [r3, #144]
 3035              		.loc 1 2238 36
 3036 0030 03F00F03 		and	r3, r3, #15
 3037              		.loc 1 2238 10
 3038 0034 002B     		cmp	r3, #0
 3039 0036 07D1     		bne	.L129
2239:Drivers/STM32G4xx_HAL_Driver/Src/stm32g4xx_hal_fdcan.c ****       {
2240:Drivers/STM32G4xx_HAL_Driver/Src/stm32g4xx_hal_fdcan.c ****         /* Update error code */
2241:Drivers/STM32G4xx_HAL_Driver/Src/stm32g4xx_hal_fdcan.c ****         hfdcan->ErrorCode |= HAL_FDCAN_ERROR_FIFO_EMPTY;
 3040              		.loc 1 2241 15
 3041 0038 FB68     		ldr	r3, [r7, #12]
 3042 003a 1B6E     		ldr	r3, [r3, #96]
 3043              		.loc 1 2241 27
 3044 003c 43F48072 		orr	r2, r3, #256
 3045 0040 FB68     		ldr	r3, [r7, #12]
 3046 0042 1A66     		str	r2, [r3, #96]
2242:Drivers/STM32G4xx_HAL_Driver/Src/stm32g4xx_hal_fdcan.c **** 
2243:Drivers/STM32G4xx_HAL_Driver/Src/stm32g4xx_hal_fdcan.c ****         return HAL_ERROR;
 3047              		.loc 1 2243 16
 3048 0044 0123     		movs	r3, #1
 3049 0046 DBE0     		b	.L130
 3050              	.L129:
2244:Drivers/STM32G4xx_HAL_Driver/Src/stm32g4xx_hal_fdcan.c ****       }
2245:Drivers/STM32G4xx_HAL_Driver/Src/stm32g4xx_hal_fdcan.c ****       else
2246:Drivers/STM32G4xx_HAL_Driver/Src/stm32g4xx_hal_fdcan.c ****       {
2247:Drivers/STM32G4xx_HAL_Driver/Src/stm32g4xx_hal_fdcan.c ****         /* Check that the Rx FIFO 0 is full & overwrite mode is on */
2248:Drivers/STM32G4xx_HAL_Driver/Src/stm32g4xx_hal_fdcan.c ****         if (((hfdcan->Instance->RXF0S & FDCAN_RXF0S_F0F) >> FDCAN_RXF0S_F0F_Pos) == 1U)
 3051              		.loc 1 2248 21
 3052 0048 FB68     		ldr	r3, [r7, #12]
 3053 004a 1B68     		ldr	r3, [r3]
 3054              		.loc 1 2248 31
 3055 004c D3F89030 		ldr	r3, [r3, #144]
 3056              		.loc 1 2248 82
 3057 0050 03F08073 		and	r3, r3, #16777216
 3058              		.loc 1 2248 12
 3059 0054 B3F1807F 		cmp	r3, #16777216
 3060 0058 0AD1     		bne	.L131
2249:Drivers/STM32G4xx_HAL_Driver/Src/stm32g4xx_hal_fdcan.c ****         {
2250:Drivers/STM32G4xx_HAL_Driver/Src/stm32g4xx_hal_fdcan.c ****           if (((hfdcan->Instance->RXGFC & FDCAN_RXGFC_F0OM) >> FDCAN_RXGFC_F0OM_Pos) == FDCAN_RX_FI
 3061              		.loc 1 2250 23
 3062 005a FB68     		ldr	r3, [r7, #12]
 3063 005c 1B68     		ldr	r3, [r3]
 3064              		.loc 1 2250 33
 3065 005e D3F88030 		ldr	r3, [r3, #128]
 3066              		.loc 1 2250 86
 3067 0062 03F40073 		and	r3, r3, #512
 3068              		.loc 1 2250 14
 3069 0066 B3F5007F 		cmp	r3, #512
 3070 006a 01D1     		bne	.L131
2251:Drivers/STM32G4xx_HAL_Driver/Src/stm32g4xx_hal_fdcan.c ****           {
2252:Drivers/STM32G4xx_HAL_Driver/Src/stm32g4xx_hal_fdcan.c ****             /* When overwrite status is on discard first message in FIFO */
2253:Drivers/STM32G4xx_HAL_Driver/Src/stm32g4xx_hal_fdcan.c ****             GetIndex = 1U;
 3071              		.loc 1 2253 22
 3072 006c 0123     		movs	r3, #1
 3073 006e FB61     		str	r3, [r7, #28]
 3074              	.L131:
ARM GAS  C:\Users\AURORA~1\AppData\Local\Temp\ccEbooPs.s 			page 94


2254:Drivers/STM32G4xx_HAL_Driver/Src/stm32g4xx_hal_fdcan.c ****           }
2255:Drivers/STM32G4xx_HAL_Driver/Src/stm32g4xx_hal_fdcan.c ****         }
2256:Drivers/STM32G4xx_HAL_Driver/Src/stm32g4xx_hal_fdcan.c **** 
2257:Drivers/STM32G4xx_HAL_Driver/Src/stm32g4xx_hal_fdcan.c ****         /* Calculate Rx FIFO 0 element index */
2258:Drivers/STM32G4xx_HAL_Driver/Src/stm32g4xx_hal_fdcan.c ****         GetIndex += ((hfdcan->Instance->RXF0S & FDCAN_RXF0S_F0GI) >> FDCAN_RXF0S_F0GI_Pos);
 3075              		.loc 1 2258 29
 3076 0070 FB68     		ldr	r3, [r7, #12]
 3077 0072 1B68     		ldr	r3, [r3]
 3078              		.loc 1 2258 39
 3079 0074 D3F89030 		ldr	r3, [r3, #144]
 3080              		.loc 1 2258 67
 3081 0078 1B0A     		lsrs	r3, r3, #8
 3082 007a 03F00303 		and	r3, r3, #3
 3083              		.loc 1 2258 18
 3084 007e FA69     		ldr	r2, [r7, #28]
 3085 0080 1344     		add	r3, r3, r2
 3086 0082 FB61     		str	r3, [r7, #28]
2259:Drivers/STM32G4xx_HAL_Driver/Src/stm32g4xx_hal_fdcan.c **** 
2260:Drivers/STM32G4xx_HAL_Driver/Src/stm32g4xx_hal_fdcan.c ****         /* Calculate Rx FIFO 0 element address */
2261:Drivers/STM32G4xx_HAL_Driver/Src/stm32g4xx_hal_fdcan.c ****         RxAddress = (uint32_t *)(hfdcan->msgRam.RxFIFO0SA + (GetIndex * SRAMCAN_RF0_SIZE));
 3087              		.loc 1 2261 48
 3088 0084 FB68     		ldr	r3, [r7, #12]
 3089 0086 996C     		ldr	r1, [r3, #72]
 3090              		.loc 1 2261 71
 3091 0088 FA69     		ldr	r2, [r7, #28]
 3092 008a 1346     		mov	r3, r2
 3093 008c DB00     		lsls	r3, r3, #3
 3094 008e 1344     		add	r3, r3, r2
 3095 0090 DB00     		lsls	r3, r3, #3
 3096              		.loc 1 2261 59
 3097 0092 0B44     		add	r3, r3, r1
 3098              		.loc 1 2261 19
 3099 0094 7B62     		str	r3, [r7, #36]
 3100 0096 36E0     		b	.L132
 3101              	.L128:
2262:Drivers/STM32G4xx_HAL_Driver/Src/stm32g4xx_hal_fdcan.c ****       }
2263:Drivers/STM32G4xx_HAL_Driver/Src/stm32g4xx_hal_fdcan.c ****     }
2264:Drivers/STM32G4xx_HAL_Driver/Src/stm32g4xx_hal_fdcan.c ****     else /* Rx element is assigned to the Rx FIFO 1 */
2265:Drivers/STM32G4xx_HAL_Driver/Src/stm32g4xx_hal_fdcan.c ****     {
2266:Drivers/STM32G4xx_HAL_Driver/Src/stm32g4xx_hal_fdcan.c ****       /* Check that the Rx FIFO 1 is not empty */
2267:Drivers/STM32G4xx_HAL_Driver/Src/stm32g4xx_hal_fdcan.c ****       if ((hfdcan->Instance->RXF1S & FDCAN_RXF1S_F1FL) == 0U)
 3102              		.loc 1 2267 18
 3103 0098 FB68     		ldr	r3, [r7, #12]
 3104 009a 1B68     		ldr	r3, [r3]
 3105              		.loc 1 2267 28
 3106 009c D3F89830 		ldr	r3, [r3, #152]
 3107              		.loc 1 2267 36
 3108 00a0 03F00F03 		and	r3, r3, #15
 3109              		.loc 1 2267 10
 3110 00a4 002B     		cmp	r3, #0
 3111 00a6 07D1     		bne	.L133
2268:Drivers/STM32G4xx_HAL_Driver/Src/stm32g4xx_hal_fdcan.c ****       {
2269:Drivers/STM32G4xx_HAL_Driver/Src/stm32g4xx_hal_fdcan.c ****         /* Update error code */
2270:Drivers/STM32G4xx_HAL_Driver/Src/stm32g4xx_hal_fdcan.c ****         hfdcan->ErrorCode |= HAL_FDCAN_ERROR_FIFO_EMPTY;
 3112              		.loc 1 2270 15
 3113 00a8 FB68     		ldr	r3, [r7, #12]
 3114 00aa 1B6E     		ldr	r3, [r3, #96]
ARM GAS  C:\Users\AURORA~1\AppData\Local\Temp\ccEbooPs.s 			page 95


 3115              		.loc 1 2270 27
 3116 00ac 43F48072 		orr	r2, r3, #256
 3117 00b0 FB68     		ldr	r3, [r7, #12]
 3118 00b2 1A66     		str	r2, [r3, #96]
2271:Drivers/STM32G4xx_HAL_Driver/Src/stm32g4xx_hal_fdcan.c **** 
2272:Drivers/STM32G4xx_HAL_Driver/Src/stm32g4xx_hal_fdcan.c ****         return HAL_ERROR;
 3119              		.loc 1 2272 16
 3120 00b4 0123     		movs	r3, #1
 3121 00b6 A3E0     		b	.L130
 3122              	.L133:
2273:Drivers/STM32G4xx_HAL_Driver/Src/stm32g4xx_hal_fdcan.c ****       }
2274:Drivers/STM32G4xx_HAL_Driver/Src/stm32g4xx_hal_fdcan.c ****       else
2275:Drivers/STM32G4xx_HAL_Driver/Src/stm32g4xx_hal_fdcan.c ****       {
2276:Drivers/STM32G4xx_HAL_Driver/Src/stm32g4xx_hal_fdcan.c ****         /* Check that the Rx FIFO 1 is full & overwrite mode is on */
2277:Drivers/STM32G4xx_HAL_Driver/Src/stm32g4xx_hal_fdcan.c ****         if (((hfdcan->Instance->RXF1S & FDCAN_RXF1S_F1F) >> FDCAN_RXF1S_F1F_Pos) == 1U)
 3123              		.loc 1 2277 21
 3124 00b8 FB68     		ldr	r3, [r7, #12]
 3125 00ba 1B68     		ldr	r3, [r3]
 3126              		.loc 1 2277 31
 3127 00bc D3F89830 		ldr	r3, [r3, #152]
 3128              		.loc 1 2277 82
 3129 00c0 03F08073 		and	r3, r3, #16777216
 3130              		.loc 1 2277 12
 3131 00c4 B3F1807F 		cmp	r3, #16777216
 3132 00c8 0AD1     		bne	.L134
2278:Drivers/STM32G4xx_HAL_Driver/Src/stm32g4xx_hal_fdcan.c ****         {
2279:Drivers/STM32G4xx_HAL_Driver/Src/stm32g4xx_hal_fdcan.c ****           if (((hfdcan->Instance->RXGFC & FDCAN_RXGFC_F1OM) >> FDCAN_RXGFC_F1OM_Pos) == FDCAN_RX_FI
 3133              		.loc 1 2279 23
 3134 00ca FB68     		ldr	r3, [r7, #12]
 3135 00cc 1B68     		ldr	r3, [r3]
 3136              		.loc 1 2279 33
 3137 00ce D3F88030 		ldr	r3, [r3, #128]
 3138              		.loc 1 2279 86
 3139 00d2 03F48073 		and	r3, r3, #256
 3140              		.loc 1 2279 14
 3141 00d6 B3F5807F 		cmp	r3, #256
 3142 00da 01D1     		bne	.L134
2280:Drivers/STM32G4xx_HAL_Driver/Src/stm32g4xx_hal_fdcan.c ****           {
2281:Drivers/STM32G4xx_HAL_Driver/Src/stm32g4xx_hal_fdcan.c ****             /* When overwrite status is on discard first message in FIFO */
2282:Drivers/STM32G4xx_HAL_Driver/Src/stm32g4xx_hal_fdcan.c ****             GetIndex = 1U;
 3143              		.loc 1 2282 22
 3144 00dc 0123     		movs	r3, #1
 3145 00de FB61     		str	r3, [r7, #28]
 3146              	.L134:
2283:Drivers/STM32G4xx_HAL_Driver/Src/stm32g4xx_hal_fdcan.c ****           }
2284:Drivers/STM32G4xx_HAL_Driver/Src/stm32g4xx_hal_fdcan.c ****         }
2285:Drivers/STM32G4xx_HAL_Driver/Src/stm32g4xx_hal_fdcan.c **** 
2286:Drivers/STM32G4xx_HAL_Driver/Src/stm32g4xx_hal_fdcan.c ****         /* Calculate Rx FIFO 1 element index */
2287:Drivers/STM32G4xx_HAL_Driver/Src/stm32g4xx_hal_fdcan.c ****         GetIndex += ((hfdcan->Instance->RXF1S & FDCAN_RXF1S_F1GI) >> FDCAN_RXF1S_F1GI_Pos);
 3147              		.loc 1 2287 29
 3148 00e0 FB68     		ldr	r3, [r7, #12]
 3149 00e2 1B68     		ldr	r3, [r3]
 3150              		.loc 1 2287 39
 3151 00e4 D3F89830 		ldr	r3, [r3, #152]
 3152              		.loc 1 2287 67
 3153 00e8 1B0A     		lsrs	r3, r3, #8
 3154 00ea 03F00303 		and	r3, r3, #3
ARM GAS  C:\Users\AURORA~1\AppData\Local\Temp\ccEbooPs.s 			page 96


 3155              		.loc 1 2287 18
 3156 00ee FA69     		ldr	r2, [r7, #28]
 3157 00f0 1344     		add	r3, r3, r2
 3158 00f2 FB61     		str	r3, [r7, #28]
2288:Drivers/STM32G4xx_HAL_Driver/Src/stm32g4xx_hal_fdcan.c ****         /* Calculate Rx FIFO 1 element address */
2289:Drivers/STM32G4xx_HAL_Driver/Src/stm32g4xx_hal_fdcan.c ****         RxAddress = (uint32_t *)(hfdcan->msgRam.RxFIFO1SA + (GetIndex * SRAMCAN_RF1_SIZE));
 3159              		.loc 1 2289 48
 3160 00f4 FB68     		ldr	r3, [r7, #12]
 3161 00f6 D96C     		ldr	r1, [r3, #76]
 3162              		.loc 1 2289 71
 3163 00f8 FA69     		ldr	r2, [r7, #28]
 3164 00fa 1346     		mov	r3, r2
 3165 00fc DB00     		lsls	r3, r3, #3
 3166 00fe 1344     		add	r3, r3, r2
 3167 0100 DB00     		lsls	r3, r3, #3
 3168              		.loc 1 2289 59
 3169 0102 0B44     		add	r3, r3, r1
 3170              		.loc 1 2289 19
 3171 0104 7B62     		str	r3, [r7, #36]
 3172              	.L132:
2290:Drivers/STM32G4xx_HAL_Driver/Src/stm32g4xx_hal_fdcan.c ****       }
2291:Drivers/STM32G4xx_HAL_Driver/Src/stm32g4xx_hal_fdcan.c ****     }
2292:Drivers/STM32G4xx_HAL_Driver/Src/stm32g4xx_hal_fdcan.c **** 
2293:Drivers/STM32G4xx_HAL_Driver/Src/stm32g4xx_hal_fdcan.c ****     /* Retrieve IdType */
2294:Drivers/STM32G4xx_HAL_Driver/Src/stm32g4xx_hal_fdcan.c ****     pRxHeader->IdType = *RxAddress & FDCAN_ELEMENT_MASK_XTD;
 3173              		.loc 1 2294 25
 3174 0106 7B6A     		ldr	r3, [r7, #36]
 3175 0108 1B68     		ldr	r3, [r3]
 3176              		.loc 1 2294 36
 3177 010a 03F08042 		and	r2, r3, #1073741824
 3178              		.loc 1 2294 23
 3179 010e 7B68     		ldr	r3, [r7, #4]
 3180 0110 5A60     		str	r2, [r3, #4]
2295:Drivers/STM32G4xx_HAL_Driver/Src/stm32g4xx_hal_fdcan.c **** 
2296:Drivers/STM32G4xx_HAL_Driver/Src/stm32g4xx_hal_fdcan.c ****     /* Retrieve Identifier */
2297:Drivers/STM32G4xx_HAL_Driver/Src/stm32g4xx_hal_fdcan.c ****     if (pRxHeader->IdType == FDCAN_STANDARD_ID) /* Standard ID element */
 3181              		.loc 1 2297 18
 3182 0112 7B68     		ldr	r3, [r7, #4]
 3183 0114 5B68     		ldr	r3, [r3, #4]
 3184              		.loc 1 2297 8
 3185 0116 002B     		cmp	r3, #0
 3186 0118 07D1     		bne	.L135
2298:Drivers/STM32G4xx_HAL_Driver/Src/stm32g4xx_hal_fdcan.c ****     {
2299:Drivers/STM32G4xx_HAL_Driver/Src/stm32g4xx_hal_fdcan.c ****       pRxHeader->Identifier = ((*RxAddress & FDCAN_ELEMENT_MASK_STDID) >> 18U);
 3187              		.loc 1 2299 33
 3188 011a 7B6A     		ldr	r3, [r7, #36]
 3189 011c 1B68     		ldr	r3, [r3]
 3190              		.loc 1 2299 72
 3191 011e 9B0C     		lsrs	r3, r3, #18
 3192 0120 C3F30A02 		ubfx	r2, r3, #0, #11
 3193              		.loc 1 2299 29
 3194 0124 7B68     		ldr	r3, [r7, #4]
 3195 0126 1A60     		str	r2, [r3]
 3196 0128 05E0     		b	.L136
 3197              	.L135:
2300:Drivers/STM32G4xx_HAL_Driver/Src/stm32g4xx_hal_fdcan.c ****     }
2301:Drivers/STM32G4xx_HAL_Driver/Src/stm32g4xx_hal_fdcan.c ****     else /* Extended ID element */
ARM GAS  C:\Users\AURORA~1\AppData\Local\Temp\ccEbooPs.s 			page 97


2302:Drivers/STM32G4xx_HAL_Driver/Src/stm32g4xx_hal_fdcan.c ****     {
2303:Drivers/STM32G4xx_HAL_Driver/Src/stm32g4xx_hal_fdcan.c ****       pRxHeader->Identifier = (*RxAddress & FDCAN_ELEMENT_MASK_EXTID);
 3198              		.loc 1 2303 32
 3199 012a 7B6A     		ldr	r3, [r7, #36]
 3200 012c 1B68     		ldr	r3, [r3]
 3201              		.loc 1 2303 43
 3202 012e 23F06042 		bic	r2, r3, #-536870912
 3203              		.loc 1 2303 29
 3204 0132 7B68     		ldr	r3, [r7, #4]
 3205 0134 1A60     		str	r2, [r3]
 3206              	.L136:
2304:Drivers/STM32G4xx_HAL_Driver/Src/stm32g4xx_hal_fdcan.c ****     }
2305:Drivers/STM32G4xx_HAL_Driver/Src/stm32g4xx_hal_fdcan.c **** 
2306:Drivers/STM32G4xx_HAL_Driver/Src/stm32g4xx_hal_fdcan.c ****     /* Retrieve RxFrameType */
2307:Drivers/STM32G4xx_HAL_Driver/Src/stm32g4xx_hal_fdcan.c ****     pRxHeader->RxFrameType = (*RxAddress & FDCAN_ELEMENT_MASK_RTR);
 3207              		.loc 1 2307 31
 3208 0136 7B6A     		ldr	r3, [r7, #36]
 3209 0138 1B68     		ldr	r3, [r3]
 3210              		.loc 1 2307 42
 3211 013a 03F00052 		and	r2, r3, #536870912
 3212              		.loc 1 2307 28
 3213 013e 7B68     		ldr	r3, [r7, #4]
 3214 0140 9A60     		str	r2, [r3, #8]
2308:Drivers/STM32G4xx_HAL_Driver/Src/stm32g4xx_hal_fdcan.c **** 
2309:Drivers/STM32G4xx_HAL_Driver/Src/stm32g4xx_hal_fdcan.c ****     /* Retrieve ErrorStateIndicator */
2310:Drivers/STM32G4xx_HAL_Driver/Src/stm32g4xx_hal_fdcan.c ****     pRxHeader->ErrorStateIndicator = (*RxAddress & FDCAN_ELEMENT_MASK_ESI);
 3215              		.loc 1 2310 39
 3216 0142 7B6A     		ldr	r3, [r7, #36]
 3217 0144 1B68     		ldr	r3, [r3]
 3218              		.loc 1 2310 50
 3219 0146 03F00042 		and	r2, r3, #-2147483648
 3220              		.loc 1 2310 36
 3221 014a 7B68     		ldr	r3, [r7, #4]
 3222 014c 1A61     		str	r2, [r3, #16]
2311:Drivers/STM32G4xx_HAL_Driver/Src/stm32g4xx_hal_fdcan.c **** 
2312:Drivers/STM32G4xx_HAL_Driver/Src/stm32g4xx_hal_fdcan.c ****     /* Increment RxAddress pointer to second word of Rx FIFO element */
2313:Drivers/STM32G4xx_HAL_Driver/Src/stm32g4xx_hal_fdcan.c ****     RxAddress++;
 3223              		.loc 1 2313 14
 3224 014e 7B6A     		ldr	r3, [r7, #36]
 3225 0150 0433     		adds	r3, r3, #4
 3226 0152 7B62     		str	r3, [r7, #36]
2314:Drivers/STM32G4xx_HAL_Driver/Src/stm32g4xx_hal_fdcan.c **** 
2315:Drivers/STM32G4xx_HAL_Driver/Src/stm32g4xx_hal_fdcan.c ****     /* Retrieve RxTimestamp */
2316:Drivers/STM32G4xx_HAL_Driver/Src/stm32g4xx_hal_fdcan.c ****     pRxHeader->RxTimestamp = (*RxAddress & FDCAN_ELEMENT_MASK_TS);
 3227              		.loc 1 2316 31
 3228 0154 7B6A     		ldr	r3, [r7, #36]
 3229 0156 1B68     		ldr	r3, [r3]
 3230              		.loc 1 2316 42
 3231 0158 9AB2     		uxth	r2, r3
 3232              		.loc 1 2316 28
 3233 015a 7B68     		ldr	r3, [r7, #4]
 3234 015c DA61     		str	r2, [r3, #28]
2317:Drivers/STM32G4xx_HAL_Driver/Src/stm32g4xx_hal_fdcan.c **** 
2318:Drivers/STM32G4xx_HAL_Driver/Src/stm32g4xx_hal_fdcan.c ****     /* Retrieve DataLength */
2319:Drivers/STM32G4xx_HAL_Driver/Src/stm32g4xx_hal_fdcan.c ****     pRxHeader->DataLength = ((*RxAddress & FDCAN_ELEMENT_MASK_DLC) >> 16U);
 3235              		.loc 1 2319 31
 3236 015e 7B6A     		ldr	r3, [r7, #36]
ARM GAS  C:\Users\AURORA~1\AppData\Local\Temp\ccEbooPs.s 			page 98


 3237 0160 1B68     		ldr	r3, [r3]
 3238              		.loc 1 2319 68
 3239 0162 1B0C     		lsrs	r3, r3, #16
 3240 0164 03F00F02 		and	r2, r3, #15
 3241              		.loc 1 2319 27
 3242 0168 7B68     		ldr	r3, [r7, #4]
 3243 016a DA60     		str	r2, [r3, #12]
2320:Drivers/STM32G4xx_HAL_Driver/Src/stm32g4xx_hal_fdcan.c **** 
2321:Drivers/STM32G4xx_HAL_Driver/Src/stm32g4xx_hal_fdcan.c ****     /* Retrieve BitRateSwitch */
2322:Drivers/STM32G4xx_HAL_Driver/Src/stm32g4xx_hal_fdcan.c ****     pRxHeader->BitRateSwitch = (*RxAddress & FDCAN_ELEMENT_MASK_BRS);
 3244              		.loc 1 2322 33
 3245 016c 7B6A     		ldr	r3, [r7, #36]
 3246 016e 1B68     		ldr	r3, [r3]
 3247              		.loc 1 2322 44
 3248 0170 03F48012 		and	r2, r3, #1048576
 3249              		.loc 1 2322 30
 3250 0174 7B68     		ldr	r3, [r7, #4]
 3251 0176 5A61     		str	r2, [r3, #20]
2323:Drivers/STM32G4xx_HAL_Driver/Src/stm32g4xx_hal_fdcan.c **** 
2324:Drivers/STM32G4xx_HAL_Driver/Src/stm32g4xx_hal_fdcan.c ****     /* Retrieve FDFormat */
2325:Drivers/STM32G4xx_HAL_Driver/Src/stm32g4xx_hal_fdcan.c ****     pRxHeader->FDFormat = (*RxAddress & FDCAN_ELEMENT_MASK_FDF);
 3252              		.loc 1 2325 28
 3253 0178 7B6A     		ldr	r3, [r7, #36]
 3254 017a 1B68     		ldr	r3, [r3]
 3255              		.loc 1 2325 39
 3256 017c 03F40012 		and	r2, r3, #2097152
 3257              		.loc 1 2325 25
 3258 0180 7B68     		ldr	r3, [r7, #4]
 3259 0182 9A61     		str	r2, [r3, #24]
2326:Drivers/STM32G4xx_HAL_Driver/Src/stm32g4xx_hal_fdcan.c **** 
2327:Drivers/STM32G4xx_HAL_Driver/Src/stm32g4xx_hal_fdcan.c ****     /* Retrieve FilterIndex */
2328:Drivers/STM32G4xx_HAL_Driver/Src/stm32g4xx_hal_fdcan.c ****     pRxHeader->FilterIndex = ((*RxAddress & FDCAN_ELEMENT_MASK_FIDX) >> 24U);
 3260              		.loc 1 2328 32
 3261 0184 7B6A     		ldr	r3, [r7, #36]
 3262 0186 1B68     		ldr	r3, [r3]
 3263              		.loc 1 2328 70
 3264 0188 1B0E     		lsrs	r3, r3, #24
 3265 018a 03F07F02 		and	r2, r3, #127
 3266              		.loc 1 2328 28
 3267 018e 7B68     		ldr	r3, [r7, #4]
 3268 0190 1A62     		str	r2, [r3, #32]
2329:Drivers/STM32G4xx_HAL_Driver/Src/stm32g4xx_hal_fdcan.c **** 
2330:Drivers/STM32G4xx_HAL_Driver/Src/stm32g4xx_hal_fdcan.c ****     /* Retrieve NonMatchingFrame */
2331:Drivers/STM32G4xx_HAL_Driver/Src/stm32g4xx_hal_fdcan.c ****     pRxHeader->IsFilterMatchingFrame = ((*RxAddress & FDCAN_ELEMENT_MASK_ANMF) >> 31U);
 3269              		.loc 1 2331 42
 3270 0192 7B6A     		ldr	r3, [r7, #36]
 3271 0194 1B68     		ldr	r3, [r3]
 3272              		.loc 1 2331 80
 3273 0196 DA0F     		lsrs	r2, r3, #31
 3274              		.loc 1 2331 38
 3275 0198 7B68     		ldr	r3, [r7, #4]
 3276 019a 5A62     		str	r2, [r3, #36]
2332:Drivers/STM32G4xx_HAL_Driver/Src/stm32g4xx_hal_fdcan.c **** 
2333:Drivers/STM32G4xx_HAL_Driver/Src/stm32g4xx_hal_fdcan.c ****     /* Increment RxAddress pointer to payload of Rx FIFO element */
2334:Drivers/STM32G4xx_HAL_Driver/Src/stm32g4xx_hal_fdcan.c ****     RxAddress++;
 3277              		.loc 1 2334 14
 3278 019c 7B6A     		ldr	r3, [r7, #36]
ARM GAS  C:\Users\AURORA~1\AppData\Local\Temp\ccEbooPs.s 			page 99


 3279 019e 0433     		adds	r3, r3, #4
 3280 01a0 7B62     		str	r3, [r7, #36]
2335:Drivers/STM32G4xx_HAL_Driver/Src/stm32g4xx_hal_fdcan.c **** 
2336:Drivers/STM32G4xx_HAL_Driver/Src/stm32g4xx_hal_fdcan.c ****     /* Retrieve Rx payload */
2337:Drivers/STM32G4xx_HAL_Driver/Src/stm32g4xx_hal_fdcan.c ****     pData = (uint8_t *)RxAddress;
 3281              		.loc 1 2337 11
 3282 01a2 7B6A     		ldr	r3, [r7, #36]
 3283 01a4 7B61     		str	r3, [r7, #20]
2338:Drivers/STM32G4xx_HAL_Driver/Src/stm32g4xx_hal_fdcan.c ****     for (ByteCounter = 0; ByteCounter < DLCtoBytes[pRxHeader->DataLength]; ByteCounter++)
 3284              		.loc 1 2338 22
 3285 01a6 0023     		movs	r3, #0
 3286 01a8 3B62     		str	r3, [r7, #32]
 3287              		.loc 1 2338 5
 3288 01aa 0AE0     		b	.L137
 3289              	.L138:
2339:Drivers/STM32G4xx_HAL_Driver/Src/stm32g4xx_hal_fdcan.c ****     {
2340:Drivers/STM32G4xx_HAL_Driver/Src/stm32g4xx_hal_fdcan.c ****       pRxData[ByteCounter] = pData[ByteCounter];
 3290              		.loc 1 2340 35
 3291 01ac 7A69     		ldr	r2, [r7, #20]
 3292 01ae 3B6A     		ldr	r3, [r7, #32]
 3293 01b0 1A44     		add	r2, r2, r3
 3294              		.loc 1 2340 14
 3295 01b2 3968     		ldr	r1, [r7]
 3296 01b4 3B6A     		ldr	r3, [r7, #32]
 3297 01b6 0B44     		add	r3, r3, r1
 3298              		.loc 1 2340 35
 3299 01b8 1278     		ldrb	r2, [r2]	@ zero_extendqisi2
 3300              		.loc 1 2340 28
 3301 01ba 1A70     		strb	r2, [r3]
2338:Drivers/STM32G4xx_HAL_Driver/Src/stm32g4xx_hal_fdcan.c ****     for (ByteCounter = 0; ByteCounter < DLCtoBytes[pRxHeader->DataLength]; ByteCounter++)
 3302              		.loc 1 2338 87 discriminator 3
 3303 01bc 3B6A     		ldr	r3, [r7, #32]
 3304 01be 0133     		adds	r3, r3, #1
 3305 01c0 3B62     		str	r3, [r7, #32]
 3306              	.L137:
2338:Drivers/STM32G4xx_HAL_Driver/Src/stm32g4xx_hal_fdcan.c ****     for (ByteCounter = 0; ByteCounter < DLCtoBytes[pRxHeader->DataLength]; ByteCounter++)
 3307              		.loc 1 2338 61 discriminator 1
 3308 01c2 7B68     		ldr	r3, [r7, #4]
 3309 01c4 DB68     		ldr	r3, [r3, #12]
2338:Drivers/STM32G4xx_HAL_Driver/Src/stm32g4xx_hal_fdcan.c ****     for (ByteCounter = 0; ByteCounter < DLCtoBytes[pRxHeader->DataLength]; ByteCounter++)
 3310              		.loc 1 2338 51 discriminator 1
 3311 01c6 114A     		ldr	r2, .L141
 3312 01c8 D35C     		ldrb	r3, [r2, r3]	@ zero_extendqisi2
 3313 01ca 1A46     		mov	r2, r3
2338:Drivers/STM32G4xx_HAL_Driver/Src/stm32g4xx_hal_fdcan.c ****     for (ByteCounter = 0; ByteCounter < DLCtoBytes[pRxHeader->DataLength]; ByteCounter++)
 3314              		.loc 1 2338 39 discriminator 1
 3315 01cc 3B6A     		ldr	r3, [r7, #32]
 3316 01ce 9342     		cmp	r3, r2
 3317 01d0 ECD3     		bcc	.L138
2341:Drivers/STM32G4xx_HAL_Driver/Src/stm32g4xx_hal_fdcan.c ****     }
2342:Drivers/STM32G4xx_HAL_Driver/Src/stm32g4xx_hal_fdcan.c **** 
2343:Drivers/STM32G4xx_HAL_Driver/Src/stm32g4xx_hal_fdcan.c ****     if (RxLocation == FDCAN_RX_FIFO0) /* Rx element is assigned to the Rx FIFO 0 */
 3318              		.loc 1 2343 8
 3319 01d2 BB68     		ldr	r3, [r7, #8]
 3320 01d4 402B     		cmp	r3, #64
 3321 01d6 05D1     		bne	.L139
2344:Drivers/STM32G4xx_HAL_Driver/Src/stm32g4xx_hal_fdcan.c ****     {
ARM GAS  C:\Users\AURORA~1\AppData\Local\Temp\ccEbooPs.s 			page 100


2345:Drivers/STM32G4xx_HAL_Driver/Src/stm32g4xx_hal_fdcan.c ****       /* Acknowledge the Rx FIFO 0 that the oldest element is read so that it increments the GetInd
2346:Drivers/STM32G4xx_HAL_Driver/Src/stm32g4xx_hal_fdcan.c ****       hfdcan->Instance->RXF0A = GetIndex;
 3322              		.loc 1 2346 13
 3323 01d8 FB68     		ldr	r3, [r7, #12]
 3324 01da 1B68     		ldr	r3, [r3]
 3325              		.loc 1 2346 31
 3326 01dc FA69     		ldr	r2, [r7, #28]
 3327 01de C3F89420 		str	r2, [r3, #148]
 3328 01e2 04E0     		b	.L140
 3329              	.L139:
2347:Drivers/STM32G4xx_HAL_Driver/Src/stm32g4xx_hal_fdcan.c ****     }
2348:Drivers/STM32G4xx_HAL_Driver/Src/stm32g4xx_hal_fdcan.c ****     else /* Rx element is assigned to the Rx FIFO 1 */
2349:Drivers/STM32G4xx_HAL_Driver/Src/stm32g4xx_hal_fdcan.c ****     {
2350:Drivers/STM32G4xx_HAL_Driver/Src/stm32g4xx_hal_fdcan.c ****       /* Acknowledge the Rx FIFO 1 that the oldest element is read so that it increments the GetInd
2351:Drivers/STM32G4xx_HAL_Driver/Src/stm32g4xx_hal_fdcan.c ****       hfdcan->Instance->RXF1A = GetIndex;
 3330              		.loc 1 2351 13
 3331 01e4 FB68     		ldr	r3, [r7, #12]
 3332 01e6 1B68     		ldr	r3, [r3]
 3333              		.loc 1 2351 31
 3334 01e8 FA69     		ldr	r2, [r7, #28]
 3335 01ea C3F89C20 		str	r2, [r3, #156]
 3336              	.L140:
2352:Drivers/STM32G4xx_HAL_Driver/Src/stm32g4xx_hal_fdcan.c ****     }
2353:Drivers/STM32G4xx_HAL_Driver/Src/stm32g4xx_hal_fdcan.c **** 
2354:Drivers/STM32G4xx_HAL_Driver/Src/stm32g4xx_hal_fdcan.c ****     /* Return function status */
2355:Drivers/STM32G4xx_HAL_Driver/Src/stm32g4xx_hal_fdcan.c ****     return HAL_OK;
 3337              		.loc 1 2355 12
 3338 01ee 0023     		movs	r3, #0
 3339 01f0 06E0     		b	.L130
 3340              	.L127:
2356:Drivers/STM32G4xx_HAL_Driver/Src/stm32g4xx_hal_fdcan.c ****   }
2357:Drivers/STM32G4xx_HAL_Driver/Src/stm32g4xx_hal_fdcan.c ****   else
2358:Drivers/STM32G4xx_HAL_Driver/Src/stm32g4xx_hal_fdcan.c ****   {
2359:Drivers/STM32G4xx_HAL_Driver/Src/stm32g4xx_hal_fdcan.c ****     /* Update error code */
2360:Drivers/STM32G4xx_HAL_Driver/Src/stm32g4xx_hal_fdcan.c ****     hfdcan->ErrorCode |= HAL_FDCAN_ERROR_NOT_STARTED;
 3341              		.loc 1 2360 11
 3342 01f2 FB68     		ldr	r3, [r7, #12]
 3343 01f4 1B6E     		ldr	r3, [r3, #96]
 3344              		.loc 1 2360 23
 3345 01f6 43F00802 		orr	r2, r3, #8
 3346 01fa FB68     		ldr	r3, [r7, #12]
 3347 01fc 1A66     		str	r2, [r3, #96]
2361:Drivers/STM32G4xx_HAL_Driver/Src/stm32g4xx_hal_fdcan.c **** 
2362:Drivers/STM32G4xx_HAL_Driver/Src/stm32g4xx_hal_fdcan.c ****     return HAL_ERROR;
 3348              		.loc 1 2362 12
 3349 01fe 0123     		movs	r3, #1
 3350              	.L130:
2363:Drivers/STM32G4xx_HAL_Driver/Src/stm32g4xx_hal_fdcan.c ****   }
2364:Drivers/STM32G4xx_HAL_Driver/Src/stm32g4xx_hal_fdcan.c **** }
 3351              		.loc 1 2364 1
 3352 0200 1846     		mov	r0, r3
 3353 0202 2C37     		adds	r7, r7, #44
 3354              	.LCFI196:
 3355              		.cfi_def_cfa_offset 4
 3356 0204 BD46     		mov	sp, r7
 3357              	.LCFI197:
 3358              		.cfi_def_cfa_register 13
ARM GAS  C:\Users\AURORA~1\AppData\Local\Temp\ccEbooPs.s 			page 101


 3359              		@ sp needed
 3360 0206 5DF8047B 		ldr	r7, [sp], #4
 3361              	.LCFI198:
 3362              		.cfi_restore 7
 3363              		.cfi_def_cfa_offset 0
 3364 020a 7047     		bx	lr
 3365              	.L142:
 3366              		.align	2
 3367              	.L141:
 3368 020c 00000000 		.word	DLCtoBytes
 3369              		.cfi_endproc
 3370              	.LFE165:
 3372              		.section	.text.HAL_FDCAN_GetTxEvent,"ax",%progbits
 3373              		.align	1
 3374              		.global	HAL_FDCAN_GetTxEvent
 3375              		.syntax unified
 3376              		.thumb
 3377              		.thumb_func
 3379              	HAL_FDCAN_GetTxEvent:
 3380              	.LFB166:
2365:Drivers/STM32G4xx_HAL_Driver/Src/stm32g4xx_hal_fdcan.c **** 
2366:Drivers/STM32G4xx_HAL_Driver/Src/stm32g4xx_hal_fdcan.c **** /**
2367:Drivers/STM32G4xx_HAL_Driver/Src/stm32g4xx_hal_fdcan.c ****   * @brief  Get an FDCAN Tx event from the Tx Event FIFO zone into the message RAM.
2368:Drivers/STM32G4xx_HAL_Driver/Src/stm32g4xx_hal_fdcan.c ****   * @param  hfdcan pointer to an FDCAN_HandleTypeDef structure that contains
2369:Drivers/STM32G4xx_HAL_Driver/Src/stm32g4xx_hal_fdcan.c ****   *         the configuration information for the specified FDCAN.
2370:Drivers/STM32G4xx_HAL_Driver/Src/stm32g4xx_hal_fdcan.c ****   * @param  pTxEvent pointer to a FDCAN_TxEventFifoTypeDef structure.
2371:Drivers/STM32G4xx_HAL_Driver/Src/stm32g4xx_hal_fdcan.c ****   * @retval HAL status
2372:Drivers/STM32G4xx_HAL_Driver/Src/stm32g4xx_hal_fdcan.c ****   */
2373:Drivers/STM32G4xx_HAL_Driver/Src/stm32g4xx_hal_fdcan.c **** HAL_StatusTypeDef HAL_FDCAN_GetTxEvent(FDCAN_HandleTypeDef *hfdcan, FDCAN_TxEventFifoTypeDef *pTxEv
2374:Drivers/STM32G4xx_HAL_Driver/Src/stm32g4xx_hal_fdcan.c **** {
 3381              		.loc 1 2374 1
 3382              		.cfi_startproc
 3383              		@ args = 0, pretend = 0, frame = 24
 3384              		@ frame_needed = 1, uses_anonymous_args = 0
 3385              		@ link register save eliminated.
 3386 0000 80B4     		push	{r7}
 3387              	.LCFI199:
 3388              		.cfi_def_cfa_offset 4
 3389              		.cfi_offset 7, -4
 3390 0002 87B0     		sub	sp, sp, #28
 3391              	.LCFI200:
 3392              		.cfi_def_cfa_offset 32
 3393 0004 00AF     		add	r7, sp, #0
 3394              	.LCFI201:
 3395              		.cfi_def_cfa_register 7
 3396 0006 7860     		str	r0, [r7, #4]
 3397 0008 3960     		str	r1, [r7]
2375:Drivers/STM32G4xx_HAL_Driver/Src/stm32g4xx_hal_fdcan.c ****   uint32_t *TxEventAddress;
2376:Drivers/STM32G4xx_HAL_Driver/Src/stm32g4xx_hal_fdcan.c ****   uint32_t GetIndex;
2377:Drivers/STM32G4xx_HAL_Driver/Src/stm32g4xx_hal_fdcan.c ****   HAL_FDCAN_StateTypeDef state = hfdcan->State;
 3398              		.loc 1 2377 26
 3399 000a 7B68     		ldr	r3, [r7, #4]
 3400 000c 93F85C30 		ldrb	r3, [r3, #92]
 3401 0010 FB75     		strb	r3, [r7, #23]
2378:Drivers/STM32G4xx_HAL_Driver/Src/stm32g4xx_hal_fdcan.c **** 
2379:Drivers/STM32G4xx_HAL_Driver/Src/stm32g4xx_hal_fdcan.c ****   if (state == HAL_FDCAN_STATE_BUSY)
 3402              		.loc 1 2379 6
ARM GAS  C:\Users\AURORA~1\AppData\Local\Temp\ccEbooPs.s 			page 102


 3403 0012 FB7D     		ldrb	r3, [r7, #23]	@ zero_extendqisi2
 3404 0014 022B     		cmp	r3, #2
 3405 0016 6ED1     		bne	.L144
2380:Drivers/STM32G4xx_HAL_Driver/Src/stm32g4xx_hal_fdcan.c ****   {
2381:Drivers/STM32G4xx_HAL_Driver/Src/stm32g4xx_hal_fdcan.c ****     /* Check that the Tx event FIFO is not empty */
2382:Drivers/STM32G4xx_HAL_Driver/Src/stm32g4xx_hal_fdcan.c ****     if ((hfdcan->Instance->TXEFS & FDCAN_TXEFS_EFFL) == 0U)
 3406              		.loc 1 2382 16
 3407 0018 7B68     		ldr	r3, [r7, #4]
 3408 001a 1B68     		ldr	r3, [r3]
 3409              		.loc 1 2382 26
 3410 001c D3F8E430 		ldr	r3, [r3, #228]
 3411              		.loc 1 2382 34
 3412 0020 03F00703 		and	r3, r3, #7
 3413              		.loc 1 2382 8
 3414 0024 002B     		cmp	r3, #0
 3415 0026 07D1     		bne	.L145
2383:Drivers/STM32G4xx_HAL_Driver/Src/stm32g4xx_hal_fdcan.c ****     {
2384:Drivers/STM32G4xx_HAL_Driver/Src/stm32g4xx_hal_fdcan.c ****       /* Update error code */
2385:Drivers/STM32G4xx_HAL_Driver/Src/stm32g4xx_hal_fdcan.c ****       hfdcan->ErrorCode |= HAL_FDCAN_ERROR_FIFO_EMPTY;
 3416              		.loc 1 2385 13
 3417 0028 7B68     		ldr	r3, [r7, #4]
 3418 002a 1B6E     		ldr	r3, [r3, #96]
 3419              		.loc 1 2385 25
 3420 002c 43F48072 		orr	r2, r3, #256
 3421 0030 7B68     		ldr	r3, [r7, #4]
 3422 0032 1A66     		str	r2, [r3, #96]
2386:Drivers/STM32G4xx_HAL_Driver/Src/stm32g4xx_hal_fdcan.c **** 
2387:Drivers/STM32G4xx_HAL_Driver/Src/stm32g4xx_hal_fdcan.c ****       return HAL_ERROR;
 3423              		.loc 1 2387 14
 3424 0034 0123     		movs	r3, #1
 3425 0036 65E0     		b	.L146
 3426              	.L145:
2388:Drivers/STM32G4xx_HAL_Driver/Src/stm32g4xx_hal_fdcan.c ****     }
2389:Drivers/STM32G4xx_HAL_Driver/Src/stm32g4xx_hal_fdcan.c **** 
2390:Drivers/STM32G4xx_HAL_Driver/Src/stm32g4xx_hal_fdcan.c ****     /* Calculate Tx event FIFO element address */
2391:Drivers/STM32G4xx_HAL_Driver/Src/stm32g4xx_hal_fdcan.c ****     GetIndex = ((hfdcan->Instance->TXEFS & FDCAN_TXEFS_EFGI) >> FDCAN_TXEFS_EFGI_Pos);
 3427              		.loc 1 2391 24
 3428 0038 7B68     		ldr	r3, [r7, #4]
 3429 003a 1B68     		ldr	r3, [r3]
 3430              		.loc 1 2391 34
 3431 003c D3F8E430 		ldr	r3, [r3, #228]
 3432              		.loc 1 2391 62
 3433 0040 1B0A     		lsrs	r3, r3, #8
 3434              		.loc 1 2391 14
 3435 0042 03F00303 		and	r3, r3, #3
 3436 0046 3B61     		str	r3, [r7, #16]
2392:Drivers/STM32G4xx_HAL_Driver/Src/stm32g4xx_hal_fdcan.c ****     TxEventAddress = (uint32_t *)(hfdcan->msgRam.TxEventFIFOSA + (GetIndex * SRAMCAN_TEF_SIZE));
 3437              		.loc 1 2392 49
 3438 0048 7B68     		ldr	r3, [r7, #4]
 3439 004a 1A6D     		ldr	r2, [r3, #80]
 3440              		.loc 1 2392 76
 3441 004c 3B69     		ldr	r3, [r7, #16]
 3442 004e DB00     		lsls	r3, r3, #3
 3443              		.loc 1 2392 64
 3444 0050 1344     		add	r3, r3, r2
 3445              		.loc 1 2392 20
 3446 0052 FB60     		str	r3, [r7, #12]
ARM GAS  C:\Users\AURORA~1\AppData\Local\Temp\ccEbooPs.s 			page 103


2393:Drivers/STM32G4xx_HAL_Driver/Src/stm32g4xx_hal_fdcan.c **** 
2394:Drivers/STM32G4xx_HAL_Driver/Src/stm32g4xx_hal_fdcan.c ****     /* Retrieve IdType */
2395:Drivers/STM32G4xx_HAL_Driver/Src/stm32g4xx_hal_fdcan.c ****     pTxEvent->IdType = *TxEventAddress & FDCAN_ELEMENT_MASK_XTD;
 3447              		.loc 1 2395 24
 3448 0054 FB68     		ldr	r3, [r7, #12]
 3449 0056 1B68     		ldr	r3, [r3]
 3450              		.loc 1 2395 40
 3451 0058 03F08042 		and	r2, r3, #1073741824
 3452              		.loc 1 2395 22
 3453 005c 3B68     		ldr	r3, [r7]
 3454 005e 5A60     		str	r2, [r3, #4]
2396:Drivers/STM32G4xx_HAL_Driver/Src/stm32g4xx_hal_fdcan.c **** 
2397:Drivers/STM32G4xx_HAL_Driver/Src/stm32g4xx_hal_fdcan.c ****     /* Retrieve Identifier */
2398:Drivers/STM32G4xx_HAL_Driver/Src/stm32g4xx_hal_fdcan.c ****     if (pTxEvent->IdType == FDCAN_STANDARD_ID) /* Standard ID element */
 3455              		.loc 1 2398 17
 3456 0060 3B68     		ldr	r3, [r7]
 3457 0062 5B68     		ldr	r3, [r3, #4]
 3458              		.loc 1 2398 8
 3459 0064 002B     		cmp	r3, #0
 3460 0066 07D1     		bne	.L147
2399:Drivers/STM32G4xx_HAL_Driver/Src/stm32g4xx_hal_fdcan.c ****     {
2400:Drivers/STM32G4xx_HAL_Driver/Src/stm32g4xx_hal_fdcan.c ****       pTxEvent->Identifier = ((*TxEventAddress & FDCAN_ELEMENT_MASK_STDID) >> 18U);
 3461              		.loc 1 2400 32
 3462 0068 FB68     		ldr	r3, [r7, #12]
 3463 006a 1B68     		ldr	r3, [r3]
 3464              		.loc 1 2400 76
 3465 006c 9B0C     		lsrs	r3, r3, #18
 3466 006e C3F30A02 		ubfx	r2, r3, #0, #11
 3467              		.loc 1 2400 28
 3468 0072 3B68     		ldr	r3, [r7]
 3469 0074 1A60     		str	r2, [r3]
 3470 0076 05E0     		b	.L148
 3471              	.L147:
2401:Drivers/STM32G4xx_HAL_Driver/Src/stm32g4xx_hal_fdcan.c ****     }
2402:Drivers/STM32G4xx_HAL_Driver/Src/stm32g4xx_hal_fdcan.c ****     else /* Extended ID element */
2403:Drivers/STM32G4xx_HAL_Driver/Src/stm32g4xx_hal_fdcan.c ****     {
2404:Drivers/STM32G4xx_HAL_Driver/Src/stm32g4xx_hal_fdcan.c ****       pTxEvent->Identifier = (*TxEventAddress & FDCAN_ELEMENT_MASK_EXTID);
 3472              		.loc 1 2404 31
 3473 0078 FB68     		ldr	r3, [r7, #12]
 3474 007a 1B68     		ldr	r3, [r3]
 3475              		.loc 1 2404 47
 3476 007c 23F06042 		bic	r2, r3, #-536870912
 3477              		.loc 1 2404 28
 3478 0080 3B68     		ldr	r3, [r7]
 3479 0082 1A60     		str	r2, [r3]
 3480              	.L148:
2405:Drivers/STM32G4xx_HAL_Driver/Src/stm32g4xx_hal_fdcan.c ****     }
2406:Drivers/STM32G4xx_HAL_Driver/Src/stm32g4xx_hal_fdcan.c **** 
2407:Drivers/STM32G4xx_HAL_Driver/Src/stm32g4xx_hal_fdcan.c ****     /* Retrieve TxFrameType */
2408:Drivers/STM32G4xx_HAL_Driver/Src/stm32g4xx_hal_fdcan.c ****     pTxEvent->TxFrameType = (*TxEventAddress & FDCAN_ELEMENT_MASK_RTR);
 3481              		.loc 1 2408 30
 3482 0084 FB68     		ldr	r3, [r7, #12]
 3483 0086 1B68     		ldr	r3, [r3]
 3484              		.loc 1 2408 46
 3485 0088 03F00052 		and	r2, r3, #536870912
 3486              		.loc 1 2408 27
 3487 008c 3B68     		ldr	r3, [r7]
ARM GAS  C:\Users\AURORA~1\AppData\Local\Temp\ccEbooPs.s 			page 104


 3488 008e 9A60     		str	r2, [r3, #8]
2409:Drivers/STM32G4xx_HAL_Driver/Src/stm32g4xx_hal_fdcan.c **** 
2410:Drivers/STM32G4xx_HAL_Driver/Src/stm32g4xx_hal_fdcan.c ****     /* Retrieve ErrorStateIndicator */
2411:Drivers/STM32G4xx_HAL_Driver/Src/stm32g4xx_hal_fdcan.c ****     pTxEvent->ErrorStateIndicator = (*TxEventAddress & FDCAN_ELEMENT_MASK_ESI);
 3489              		.loc 1 2411 38
 3490 0090 FB68     		ldr	r3, [r7, #12]
 3491 0092 1B68     		ldr	r3, [r3]
 3492              		.loc 1 2411 54
 3493 0094 03F00042 		and	r2, r3, #-2147483648
 3494              		.loc 1 2411 35
 3495 0098 3B68     		ldr	r3, [r7]
 3496 009a 1A61     		str	r2, [r3, #16]
2412:Drivers/STM32G4xx_HAL_Driver/Src/stm32g4xx_hal_fdcan.c **** 
2413:Drivers/STM32G4xx_HAL_Driver/Src/stm32g4xx_hal_fdcan.c ****     /* Increment TxEventAddress pointer to second word of Tx Event FIFO element */
2414:Drivers/STM32G4xx_HAL_Driver/Src/stm32g4xx_hal_fdcan.c ****     TxEventAddress++;
 3497              		.loc 1 2414 19
 3498 009c FB68     		ldr	r3, [r7, #12]
 3499 009e 0433     		adds	r3, r3, #4
 3500 00a0 FB60     		str	r3, [r7, #12]
2415:Drivers/STM32G4xx_HAL_Driver/Src/stm32g4xx_hal_fdcan.c **** 
2416:Drivers/STM32G4xx_HAL_Driver/Src/stm32g4xx_hal_fdcan.c ****     /* Retrieve TxTimestamp */
2417:Drivers/STM32G4xx_HAL_Driver/Src/stm32g4xx_hal_fdcan.c ****     pTxEvent->TxTimestamp = (*TxEventAddress & FDCAN_ELEMENT_MASK_TS);
 3501              		.loc 1 2417 30
 3502 00a2 FB68     		ldr	r3, [r7, #12]
 3503 00a4 1B68     		ldr	r3, [r3]
 3504              		.loc 1 2417 46
 3505 00a6 9AB2     		uxth	r2, r3
 3506              		.loc 1 2417 27
 3507 00a8 3B68     		ldr	r3, [r7]
 3508 00aa DA61     		str	r2, [r3, #28]
2418:Drivers/STM32G4xx_HAL_Driver/Src/stm32g4xx_hal_fdcan.c **** 
2419:Drivers/STM32G4xx_HAL_Driver/Src/stm32g4xx_hal_fdcan.c ****     /* Retrieve DataLength */
2420:Drivers/STM32G4xx_HAL_Driver/Src/stm32g4xx_hal_fdcan.c ****     pTxEvent->DataLength = ((*TxEventAddress & FDCAN_ELEMENT_MASK_DLC) >> 16U);
 3509              		.loc 1 2420 30
 3510 00ac FB68     		ldr	r3, [r7, #12]
 3511 00ae 1B68     		ldr	r3, [r3]
 3512              		.loc 1 2420 72
 3513 00b0 1B0C     		lsrs	r3, r3, #16
 3514 00b2 03F00F02 		and	r2, r3, #15
 3515              		.loc 1 2420 26
 3516 00b6 3B68     		ldr	r3, [r7]
 3517 00b8 DA60     		str	r2, [r3, #12]
2421:Drivers/STM32G4xx_HAL_Driver/Src/stm32g4xx_hal_fdcan.c **** 
2422:Drivers/STM32G4xx_HAL_Driver/Src/stm32g4xx_hal_fdcan.c ****     /* Retrieve BitRateSwitch */
2423:Drivers/STM32G4xx_HAL_Driver/Src/stm32g4xx_hal_fdcan.c ****     pTxEvent->BitRateSwitch = (*TxEventAddress & FDCAN_ELEMENT_MASK_BRS);
 3518              		.loc 1 2423 32
 3519 00ba FB68     		ldr	r3, [r7, #12]
 3520 00bc 1B68     		ldr	r3, [r3]
 3521              		.loc 1 2423 48
 3522 00be 03F48012 		and	r2, r3, #1048576
 3523              		.loc 1 2423 29
 3524 00c2 3B68     		ldr	r3, [r7]
 3525 00c4 5A61     		str	r2, [r3, #20]
2424:Drivers/STM32G4xx_HAL_Driver/Src/stm32g4xx_hal_fdcan.c **** 
2425:Drivers/STM32G4xx_HAL_Driver/Src/stm32g4xx_hal_fdcan.c ****     /* Retrieve FDFormat */
2426:Drivers/STM32G4xx_HAL_Driver/Src/stm32g4xx_hal_fdcan.c ****     pTxEvent->FDFormat = (*TxEventAddress & FDCAN_ELEMENT_MASK_FDF);
 3526              		.loc 1 2426 27
ARM GAS  C:\Users\AURORA~1\AppData\Local\Temp\ccEbooPs.s 			page 105


 3527 00c6 FB68     		ldr	r3, [r7, #12]
 3528 00c8 1B68     		ldr	r3, [r3]
 3529              		.loc 1 2426 43
 3530 00ca 03F40012 		and	r2, r3, #2097152
 3531              		.loc 1 2426 24
 3532 00ce 3B68     		ldr	r3, [r7]
 3533 00d0 9A61     		str	r2, [r3, #24]
2427:Drivers/STM32G4xx_HAL_Driver/Src/stm32g4xx_hal_fdcan.c **** 
2428:Drivers/STM32G4xx_HAL_Driver/Src/stm32g4xx_hal_fdcan.c ****     /* Retrieve EventType */
2429:Drivers/STM32G4xx_HAL_Driver/Src/stm32g4xx_hal_fdcan.c ****     pTxEvent->EventType = (*TxEventAddress & FDCAN_ELEMENT_MASK_ET);
 3534              		.loc 1 2429 28
 3535 00d2 FB68     		ldr	r3, [r7, #12]
 3536 00d4 1B68     		ldr	r3, [r3]
 3537              		.loc 1 2429 44
 3538 00d6 03F44002 		and	r2, r3, #12582912
 3539              		.loc 1 2429 25
 3540 00da 3B68     		ldr	r3, [r7]
 3541 00dc 5A62     		str	r2, [r3, #36]
2430:Drivers/STM32G4xx_HAL_Driver/Src/stm32g4xx_hal_fdcan.c **** 
2431:Drivers/STM32G4xx_HAL_Driver/Src/stm32g4xx_hal_fdcan.c ****     /* Retrieve MessageMarker */
2432:Drivers/STM32G4xx_HAL_Driver/Src/stm32g4xx_hal_fdcan.c ****     pTxEvent->MessageMarker = ((*TxEventAddress & FDCAN_ELEMENT_MASK_MM) >> 24U);
 3542              		.loc 1 2432 33
 3543 00de FB68     		ldr	r3, [r7, #12]
 3544 00e0 1B68     		ldr	r3, [r3]
 3545              		.loc 1 2432 74
 3546 00e2 1A0E     		lsrs	r2, r3, #24
 3547              		.loc 1 2432 29
 3548 00e4 3B68     		ldr	r3, [r7]
 3549 00e6 1A62     		str	r2, [r3, #32]
2433:Drivers/STM32G4xx_HAL_Driver/Src/stm32g4xx_hal_fdcan.c **** 
2434:Drivers/STM32G4xx_HAL_Driver/Src/stm32g4xx_hal_fdcan.c ****     /* Acknowledge the Tx Event FIFO that the oldest element is read so that it increments the GetI
2435:Drivers/STM32G4xx_HAL_Driver/Src/stm32g4xx_hal_fdcan.c ****     hfdcan->Instance->TXEFA = GetIndex;
 3550              		.loc 1 2435 11
 3551 00e8 7B68     		ldr	r3, [r7, #4]
 3552 00ea 1B68     		ldr	r3, [r3]
 3553              		.loc 1 2435 29
 3554 00ec 3A69     		ldr	r2, [r7, #16]
 3555 00ee C3F8E820 		str	r2, [r3, #232]
2436:Drivers/STM32G4xx_HAL_Driver/Src/stm32g4xx_hal_fdcan.c **** 
2437:Drivers/STM32G4xx_HAL_Driver/Src/stm32g4xx_hal_fdcan.c ****     /* Return function status */
2438:Drivers/STM32G4xx_HAL_Driver/Src/stm32g4xx_hal_fdcan.c ****     return HAL_OK;
 3556              		.loc 1 2438 12
 3557 00f2 0023     		movs	r3, #0
 3558 00f4 06E0     		b	.L146
 3559              	.L144:
2439:Drivers/STM32G4xx_HAL_Driver/Src/stm32g4xx_hal_fdcan.c ****   }
2440:Drivers/STM32G4xx_HAL_Driver/Src/stm32g4xx_hal_fdcan.c ****   else
2441:Drivers/STM32G4xx_HAL_Driver/Src/stm32g4xx_hal_fdcan.c ****   {
2442:Drivers/STM32G4xx_HAL_Driver/Src/stm32g4xx_hal_fdcan.c ****     /* Update error code */
2443:Drivers/STM32G4xx_HAL_Driver/Src/stm32g4xx_hal_fdcan.c ****     hfdcan->ErrorCode |= HAL_FDCAN_ERROR_NOT_STARTED;
 3560              		.loc 1 2443 11
 3561 00f6 7B68     		ldr	r3, [r7, #4]
 3562 00f8 1B6E     		ldr	r3, [r3, #96]
 3563              		.loc 1 2443 23
 3564 00fa 43F00802 		orr	r2, r3, #8
 3565 00fe 7B68     		ldr	r3, [r7, #4]
 3566 0100 1A66     		str	r2, [r3, #96]
ARM GAS  C:\Users\AURORA~1\AppData\Local\Temp\ccEbooPs.s 			page 106


2444:Drivers/STM32G4xx_HAL_Driver/Src/stm32g4xx_hal_fdcan.c **** 
2445:Drivers/STM32G4xx_HAL_Driver/Src/stm32g4xx_hal_fdcan.c ****     return HAL_ERROR;
 3567              		.loc 1 2445 12
 3568 0102 0123     		movs	r3, #1
 3569              	.L146:
2446:Drivers/STM32G4xx_HAL_Driver/Src/stm32g4xx_hal_fdcan.c ****   }
2447:Drivers/STM32G4xx_HAL_Driver/Src/stm32g4xx_hal_fdcan.c **** }
 3570              		.loc 1 2447 1
 3571 0104 1846     		mov	r0, r3
 3572 0106 1C37     		adds	r7, r7, #28
 3573              	.LCFI202:
 3574              		.cfi_def_cfa_offset 4
 3575 0108 BD46     		mov	sp, r7
 3576              	.LCFI203:
 3577              		.cfi_def_cfa_register 13
 3578              		@ sp needed
 3579 010a 5DF8047B 		ldr	r7, [sp], #4
 3580              	.LCFI204:
 3581              		.cfi_restore 7
 3582              		.cfi_def_cfa_offset 0
 3583 010e 7047     		bx	lr
 3584              		.cfi_endproc
 3585              	.LFE166:
 3587              		.section	.text.HAL_FDCAN_GetHighPriorityMessageStatus,"ax",%progbits
 3588              		.align	1
 3589              		.global	HAL_FDCAN_GetHighPriorityMessageStatus
 3590              		.syntax unified
 3591              		.thumb
 3592              		.thumb_func
 3594              	HAL_FDCAN_GetHighPriorityMessageStatus:
 3595              	.LFB167:
2448:Drivers/STM32G4xx_HAL_Driver/Src/stm32g4xx_hal_fdcan.c **** 
2449:Drivers/STM32G4xx_HAL_Driver/Src/stm32g4xx_hal_fdcan.c **** /**
2450:Drivers/STM32G4xx_HAL_Driver/Src/stm32g4xx_hal_fdcan.c ****   * @brief  Get high priority message status.
2451:Drivers/STM32G4xx_HAL_Driver/Src/stm32g4xx_hal_fdcan.c ****   * @param  hfdcan pointer to an FDCAN_HandleTypeDef structure that contains
2452:Drivers/STM32G4xx_HAL_Driver/Src/stm32g4xx_hal_fdcan.c ****   *         the configuration information for the specified FDCAN.
2453:Drivers/STM32G4xx_HAL_Driver/Src/stm32g4xx_hal_fdcan.c ****   * @param  HpMsgStatus pointer to an FDCAN_HpMsgStatusTypeDef structure.
2454:Drivers/STM32G4xx_HAL_Driver/Src/stm32g4xx_hal_fdcan.c ****   * @retval HAL status
2455:Drivers/STM32G4xx_HAL_Driver/Src/stm32g4xx_hal_fdcan.c ****   */
2456:Drivers/STM32G4xx_HAL_Driver/Src/stm32g4xx_hal_fdcan.c **** HAL_StatusTypeDef HAL_FDCAN_GetHighPriorityMessageStatus(const FDCAN_HandleTypeDef *hfdcan,
2457:Drivers/STM32G4xx_HAL_Driver/Src/stm32g4xx_hal_fdcan.c ****                                                          FDCAN_HpMsgStatusTypeDef *HpMsgStatus)
2458:Drivers/STM32G4xx_HAL_Driver/Src/stm32g4xx_hal_fdcan.c **** {
 3596              		.loc 1 2458 1
 3597              		.cfi_startproc
 3598              		@ args = 0, pretend = 0, frame = 8
 3599              		@ frame_needed = 1, uses_anonymous_args = 0
 3600              		@ link register save eliminated.
 3601 0000 80B4     		push	{r7}
 3602              	.LCFI205:
 3603              		.cfi_def_cfa_offset 4
 3604              		.cfi_offset 7, -4
 3605 0002 83B0     		sub	sp, sp, #12
 3606              	.LCFI206:
 3607              		.cfi_def_cfa_offset 16
 3608 0004 00AF     		add	r7, sp, #0
 3609              	.LCFI207:
 3610              		.cfi_def_cfa_register 7
ARM GAS  C:\Users\AURORA~1\AppData\Local\Temp\ccEbooPs.s 			page 107


 3611 0006 7860     		str	r0, [r7, #4]
 3612 0008 3960     		str	r1, [r7]
2459:Drivers/STM32G4xx_HAL_Driver/Src/stm32g4xx_hal_fdcan.c ****   HpMsgStatus->FilterList = ((hfdcan->Instance->HPMS & FDCAN_HPMS_FLST) >> FDCAN_HPMS_FLST_Pos);
 3613              		.loc 1 2459 37
 3614 000a 7B68     		ldr	r3, [r7, #4]
 3615 000c 1B68     		ldr	r3, [r3]
 3616              		.loc 1 2459 47
 3617 000e D3F88830 		ldr	r3, [r3, #136]
 3618              		.loc 1 2459 73
 3619 0012 DB0B     		lsrs	r3, r3, #15
 3620 0014 03F00102 		and	r2, r3, #1
 3621              		.loc 1 2459 27
 3622 0018 3B68     		ldr	r3, [r7]
 3623 001a 1A60     		str	r2, [r3]
2460:Drivers/STM32G4xx_HAL_Driver/Src/stm32g4xx_hal_fdcan.c ****   HpMsgStatus->FilterIndex = ((hfdcan->Instance->HPMS & FDCAN_HPMS_FIDX) >> FDCAN_HPMS_FIDX_Pos);
 3624              		.loc 1 2460 38
 3625 001c 7B68     		ldr	r3, [r7, #4]
 3626 001e 1B68     		ldr	r3, [r3]
 3627              		.loc 1 2460 48
 3628 0020 D3F88830 		ldr	r3, [r3, #136]
 3629              		.loc 1 2460 74
 3630 0024 1B0A     		lsrs	r3, r3, #8
 3631 0026 03F01F02 		and	r2, r3, #31
 3632              		.loc 1 2460 28
 3633 002a 3B68     		ldr	r3, [r7]
 3634 002c 5A60     		str	r2, [r3, #4]
2461:Drivers/STM32G4xx_HAL_Driver/Src/stm32g4xx_hal_fdcan.c ****   HpMsgStatus->MessageStorage = (hfdcan->Instance->HPMS & FDCAN_HPMS_MSI);
 3635              		.loc 1 2461 40
 3636 002e 7B68     		ldr	r3, [r7, #4]
 3637 0030 1B68     		ldr	r3, [r3]
 3638              		.loc 1 2461 50
 3639 0032 D3F88830 		ldr	r3, [r3, #136]
 3640              		.loc 1 2461 57
 3641 0036 03F0C002 		and	r2, r3, #192
 3642              		.loc 1 2461 31
 3643 003a 3B68     		ldr	r3, [r7]
 3644 003c 9A60     		str	r2, [r3, #8]
2462:Drivers/STM32G4xx_HAL_Driver/Src/stm32g4xx_hal_fdcan.c ****   HpMsgStatus->MessageIndex = (hfdcan->Instance->HPMS & FDCAN_HPMS_BIDX);
 3645              		.loc 1 2462 38
 3646 003e 7B68     		ldr	r3, [r7, #4]
 3647 0040 1B68     		ldr	r3, [r3]
 3648              		.loc 1 2462 48
 3649 0042 D3F88830 		ldr	r3, [r3, #136]
 3650              		.loc 1 2462 55
 3651 0046 03F00702 		and	r2, r3, #7
 3652              		.loc 1 2462 29
 3653 004a 3B68     		ldr	r3, [r7]
 3654 004c DA60     		str	r2, [r3, #12]
2463:Drivers/STM32G4xx_HAL_Driver/Src/stm32g4xx_hal_fdcan.c **** 
2464:Drivers/STM32G4xx_HAL_Driver/Src/stm32g4xx_hal_fdcan.c ****   /* Return function status */
2465:Drivers/STM32G4xx_HAL_Driver/Src/stm32g4xx_hal_fdcan.c ****   return HAL_OK;
 3655              		.loc 1 2465 10
 3656 004e 0023     		movs	r3, #0
2466:Drivers/STM32G4xx_HAL_Driver/Src/stm32g4xx_hal_fdcan.c **** }
 3657              		.loc 1 2466 1
 3658 0050 1846     		mov	r0, r3
 3659 0052 0C37     		adds	r7, r7, #12
ARM GAS  C:\Users\AURORA~1\AppData\Local\Temp\ccEbooPs.s 			page 108


 3660              	.LCFI208:
 3661              		.cfi_def_cfa_offset 4
 3662 0054 BD46     		mov	sp, r7
 3663              	.LCFI209:
 3664              		.cfi_def_cfa_register 13
 3665              		@ sp needed
 3666 0056 5DF8047B 		ldr	r7, [sp], #4
 3667              	.LCFI210:
 3668              		.cfi_restore 7
 3669              		.cfi_def_cfa_offset 0
 3670 005a 7047     		bx	lr
 3671              		.cfi_endproc
 3672              	.LFE167:
 3674              		.section	.text.HAL_FDCAN_GetProtocolStatus,"ax",%progbits
 3675              		.align	1
 3676              		.global	HAL_FDCAN_GetProtocolStatus
 3677              		.syntax unified
 3678              		.thumb
 3679              		.thumb_func
 3681              	HAL_FDCAN_GetProtocolStatus:
 3682              	.LFB168:
2467:Drivers/STM32G4xx_HAL_Driver/Src/stm32g4xx_hal_fdcan.c **** 
2468:Drivers/STM32G4xx_HAL_Driver/Src/stm32g4xx_hal_fdcan.c **** /**
2469:Drivers/STM32G4xx_HAL_Driver/Src/stm32g4xx_hal_fdcan.c ****   * @brief  Get protocol status.
2470:Drivers/STM32G4xx_HAL_Driver/Src/stm32g4xx_hal_fdcan.c ****   * @param  hfdcan pointer to an FDCAN_HandleTypeDef structure that contains
2471:Drivers/STM32G4xx_HAL_Driver/Src/stm32g4xx_hal_fdcan.c ****   *         the configuration information for the specified FDCAN.
2472:Drivers/STM32G4xx_HAL_Driver/Src/stm32g4xx_hal_fdcan.c ****   * @param  ProtocolStatus pointer to an FDCAN_ProtocolStatusTypeDef structure.
2473:Drivers/STM32G4xx_HAL_Driver/Src/stm32g4xx_hal_fdcan.c ****   * @retval HAL status
2474:Drivers/STM32G4xx_HAL_Driver/Src/stm32g4xx_hal_fdcan.c ****   */
2475:Drivers/STM32G4xx_HAL_Driver/Src/stm32g4xx_hal_fdcan.c **** HAL_StatusTypeDef HAL_FDCAN_GetProtocolStatus(const FDCAN_HandleTypeDef *hfdcan,
2476:Drivers/STM32G4xx_HAL_Driver/Src/stm32g4xx_hal_fdcan.c ****                                               FDCAN_ProtocolStatusTypeDef *ProtocolStatus)
2477:Drivers/STM32G4xx_HAL_Driver/Src/stm32g4xx_hal_fdcan.c **** {
 3683              		.loc 1 2477 1
 3684              		.cfi_startproc
 3685              		@ args = 0, pretend = 0, frame = 16
 3686              		@ frame_needed = 1, uses_anonymous_args = 0
 3687              		@ link register save eliminated.
 3688 0000 80B4     		push	{r7}
 3689              	.LCFI211:
 3690              		.cfi_def_cfa_offset 4
 3691              		.cfi_offset 7, -4
 3692 0002 85B0     		sub	sp, sp, #20
 3693              	.LCFI212:
 3694              		.cfi_def_cfa_offset 24
 3695 0004 00AF     		add	r7, sp, #0
 3696              	.LCFI213:
 3697              		.cfi_def_cfa_register 7
 3698 0006 7860     		str	r0, [r7, #4]
 3699 0008 3960     		str	r1, [r7]
2478:Drivers/STM32G4xx_HAL_Driver/Src/stm32g4xx_hal_fdcan.c ****   uint32_t StatusReg;
2479:Drivers/STM32G4xx_HAL_Driver/Src/stm32g4xx_hal_fdcan.c **** 
2480:Drivers/STM32G4xx_HAL_Driver/Src/stm32g4xx_hal_fdcan.c ****   /* Read the protocol status register */
2481:Drivers/STM32G4xx_HAL_Driver/Src/stm32g4xx_hal_fdcan.c ****   StatusReg = READ_REG(hfdcan->Instance->PSR);
 3700              		.loc 1 2481 15
 3701 000a 7B68     		ldr	r3, [r7, #4]
 3702 000c 1B68     		ldr	r3, [r3]
 3703              		.loc 1 2481 13
ARM GAS  C:\Users\AURORA~1\AppData\Local\Temp\ccEbooPs.s 			page 109


 3704 000e 5B6C     		ldr	r3, [r3, #68]
 3705 0010 FB60     		str	r3, [r7, #12]
2482:Drivers/STM32G4xx_HAL_Driver/Src/stm32g4xx_hal_fdcan.c **** 
2483:Drivers/STM32G4xx_HAL_Driver/Src/stm32g4xx_hal_fdcan.c ****   /* Fill the protocol status structure */
2484:Drivers/STM32G4xx_HAL_Driver/Src/stm32g4xx_hal_fdcan.c ****   ProtocolStatus->LastErrorCode = (StatusReg & FDCAN_PSR_LEC);
 3706              		.loc 1 2484 46
 3707 0012 FB68     		ldr	r3, [r7, #12]
 3708 0014 03F00702 		and	r2, r3, #7
 3709              		.loc 1 2484 33
 3710 0018 3B68     		ldr	r3, [r7]
 3711 001a 1A60     		str	r2, [r3]
2485:Drivers/STM32G4xx_HAL_Driver/Src/stm32g4xx_hal_fdcan.c ****   ProtocolStatus->DataLastErrorCode = ((StatusReg & FDCAN_PSR_DLEC) >> FDCAN_PSR_DLEC_Pos);
 3712              		.loc 1 2485 69
 3713 001c FB68     		ldr	r3, [r7, #12]
 3714 001e 1B0A     		lsrs	r3, r3, #8
 3715 0020 03F00702 		and	r2, r3, #7
 3716              		.loc 1 2485 37
 3717 0024 3B68     		ldr	r3, [r7]
 3718 0026 5A60     		str	r2, [r3, #4]
2486:Drivers/STM32G4xx_HAL_Driver/Src/stm32g4xx_hal_fdcan.c ****   ProtocolStatus->Activity = (StatusReg & FDCAN_PSR_ACT);
 3719              		.loc 1 2486 41
 3720 0028 FB68     		ldr	r3, [r7, #12]
 3721 002a 03F01802 		and	r2, r3, #24
 3722              		.loc 1 2486 28
 3723 002e 3B68     		ldr	r3, [r7]
 3724 0030 9A60     		str	r2, [r3, #8]
2487:Drivers/STM32G4xx_HAL_Driver/Src/stm32g4xx_hal_fdcan.c ****   ProtocolStatus->ErrorPassive = ((StatusReg & FDCAN_PSR_EP) >> FDCAN_PSR_EP_Pos);
 3725              		.loc 1 2487 62
 3726 0032 FB68     		ldr	r3, [r7, #12]
 3727 0034 5B09     		lsrs	r3, r3, #5
 3728 0036 03F00102 		and	r2, r3, #1
 3729              		.loc 1 2487 32
 3730 003a 3B68     		ldr	r3, [r7]
 3731 003c DA60     		str	r2, [r3, #12]
2488:Drivers/STM32G4xx_HAL_Driver/Src/stm32g4xx_hal_fdcan.c ****   ProtocolStatus->Warning = ((StatusReg & FDCAN_PSR_EW) >> FDCAN_PSR_EW_Pos);
 3732              		.loc 1 2488 57
 3733 003e FB68     		ldr	r3, [r7, #12]
 3734 0040 9B09     		lsrs	r3, r3, #6
 3735 0042 03F00102 		and	r2, r3, #1
 3736              		.loc 1 2488 27
 3737 0046 3B68     		ldr	r3, [r7]
 3738 0048 1A61     		str	r2, [r3, #16]
2489:Drivers/STM32G4xx_HAL_Driver/Src/stm32g4xx_hal_fdcan.c ****   ProtocolStatus->BusOff = ((StatusReg & FDCAN_PSR_BO) >> FDCAN_PSR_BO_Pos);
 3739              		.loc 1 2489 56
 3740 004a FB68     		ldr	r3, [r7, #12]
 3741 004c DB09     		lsrs	r3, r3, #7
 3742 004e 03F00102 		and	r2, r3, #1
 3743              		.loc 1 2489 26
 3744 0052 3B68     		ldr	r3, [r7]
 3745 0054 5A61     		str	r2, [r3, #20]
2490:Drivers/STM32G4xx_HAL_Driver/Src/stm32g4xx_hal_fdcan.c ****   ProtocolStatus->RxESIflag = ((StatusReg & FDCAN_PSR_RESI) >> FDCAN_PSR_RESI_Pos);
 3746              		.loc 1 2490 61
 3747 0056 FB68     		ldr	r3, [r7, #12]
 3748 0058 DB0A     		lsrs	r3, r3, #11
 3749 005a 03F00102 		and	r2, r3, #1
 3750              		.loc 1 2490 29
 3751 005e 3B68     		ldr	r3, [r7]
ARM GAS  C:\Users\AURORA~1\AppData\Local\Temp\ccEbooPs.s 			page 110


 3752 0060 9A61     		str	r2, [r3, #24]
2491:Drivers/STM32G4xx_HAL_Driver/Src/stm32g4xx_hal_fdcan.c ****   ProtocolStatus->RxBRSflag = ((StatusReg & FDCAN_PSR_RBRS) >> FDCAN_PSR_RBRS_Pos);
 3753              		.loc 1 2491 61
 3754 0062 FB68     		ldr	r3, [r7, #12]
 3755 0064 1B0B     		lsrs	r3, r3, #12
 3756 0066 03F00102 		and	r2, r3, #1
 3757              		.loc 1 2491 29
 3758 006a 3B68     		ldr	r3, [r7]
 3759 006c DA61     		str	r2, [r3, #28]
2492:Drivers/STM32G4xx_HAL_Driver/Src/stm32g4xx_hal_fdcan.c ****   ProtocolStatus->RxFDFflag = ((StatusReg & FDCAN_PSR_REDL) >> FDCAN_PSR_REDL_Pos);
 3760              		.loc 1 2492 61
 3761 006e FB68     		ldr	r3, [r7, #12]
 3762 0070 5B0B     		lsrs	r3, r3, #13
 3763 0072 03F00102 		and	r2, r3, #1
 3764              		.loc 1 2492 29
 3765 0076 3B68     		ldr	r3, [r7]
 3766 0078 1A62     		str	r2, [r3, #32]
2493:Drivers/STM32G4xx_HAL_Driver/Src/stm32g4xx_hal_fdcan.c ****   ProtocolStatus->ProtocolException = ((StatusReg & FDCAN_PSR_PXE) >> FDCAN_PSR_PXE_Pos);
 3767              		.loc 1 2493 68
 3768 007a FB68     		ldr	r3, [r7, #12]
 3769 007c 9B0B     		lsrs	r3, r3, #14
 3770 007e 03F00102 		and	r2, r3, #1
 3771              		.loc 1 2493 37
 3772 0082 3B68     		ldr	r3, [r7]
 3773 0084 5A62     		str	r2, [r3, #36]
2494:Drivers/STM32G4xx_HAL_Driver/Src/stm32g4xx_hal_fdcan.c ****   ProtocolStatus->TDCvalue = ((StatusReg & FDCAN_PSR_TDCV) >> FDCAN_PSR_TDCV_Pos);
 3774              		.loc 1 2494 60
 3775 0086 FB68     		ldr	r3, [r7, #12]
 3776 0088 1B0C     		lsrs	r3, r3, #16
 3777 008a 03F07F02 		and	r2, r3, #127
 3778              		.loc 1 2494 28
 3779 008e 3B68     		ldr	r3, [r7]
 3780 0090 9A62     		str	r2, [r3, #40]
2495:Drivers/STM32G4xx_HAL_Driver/Src/stm32g4xx_hal_fdcan.c **** 
2496:Drivers/STM32G4xx_HAL_Driver/Src/stm32g4xx_hal_fdcan.c ****   /* Return function status */
2497:Drivers/STM32G4xx_HAL_Driver/Src/stm32g4xx_hal_fdcan.c ****   return HAL_OK;
 3781              		.loc 1 2497 10
 3782 0092 0023     		movs	r3, #0
2498:Drivers/STM32G4xx_HAL_Driver/Src/stm32g4xx_hal_fdcan.c **** }
 3783              		.loc 1 2498 1
 3784 0094 1846     		mov	r0, r3
 3785 0096 1437     		adds	r7, r7, #20
 3786              	.LCFI214:
 3787              		.cfi_def_cfa_offset 4
 3788 0098 BD46     		mov	sp, r7
 3789              	.LCFI215:
 3790              		.cfi_def_cfa_register 13
 3791              		@ sp needed
 3792 009a 5DF8047B 		ldr	r7, [sp], #4
 3793              	.LCFI216:
 3794              		.cfi_restore 7
 3795              		.cfi_def_cfa_offset 0
 3796 009e 7047     		bx	lr
 3797              		.cfi_endproc
 3798              	.LFE168:
 3800              		.section	.text.HAL_FDCAN_GetErrorCounters,"ax",%progbits
 3801              		.align	1
ARM GAS  C:\Users\AURORA~1\AppData\Local\Temp\ccEbooPs.s 			page 111


 3802              		.global	HAL_FDCAN_GetErrorCounters
 3803              		.syntax unified
 3804              		.thumb
 3805              		.thumb_func
 3807              	HAL_FDCAN_GetErrorCounters:
 3808              	.LFB169:
2499:Drivers/STM32G4xx_HAL_Driver/Src/stm32g4xx_hal_fdcan.c **** 
2500:Drivers/STM32G4xx_HAL_Driver/Src/stm32g4xx_hal_fdcan.c **** /**
2501:Drivers/STM32G4xx_HAL_Driver/Src/stm32g4xx_hal_fdcan.c ****   * @brief  Get error counter values.
2502:Drivers/STM32G4xx_HAL_Driver/Src/stm32g4xx_hal_fdcan.c ****   * @param  hfdcan pointer to an FDCAN_HandleTypeDef structure that contains
2503:Drivers/STM32G4xx_HAL_Driver/Src/stm32g4xx_hal_fdcan.c ****   *         the configuration information for the specified FDCAN.
2504:Drivers/STM32G4xx_HAL_Driver/Src/stm32g4xx_hal_fdcan.c ****   * @param  ErrorCounters pointer to an FDCAN_ErrorCountersTypeDef structure.
2505:Drivers/STM32G4xx_HAL_Driver/Src/stm32g4xx_hal_fdcan.c ****   * @retval HAL status
2506:Drivers/STM32G4xx_HAL_Driver/Src/stm32g4xx_hal_fdcan.c ****   */
2507:Drivers/STM32G4xx_HAL_Driver/Src/stm32g4xx_hal_fdcan.c **** HAL_StatusTypeDef HAL_FDCAN_GetErrorCounters(const FDCAN_HandleTypeDef *hfdcan,
2508:Drivers/STM32G4xx_HAL_Driver/Src/stm32g4xx_hal_fdcan.c ****                                              FDCAN_ErrorCountersTypeDef *ErrorCounters)
2509:Drivers/STM32G4xx_HAL_Driver/Src/stm32g4xx_hal_fdcan.c **** {
 3809              		.loc 1 2509 1
 3810              		.cfi_startproc
 3811              		@ args = 0, pretend = 0, frame = 16
 3812              		@ frame_needed = 1, uses_anonymous_args = 0
 3813              		@ link register save eliminated.
 3814 0000 80B4     		push	{r7}
 3815              	.LCFI217:
 3816              		.cfi_def_cfa_offset 4
 3817              		.cfi_offset 7, -4
 3818 0002 85B0     		sub	sp, sp, #20
 3819              	.LCFI218:
 3820              		.cfi_def_cfa_offset 24
 3821 0004 00AF     		add	r7, sp, #0
 3822              	.LCFI219:
 3823              		.cfi_def_cfa_register 7
 3824 0006 7860     		str	r0, [r7, #4]
 3825 0008 3960     		str	r1, [r7]
2510:Drivers/STM32G4xx_HAL_Driver/Src/stm32g4xx_hal_fdcan.c ****   uint32_t CountersReg;
2511:Drivers/STM32G4xx_HAL_Driver/Src/stm32g4xx_hal_fdcan.c **** 
2512:Drivers/STM32G4xx_HAL_Driver/Src/stm32g4xx_hal_fdcan.c ****   /* Read the error counters register */
2513:Drivers/STM32G4xx_HAL_Driver/Src/stm32g4xx_hal_fdcan.c ****   CountersReg = READ_REG(hfdcan->Instance->ECR);
 3826              		.loc 1 2513 17
 3827 000a 7B68     		ldr	r3, [r7, #4]
 3828 000c 1B68     		ldr	r3, [r3]
 3829              		.loc 1 2513 15
 3830 000e 1B6C     		ldr	r3, [r3, #64]
 3831 0010 FB60     		str	r3, [r7, #12]
2514:Drivers/STM32G4xx_HAL_Driver/Src/stm32g4xx_hal_fdcan.c **** 
2515:Drivers/STM32G4xx_HAL_Driver/Src/stm32g4xx_hal_fdcan.c ****   /* Fill the error counters structure */
2516:Drivers/STM32G4xx_HAL_Driver/Src/stm32g4xx_hal_fdcan.c ****   ErrorCounters->TxErrorCnt = ((CountersReg & FDCAN_ECR_TEC) >> FDCAN_ECR_TEC_Pos);
 3832              		.loc 1 2516 62
 3833 0012 FB68     		ldr	r3, [r7, #12]
 3834 0014 DAB2     		uxtb	r2, r3
 3835              		.loc 1 2516 29
 3836 0016 3B68     		ldr	r3, [r7]
 3837 0018 1A60     		str	r2, [r3]
2517:Drivers/STM32G4xx_HAL_Driver/Src/stm32g4xx_hal_fdcan.c ****   ErrorCounters->RxErrorCnt = ((CountersReg & FDCAN_ECR_REC) >> FDCAN_ECR_REC_Pos);
 3838              		.loc 1 2517 62
 3839 001a FB68     		ldr	r3, [r7, #12]
 3840 001c 1B0A     		lsrs	r3, r3, #8
ARM GAS  C:\Users\AURORA~1\AppData\Local\Temp\ccEbooPs.s 			page 112


 3841 001e 03F07F02 		and	r2, r3, #127
 3842              		.loc 1 2517 29
 3843 0022 3B68     		ldr	r3, [r7]
 3844 0024 5A60     		str	r2, [r3, #4]
2518:Drivers/STM32G4xx_HAL_Driver/Src/stm32g4xx_hal_fdcan.c ****   ErrorCounters->RxErrorPassive = ((CountersReg & FDCAN_ECR_RP) >> FDCAN_ECR_RP_Pos);
 3845              		.loc 1 2518 65
 3846 0026 FB68     		ldr	r3, [r7, #12]
 3847 0028 DB0B     		lsrs	r3, r3, #15
 3848 002a 03F00102 		and	r2, r3, #1
 3849              		.loc 1 2518 33
 3850 002e 3B68     		ldr	r3, [r7]
 3851 0030 9A60     		str	r2, [r3, #8]
2519:Drivers/STM32G4xx_HAL_Driver/Src/stm32g4xx_hal_fdcan.c ****   ErrorCounters->ErrorLogging = ((CountersReg & FDCAN_ECR_CEL) >> FDCAN_ECR_CEL_Pos);
 3852              		.loc 1 2519 64
 3853 0032 FB68     		ldr	r3, [r7, #12]
 3854 0034 1B0C     		lsrs	r3, r3, #16
 3855 0036 DAB2     		uxtb	r2, r3
 3856              		.loc 1 2519 31
 3857 0038 3B68     		ldr	r3, [r7]
 3858 003a DA60     		str	r2, [r3, #12]
2520:Drivers/STM32G4xx_HAL_Driver/Src/stm32g4xx_hal_fdcan.c **** 
2521:Drivers/STM32G4xx_HAL_Driver/Src/stm32g4xx_hal_fdcan.c ****   /* Return function status */
2522:Drivers/STM32G4xx_HAL_Driver/Src/stm32g4xx_hal_fdcan.c ****   return HAL_OK;
 3859              		.loc 1 2522 10
 3860 003c 0023     		movs	r3, #0
2523:Drivers/STM32G4xx_HAL_Driver/Src/stm32g4xx_hal_fdcan.c **** }
 3861              		.loc 1 2523 1
 3862 003e 1846     		mov	r0, r3
 3863 0040 1437     		adds	r7, r7, #20
 3864              	.LCFI220:
 3865              		.cfi_def_cfa_offset 4
 3866 0042 BD46     		mov	sp, r7
 3867              	.LCFI221:
 3868              		.cfi_def_cfa_register 13
 3869              		@ sp needed
 3870 0044 5DF8047B 		ldr	r7, [sp], #4
 3871              	.LCFI222:
 3872              		.cfi_restore 7
 3873              		.cfi_def_cfa_offset 0
 3874 0048 7047     		bx	lr
 3875              		.cfi_endproc
 3876              	.LFE169:
 3878              		.section	.text.HAL_FDCAN_IsTxBufferMessagePending,"ax",%progbits
 3879              		.align	1
 3880              		.global	HAL_FDCAN_IsTxBufferMessagePending
 3881              		.syntax unified
 3882              		.thumb
 3883              		.thumb_func
 3885              	HAL_FDCAN_IsTxBufferMessagePending:
 3886              	.LFB170:
2524:Drivers/STM32G4xx_HAL_Driver/Src/stm32g4xx_hal_fdcan.c **** 
2525:Drivers/STM32G4xx_HAL_Driver/Src/stm32g4xx_hal_fdcan.c **** /**
2526:Drivers/STM32G4xx_HAL_Driver/Src/stm32g4xx_hal_fdcan.c ****   * @brief  Check if a transmission request is pending on the selected Tx buffer.
2527:Drivers/STM32G4xx_HAL_Driver/Src/stm32g4xx_hal_fdcan.c ****   * @param  hfdcan pointer to an FDCAN_HandleTypeDef structure that contains
2528:Drivers/STM32G4xx_HAL_Driver/Src/stm32g4xx_hal_fdcan.c ****   *         the configuration information for the specified FDCAN.
2529:Drivers/STM32G4xx_HAL_Driver/Src/stm32g4xx_hal_fdcan.c ****   * @param  TxBufferIndex Tx buffer index.
2530:Drivers/STM32G4xx_HAL_Driver/Src/stm32g4xx_hal_fdcan.c ****   *         This parameter can be any combination of @arg FDCAN_Tx_location.
ARM GAS  C:\Users\AURORA~1\AppData\Local\Temp\ccEbooPs.s 			page 113


2531:Drivers/STM32G4xx_HAL_Driver/Src/stm32g4xx_hal_fdcan.c ****   * @retval Status
2532:Drivers/STM32G4xx_HAL_Driver/Src/stm32g4xx_hal_fdcan.c ****   *          - 0 : No pending transmission request on TxBufferIndex list.
2533:Drivers/STM32G4xx_HAL_Driver/Src/stm32g4xx_hal_fdcan.c ****   *          - 1 : Pending transmission request on TxBufferIndex.
2534:Drivers/STM32G4xx_HAL_Driver/Src/stm32g4xx_hal_fdcan.c ****   */
2535:Drivers/STM32G4xx_HAL_Driver/Src/stm32g4xx_hal_fdcan.c **** uint32_t HAL_FDCAN_IsTxBufferMessagePending(const FDCAN_HandleTypeDef *hfdcan, uint32_t TxBufferInd
2536:Drivers/STM32G4xx_HAL_Driver/Src/stm32g4xx_hal_fdcan.c **** {
 3887              		.loc 1 2536 1
 3888              		.cfi_startproc
 3889              		@ args = 0, pretend = 0, frame = 8
 3890              		@ frame_needed = 1, uses_anonymous_args = 0
 3891              		@ link register save eliminated.
 3892 0000 80B4     		push	{r7}
 3893              	.LCFI223:
 3894              		.cfi_def_cfa_offset 4
 3895              		.cfi_offset 7, -4
 3896 0002 83B0     		sub	sp, sp, #12
 3897              	.LCFI224:
 3898              		.cfi_def_cfa_offset 16
 3899 0004 00AF     		add	r7, sp, #0
 3900              	.LCFI225:
 3901              		.cfi_def_cfa_register 7
 3902 0006 7860     		str	r0, [r7, #4]
 3903 0008 3960     		str	r1, [r7]
2537:Drivers/STM32G4xx_HAL_Driver/Src/stm32g4xx_hal_fdcan.c ****   /* Check function parameters */
2538:Drivers/STM32G4xx_HAL_Driver/Src/stm32g4xx_hal_fdcan.c ****   assert_param(IS_FDCAN_TX_LOCATION_LIST(TxBufferIndex));
2539:Drivers/STM32G4xx_HAL_Driver/Src/stm32g4xx_hal_fdcan.c **** 
2540:Drivers/STM32G4xx_HAL_Driver/Src/stm32g4xx_hal_fdcan.c ****   /* Check pending transmission request on the selected buffer */
2541:Drivers/STM32G4xx_HAL_Driver/Src/stm32g4xx_hal_fdcan.c ****   if ((hfdcan->Instance->TXBRP & TxBufferIndex) == 0U)
 3904              		.loc 1 2541 14
 3905 000a 7B68     		ldr	r3, [r7, #4]
 3906 000c 1B68     		ldr	r3, [r3]
 3907              		.loc 1 2541 24
 3908 000e D3F8C820 		ldr	r2, [r3, #200]
 3909              		.loc 1 2541 32
 3910 0012 3B68     		ldr	r3, [r7]
 3911 0014 1340     		ands	r3, r3, r2
 3912              		.loc 1 2541 6
 3913 0016 002B     		cmp	r3, #0
 3914 0018 01D1     		bne	.L156
2542:Drivers/STM32G4xx_HAL_Driver/Src/stm32g4xx_hal_fdcan.c ****   {
2543:Drivers/STM32G4xx_HAL_Driver/Src/stm32g4xx_hal_fdcan.c ****     return 0;
 3915              		.loc 1 2543 12
 3916 001a 0023     		movs	r3, #0
 3917 001c 00E0     		b	.L157
 3918              	.L156:
2544:Drivers/STM32G4xx_HAL_Driver/Src/stm32g4xx_hal_fdcan.c ****   }
2545:Drivers/STM32G4xx_HAL_Driver/Src/stm32g4xx_hal_fdcan.c ****   return 1;
 3919              		.loc 1 2545 10
 3920 001e 0123     		movs	r3, #1
 3921              	.L157:
2546:Drivers/STM32G4xx_HAL_Driver/Src/stm32g4xx_hal_fdcan.c **** }
 3922              		.loc 1 2546 1
 3923 0020 1846     		mov	r0, r3
 3924 0022 0C37     		adds	r7, r7, #12
 3925              	.LCFI226:
 3926              		.cfi_def_cfa_offset 4
 3927 0024 BD46     		mov	sp, r7
ARM GAS  C:\Users\AURORA~1\AppData\Local\Temp\ccEbooPs.s 			page 114


 3928              	.LCFI227:
 3929              		.cfi_def_cfa_register 13
 3930              		@ sp needed
 3931 0026 5DF8047B 		ldr	r7, [sp], #4
 3932              	.LCFI228:
 3933              		.cfi_restore 7
 3934              		.cfi_def_cfa_offset 0
 3935 002a 7047     		bx	lr
 3936              		.cfi_endproc
 3937              	.LFE170:
 3939              		.section	.text.HAL_FDCAN_GetRxFifoFillLevel,"ax",%progbits
 3940              		.align	1
 3941              		.global	HAL_FDCAN_GetRxFifoFillLevel
 3942              		.syntax unified
 3943              		.thumb
 3944              		.thumb_func
 3946              	HAL_FDCAN_GetRxFifoFillLevel:
 3947              	.LFB171:
2547:Drivers/STM32G4xx_HAL_Driver/Src/stm32g4xx_hal_fdcan.c **** 
2548:Drivers/STM32G4xx_HAL_Driver/Src/stm32g4xx_hal_fdcan.c **** /**
2549:Drivers/STM32G4xx_HAL_Driver/Src/stm32g4xx_hal_fdcan.c ****   * @brief  Return Rx FIFO fill level.
2550:Drivers/STM32G4xx_HAL_Driver/Src/stm32g4xx_hal_fdcan.c ****   * @param  hfdcan pointer to an FDCAN_HandleTypeDef structure that contains
2551:Drivers/STM32G4xx_HAL_Driver/Src/stm32g4xx_hal_fdcan.c ****   *         the configuration information for the specified FDCAN.
2552:Drivers/STM32G4xx_HAL_Driver/Src/stm32g4xx_hal_fdcan.c ****   * @param  RxFifo Rx FIFO.
2553:Drivers/STM32G4xx_HAL_Driver/Src/stm32g4xx_hal_fdcan.c ****   *         This parameter can be one of the following values:
2554:Drivers/STM32G4xx_HAL_Driver/Src/stm32g4xx_hal_fdcan.c ****   *           @arg FDCAN_RX_FIFO0: Rx FIFO 0
2555:Drivers/STM32G4xx_HAL_Driver/Src/stm32g4xx_hal_fdcan.c ****   *           @arg FDCAN_RX_FIFO1: Rx FIFO 1
2556:Drivers/STM32G4xx_HAL_Driver/Src/stm32g4xx_hal_fdcan.c ****   * @retval Rx FIFO fill level.
2557:Drivers/STM32G4xx_HAL_Driver/Src/stm32g4xx_hal_fdcan.c ****   */
2558:Drivers/STM32G4xx_HAL_Driver/Src/stm32g4xx_hal_fdcan.c **** uint32_t HAL_FDCAN_GetRxFifoFillLevel(const FDCAN_HandleTypeDef *hfdcan, uint32_t RxFifo)
2559:Drivers/STM32G4xx_HAL_Driver/Src/stm32g4xx_hal_fdcan.c **** {
 3948              		.loc 1 2559 1
 3949              		.cfi_startproc
 3950              		@ args = 0, pretend = 0, frame = 16
 3951              		@ frame_needed = 1, uses_anonymous_args = 0
 3952              		@ link register save eliminated.
 3953 0000 80B4     		push	{r7}
 3954              	.LCFI229:
 3955              		.cfi_def_cfa_offset 4
 3956              		.cfi_offset 7, -4
 3957 0002 85B0     		sub	sp, sp, #20
 3958              	.LCFI230:
 3959              		.cfi_def_cfa_offset 24
 3960 0004 00AF     		add	r7, sp, #0
 3961              	.LCFI231:
 3962              		.cfi_def_cfa_register 7
 3963 0006 7860     		str	r0, [r7, #4]
 3964 0008 3960     		str	r1, [r7]
2560:Drivers/STM32G4xx_HAL_Driver/Src/stm32g4xx_hal_fdcan.c ****   uint32_t FillLevel;
2561:Drivers/STM32G4xx_HAL_Driver/Src/stm32g4xx_hal_fdcan.c **** 
2562:Drivers/STM32G4xx_HAL_Driver/Src/stm32g4xx_hal_fdcan.c ****   /* Check function parameters */
2563:Drivers/STM32G4xx_HAL_Driver/Src/stm32g4xx_hal_fdcan.c ****   assert_param(IS_FDCAN_RX_FIFO(RxFifo));
2564:Drivers/STM32G4xx_HAL_Driver/Src/stm32g4xx_hal_fdcan.c **** 
2565:Drivers/STM32G4xx_HAL_Driver/Src/stm32g4xx_hal_fdcan.c ****   if (RxFifo == FDCAN_RX_FIFO0)
 3965              		.loc 1 2565 6
 3966 000a 3B68     		ldr	r3, [r7]
 3967 000c 402B     		cmp	r3, #64
ARM GAS  C:\Users\AURORA~1\AppData\Local\Temp\ccEbooPs.s 			page 115


 3968 000e 07D1     		bne	.L159
2566:Drivers/STM32G4xx_HAL_Driver/Src/stm32g4xx_hal_fdcan.c ****   {
2567:Drivers/STM32G4xx_HAL_Driver/Src/stm32g4xx_hal_fdcan.c ****     FillLevel = hfdcan->Instance->RXF0S & FDCAN_RXF0S_F0FL;
 3969              		.loc 1 2567 23
 3970 0010 7B68     		ldr	r3, [r7, #4]
 3971 0012 1B68     		ldr	r3, [r3]
 3972              		.loc 1 2567 33
 3973 0014 D3F89030 		ldr	r3, [r3, #144]
 3974              		.loc 1 2567 15
 3975 0018 03F00F03 		and	r3, r3, #15
 3976 001c FB60     		str	r3, [r7, #12]
 3977 001e 06E0     		b	.L160
 3978              	.L159:
2568:Drivers/STM32G4xx_HAL_Driver/Src/stm32g4xx_hal_fdcan.c ****   }
2569:Drivers/STM32G4xx_HAL_Driver/Src/stm32g4xx_hal_fdcan.c ****   else /* RxFifo == FDCAN_RX_FIFO1 */
2570:Drivers/STM32G4xx_HAL_Driver/Src/stm32g4xx_hal_fdcan.c ****   {
2571:Drivers/STM32G4xx_HAL_Driver/Src/stm32g4xx_hal_fdcan.c ****     FillLevel = hfdcan->Instance->RXF1S & FDCAN_RXF1S_F1FL;
 3979              		.loc 1 2571 23
 3980 0020 7B68     		ldr	r3, [r7, #4]
 3981 0022 1B68     		ldr	r3, [r3]
 3982              		.loc 1 2571 33
 3983 0024 D3F89830 		ldr	r3, [r3, #152]
 3984              		.loc 1 2571 15
 3985 0028 03F00F03 		and	r3, r3, #15
 3986 002c FB60     		str	r3, [r7, #12]
 3987              	.L160:
2572:Drivers/STM32G4xx_HAL_Driver/Src/stm32g4xx_hal_fdcan.c ****   }
2573:Drivers/STM32G4xx_HAL_Driver/Src/stm32g4xx_hal_fdcan.c **** 
2574:Drivers/STM32G4xx_HAL_Driver/Src/stm32g4xx_hal_fdcan.c ****   /* Return Rx FIFO fill level */
2575:Drivers/STM32G4xx_HAL_Driver/Src/stm32g4xx_hal_fdcan.c ****   return FillLevel;
 3988              		.loc 1 2575 10
 3989 002e FB68     		ldr	r3, [r7, #12]
2576:Drivers/STM32G4xx_HAL_Driver/Src/stm32g4xx_hal_fdcan.c **** }
 3990              		.loc 1 2576 1
 3991 0030 1846     		mov	r0, r3
 3992 0032 1437     		adds	r7, r7, #20
 3993              	.LCFI232:
 3994              		.cfi_def_cfa_offset 4
 3995 0034 BD46     		mov	sp, r7
 3996              	.LCFI233:
 3997              		.cfi_def_cfa_register 13
 3998              		@ sp needed
 3999 0036 5DF8047B 		ldr	r7, [sp], #4
 4000              	.LCFI234:
 4001              		.cfi_restore 7
 4002              		.cfi_def_cfa_offset 0
 4003 003a 7047     		bx	lr
 4004              		.cfi_endproc
 4005              	.LFE171:
 4007              		.section	.text.HAL_FDCAN_GetTxFifoFreeLevel,"ax",%progbits
 4008              		.align	1
 4009              		.global	HAL_FDCAN_GetTxFifoFreeLevel
 4010              		.syntax unified
 4011              		.thumb
 4012              		.thumb_func
 4014              	HAL_FDCAN_GetTxFifoFreeLevel:
 4015              	.LFB172:
ARM GAS  C:\Users\AURORA~1\AppData\Local\Temp\ccEbooPs.s 			page 116


2577:Drivers/STM32G4xx_HAL_Driver/Src/stm32g4xx_hal_fdcan.c **** 
2578:Drivers/STM32G4xx_HAL_Driver/Src/stm32g4xx_hal_fdcan.c **** /**
2579:Drivers/STM32G4xx_HAL_Driver/Src/stm32g4xx_hal_fdcan.c ****   * @brief  Return Tx FIFO free level: number of consecutive free Tx FIFO
2580:Drivers/STM32G4xx_HAL_Driver/Src/stm32g4xx_hal_fdcan.c ****   *         elements starting from Tx FIFO GetIndex.
2581:Drivers/STM32G4xx_HAL_Driver/Src/stm32g4xx_hal_fdcan.c ****   * @param  hfdcan pointer to an FDCAN_HandleTypeDef structure that contains
2582:Drivers/STM32G4xx_HAL_Driver/Src/stm32g4xx_hal_fdcan.c ****   *         the configuration information for the specified FDCAN.
2583:Drivers/STM32G4xx_HAL_Driver/Src/stm32g4xx_hal_fdcan.c ****   * @retval Tx FIFO free level.
2584:Drivers/STM32G4xx_HAL_Driver/Src/stm32g4xx_hal_fdcan.c ****   */
2585:Drivers/STM32G4xx_HAL_Driver/Src/stm32g4xx_hal_fdcan.c **** uint32_t HAL_FDCAN_GetTxFifoFreeLevel(const FDCAN_HandleTypeDef *hfdcan)
2586:Drivers/STM32G4xx_HAL_Driver/Src/stm32g4xx_hal_fdcan.c **** {
 4016              		.loc 1 2586 1
 4017              		.cfi_startproc
 4018              		@ args = 0, pretend = 0, frame = 16
 4019              		@ frame_needed = 1, uses_anonymous_args = 0
 4020              		@ link register save eliminated.
 4021 0000 80B4     		push	{r7}
 4022              	.LCFI235:
 4023              		.cfi_def_cfa_offset 4
 4024              		.cfi_offset 7, -4
 4025 0002 85B0     		sub	sp, sp, #20
 4026              	.LCFI236:
 4027              		.cfi_def_cfa_offset 24
 4028 0004 00AF     		add	r7, sp, #0
 4029              	.LCFI237:
 4030              		.cfi_def_cfa_register 7
 4031 0006 7860     		str	r0, [r7, #4]
2587:Drivers/STM32G4xx_HAL_Driver/Src/stm32g4xx_hal_fdcan.c ****   uint32_t FreeLevel;
2588:Drivers/STM32G4xx_HAL_Driver/Src/stm32g4xx_hal_fdcan.c **** 
2589:Drivers/STM32G4xx_HAL_Driver/Src/stm32g4xx_hal_fdcan.c ****   FreeLevel = hfdcan->Instance->TXFQS & FDCAN_TXFQS_TFFL;
 4032              		.loc 1 2589 21
 4033 0008 7B68     		ldr	r3, [r7, #4]
 4034 000a 1B68     		ldr	r3, [r3]
 4035              		.loc 1 2589 31
 4036 000c D3F8C430 		ldr	r3, [r3, #196]
 4037              		.loc 1 2589 13
 4038 0010 03F00703 		and	r3, r3, #7
 4039 0014 FB60     		str	r3, [r7, #12]
2590:Drivers/STM32G4xx_HAL_Driver/Src/stm32g4xx_hal_fdcan.c **** 
2591:Drivers/STM32G4xx_HAL_Driver/Src/stm32g4xx_hal_fdcan.c ****   /* Return Tx FIFO free level */
2592:Drivers/STM32G4xx_HAL_Driver/Src/stm32g4xx_hal_fdcan.c ****   return FreeLevel;
 4040              		.loc 1 2592 10
 4041 0016 FB68     		ldr	r3, [r7, #12]
2593:Drivers/STM32G4xx_HAL_Driver/Src/stm32g4xx_hal_fdcan.c **** }
 4042              		.loc 1 2593 1
 4043 0018 1846     		mov	r0, r3
 4044 001a 1437     		adds	r7, r7, #20
 4045              	.LCFI238:
 4046              		.cfi_def_cfa_offset 4
 4047 001c BD46     		mov	sp, r7
 4048              	.LCFI239:
 4049              		.cfi_def_cfa_register 13
 4050              		@ sp needed
 4051 001e 5DF8047B 		ldr	r7, [sp], #4
 4052              	.LCFI240:
 4053              		.cfi_restore 7
 4054              		.cfi_def_cfa_offset 0
 4055 0022 7047     		bx	lr
ARM GAS  C:\Users\AURORA~1\AppData\Local\Temp\ccEbooPs.s 			page 117


 4056              		.cfi_endproc
 4057              	.LFE172:
 4059              		.section	.text.HAL_FDCAN_IsRestrictedOperationMode,"ax",%progbits
 4060              		.align	1
 4061              		.global	HAL_FDCAN_IsRestrictedOperationMode
 4062              		.syntax unified
 4063              		.thumb
 4064              		.thumb_func
 4066              	HAL_FDCAN_IsRestrictedOperationMode:
 4067              	.LFB173:
2594:Drivers/STM32G4xx_HAL_Driver/Src/stm32g4xx_hal_fdcan.c **** 
2595:Drivers/STM32G4xx_HAL_Driver/Src/stm32g4xx_hal_fdcan.c **** /**
2596:Drivers/STM32G4xx_HAL_Driver/Src/stm32g4xx_hal_fdcan.c ****   * @brief  Check if the FDCAN peripheral entered Restricted Operation Mode.
2597:Drivers/STM32G4xx_HAL_Driver/Src/stm32g4xx_hal_fdcan.c ****   * @param  hfdcan pointer to an FDCAN_HandleTypeDef structure that contains
2598:Drivers/STM32G4xx_HAL_Driver/Src/stm32g4xx_hal_fdcan.c ****   *         the configuration information for the specified FDCAN.
2599:Drivers/STM32G4xx_HAL_Driver/Src/stm32g4xx_hal_fdcan.c ****   * @retval Status
2600:Drivers/STM32G4xx_HAL_Driver/Src/stm32g4xx_hal_fdcan.c ****   *          - 0 : Normal FDCAN operation.
2601:Drivers/STM32G4xx_HAL_Driver/Src/stm32g4xx_hal_fdcan.c ****   *          - 1 : Restricted Operation Mode active.
2602:Drivers/STM32G4xx_HAL_Driver/Src/stm32g4xx_hal_fdcan.c ****   */
2603:Drivers/STM32G4xx_HAL_Driver/Src/stm32g4xx_hal_fdcan.c **** uint32_t HAL_FDCAN_IsRestrictedOperationMode(const FDCAN_HandleTypeDef *hfdcan)
2604:Drivers/STM32G4xx_HAL_Driver/Src/stm32g4xx_hal_fdcan.c **** {
 4068              		.loc 1 2604 1
 4069              		.cfi_startproc
 4070              		@ args = 0, pretend = 0, frame = 16
 4071              		@ frame_needed = 1, uses_anonymous_args = 0
 4072              		@ link register save eliminated.
 4073 0000 80B4     		push	{r7}
 4074              	.LCFI241:
 4075              		.cfi_def_cfa_offset 4
 4076              		.cfi_offset 7, -4
 4077 0002 85B0     		sub	sp, sp, #20
 4078              	.LCFI242:
 4079              		.cfi_def_cfa_offset 24
 4080 0004 00AF     		add	r7, sp, #0
 4081              	.LCFI243:
 4082              		.cfi_def_cfa_register 7
 4083 0006 7860     		str	r0, [r7, #4]
2605:Drivers/STM32G4xx_HAL_Driver/Src/stm32g4xx_hal_fdcan.c ****   uint32_t OperationMode;
2606:Drivers/STM32G4xx_HAL_Driver/Src/stm32g4xx_hal_fdcan.c **** 
2607:Drivers/STM32G4xx_HAL_Driver/Src/stm32g4xx_hal_fdcan.c ****   /* Get Operation Mode */
2608:Drivers/STM32G4xx_HAL_Driver/Src/stm32g4xx_hal_fdcan.c ****   OperationMode = ((hfdcan->Instance->CCCR & FDCAN_CCCR_ASM) >> FDCAN_CCCR_ASM_Pos);
 4084              		.loc 1 2608 27
 4085 0008 7B68     		ldr	r3, [r7, #4]
 4086 000a 1B68     		ldr	r3, [r3]
 4087              		.loc 1 2608 37
 4088 000c 9B69     		ldr	r3, [r3, #24]
 4089              		.loc 1 2608 62
 4090 000e 9B08     		lsrs	r3, r3, #2
 4091              		.loc 1 2608 17
 4092 0010 03F00103 		and	r3, r3, #1
 4093 0014 FB60     		str	r3, [r7, #12]
2609:Drivers/STM32G4xx_HAL_Driver/Src/stm32g4xx_hal_fdcan.c **** 
2610:Drivers/STM32G4xx_HAL_Driver/Src/stm32g4xx_hal_fdcan.c ****   return OperationMode;
 4094              		.loc 1 2610 10
 4095 0016 FB68     		ldr	r3, [r7, #12]
2611:Drivers/STM32G4xx_HAL_Driver/Src/stm32g4xx_hal_fdcan.c **** }
 4096              		.loc 1 2611 1
ARM GAS  C:\Users\AURORA~1\AppData\Local\Temp\ccEbooPs.s 			page 118


 4097 0018 1846     		mov	r0, r3
 4098 001a 1437     		adds	r7, r7, #20
 4099              	.LCFI244:
 4100              		.cfi_def_cfa_offset 4
 4101 001c BD46     		mov	sp, r7
 4102              	.LCFI245:
 4103              		.cfi_def_cfa_register 13
 4104              		@ sp needed
 4105 001e 5DF8047B 		ldr	r7, [sp], #4
 4106              	.LCFI246:
 4107              		.cfi_restore 7
 4108              		.cfi_def_cfa_offset 0
 4109 0022 7047     		bx	lr
 4110              		.cfi_endproc
 4111              	.LFE173:
 4113              		.section	.text.HAL_FDCAN_ExitRestrictedOperationMode,"ax",%progbits
 4114              		.align	1
 4115              		.global	HAL_FDCAN_ExitRestrictedOperationMode
 4116              		.syntax unified
 4117              		.thumb
 4118              		.thumb_func
 4120              	HAL_FDCAN_ExitRestrictedOperationMode:
 4121              	.LFB174:
2612:Drivers/STM32G4xx_HAL_Driver/Src/stm32g4xx_hal_fdcan.c **** 
2613:Drivers/STM32G4xx_HAL_Driver/Src/stm32g4xx_hal_fdcan.c **** /**
2614:Drivers/STM32G4xx_HAL_Driver/Src/stm32g4xx_hal_fdcan.c ****   * @brief  Exit Restricted Operation Mode.
2615:Drivers/STM32G4xx_HAL_Driver/Src/stm32g4xx_hal_fdcan.c ****   * @param  hfdcan pointer to an FDCAN_HandleTypeDef structure that contains
2616:Drivers/STM32G4xx_HAL_Driver/Src/stm32g4xx_hal_fdcan.c ****   *         the configuration information for the specified FDCAN.
2617:Drivers/STM32G4xx_HAL_Driver/Src/stm32g4xx_hal_fdcan.c ****   * @retval HAL status
2618:Drivers/STM32G4xx_HAL_Driver/Src/stm32g4xx_hal_fdcan.c ****   */
2619:Drivers/STM32G4xx_HAL_Driver/Src/stm32g4xx_hal_fdcan.c **** HAL_StatusTypeDef HAL_FDCAN_ExitRestrictedOperationMode(FDCAN_HandleTypeDef *hfdcan)
2620:Drivers/STM32G4xx_HAL_Driver/Src/stm32g4xx_hal_fdcan.c **** {
 4122              		.loc 1 2620 1
 4123              		.cfi_startproc
 4124              		@ args = 0, pretend = 0, frame = 16
 4125              		@ frame_needed = 1, uses_anonymous_args = 0
 4126              		@ link register save eliminated.
 4127 0000 80B4     		push	{r7}
 4128              	.LCFI247:
 4129              		.cfi_def_cfa_offset 4
 4130              		.cfi_offset 7, -4
 4131 0002 85B0     		sub	sp, sp, #20
 4132              	.LCFI248:
 4133              		.cfi_def_cfa_offset 24
 4134 0004 00AF     		add	r7, sp, #0
 4135              	.LCFI249:
 4136              		.cfi_def_cfa_register 7
 4137 0006 7860     		str	r0, [r7, #4]
2621:Drivers/STM32G4xx_HAL_Driver/Src/stm32g4xx_hal_fdcan.c ****   HAL_FDCAN_StateTypeDef state = hfdcan->State;
 4138              		.loc 1 2621 26
 4139 0008 7B68     		ldr	r3, [r7, #4]
 4140 000a 93F85C30 		ldrb	r3, [r3, #92]
 4141 000e FB73     		strb	r3, [r7, #15]
2622:Drivers/STM32G4xx_HAL_Driver/Src/stm32g4xx_hal_fdcan.c **** 
2623:Drivers/STM32G4xx_HAL_Driver/Src/stm32g4xx_hal_fdcan.c ****   if ((state == HAL_FDCAN_STATE_READY) || (state == HAL_FDCAN_STATE_BUSY))
 4142              		.loc 1 2623 6
 4143 0010 FB7B     		ldrb	r3, [r7, #15]	@ zero_extendqisi2
ARM GAS  C:\Users\AURORA~1\AppData\Local\Temp\ccEbooPs.s 			page 119


 4144 0012 012B     		cmp	r3, #1
 4145 0014 02D0     		beq	.L167
 4146              		.loc 1 2623 40 discriminator 1
 4147 0016 FB7B     		ldrb	r3, [r7, #15]	@ zero_extendqisi2
 4148 0018 022B     		cmp	r3, #2
 4149 001a 09D1     		bne	.L168
 4150              	.L167:
2624:Drivers/STM32G4xx_HAL_Driver/Src/stm32g4xx_hal_fdcan.c ****   {
2625:Drivers/STM32G4xx_HAL_Driver/Src/stm32g4xx_hal_fdcan.c ****     /* Exit Restricted Operation mode */
2626:Drivers/STM32G4xx_HAL_Driver/Src/stm32g4xx_hal_fdcan.c ****     CLEAR_BIT(hfdcan->Instance->CCCR, FDCAN_CCCR_ASM);
 4151              		.loc 1 2626 5
 4152 001c 7B68     		ldr	r3, [r7, #4]
 4153 001e 1B68     		ldr	r3, [r3]
 4154 0020 9A69     		ldr	r2, [r3, #24]
 4155 0022 7B68     		ldr	r3, [r7, #4]
 4156 0024 1B68     		ldr	r3, [r3]
 4157 0026 22F00402 		bic	r2, r2, #4
 4158 002a 9A61     		str	r2, [r3, #24]
2627:Drivers/STM32G4xx_HAL_Driver/Src/stm32g4xx_hal_fdcan.c **** 
2628:Drivers/STM32G4xx_HAL_Driver/Src/stm32g4xx_hal_fdcan.c ****     /* Return function status */
2629:Drivers/STM32G4xx_HAL_Driver/Src/stm32g4xx_hal_fdcan.c ****     return HAL_OK;
 4159              		.loc 1 2629 12
 4160 002c 0023     		movs	r3, #0
 4161 002e 06E0     		b	.L169
 4162              	.L168:
2630:Drivers/STM32G4xx_HAL_Driver/Src/stm32g4xx_hal_fdcan.c ****   }
2631:Drivers/STM32G4xx_HAL_Driver/Src/stm32g4xx_hal_fdcan.c ****   else
2632:Drivers/STM32G4xx_HAL_Driver/Src/stm32g4xx_hal_fdcan.c ****   {
2633:Drivers/STM32G4xx_HAL_Driver/Src/stm32g4xx_hal_fdcan.c ****     /* Update error code */
2634:Drivers/STM32G4xx_HAL_Driver/Src/stm32g4xx_hal_fdcan.c ****     hfdcan->ErrorCode |= HAL_FDCAN_ERROR_NOT_INITIALIZED;
 4163              		.loc 1 2634 11
 4164 0030 7B68     		ldr	r3, [r7, #4]
 4165 0032 1B6E     		ldr	r3, [r3, #96]
 4166              		.loc 1 2634 23
 4167 0034 43F00202 		orr	r2, r3, #2
 4168 0038 7B68     		ldr	r3, [r7, #4]
 4169 003a 1A66     		str	r2, [r3, #96]
2635:Drivers/STM32G4xx_HAL_Driver/Src/stm32g4xx_hal_fdcan.c **** 
2636:Drivers/STM32G4xx_HAL_Driver/Src/stm32g4xx_hal_fdcan.c ****     return HAL_ERROR;
 4170              		.loc 1 2636 12
 4171 003c 0123     		movs	r3, #1
 4172              	.L169:
2637:Drivers/STM32G4xx_HAL_Driver/Src/stm32g4xx_hal_fdcan.c ****   }
2638:Drivers/STM32G4xx_HAL_Driver/Src/stm32g4xx_hal_fdcan.c **** }
 4173              		.loc 1 2638 1
 4174 003e 1846     		mov	r0, r3
 4175 0040 1437     		adds	r7, r7, #20
 4176              	.LCFI250:
 4177              		.cfi_def_cfa_offset 4
 4178 0042 BD46     		mov	sp, r7
 4179              	.LCFI251:
 4180              		.cfi_def_cfa_register 13
 4181              		@ sp needed
 4182 0044 5DF8047B 		ldr	r7, [sp], #4
 4183              	.LCFI252:
 4184              		.cfi_restore 7
 4185              		.cfi_def_cfa_offset 0
ARM GAS  C:\Users\AURORA~1\AppData\Local\Temp\ccEbooPs.s 			page 120


 4186 0048 7047     		bx	lr
 4187              		.cfi_endproc
 4188              	.LFE174:
 4190              		.section	.text.HAL_FDCAN_ConfigInterruptLines,"ax",%progbits
 4191              		.align	1
 4192              		.global	HAL_FDCAN_ConfigInterruptLines
 4193              		.syntax unified
 4194              		.thumb
 4195              		.thumb_func
 4197              	HAL_FDCAN_ConfigInterruptLines:
 4198              	.LFB175:
2639:Drivers/STM32G4xx_HAL_Driver/Src/stm32g4xx_hal_fdcan.c **** 
2640:Drivers/STM32G4xx_HAL_Driver/Src/stm32g4xx_hal_fdcan.c **** /**
2641:Drivers/STM32G4xx_HAL_Driver/Src/stm32g4xx_hal_fdcan.c ****   * @}
2642:Drivers/STM32G4xx_HAL_Driver/Src/stm32g4xx_hal_fdcan.c ****   */
2643:Drivers/STM32G4xx_HAL_Driver/Src/stm32g4xx_hal_fdcan.c **** 
2644:Drivers/STM32G4xx_HAL_Driver/Src/stm32g4xx_hal_fdcan.c **** /** @defgroup FDCAN_Exported_Functions_Group4 Interrupts management
2645:Drivers/STM32G4xx_HAL_Driver/Src/stm32g4xx_hal_fdcan.c ****   *  @brief    Interrupts management
2646:Drivers/STM32G4xx_HAL_Driver/Src/stm32g4xx_hal_fdcan.c ****   *
2647:Drivers/STM32G4xx_HAL_Driver/Src/stm32g4xx_hal_fdcan.c **** @verbatim
2648:Drivers/STM32G4xx_HAL_Driver/Src/stm32g4xx_hal_fdcan.c ****   ==============================================================================
2649:Drivers/STM32G4xx_HAL_Driver/Src/stm32g4xx_hal_fdcan.c ****                        ##### Interrupts management #####
2650:Drivers/STM32G4xx_HAL_Driver/Src/stm32g4xx_hal_fdcan.c ****   ==============================================================================
2651:Drivers/STM32G4xx_HAL_Driver/Src/stm32g4xx_hal_fdcan.c ****     [..]  This section provides functions allowing to:
2652:Drivers/STM32G4xx_HAL_Driver/Src/stm32g4xx_hal_fdcan.c ****       (+) HAL_FDCAN_ConfigInterruptLines      : Assign interrupts to either Interrupt line 0 or 1
2653:Drivers/STM32G4xx_HAL_Driver/Src/stm32g4xx_hal_fdcan.c ****       (+) HAL_FDCAN_ActivateNotification      : Enable interrupts
2654:Drivers/STM32G4xx_HAL_Driver/Src/stm32g4xx_hal_fdcan.c ****       (+) HAL_FDCAN_DeactivateNotification    : Disable interrupts
2655:Drivers/STM32G4xx_HAL_Driver/Src/stm32g4xx_hal_fdcan.c ****       (+) HAL_FDCAN_IRQHandler                : Handles FDCAN interrupt request
2656:Drivers/STM32G4xx_HAL_Driver/Src/stm32g4xx_hal_fdcan.c **** 
2657:Drivers/STM32G4xx_HAL_Driver/Src/stm32g4xx_hal_fdcan.c **** @endverbatim
2658:Drivers/STM32G4xx_HAL_Driver/Src/stm32g4xx_hal_fdcan.c ****   * @{
2659:Drivers/STM32G4xx_HAL_Driver/Src/stm32g4xx_hal_fdcan.c ****   */
2660:Drivers/STM32G4xx_HAL_Driver/Src/stm32g4xx_hal_fdcan.c **** 
2661:Drivers/STM32G4xx_HAL_Driver/Src/stm32g4xx_hal_fdcan.c **** /**
2662:Drivers/STM32G4xx_HAL_Driver/Src/stm32g4xx_hal_fdcan.c ****   * @brief  Assign interrupts to either Interrupt line 0 or 1.
2663:Drivers/STM32G4xx_HAL_Driver/Src/stm32g4xx_hal_fdcan.c ****   * @param  hfdcan pointer to an FDCAN_HandleTypeDef structure that contains
2664:Drivers/STM32G4xx_HAL_Driver/Src/stm32g4xx_hal_fdcan.c ****   *         the configuration information for the specified FDCAN.
2665:Drivers/STM32G4xx_HAL_Driver/Src/stm32g4xx_hal_fdcan.c ****   * @param  ITList indicates which interrupts group will be assigned to the selected interrupt line
2666:Drivers/STM32G4xx_HAL_Driver/Src/stm32g4xx_hal_fdcan.c ****   *         This parameter can be any combination of @arg FDCAN_Interrupts_Group.
2667:Drivers/STM32G4xx_HAL_Driver/Src/stm32g4xx_hal_fdcan.c ****   * @param  InterruptLine Interrupt line.
2668:Drivers/STM32G4xx_HAL_Driver/Src/stm32g4xx_hal_fdcan.c ****   *         This parameter can be a value of @arg FDCAN_Interrupt_Line.
2669:Drivers/STM32G4xx_HAL_Driver/Src/stm32g4xx_hal_fdcan.c ****   * @retval HAL status
2670:Drivers/STM32G4xx_HAL_Driver/Src/stm32g4xx_hal_fdcan.c ****   */
2671:Drivers/STM32G4xx_HAL_Driver/Src/stm32g4xx_hal_fdcan.c **** HAL_StatusTypeDef HAL_FDCAN_ConfigInterruptLines(FDCAN_HandleTypeDef *hfdcan, uint32_t ITList, uint
2672:Drivers/STM32G4xx_HAL_Driver/Src/stm32g4xx_hal_fdcan.c **** {
 4199              		.loc 1 2672 1
 4200              		.cfi_startproc
 4201              		@ args = 0, pretend = 0, frame = 24
 4202              		@ frame_needed = 1, uses_anonymous_args = 0
 4203              		@ link register save eliminated.
 4204 0000 80B4     		push	{r7}
 4205              	.LCFI253:
 4206              		.cfi_def_cfa_offset 4
 4207              		.cfi_offset 7, -4
 4208 0002 87B0     		sub	sp, sp, #28
 4209              	.LCFI254:
 4210              		.cfi_def_cfa_offset 32
ARM GAS  C:\Users\AURORA~1\AppData\Local\Temp\ccEbooPs.s 			page 121


 4211 0004 00AF     		add	r7, sp, #0
 4212              	.LCFI255:
 4213              		.cfi_def_cfa_register 7
 4214 0006 F860     		str	r0, [r7, #12]
 4215 0008 B960     		str	r1, [r7, #8]
 4216 000a 7A60     		str	r2, [r7, #4]
2673:Drivers/STM32G4xx_HAL_Driver/Src/stm32g4xx_hal_fdcan.c ****   HAL_FDCAN_StateTypeDef state = hfdcan->State;
 4217              		.loc 1 2673 26
 4218 000c FB68     		ldr	r3, [r7, #12]
 4219 000e 93F85C30 		ldrb	r3, [r3, #92]
 4220 0012 FB75     		strb	r3, [r7, #23]
2674:Drivers/STM32G4xx_HAL_Driver/Src/stm32g4xx_hal_fdcan.c **** 
2675:Drivers/STM32G4xx_HAL_Driver/Src/stm32g4xx_hal_fdcan.c ****   /* Check function parameters */
2676:Drivers/STM32G4xx_HAL_Driver/Src/stm32g4xx_hal_fdcan.c ****   assert_param(IS_FDCAN_IT_GROUP(ITList));
2677:Drivers/STM32G4xx_HAL_Driver/Src/stm32g4xx_hal_fdcan.c ****   assert_param(IS_FDCAN_IT_LINE(InterruptLine));
2678:Drivers/STM32G4xx_HAL_Driver/Src/stm32g4xx_hal_fdcan.c **** 
2679:Drivers/STM32G4xx_HAL_Driver/Src/stm32g4xx_hal_fdcan.c ****   if ((state == HAL_FDCAN_STATE_READY) || (state == HAL_FDCAN_STATE_BUSY))
 4221              		.loc 1 2679 6
 4222 0014 FB7D     		ldrb	r3, [r7, #23]	@ zero_extendqisi2
 4223 0016 012B     		cmp	r3, #1
 4224 0018 02D0     		beq	.L171
 4225              		.loc 1 2679 40 discriminator 1
 4226 001a FB7D     		ldrb	r3, [r7, #23]	@ zero_extendqisi2
 4227 001c 022B     		cmp	r3, #2
 4228 001e 16D1     		bne	.L172
 4229              	.L171:
2680:Drivers/STM32G4xx_HAL_Driver/Src/stm32g4xx_hal_fdcan.c ****   {
2681:Drivers/STM32G4xx_HAL_Driver/Src/stm32g4xx_hal_fdcan.c ****     /* Assign list of interrupts to the selected line */
2682:Drivers/STM32G4xx_HAL_Driver/Src/stm32g4xx_hal_fdcan.c ****     if (InterruptLine == FDCAN_INTERRUPT_LINE0)
 4230              		.loc 1 2682 8
 4231 0020 7B68     		ldr	r3, [r7, #4]
 4232 0022 012B     		cmp	r3, #1
 4233 0024 09D1     		bne	.L173
2683:Drivers/STM32G4xx_HAL_Driver/Src/stm32g4xx_hal_fdcan.c ****     {
2684:Drivers/STM32G4xx_HAL_Driver/Src/stm32g4xx_hal_fdcan.c ****       CLEAR_BIT(hfdcan->Instance->ILS, ITList);
 4234              		.loc 1 2684 7
 4235 0026 FB68     		ldr	r3, [r7, #12]
 4236 0028 1B68     		ldr	r3, [r3]
 4237 002a 996D     		ldr	r1, [r3, #88]
 4238 002c BB68     		ldr	r3, [r7, #8]
 4239 002e DA43     		mvns	r2, r3
 4240 0030 FB68     		ldr	r3, [r7, #12]
 4241 0032 1B68     		ldr	r3, [r3]
 4242 0034 0A40     		ands	r2, r2, r1
 4243 0036 9A65     		str	r2, [r3, #88]
 4244 0038 07E0     		b	.L174
 4245              	.L173:
2685:Drivers/STM32G4xx_HAL_Driver/Src/stm32g4xx_hal_fdcan.c ****     }
2686:Drivers/STM32G4xx_HAL_Driver/Src/stm32g4xx_hal_fdcan.c ****     else /* InterruptLine == FDCAN_INTERRUPT_LINE1 */
2687:Drivers/STM32G4xx_HAL_Driver/Src/stm32g4xx_hal_fdcan.c ****     {
2688:Drivers/STM32G4xx_HAL_Driver/Src/stm32g4xx_hal_fdcan.c ****       SET_BIT(hfdcan->Instance->ILS, ITList);
 4246              		.loc 1 2688 7
 4247 003a FB68     		ldr	r3, [r7, #12]
 4248 003c 1B68     		ldr	r3, [r3]
 4249 003e 996D     		ldr	r1, [r3, #88]
 4250 0040 FB68     		ldr	r3, [r7, #12]
 4251 0042 1B68     		ldr	r3, [r3]
ARM GAS  C:\Users\AURORA~1\AppData\Local\Temp\ccEbooPs.s 			page 122


 4252 0044 BA68     		ldr	r2, [r7, #8]
 4253 0046 0A43     		orrs	r2, r2, r1
 4254 0048 9A65     		str	r2, [r3, #88]
 4255              	.L174:
2689:Drivers/STM32G4xx_HAL_Driver/Src/stm32g4xx_hal_fdcan.c ****     }
2690:Drivers/STM32G4xx_HAL_Driver/Src/stm32g4xx_hal_fdcan.c **** 
2691:Drivers/STM32G4xx_HAL_Driver/Src/stm32g4xx_hal_fdcan.c ****     /* Return function status */
2692:Drivers/STM32G4xx_HAL_Driver/Src/stm32g4xx_hal_fdcan.c ****     return HAL_OK;
 4256              		.loc 1 2692 12
 4257 004a 0023     		movs	r3, #0
 4258 004c 06E0     		b	.L175
 4259              	.L172:
2693:Drivers/STM32G4xx_HAL_Driver/Src/stm32g4xx_hal_fdcan.c ****   }
2694:Drivers/STM32G4xx_HAL_Driver/Src/stm32g4xx_hal_fdcan.c ****   else
2695:Drivers/STM32G4xx_HAL_Driver/Src/stm32g4xx_hal_fdcan.c ****   {
2696:Drivers/STM32G4xx_HAL_Driver/Src/stm32g4xx_hal_fdcan.c ****     /* Update error code */
2697:Drivers/STM32G4xx_HAL_Driver/Src/stm32g4xx_hal_fdcan.c ****     hfdcan->ErrorCode |= HAL_FDCAN_ERROR_NOT_INITIALIZED;
 4260              		.loc 1 2697 11
 4261 004e FB68     		ldr	r3, [r7, #12]
 4262 0050 1B6E     		ldr	r3, [r3, #96]
 4263              		.loc 1 2697 23
 4264 0052 43F00202 		orr	r2, r3, #2
 4265 0056 FB68     		ldr	r3, [r7, #12]
 4266 0058 1A66     		str	r2, [r3, #96]
2698:Drivers/STM32G4xx_HAL_Driver/Src/stm32g4xx_hal_fdcan.c **** 
2699:Drivers/STM32G4xx_HAL_Driver/Src/stm32g4xx_hal_fdcan.c ****     return HAL_ERROR;
 4267              		.loc 1 2699 12
 4268 005a 0123     		movs	r3, #1
 4269              	.L175:
2700:Drivers/STM32G4xx_HAL_Driver/Src/stm32g4xx_hal_fdcan.c ****   }
2701:Drivers/STM32G4xx_HAL_Driver/Src/stm32g4xx_hal_fdcan.c **** }
 4270              		.loc 1 2701 1
 4271 005c 1846     		mov	r0, r3
 4272 005e 1C37     		adds	r7, r7, #28
 4273              	.LCFI256:
 4274              		.cfi_def_cfa_offset 4
 4275 0060 BD46     		mov	sp, r7
 4276              	.LCFI257:
 4277              		.cfi_def_cfa_register 13
 4278              		@ sp needed
 4279 0062 5DF8047B 		ldr	r7, [sp], #4
 4280              	.LCFI258:
 4281              		.cfi_restore 7
 4282              		.cfi_def_cfa_offset 0
 4283 0066 7047     		bx	lr
 4284              		.cfi_endproc
 4285              	.LFE175:
 4287              		.section	.text.HAL_FDCAN_ActivateNotification,"ax",%progbits
 4288              		.align	1
 4289              		.global	HAL_FDCAN_ActivateNotification
 4290              		.syntax unified
 4291              		.thumb
 4292              		.thumb_func
 4294              	HAL_FDCAN_ActivateNotification:
 4295              	.LFB176:
2702:Drivers/STM32G4xx_HAL_Driver/Src/stm32g4xx_hal_fdcan.c **** 
2703:Drivers/STM32G4xx_HAL_Driver/Src/stm32g4xx_hal_fdcan.c **** /**
ARM GAS  C:\Users\AURORA~1\AppData\Local\Temp\ccEbooPs.s 			page 123


2704:Drivers/STM32G4xx_HAL_Driver/Src/stm32g4xx_hal_fdcan.c ****   * @brief  Enable interrupts.
2705:Drivers/STM32G4xx_HAL_Driver/Src/stm32g4xx_hal_fdcan.c ****   * @param  hfdcan pointer to an FDCAN_HandleTypeDef structure that contains
2706:Drivers/STM32G4xx_HAL_Driver/Src/stm32g4xx_hal_fdcan.c ****   *         the configuration information for the specified FDCAN.
2707:Drivers/STM32G4xx_HAL_Driver/Src/stm32g4xx_hal_fdcan.c ****   * @param  ActiveITs indicates which interrupts will be enabled.
2708:Drivers/STM32G4xx_HAL_Driver/Src/stm32g4xx_hal_fdcan.c ****   *         This parameter can be any combination of @arg FDCAN_Interrupts.
2709:Drivers/STM32G4xx_HAL_Driver/Src/stm32g4xx_hal_fdcan.c ****   * @param  BufferIndexes Tx Buffer Indexes.
2710:Drivers/STM32G4xx_HAL_Driver/Src/stm32g4xx_hal_fdcan.c ****   *         This parameter can be any combination of @arg FDCAN_Tx_location.
2711:Drivers/STM32G4xx_HAL_Driver/Src/stm32g4xx_hal_fdcan.c ****   *         This parameter is ignored if ActiveITs does not include one of the following:
2712:Drivers/STM32G4xx_HAL_Driver/Src/stm32g4xx_hal_fdcan.c ****   *           - FDCAN_IT_TX_COMPLETE
2713:Drivers/STM32G4xx_HAL_Driver/Src/stm32g4xx_hal_fdcan.c ****   *           - FDCAN_IT_TX_ABORT_COMPLETE
2714:Drivers/STM32G4xx_HAL_Driver/Src/stm32g4xx_hal_fdcan.c ****   * @retval HAL status
2715:Drivers/STM32G4xx_HAL_Driver/Src/stm32g4xx_hal_fdcan.c ****   */
2716:Drivers/STM32G4xx_HAL_Driver/Src/stm32g4xx_hal_fdcan.c **** HAL_StatusTypeDef HAL_FDCAN_ActivateNotification(FDCAN_HandleTypeDef *hfdcan, uint32_t ActiveITs,
2717:Drivers/STM32G4xx_HAL_Driver/Src/stm32g4xx_hal_fdcan.c ****                                                  uint32_t BufferIndexes)
2718:Drivers/STM32G4xx_HAL_Driver/Src/stm32g4xx_hal_fdcan.c **** {
 4296              		.loc 1 2718 1
 4297              		.cfi_startproc
 4298              		@ args = 0, pretend = 0, frame = 24
 4299              		@ frame_needed = 1, uses_anonymous_args = 0
 4300              		@ link register save eliminated.
 4301 0000 80B4     		push	{r7}
 4302              	.LCFI259:
 4303              		.cfi_def_cfa_offset 4
 4304              		.cfi_offset 7, -4
 4305 0002 87B0     		sub	sp, sp, #28
 4306              	.LCFI260:
 4307              		.cfi_def_cfa_offset 32
 4308 0004 00AF     		add	r7, sp, #0
 4309              	.LCFI261:
 4310              		.cfi_def_cfa_register 7
 4311 0006 F860     		str	r0, [r7, #12]
 4312 0008 B960     		str	r1, [r7, #8]
 4313 000a 7A60     		str	r2, [r7, #4]
2719:Drivers/STM32G4xx_HAL_Driver/Src/stm32g4xx_hal_fdcan.c ****   HAL_FDCAN_StateTypeDef state = hfdcan->State;
 4314              		.loc 1 2719 26
 4315 000c FB68     		ldr	r3, [r7, #12]
 4316 000e 93F85C30 		ldrb	r3, [r3, #92]
 4317 0012 FB75     		strb	r3, [r7, #23]
2720:Drivers/STM32G4xx_HAL_Driver/Src/stm32g4xx_hal_fdcan.c ****   uint32_t ITs_lines_selection;
2721:Drivers/STM32G4xx_HAL_Driver/Src/stm32g4xx_hal_fdcan.c **** 
2722:Drivers/STM32G4xx_HAL_Driver/Src/stm32g4xx_hal_fdcan.c ****   /* Check function parameters */
2723:Drivers/STM32G4xx_HAL_Driver/Src/stm32g4xx_hal_fdcan.c ****   assert_param(IS_FDCAN_IT(ActiveITs));
2724:Drivers/STM32G4xx_HAL_Driver/Src/stm32g4xx_hal_fdcan.c ****   if ((ActiveITs & (FDCAN_IT_TX_COMPLETE | FDCAN_IT_TX_ABORT_COMPLETE)) != 0U)
2725:Drivers/STM32G4xx_HAL_Driver/Src/stm32g4xx_hal_fdcan.c ****   {
2726:Drivers/STM32G4xx_HAL_Driver/Src/stm32g4xx_hal_fdcan.c ****     assert_param(IS_FDCAN_TX_LOCATION_LIST(BufferIndexes));
2727:Drivers/STM32G4xx_HAL_Driver/Src/stm32g4xx_hal_fdcan.c ****   }
2728:Drivers/STM32G4xx_HAL_Driver/Src/stm32g4xx_hal_fdcan.c **** 
2729:Drivers/STM32G4xx_HAL_Driver/Src/stm32g4xx_hal_fdcan.c ****   if ((state == HAL_FDCAN_STATE_READY) || (state == HAL_FDCAN_STATE_BUSY))
 4318              		.loc 1 2729 6
 4319 0014 FB7D     		ldrb	r3, [r7, #23]	@ zero_extendqisi2
 4320 0016 012B     		cmp	r3, #1
 4321 0018 03D0     		beq	.L177
 4322              		.loc 1 2729 40 discriminator 1
 4323 001a FB7D     		ldrb	r3, [r7, #23]	@ zero_extendqisi2
 4324 001c 022B     		cmp	r3, #2
 4325 001e 40F0C880 		bne	.L178
 4326              	.L177:
ARM GAS  C:\Users\AURORA~1\AppData\Local\Temp\ccEbooPs.s 			page 124


2730:Drivers/STM32G4xx_HAL_Driver/Src/stm32g4xx_hal_fdcan.c ****   {
2731:Drivers/STM32G4xx_HAL_Driver/Src/stm32g4xx_hal_fdcan.c ****     /* Get interrupts line selection */
2732:Drivers/STM32G4xx_HAL_Driver/Src/stm32g4xx_hal_fdcan.c ****     ITs_lines_selection = hfdcan->Instance->ILS;
 4327              		.loc 1 2732 33
 4328 0022 FB68     		ldr	r3, [r7, #12]
 4329 0024 1B68     		ldr	r3, [r3]
 4330              		.loc 1 2732 25
 4331 0026 9B6D     		ldr	r3, [r3, #88]
 4332 0028 3B61     		str	r3, [r7, #16]
2733:Drivers/STM32G4xx_HAL_Driver/Src/stm32g4xx_hal_fdcan.c **** 
2734:Drivers/STM32G4xx_HAL_Driver/Src/stm32g4xx_hal_fdcan.c ****     /* Enable Interrupt lines */
2735:Drivers/STM32G4xx_HAL_Driver/Src/stm32g4xx_hal_fdcan.c ****     if ((((ActiveITs & FDCAN_IT_LIST_RX_FIFO0) != 0U)
 4333              		.loc 1 2735 22
 4334 002a BB68     		ldr	r3, [r7, #8]
 4335 002c 03F00703 		and	r3, r3, #7
 4336              		.loc 1 2735 8
 4337 0030 002B     		cmp	r3, #0
 4338 0032 04D0     		beq	.L179
2736:Drivers/STM32G4xx_HAL_Driver/Src/stm32g4xx_hal_fdcan.c ****          && (((ITs_lines_selection) & FDCAN_IT_GROUP_RX_FIFO0) == 0U)) || \
 4339              		.loc 1 2736 37
 4340 0034 3B69     		ldr	r3, [r7, #16]
 4341 0036 03F00103 		and	r3, r3, #1
 4342              		.loc 1 2736 10
 4343 003a 002B     		cmp	r3, #0
 4344 003c 3BD0     		beq	.L180
 4345              	.L179:
2737:Drivers/STM32G4xx_HAL_Driver/Src/stm32g4xx_hal_fdcan.c ****         (((ActiveITs & FDCAN_IT_LIST_RX_FIFO1)       != 0U)
 4346              		.loc 1 2737 22
 4347 003e BB68     		ldr	r3, [r7, #8]
 4348 0040 03F03803 		and	r3, r3, #56
2736:Drivers/STM32G4xx_HAL_Driver/Src/stm32g4xx_hal_fdcan.c ****          && (((ITs_lines_selection) & FDCAN_IT_GROUP_RX_FIFO0) == 0U)) || \
 4349              		.loc 1 2736 72 discriminator 1
 4350 0044 002B     		cmp	r3, #0
 4351 0046 04D0     		beq	.L181
2738:Drivers/STM32G4xx_HAL_Driver/Src/stm32g4xx_hal_fdcan.c ****          && (((ITs_lines_selection) & FDCAN_IT_GROUP_RX_FIFO1) == 0U)) || \
 4352              		.loc 1 2738 37
 4353 0048 3B69     		ldr	r3, [r7, #16]
 4354 004a 03F00203 		and	r3, r3, #2
 4355              		.loc 1 2738 10
 4356 004e 002B     		cmp	r3, #0
 4357 0050 31D0     		beq	.L180
 4358              	.L181:
2739:Drivers/STM32G4xx_HAL_Driver/Src/stm32g4xx_hal_fdcan.c ****         (((ActiveITs & FDCAN_IT_LIST_SMSG)           != 0U)
 4359              		.loc 1 2739 22
 4360 0052 BB68     		ldr	r3, [r7, #8]
 4361 0054 03F4E073 		and	r3, r3, #448
2738:Drivers/STM32G4xx_HAL_Driver/Src/stm32g4xx_hal_fdcan.c ****          && (((ITs_lines_selection) & FDCAN_IT_GROUP_RX_FIFO1) == 0U)) || \
 4362              		.loc 1 2738 72 discriminator 1
 4363 0058 002B     		cmp	r3, #0
 4364 005a 04D0     		beq	.L182
2740:Drivers/STM32G4xx_HAL_Driver/Src/stm32g4xx_hal_fdcan.c ****          && (((ITs_lines_selection) & FDCAN_IT_GROUP_SMSG)     == 0U)) || \
 4365              		.loc 1 2740 37
 4366 005c 3B69     		ldr	r3, [r7, #16]
 4367 005e 03F00403 		and	r3, r3, #4
 4368              		.loc 1 2740 10
 4369 0062 002B     		cmp	r3, #0
 4370 0064 27D0     		beq	.L180
ARM GAS  C:\Users\AURORA~1\AppData\Local\Temp\ccEbooPs.s 			page 125


 4371              	.L182:
2741:Drivers/STM32G4xx_HAL_Driver/Src/stm32g4xx_hal_fdcan.c ****         (((ActiveITs & FDCAN_IT_LIST_TX_FIFO_ERROR)  != 0U)
 4372              		.loc 1 2741 22
 4373 0066 BB68     		ldr	r3, [r7, #8]
 4374 0068 03F4F053 		and	r3, r3, #7680
2740:Drivers/STM32G4xx_HAL_Driver/Src/stm32g4xx_hal_fdcan.c ****          && (((ITs_lines_selection) & FDCAN_IT_GROUP_SMSG)     == 0U)) || \
 4375              		.loc 1 2740 72 discriminator 1
 4376 006c 002B     		cmp	r3, #0
 4377 006e 04D0     		beq	.L183
2742:Drivers/STM32G4xx_HAL_Driver/Src/stm32g4xx_hal_fdcan.c ****          && (((ITs_lines_selection) & FDCAN_IT_GROUP_TX_FIFO_ERROR)  == 0U)) || \
 4378              		.loc 1 2742 37
 4379 0070 3B69     		ldr	r3, [r7, #16]
 4380 0072 03F00803 		and	r3, r3, #8
 4381              		.loc 1 2742 10
 4382 0076 002B     		cmp	r3, #0
 4383 0078 1DD0     		beq	.L180
 4384              	.L183:
2743:Drivers/STM32G4xx_HAL_Driver/Src/stm32g4xx_hal_fdcan.c ****         (((ActiveITs & FDCAN_IT_LIST_MISC)           != 0U)
 4385              		.loc 1 2743 22
 4386 007a BB68     		ldr	r3, [r7, #8]
 4387 007c 03F46043 		and	r3, r3, #57344
2742:Drivers/STM32G4xx_HAL_Driver/Src/stm32g4xx_hal_fdcan.c ****          && (((ITs_lines_selection) & FDCAN_IT_GROUP_TX_FIFO_ERROR)  == 0U)) || \
 4388              		.loc 1 2742 78 discriminator 1
 4389 0080 002B     		cmp	r3, #0
 4390 0082 04D0     		beq	.L184
2744:Drivers/STM32G4xx_HAL_Driver/Src/stm32g4xx_hal_fdcan.c ****          && (((ITs_lines_selection) & FDCAN_IT_GROUP_MISC)           == 0U)) || \
 4391              		.loc 1 2744 37
 4392 0084 3B69     		ldr	r3, [r7, #16]
 4393 0086 03F01003 		and	r3, r3, #16
 4394              		.loc 1 2744 10
 4395 008a 002B     		cmp	r3, #0
 4396 008c 13D0     		beq	.L180
 4397              	.L184:
2745:Drivers/STM32G4xx_HAL_Driver/Src/stm32g4xx_hal_fdcan.c ****         (((ActiveITs & FDCAN_IT_LIST_BIT_LINE_ERROR) != 0U)
 4398              		.loc 1 2745 22
 4399 008e BB68     		ldr	r3, [r7, #8]
 4400 0090 03F44033 		and	r3, r3, #196608
2744:Drivers/STM32G4xx_HAL_Driver/Src/stm32g4xx_hal_fdcan.c ****          && (((ITs_lines_selection) & FDCAN_IT_GROUP_MISC)           == 0U)) || \
 4401              		.loc 1 2744 78 discriminator 1
 4402 0094 002B     		cmp	r3, #0
 4403 0096 04D0     		beq	.L185
2746:Drivers/STM32G4xx_HAL_Driver/Src/stm32g4xx_hal_fdcan.c ****          && (((ITs_lines_selection) & FDCAN_IT_GROUP_BIT_LINE_ERROR) == 0U)) || \
 4404              		.loc 1 2746 37
 4405 0098 3B69     		ldr	r3, [r7, #16]
 4406 009a 03F02003 		and	r3, r3, #32
 4407              		.loc 1 2746 10
 4408 009e 002B     		cmp	r3, #0
 4409 00a0 09D0     		beq	.L180
 4410              	.L185:
2747:Drivers/STM32G4xx_HAL_Driver/Src/stm32g4xx_hal_fdcan.c ****         (((ActiveITs & FDCAN_IT_LIST_PROTOCOL_ERROR) != 0U)
 4411              		.loc 1 2747 22
 4412 00a2 BB68     		ldr	r3, [r7, #8]
 4413 00a4 03F47C03 		and	r3, r3, #16515072
2746:Drivers/STM32G4xx_HAL_Driver/Src/stm32g4xx_hal_fdcan.c ****          && (((ITs_lines_selection) & FDCAN_IT_GROUP_BIT_LINE_ERROR) == 0U)) || \
 4414              		.loc 1 2746 78 discriminator 1
 4415 00a8 002B     		cmp	r3, #0
 4416 00aa 0CD0     		beq	.L186
ARM GAS  C:\Users\AURORA~1\AppData\Local\Temp\ccEbooPs.s 			page 126


2748:Drivers/STM32G4xx_HAL_Driver/Src/stm32g4xx_hal_fdcan.c ****          && (((ITs_lines_selection) & FDCAN_IT_GROUP_PROTOCOL_ERROR) == 0U)))
 4417              		.loc 1 2748 37
 4418 00ac 3B69     		ldr	r3, [r7, #16]
 4419 00ae 03F04003 		and	r3, r3, #64
 4420              		.loc 1 2748 10
 4421 00b2 002B     		cmp	r3, #0
 4422 00b4 07D1     		bne	.L186
 4423              	.L180:
2749:Drivers/STM32G4xx_HAL_Driver/Src/stm32g4xx_hal_fdcan.c ****     {
2750:Drivers/STM32G4xx_HAL_Driver/Src/stm32g4xx_hal_fdcan.c ****       /* Enable Interrupt line 0 */
2751:Drivers/STM32G4xx_HAL_Driver/Src/stm32g4xx_hal_fdcan.c ****       SET_BIT(hfdcan->Instance->ILE, FDCAN_INTERRUPT_LINE0);
 4424              		.loc 1 2751 7
 4425 00b6 FB68     		ldr	r3, [r7, #12]
 4426 00b8 1B68     		ldr	r3, [r3]
 4427 00ba DA6D     		ldr	r2, [r3, #92]
 4428 00bc FB68     		ldr	r3, [r7, #12]
 4429 00be 1B68     		ldr	r3, [r3]
 4430 00c0 42F00102 		orr	r2, r2, #1
 4431 00c4 DA65     		str	r2, [r3, #92]
 4432              	.L186:
2752:Drivers/STM32G4xx_HAL_Driver/Src/stm32g4xx_hal_fdcan.c ****     }
2753:Drivers/STM32G4xx_HAL_Driver/Src/stm32g4xx_hal_fdcan.c ****     if ((((ActiveITs & FDCAN_IT_LIST_RX_FIFO0)       != 0U)
 4433              		.loc 1 2753 22
 4434 00c6 BB68     		ldr	r3, [r7, #8]
 4435 00c8 03F00703 		and	r3, r3, #7
 4436              		.loc 1 2753 8
 4437 00cc 002B     		cmp	r3, #0
 4438 00ce 04D0     		beq	.L187
2754:Drivers/STM32G4xx_HAL_Driver/Src/stm32g4xx_hal_fdcan.c ****          && (((ITs_lines_selection) & FDCAN_IT_GROUP_RX_FIFO0)      != 0U)) || \
 4439              		.loc 1 2754 37
 4440 00d0 3B69     		ldr	r3, [r7, #16]
 4441 00d2 03F00103 		and	r3, r3, #1
 4442              		.loc 1 2754 10
 4443 00d6 002B     		cmp	r3, #0
 4444 00d8 3BD1     		bne	.L188
 4445              	.L187:
2755:Drivers/STM32G4xx_HAL_Driver/Src/stm32g4xx_hal_fdcan.c ****         (((ActiveITs & FDCAN_IT_LIST_RX_FIFO1)       != 0U)
 4446              		.loc 1 2755 22
 4447 00da BB68     		ldr	r3, [r7, #8]
 4448 00dc 03F03803 		and	r3, r3, #56
2754:Drivers/STM32G4xx_HAL_Driver/Src/stm32g4xx_hal_fdcan.c ****          && (((ITs_lines_selection) & FDCAN_IT_GROUP_RX_FIFO0)      != 0U)) || \
 4449              		.loc 1 2754 77 discriminator 1
 4450 00e0 002B     		cmp	r3, #0
 4451 00e2 04D0     		beq	.L189
2756:Drivers/STM32G4xx_HAL_Driver/Src/stm32g4xx_hal_fdcan.c ****          && (((ITs_lines_selection) & FDCAN_IT_GROUP_RX_FIFO1)       != 0U)) || \
 4452              		.loc 1 2756 37
 4453 00e4 3B69     		ldr	r3, [r7, #16]
 4454 00e6 03F00203 		and	r3, r3, #2
 4455              		.loc 1 2756 10
 4456 00ea 002B     		cmp	r3, #0
 4457 00ec 31D1     		bne	.L188
 4458              	.L189:
2757:Drivers/STM32G4xx_HAL_Driver/Src/stm32g4xx_hal_fdcan.c ****         (((ActiveITs & FDCAN_IT_LIST_SMSG)           != 0U)
 4459              		.loc 1 2757 22
 4460 00ee BB68     		ldr	r3, [r7, #8]
 4461 00f0 03F4E073 		and	r3, r3, #448
2756:Drivers/STM32G4xx_HAL_Driver/Src/stm32g4xx_hal_fdcan.c ****          && (((ITs_lines_selection) & FDCAN_IT_GROUP_RX_FIFO1)       != 0U)) || \
ARM GAS  C:\Users\AURORA~1\AppData\Local\Temp\ccEbooPs.s 			page 127


 4462              		.loc 1 2756 78 discriminator 1
 4463 00f4 002B     		cmp	r3, #0
 4464 00f6 04D0     		beq	.L190
2758:Drivers/STM32G4xx_HAL_Driver/Src/stm32g4xx_hal_fdcan.c ****          && (((ITs_lines_selection) & FDCAN_IT_GROUP_SMSG)           != 0U)) || \
 4465              		.loc 1 2758 37
 4466 00f8 3B69     		ldr	r3, [r7, #16]
 4467 00fa 03F00403 		and	r3, r3, #4
 4468              		.loc 1 2758 10
 4469 00fe 002B     		cmp	r3, #0
 4470 0100 27D1     		bne	.L188
 4471              	.L190:
2759:Drivers/STM32G4xx_HAL_Driver/Src/stm32g4xx_hal_fdcan.c ****         (((ActiveITs & FDCAN_IT_LIST_TX_FIFO_ERROR)  != 0U)
 4472              		.loc 1 2759 22
 4473 0102 BB68     		ldr	r3, [r7, #8]
 4474 0104 03F4F053 		and	r3, r3, #7680
2758:Drivers/STM32G4xx_HAL_Driver/Src/stm32g4xx_hal_fdcan.c ****          && (((ITs_lines_selection) & FDCAN_IT_GROUP_SMSG)           != 0U)) || \
 4475              		.loc 1 2758 78 discriminator 1
 4476 0108 002B     		cmp	r3, #0
 4477 010a 04D0     		beq	.L191
2760:Drivers/STM32G4xx_HAL_Driver/Src/stm32g4xx_hal_fdcan.c ****          && (((ITs_lines_selection) & FDCAN_IT_GROUP_TX_FIFO_ERROR)  != 0U)) || \
 4478              		.loc 1 2760 37
 4479 010c 3B69     		ldr	r3, [r7, #16]
 4480 010e 03F00803 		and	r3, r3, #8
 4481              		.loc 1 2760 10
 4482 0112 002B     		cmp	r3, #0
 4483 0114 1DD1     		bne	.L188
 4484              	.L191:
2761:Drivers/STM32G4xx_HAL_Driver/Src/stm32g4xx_hal_fdcan.c ****         (((ActiveITs & FDCAN_IT_LIST_MISC)           != 0U)
 4485              		.loc 1 2761 22
 4486 0116 BB68     		ldr	r3, [r7, #8]
 4487 0118 03F46043 		and	r3, r3, #57344
2760:Drivers/STM32G4xx_HAL_Driver/Src/stm32g4xx_hal_fdcan.c ****          && (((ITs_lines_selection) & FDCAN_IT_GROUP_TX_FIFO_ERROR)  != 0U)) || \
 4488              		.loc 1 2760 78 discriminator 1
 4489 011c 002B     		cmp	r3, #0
 4490 011e 04D0     		beq	.L192
2762:Drivers/STM32G4xx_HAL_Driver/Src/stm32g4xx_hal_fdcan.c ****          && (((ITs_lines_selection) & FDCAN_IT_GROUP_MISC)           != 0U)) || \
 4491              		.loc 1 2762 37
 4492 0120 3B69     		ldr	r3, [r7, #16]
 4493 0122 03F01003 		and	r3, r3, #16
 4494              		.loc 1 2762 10
 4495 0126 002B     		cmp	r3, #0
 4496 0128 13D1     		bne	.L188
 4497              	.L192:
2763:Drivers/STM32G4xx_HAL_Driver/Src/stm32g4xx_hal_fdcan.c ****         (((ActiveITs & FDCAN_IT_LIST_BIT_LINE_ERROR) != 0U)
 4498              		.loc 1 2763 22
 4499 012a BB68     		ldr	r3, [r7, #8]
 4500 012c 03F44033 		and	r3, r3, #196608
2762:Drivers/STM32G4xx_HAL_Driver/Src/stm32g4xx_hal_fdcan.c ****          && (((ITs_lines_selection) & FDCAN_IT_GROUP_MISC)           != 0U)) || \
 4501              		.loc 1 2762 78 discriminator 1
 4502 0130 002B     		cmp	r3, #0
 4503 0132 04D0     		beq	.L193
2764:Drivers/STM32G4xx_HAL_Driver/Src/stm32g4xx_hal_fdcan.c ****          && (((ITs_lines_selection) & FDCAN_IT_GROUP_BIT_LINE_ERROR) != 0U)) || \
 4504              		.loc 1 2764 37
 4505 0134 3B69     		ldr	r3, [r7, #16]
 4506 0136 03F02003 		and	r3, r3, #32
 4507              		.loc 1 2764 10
 4508 013a 002B     		cmp	r3, #0
ARM GAS  C:\Users\AURORA~1\AppData\Local\Temp\ccEbooPs.s 			page 128


 4509 013c 09D1     		bne	.L188
 4510              	.L193:
2765:Drivers/STM32G4xx_HAL_Driver/Src/stm32g4xx_hal_fdcan.c ****         (((ActiveITs & FDCAN_IT_LIST_PROTOCOL_ERROR) != 0U)
 4511              		.loc 1 2765 22
 4512 013e BB68     		ldr	r3, [r7, #8]
 4513 0140 03F47C03 		and	r3, r3, #16515072
2764:Drivers/STM32G4xx_HAL_Driver/Src/stm32g4xx_hal_fdcan.c ****          && (((ITs_lines_selection) & FDCAN_IT_GROUP_BIT_LINE_ERROR) != 0U)) || \
 4514              		.loc 1 2764 78 discriminator 1
 4515 0144 002B     		cmp	r3, #0
 4516 0146 0CD0     		beq	.L194
2766:Drivers/STM32G4xx_HAL_Driver/Src/stm32g4xx_hal_fdcan.c ****          && (((ITs_lines_selection) & FDCAN_IT_GROUP_PROTOCOL_ERROR) != 0U)))
 4517              		.loc 1 2766 37
 4518 0148 3B69     		ldr	r3, [r7, #16]
 4519 014a 03F04003 		and	r3, r3, #64
 4520              		.loc 1 2766 10
 4521 014e 002B     		cmp	r3, #0
 4522 0150 07D0     		beq	.L194
 4523              	.L188:
2767:Drivers/STM32G4xx_HAL_Driver/Src/stm32g4xx_hal_fdcan.c ****     {
2768:Drivers/STM32G4xx_HAL_Driver/Src/stm32g4xx_hal_fdcan.c ****       /* Enable Interrupt line 1 */
2769:Drivers/STM32G4xx_HAL_Driver/Src/stm32g4xx_hal_fdcan.c ****       SET_BIT(hfdcan->Instance->ILE, FDCAN_INTERRUPT_LINE1);
 4524              		.loc 1 2769 7
 4525 0152 FB68     		ldr	r3, [r7, #12]
 4526 0154 1B68     		ldr	r3, [r3]
 4527 0156 DA6D     		ldr	r2, [r3, #92]
 4528 0158 FB68     		ldr	r3, [r7, #12]
 4529 015a 1B68     		ldr	r3, [r3]
 4530 015c 42F00202 		orr	r2, r2, #2
 4531 0160 DA65     		str	r2, [r3, #92]
 4532              	.L194:
2770:Drivers/STM32G4xx_HAL_Driver/Src/stm32g4xx_hal_fdcan.c ****     }
2771:Drivers/STM32G4xx_HAL_Driver/Src/stm32g4xx_hal_fdcan.c **** 
2772:Drivers/STM32G4xx_HAL_Driver/Src/stm32g4xx_hal_fdcan.c ****     if ((ActiveITs & FDCAN_IT_TX_COMPLETE) != 0U)
 4533              		.loc 1 2772 20
 4534 0162 BB68     		ldr	r3, [r7, #8]
 4535 0164 03F08003 		and	r3, r3, #128
 4536              		.loc 1 2772 8
 4537 0168 002B     		cmp	r3, #0
 4538 016a 09D0     		beq	.L195
2773:Drivers/STM32G4xx_HAL_Driver/Src/stm32g4xx_hal_fdcan.c ****     {
2774:Drivers/STM32G4xx_HAL_Driver/Src/stm32g4xx_hal_fdcan.c ****       /* Enable Tx Buffer Transmission Interrupt to set TC flag in IR register,
2775:Drivers/STM32G4xx_HAL_Driver/Src/stm32g4xx_hal_fdcan.c ****          but interrupt will only occur if TC is enabled in IE register */
2776:Drivers/STM32G4xx_HAL_Driver/Src/stm32g4xx_hal_fdcan.c ****       SET_BIT(hfdcan->Instance->TXBTIE, BufferIndexes);
 4539              		.loc 1 2776 7
 4540 016c FB68     		ldr	r3, [r7, #12]
 4541 016e 1B68     		ldr	r3, [r3]
 4542 0170 D3F8DC10 		ldr	r1, [r3, #220]
 4543 0174 FB68     		ldr	r3, [r7, #12]
 4544 0176 1B68     		ldr	r3, [r3]
 4545 0178 7A68     		ldr	r2, [r7, #4]
 4546 017a 0A43     		orrs	r2, r2, r1
 4547 017c C3F8DC20 		str	r2, [r3, #220]
 4548              	.L195:
2777:Drivers/STM32G4xx_HAL_Driver/Src/stm32g4xx_hal_fdcan.c ****     }
2778:Drivers/STM32G4xx_HAL_Driver/Src/stm32g4xx_hal_fdcan.c **** 
2779:Drivers/STM32G4xx_HAL_Driver/Src/stm32g4xx_hal_fdcan.c ****     if ((ActiveITs & FDCAN_IT_TX_ABORT_COMPLETE) != 0U)
 4549              		.loc 1 2779 20
ARM GAS  C:\Users\AURORA~1\AppData\Local\Temp\ccEbooPs.s 			page 129


 4550 0180 BB68     		ldr	r3, [r7, #8]
 4551 0182 03F48073 		and	r3, r3, #256
 4552              		.loc 1 2779 8
 4553 0186 002B     		cmp	r3, #0
 4554 0188 09D0     		beq	.L196
2780:Drivers/STM32G4xx_HAL_Driver/Src/stm32g4xx_hal_fdcan.c ****     {
2781:Drivers/STM32G4xx_HAL_Driver/Src/stm32g4xx_hal_fdcan.c ****       /* Enable Tx Buffer Cancellation Finished Interrupt to set TCF flag in IR register,
2782:Drivers/STM32G4xx_HAL_Driver/Src/stm32g4xx_hal_fdcan.c ****          but interrupt will only occur if TCF is enabled in IE register */
2783:Drivers/STM32G4xx_HAL_Driver/Src/stm32g4xx_hal_fdcan.c ****       SET_BIT(hfdcan->Instance->TXBCIE, BufferIndexes);
 4555              		.loc 1 2783 7
 4556 018a FB68     		ldr	r3, [r7, #12]
 4557 018c 1B68     		ldr	r3, [r3]
 4558 018e D3F8E010 		ldr	r1, [r3, #224]
 4559 0192 FB68     		ldr	r3, [r7, #12]
 4560 0194 1B68     		ldr	r3, [r3]
 4561 0196 7A68     		ldr	r2, [r7, #4]
 4562 0198 0A43     		orrs	r2, r2, r1
 4563 019a C3F8E020 		str	r2, [r3, #224]
 4564              	.L196:
2784:Drivers/STM32G4xx_HAL_Driver/Src/stm32g4xx_hal_fdcan.c ****     }
2785:Drivers/STM32G4xx_HAL_Driver/Src/stm32g4xx_hal_fdcan.c **** 
2786:Drivers/STM32G4xx_HAL_Driver/Src/stm32g4xx_hal_fdcan.c ****     /* Enable the selected interrupts */
2787:Drivers/STM32G4xx_HAL_Driver/Src/stm32g4xx_hal_fdcan.c ****     __HAL_FDCAN_ENABLE_IT(hfdcan, ActiveITs);
 4565              		.loc 1 2787 5
 4566 019e FB68     		ldr	r3, [r7, #12]
 4567 01a0 1B68     		ldr	r3, [r3]
 4568 01a2 596D     		ldr	r1, [r3, #84]
 4569 01a4 FB68     		ldr	r3, [r7, #12]
 4570 01a6 1B68     		ldr	r3, [r3]
 4571 01a8 BA68     		ldr	r2, [r7, #8]
 4572 01aa 0A43     		orrs	r2, r2, r1
 4573 01ac 5A65     		str	r2, [r3, #84]
2788:Drivers/STM32G4xx_HAL_Driver/Src/stm32g4xx_hal_fdcan.c **** 
2789:Drivers/STM32G4xx_HAL_Driver/Src/stm32g4xx_hal_fdcan.c ****     /* Return function status */
2790:Drivers/STM32G4xx_HAL_Driver/Src/stm32g4xx_hal_fdcan.c ****     return HAL_OK;
 4574              		.loc 1 2790 12
 4575 01ae 0023     		movs	r3, #0
 4576 01b0 06E0     		b	.L197
 4577              	.L178:
2791:Drivers/STM32G4xx_HAL_Driver/Src/stm32g4xx_hal_fdcan.c ****   }
2792:Drivers/STM32G4xx_HAL_Driver/Src/stm32g4xx_hal_fdcan.c ****   else
2793:Drivers/STM32G4xx_HAL_Driver/Src/stm32g4xx_hal_fdcan.c ****   {
2794:Drivers/STM32G4xx_HAL_Driver/Src/stm32g4xx_hal_fdcan.c ****     /* Update error code */
2795:Drivers/STM32G4xx_HAL_Driver/Src/stm32g4xx_hal_fdcan.c ****     hfdcan->ErrorCode |= HAL_FDCAN_ERROR_NOT_INITIALIZED;
 4578              		.loc 1 2795 11
 4579 01b2 FB68     		ldr	r3, [r7, #12]
 4580 01b4 1B6E     		ldr	r3, [r3, #96]
 4581              		.loc 1 2795 23
 4582 01b6 43F00202 		orr	r2, r3, #2
 4583 01ba FB68     		ldr	r3, [r7, #12]
 4584 01bc 1A66     		str	r2, [r3, #96]
2796:Drivers/STM32G4xx_HAL_Driver/Src/stm32g4xx_hal_fdcan.c **** 
2797:Drivers/STM32G4xx_HAL_Driver/Src/stm32g4xx_hal_fdcan.c ****     return HAL_ERROR;
 4585              		.loc 1 2797 12
 4586 01be 0123     		movs	r3, #1
 4587              	.L197:
2798:Drivers/STM32G4xx_HAL_Driver/Src/stm32g4xx_hal_fdcan.c ****   }
ARM GAS  C:\Users\AURORA~1\AppData\Local\Temp\ccEbooPs.s 			page 130


2799:Drivers/STM32G4xx_HAL_Driver/Src/stm32g4xx_hal_fdcan.c **** }
 4588              		.loc 1 2799 1
 4589 01c0 1846     		mov	r0, r3
 4590 01c2 1C37     		adds	r7, r7, #28
 4591              	.LCFI262:
 4592              		.cfi_def_cfa_offset 4
 4593 01c4 BD46     		mov	sp, r7
 4594              	.LCFI263:
 4595              		.cfi_def_cfa_register 13
 4596              		@ sp needed
 4597 01c6 5DF8047B 		ldr	r7, [sp], #4
 4598              	.LCFI264:
 4599              		.cfi_restore 7
 4600              		.cfi_def_cfa_offset 0
 4601 01ca 7047     		bx	lr
 4602              		.cfi_endproc
 4603              	.LFE176:
 4605              		.section	.text.HAL_FDCAN_DeactivateNotification,"ax",%progbits
 4606              		.align	1
 4607              		.global	HAL_FDCAN_DeactivateNotification
 4608              		.syntax unified
 4609              		.thumb
 4610              		.thumb_func
 4612              	HAL_FDCAN_DeactivateNotification:
 4613              	.LFB177:
2800:Drivers/STM32G4xx_HAL_Driver/Src/stm32g4xx_hal_fdcan.c **** 
2801:Drivers/STM32G4xx_HAL_Driver/Src/stm32g4xx_hal_fdcan.c **** /**
2802:Drivers/STM32G4xx_HAL_Driver/Src/stm32g4xx_hal_fdcan.c ****   * @brief  Disable interrupts.
2803:Drivers/STM32G4xx_HAL_Driver/Src/stm32g4xx_hal_fdcan.c ****   * @param  hfdcan pointer to an FDCAN_HandleTypeDef structure that contains
2804:Drivers/STM32G4xx_HAL_Driver/Src/stm32g4xx_hal_fdcan.c ****   *         the configuration information for the specified FDCAN.
2805:Drivers/STM32G4xx_HAL_Driver/Src/stm32g4xx_hal_fdcan.c ****   * @param  InactiveITs indicates which interrupts will be disabled.
2806:Drivers/STM32G4xx_HAL_Driver/Src/stm32g4xx_hal_fdcan.c ****   *         This parameter can be any combination of @arg FDCAN_Interrupts.
2807:Drivers/STM32G4xx_HAL_Driver/Src/stm32g4xx_hal_fdcan.c ****   * @retval HAL status
2808:Drivers/STM32G4xx_HAL_Driver/Src/stm32g4xx_hal_fdcan.c ****   */
2809:Drivers/STM32G4xx_HAL_Driver/Src/stm32g4xx_hal_fdcan.c **** HAL_StatusTypeDef HAL_FDCAN_DeactivateNotification(FDCAN_HandleTypeDef *hfdcan, uint32_t InactiveIT
2810:Drivers/STM32G4xx_HAL_Driver/Src/stm32g4xx_hal_fdcan.c **** {
 4614              		.loc 1 2810 1
 4615              		.cfi_startproc
 4616              		@ args = 0, pretend = 0, frame = 24
 4617              		@ frame_needed = 1, uses_anonymous_args = 0
 4618              		@ link register save eliminated.
 4619 0000 80B4     		push	{r7}
 4620              	.LCFI265:
 4621              		.cfi_def_cfa_offset 4
 4622              		.cfi_offset 7, -4
 4623 0002 87B0     		sub	sp, sp, #28
 4624              	.LCFI266:
 4625              		.cfi_def_cfa_offset 32
 4626 0004 00AF     		add	r7, sp, #0
 4627              	.LCFI267:
 4628              		.cfi_def_cfa_register 7
 4629 0006 7860     		str	r0, [r7, #4]
 4630 0008 3960     		str	r1, [r7]
2811:Drivers/STM32G4xx_HAL_Driver/Src/stm32g4xx_hal_fdcan.c ****   HAL_FDCAN_StateTypeDef state = hfdcan->State;
 4631              		.loc 1 2811 26
 4632 000a 7B68     		ldr	r3, [r7, #4]
 4633 000c 93F85C30 		ldrb	r3, [r3, #92]
ARM GAS  C:\Users\AURORA~1\AppData\Local\Temp\ccEbooPs.s 			page 131


 4634 0010 FB75     		strb	r3, [r7, #23]
2812:Drivers/STM32G4xx_HAL_Driver/Src/stm32g4xx_hal_fdcan.c ****   uint32_t ITs_enabled;
2813:Drivers/STM32G4xx_HAL_Driver/Src/stm32g4xx_hal_fdcan.c ****   uint32_t ITs_lines_selection;
2814:Drivers/STM32G4xx_HAL_Driver/Src/stm32g4xx_hal_fdcan.c **** 
2815:Drivers/STM32G4xx_HAL_Driver/Src/stm32g4xx_hal_fdcan.c ****   /* Check function parameters */
2816:Drivers/STM32G4xx_HAL_Driver/Src/stm32g4xx_hal_fdcan.c ****   assert_param(IS_FDCAN_IT(InactiveITs));
2817:Drivers/STM32G4xx_HAL_Driver/Src/stm32g4xx_hal_fdcan.c **** 
2818:Drivers/STM32G4xx_HAL_Driver/Src/stm32g4xx_hal_fdcan.c ****   if ((state == HAL_FDCAN_STATE_READY) || (state == HAL_FDCAN_STATE_BUSY))
 4635              		.loc 1 2818 6
 4636 0012 FB7D     		ldrb	r3, [r7, #23]	@ zero_extendqisi2
 4637 0014 012B     		cmp	r3, #1
 4638 0016 03D0     		beq	.L199
 4639              		.loc 1 2818 40 discriminator 1
 4640 0018 FB7D     		ldrb	r3, [r7, #23]	@ zero_extendqisi2
 4641 001a 022B     		cmp	r3, #2
 4642 001c 40F0C380 		bne	.L200
 4643              	.L199:
2819:Drivers/STM32G4xx_HAL_Driver/Src/stm32g4xx_hal_fdcan.c ****   {
2820:Drivers/STM32G4xx_HAL_Driver/Src/stm32g4xx_hal_fdcan.c ****     /* Disable the selected interrupts */
2821:Drivers/STM32G4xx_HAL_Driver/Src/stm32g4xx_hal_fdcan.c ****     __HAL_FDCAN_DISABLE_IT(hfdcan, InactiveITs);
 4644              		.loc 1 2821 5
 4645 0020 7B68     		ldr	r3, [r7, #4]
 4646 0022 1B68     		ldr	r3, [r3]
 4647 0024 596D     		ldr	r1, [r3, #84]
 4648 0026 3B68     		ldr	r3, [r7]
 4649 0028 DA43     		mvns	r2, r3
 4650 002a 7B68     		ldr	r3, [r7, #4]
 4651 002c 1B68     		ldr	r3, [r3]
 4652 002e 0A40     		ands	r2, r2, r1
 4653 0030 5A65     		str	r2, [r3, #84]
2822:Drivers/STM32G4xx_HAL_Driver/Src/stm32g4xx_hal_fdcan.c **** 
2823:Drivers/STM32G4xx_HAL_Driver/Src/stm32g4xx_hal_fdcan.c ****     if ((InactiveITs & FDCAN_IT_TX_COMPLETE) != 0U)
 4654              		.loc 1 2823 22
 4655 0032 3B68     		ldr	r3, [r7]
 4656 0034 03F08003 		and	r3, r3, #128
 4657              		.loc 1 2823 8
 4658 0038 002B     		cmp	r3, #0
 4659 003a 04D0     		beq	.L201
2824:Drivers/STM32G4xx_HAL_Driver/Src/stm32g4xx_hal_fdcan.c ****     {
2825:Drivers/STM32G4xx_HAL_Driver/Src/stm32g4xx_hal_fdcan.c ****       /* Disable Tx Buffer Transmission Interrupts */
2826:Drivers/STM32G4xx_HAL_Driver/Src/stm32g4xx_hal_fdcan.c ****       CLEAR_REG(hfdcan->Instance->TXBTIE);
 4660              		.loc 1 2826 7
 4661 003c 7B68     		ldr	r3, [r7, #4]
 4662 003e 1B68     		ldr	r3, [r3]
 4663 0040 0022     		movs	r2, #0
 4664 0042 C3F8DC20 		str	r2, [r3, #220]
 4665              	.L201:
2827:Drivers/STM32G4xx_HAL_Driver/Src/stm32g4xx_hal_fdcan.c ****     }
2828:Drivers/STM32G4xx_HAL_Driver/Src/stm32g4xx_hal_fdcan.c **** 
2829:Drivers/STM32G4xx_HAL_Driver/Src/stm32g4xx_hal_fdcan.c ****     if ((InactiveITs & FDCAN_IT_TX_ABORT_COMPLETE) != 0U)
 4666              		.loc 1 2829 22
 4667 0046 3B68     		ldr	r3, [r7]
 4668 0048 03F48073 		and	r3, r3, #256
 4669              		.loc 1 2829 8
 4670 004c 002B     		cmp	r3, #0
 4671 004e 04D0     		beq	.L202
2830:Drivers/STM32G4xx_HAL_Driver/Src/stm32g4xx_hal_fdcan.c ****     {
ARM GAS  C:\Users\AURORA~1\AppData\Local\Temp\ccEbooPs.s 			page 132


2831:Drivers/STM32G4xx_HAL_Driver/Src/stm32g4xx_hal_fdcan.c ****       /* Disable Tx Buffer Cancellation Finished Interrupt */
2832:Drivers/STM32G4xx_HAL_Driver/Src/stm32g4xx_hal_fdcan.c ****       CLEAR_REG(hfdcan->Instance->TXBCIE);
 4672              		.loc 1 2832 7
 4673 0050 7B68     		ldr	r3, [r7, #4]
 4674 0052 1B68     		ldr	r3, [r3]
 4675 0054 0022     		movs	r2, #0
 4676 0056 C3F8E020 		str	r2, [r3, #224]
 4677              	.L202:
2833:Drivers/STM32G4xx_HAL_Driver/Src/stm32g4xx_hal_fdcan.c ****     }
2834:Drivers/STM32G4xx_HAL_Driver/Src/stm32g4xx_hal_fdcan.c **** 
2835:Drivers/STM32G4xx_HAL_Driver/Src/stm32g4xx_hal_fdcan.c ****     /* Get interrupts enabled and interrupts line selection */
2836:Drivers/STM32G4xx_HAL_Driver/Src/stm32g4xx_hal_fdcan.c ****     ITs_enabled = hfdcan->Instance->IE;
 4678              		.loc 1 2836 25
 4679 005a 7B68     		ldr	r3, [r7, #4]
 4680 005c 1B68     		ldr	r3, [r3]
 4681              		.loc 1 2836 17
 4682 005e 5B6D     		ldr	r3, [r3, #84]
 4683 0060 3B61     		str	r3, [r7, #16]
2837:Drivers/STM32G4xx_HAL_Driver/Src/stm32g4xx_hal_fdcan.c ****     ITs_lines_selection = hfdcan->Instance->ILS;
 4684              		.loc 1 2837 33
 4685 0062 7B68     		ldr	r3, [r7, #4]
 4686 0064 1B68     		ldr	r3, [r3]
 4687              		.loc 1 2837 25
 4688 0066 9B6D     		ldr	r3, [r3, #88]
 4689 0068 FB60     		str	r3, [r7, #12]
2838:Drivers/STM32G4xx_HAL_Driver/Src/stm32g4xx_hal_fdcan.c **** 
2839:Drivers/STM32G4xx_HAL_Driver/Src/stm32g4xx_hal_fdcan.c ****     /* Check if some interrupts are still enabled on interrupt line 0 */
2840:Drivers/STM32G4xx_HAL_Driver/Src/stm32g4xx_hal_fdcan.c ****     if ((((ITs_enabled & FDCAN_IT_LIST_RX_FIFO0)       != 0U)
 4690              		.loc 1 2840 24
 4691 006a 3B69     		ldr	r3, [r7, #16]
 4692 006c 03F00703 		and	r3, r3, #7
 4693              		.loc 1 2840 8
 4694 0070 002B     		cmp	r3, #0
 4695 0072 04D0     		beq	.L203
2841:Drivers/STM32G4xx_HAL_Driver/Src/stm32g4xx_hal_fdcan.c ****          && (((ITs_lines_selection) & FDCAN_IT_GROUP_RX_FIFO0)       == 0U)) || \
 4696              		.loc 1 2841 37
 4697 0074 FB68     		ldr	r3, [r7, #12]
 4698 0076 03F00103 		and	r3, r3, #1
 4699              		.loc 1 2841 10
 4700 007a 002B     		cmp	r3, #0
 4701 007c 43D0     		beq	.L204
 4702              	.L203:
2842:Drivers/STM32G4xx_HAL_Driver/Src/stm32g4xx_hal_fdcan.c ****         (((ITs_enabled & FDCAN_IT_LIST_RX_FIFO1)       != 0U)
 4703              		.loc 1 2842 24
 4704 007e 3B69     		ldr	r3, [r7, #16]
 4705 0080 03F03803 		and	r3, r3, #56
2841:Drivers/STM32G4xx_HAL_Driver/Src/stm32g4xx_hal_fdcan.c ****          && (((ITs_lines_selection) & FDCAN_IT_GROUP_RX_FIFO0)       == 0U)) || \
 4706              		.loc 1 2841 78 discriminator 1
 4707 0084 002B     		cmp	r3, #0
 4708 0086 04D0     		beq	.L205
2843:Drivers/STM32G4xx_HAL_Driver/Src/stm32g4xx_hal_fdcan.c ****          && (((ITs_lines_selection) & FDCAN_IT_GROUP_RX_FIFO1)       == 0U)) || \
 4709              		.loc 1 2843 37
 4710 0088 FB68     		ldr	r3, [r7, #12]
 4711 008a 03F00203 		and	r3, r3, #2
 4712              		.loc 1 2843 10
 4713 008e 002B     		cmp	r3, #0
 4714 0090 39D0     		beq	.L204
ARM GAS  C:\Users\AURORA~1\AppData\Local\Temp\ccEbooPs.s 			page 133


 4715              	.L205:
2844:Drivers/STM32G4xx_HAL_Driver/Src/stm32g4xx_hal_fdcan.c ****         (((ITs_enabled & FDCAN_IT_LIST_SMSG)           != 0U)
 4716              		.loc 1 2844 24
 4717 0092 3B69     		ldr	r3, [r7, #16]
 4718 0094 03F4E073 		and	r3, r3, #448
2843:Drivers/STM32G4xx_HAL_Driver/Src/stm32g4xx_hal_fdcan.c ****          && (((ITs_lines_selection) & FDCAN_IT_GROUP_RX_FIFO1)       == 0U)) || \
 4719              		.loc 1 2843 78 discriminator 1
 4720 0098 002B     		cmp	r3, #0
 4721 009a 04D0     		beq	.L206
2845:Drivers/STM32G4xx_HAL_Driver/Src/stm32g4xx_hal_fdcan.c ****          && (((ITs_lines_selection) & FDCAN_IT_GROUP_SMSG)           == 0U)) || \
 4722              		.loc 1 2845 37
 4723 009c FB68     		ldr	r3, [r7, #12]
 4724 009e 03F00403 		and	r3, r3, #4
 4725              		.loc 1 2845 10
 4726 00a2 002B     		cmp	r3, #0
 4727 00a4 2FD0     		beq	.L204
 4728              	.L206:
2846:Drivers/STM32G4xx_HAL_Driver/Src/stm32g4xx_hal_fdcan.c ****         (((ITs_enabled & FDCAN_IT_LIST_TX_FIFO_ERROR)  != 0U)
 4729              		.loc 1 2846 24
 4730 00a6 3B69     		ldr	r3, [r7, #16]
 4731 00a8 03F4F053 		and	r3, r3, #7680
2845:Drivers/STM32G4xx_HAL_Driver/Src/stm32g4xx_hal_fdcan.c ****          && (((ITs_lines_selection) & FDCAN_IT_GROUP_SMSG)           == 0U)) || \
 4732              		.loc 1 2845 78 discriminator 1
 4733 00ac 002B     		cmp	r3, #0
 4734 00ae 04D0     		beq	.L207
2847:Drivers/STM32G4xx_HAL_Driver/Src/stm32g4xx_hal_fdcan.c ****          && (((ITs_lines_selection) & FDCAN_IT_GROUP_TX_FIFO_ERROR)  == 0U)) || \
 4735              		.loc 1 2847 37
 4736 00b0 FB68     		ldr	r3, [r7, #12]
 4737 00b2 03F00803 		and	r3, r3, #8
 4738              		.loc 1 2847 10
 4739 00b6 002B     		cmp	r3, #0
 4740 00b8 25D0     		beq	.L204
 4741              	.L207:
2848:Drivers/STM32G4xx_HAL_Driver/Src/stm32g4xx_hal_fdcan.c ****         (((ITs_enabled & FDCAN_IT_LIST_MISC)           != 0U)
 4742              		.loc 1 2848 24
 4743 00ba 3B69     		ldr	r3, [r7, #16]
 4744 00bc 03F46043 		and	r3, r3, #57344
2847:Drivers/STM32G4xx_HAL_Driver/Src/stm32g4xx_hal_fdcan.c ****          && (((ITs_lines_selection) & FDCAN_IT_GROUP_TX_FIFO_ERROR)  == 0U)) || \
 4745              		.loc 1 2847 78 discriminator 1
 4746 00c0 002B     		cmp	r3, #0
 4747 00c2 04D0     		beq	.L208
2849:Drivers/STM32G4xx_HAL_Driver/Src/stm32g4xx_hal_fdcan.c ****          && (((ITs_lines_selection) & FDCAN_IT_GROUP_MISC)           == 0U)) || \
 4748              		.loc 1 2849 37
 4749 00c4 FB68     		ldr	r3, [r7, #12]
 4750 00c6 03F01003 		and	r3, r3, #16
 4751              		.loc 1 2849 10
 4752 00ca 002B     		cmp	r3, #0
 4753 00cc 1BD0     		beq	.L204
 4754              	.L208:
2850:Drivers/STM32G4xx_HAL_Driver/Src/stm32g4xx_hal_fdcan.c ****         (((ITs_enabled & FDCAN_IT_LIST_BIT_LINE_ERROR) != 0U)
 4755              		.loc 1 2850 24
 4756 00ce 3B69     		ldr	r3, [r7, #16]
 4757 00d0 03F44033 		and	r3, r3, #196608
2849:Drivers/STM32G4xx_HAL_Driver/Src/stm32g4xx_hal_fdcan.c ****          && (((ITs_lines_selection) & FDCAN_IT_GROUP_MISC)           == 0U)) || \
 4758              		.loc 1 2849 78 discriminator 1
 4759 00d4 002B     		cmp	r3, #0
 4760 00d6 04D0     		beq	.L209
ARM GAS  C:\Users\AURORA~1\AppData\Local\Temp\ccEbooPs.s 			page 134


2851:Drivers/STM32G4xx_HAL_Driver/Src/stm32g4xx_hal_fdcan.c ****          && (((ITs_lines_selection) & FDCAN_IT_GROUP_BIT_LINE_ERROR) == 0U)) || \
 4761              		.loc 1 2851 37
 4762 00d8 FB68     		ldr	r3, [r7, #12]
 4763 00da 03F02003 		and	r3, r3, #32
 4764              		.loc 1 2851 10
 4765 00de 002B     		cmp	r3, #0
 4766 00e0 11D0     		beq	.L204
 4767              	.L209:
2852:Drivers/STM32G4xx_HAL_Driver/Src/stm32g4xx_hal_fdcan.c ****         (((ITs_enabled & FDCAN_IT_LIST_PROTOCOL_ERROR) != 0U)
 4768              		.loc 1 2852 24
 4769 00e2 3B69     		ldr	r3, [r7, #16]
 4770 00e4 03F47C03 		and	r3, r3, #16515072
2851:Drivers/STM32G4xx_HAL_Driver/Src/stm32g4xx_hal_fdcan.c ****          && (((ITs_lines_selection) & FDCAN_IT_GROUP_BIT_LINE_ERROR) == 0U)) || \
 4771              		.loc 1 2851 78 discriminator 1
 4772 00e8 002B     		cmp	r3, #0
 4773 00ea 04D0     		beq	.L210
2853:Drivers/STM32G4xx_HAL_Driver/Src/stm32g4xx_hal_fdcan.c ****          && (((ITs_lines_selection) & FDCAN_IT_GROUP_PROTOCOL_ERROR) == 0U)))
 4774              		.loc 1 2853 37
 4775 00ec FB68     		ldr	r3, [r7, #12]
 4776 00ee 03F04003 		and	r3, r3, #64
 4777              		.loc 1 2853 10
 4778 00f2 002B     		cmp	r3, #0
 4779 00f4 07D0     		beq	.L204
 4780              	.L210:
2854:Drivers/STM32G4xx_HAL_Driver/Src/stm32g4xx_hal_fdcan.c ****     {
2855:Drivers/STM32G4xx_HAL_Driver/Src/stm32g4xx_hal_fdcan.c ****       /* Do nothing */
2856:Drivers/STM32G4xx_HAL_Driver/Src/stm32g4xx_hal_fdcan.c ****     }
2857:Drivers/STM32G4xx_HAL_Driver/Src/stm32g4xx_hal_fdcan.c ****     else /* no more interrupts enabled on interrupt line 0 */
2858:Drivers/STM32G4xx_HAL_Driver/Src/stm32g4xx_hal_fdcan.c ****     {
2859:Drivers/STM32G4xx_HAL_Driver/Src/stm32g4xx_hal_fdcan.c ****       /* Disable interrupt line 0 */
2860:Drivers/STM32G4xx_HAL_Driver/Src/stm32g4xx_hal_fdcan.c ****       CLEAR_BIT(hfdcan->Instance->ILE, FDCAN_INTERRUPT_LINE0);
 4781              		.loc 1 2860 7
 4782 00f6 7B68     		ldr	r3, [r7, #4]
 4783 00f8 1B68     		ldr	r3, [r3]
 4784 00fa DA6D     		ldr	r2, [r3, #92]
 4785 00fc 7B68     		ldr	r3, [r7, #4]
 4786 00fe 1B68     		ldr	r3, [r3]
 4787 0100 22F00102 		bic	r2, r2, #1
 4788 0104 DA65     		str	r2, [r3, #92]
 4789              	.L204:
2861:Drivers/STM32G4xx_HAL_Driver/Src/stm32g4xx_hal_fdcan.c ****     }
2862:Drivers/STM32G4xx_HAL_Driver/Src/stm32g4xx_hal_fdcan.c **** 
2863:Drivers/STM32G4xx_HAL_Driver/Src/stm32g4xx_hal_fdcan.c ****     /* Check if some interrupts are still enabled on interrupt line 1 */
2864:Drivers/STM32G4xx_HAL_Driver/Src/stm32g4xx_hal_fdcan.c ****     if ((((ITs_enabled & FDCAN_IT_LIST_RX_FIFO0)       != 0U)
 4790              		.loc 1 2864 24
 4791 0106 3B69     		ldr	r3, [r7, #16]
 4792 0108 03F00703 		and	r3, r3, #7
 4793              		.loc 1 2864 8
 4794 010c 002B     		cmp	r3, #0
 4795 010e 04D0     		beq	.L211
2865:Drivers/STM32G4xx_HAL_Driver/Src/stm32g4xx_hal_fdcan.c ****          && (((ITs_lines_selection) & FDCAN_IT_GROUP_RX_FIFO0)       != 0U)) || \
 4796              		.loc 1 2865 37
 4797 0110 FB68     		ldr	r3, [r7, #12]
 4798 0112 03F00103 		and	r3, r3, #1
 4799              		.loc 1 2865 10
 4800 0116 002B     		cmp	r3, #0
 4801 0118 43D1     		bne	.L212
ARM GAS  C:\Users\AURORA~1\AppData\Local\Temp\ccEbooPs.s 			page 135


 4802              	.L211:
2866:Drivers/STM32G4xx_HAL_Driver/Src/stm32g4xx_hal_fdcan.c ****         (((ITs_enabled & FDCAN_IT_LIST_RX_FIFO1)       != 0U)
 4803              		.loc 1 2866 24
 4804 011a 3B69     		ldr	r3, [r7, #16]
 4805 011c 03F03803 		and	r3, r3, #56
2865:Drivers/STM32G4xx_HAL_Driver/Src/stm32g4xx_hal_fdcan.c ****          && (((ITs_lines_selection) & FDCAN_IT_GROUP_RX_FIFO0)       != 0U)) || \
 4806              		.loc 1 2865 78 discriminator 1
 4807 0120 002B     		cmp	r3, #0
 4808 0122 04D0     		beq	.L213
2867:Drivers/STM32G4xx_HAL_Driver/Src/stm32g4xx_hal_fdcan.c ****          && (((ITs_lines_selection) & FDCAN_IT_GROUP_RX_FIFO1)       != 0U)) || \
 4809              		.loc 1 2867 37
 4810 0124 FB68     		ldr	r3, [r7, #12]
 4811 0126 03F00203 		and	r3, r3, #2
 4812              		.loc 1 2867 10
 4813 012a 002B     		cmp	r3, #0
 4814 012c 39D1     		bne	.L212
 4815              	.L213:
2868:Drivers/STM32G4xx_HAL_Driver/Src/stm32g4xx_hal_fdcan.c ****         (((ITs_enabled & FDCAN_IT_LIST_SMSG)           != 0U)
 4816              		.loc 1 2868 24
 4817 012e 3B69     		ldr	r3, [r7, #16]
 4818 0130 03F4E073 		and	r3, r3, #448
2867:Drivers/STM32G4xx_HAL_Driver/Src/stm32g4xx_hal_fdcan.c ****          && (((ITs_lines_selection) & FDCAN_IT_GROUP_RX_FIFO1)       != 0U)) || \
 4819              		.loc 1 2867 78 discriminator 1
 4820 0134 002B     		cmp	r3, #0
 4821 0136 04D0     		beq	.L214
2869:Drivers/STM32G4xx_HAL_Driver/Src/stm32g4xx_hal_fdcan.c ****          && (((ITs_lines_selection) & FDCAN_IT_GROUP_SMSG)           != 0U)) || \
 4822              		.loc 1 2869 37
 4823 0138 FB68     		ldr	r3, [r7, #12]
 4824 013a 03F00403 		and	r3, r3, #4
 4825              		.loc 1 2869 10
 4826 013e 002B     		cmp	r3, #0
 4827 0140 2FD1     		bne	.L212
 4828              	.L214:
2870:Drivers/STM32G4xx_HAL_Driver/Src/stm32g4xx_hal_fdcan.c ****         (((ITs_enabled & FDCAN_IT_LIST_TX_FIFO_ERROR)  != 0U)
 4829              		.loc 1 2870 24
 4830 0142 3B69     		ldr	r3, [r7, #16]
 4831 0144 03F4F053 		and	r3, r3, #7680
2869:Drivers/STM32G4xx_HAL_Driver/Src/stm32g4xx_hal_fdcan.c ****          && (((ITs_lines_selection) & FDCAN_IT_GROUP_SMSG)           != 0U)) || \
 4832              		.loc 1 2869 78 discriminator 1
 4833 0148 002B     		cmp	r3, #0
 4834 014a 04D0     		beq	.L215
2871:Drivers/STM32G4xx_HAL_Driver/Src/stm32g4xx_hal_fdcan.c ****          && (((ITs_lines_selection) & FDCAN_IT_GROUP_TX_FIFO_ERROR)  != 0U)) || \
 4835              		.loc 1 2871 37
 4836 014c FB68     		ldr	r3, [r7, #12]
 4837 014e 03F00803 		and	r3, r3, #8
 4838              		.loc 1 2871 10
 4839 0152 002B     		cmp	r3, #0
 4840 0154 25D1     		bne	.L212
 4841              	.L215:
2872:Drivers/STM32G4xx_HAL_Driver/Src/stm32g4xx_hal_fdcan.c ****         (((ITs_enabled & FDCAN_IT_LIST_MISC)           != 0U)
 4842              		.loc 1 2872 24
 4843 0156 3B69     		ldr	r3, [r7, #16]
 4844 0158 03F46043 		and	r3, r3, #57344
2871:Drivers/STM32G4xx_HAL_Driver/Src/stm32g4xx_hal_fdcan.c ****          && (((ITs_lines_selection) & FDCAN_IT_GROUP_TX_FIFO_ERROR)  != 0U)) || \
 4845              		.loc 1 2871 78 discriminator 1
 4846 015c 002B     		cmp	r3, #0
 4847 015e 04D0     		beq	.L216
ARM GAS  C:\Users\AURORA~1\AppData\Local\Temp\ccEbooPs.s 			page 136


2873:Drivers/STM32G4xx_HAL_Driver/Src/stm32g4xx_hal_fdcan.c ****          && (((ITs_lines_selection) & FDCAN_IT_GROUP_MISC)           != 0U)) || \
 4848              		.loc 1 2873 37
 4849 0160 FB68     		ldr	r3, [r7, #12]
 4850 0162 03F01003 		and	r3, r3, #16
 4851              		.loc 1 2873 10
 4852 0166 002B     		cmp	r3, #0
 4853 0168 1BD1     		bne	.L212
 4854              	.L216:
2874:Drivers/STM32G4xx_HAL_Driver/Src/stm32g4xx_hal_fdcan.c ****         (((ITs_enabled & FDCAN_IT_LIST_BIT_LINE_ERROR) != 0U)
 4855              		.loc 1 2874 24
 4856 016a 3B69     		ldr	r3, [r7, #16]
 4857 016c 03F44033 		and	r3, r3, #196608
2873:Drivers/STM32G4xx_HAL_Driver/Src/stm32g4xx_hal_fdcan.c ****          && (((ITs_lines_selection) & FDCAN_IT_GROUP_MISC)           != 0U)) || \
 4858              		.loc 1 2873 78 discriminator 1
 4859 0170 002B     		cmp	r3, #0
 4860 0172 04D0     		beq	.L217
2875:Drivers/STM32G4xx_HAL_Driver/Src/stm32g4xx_hal_fdcan.c ****          && (((ITs_lines_selection) & FDCAN_IT_GROUP_BIT_LINE_ERROR) != 0U)) || \
 4861              		.loc 1 2875 37
 4862 0174 FB68     		ldr	r3, [r7, #12]
 4863 0176 03F02003 		and	r3, r3, #32
 4864              		.loc 1 2875 10
 4865 017a 002B     		cmp	r3, #0
 4866 017c 11D1     		bne	.L212
 4867              	.L217:
2876:Drivers/STM32G4xx_HAL_Driver/Src/stm32g4xx_hal_fdcan.c ****         (((ITs_enabled & FDCAN_IT_LIST_PROTOCOL_ERROR) != 0U)
 4868              		.loc 1 2876 24
 4869 017e 3B69     		ldr	r3, [r7, #16]
 4870 0180 03F47C03 		and	r3, r3, #16515072
2875:Drivers/STM32G4xx_HAL_Driver/Src/stm32g4xx_hal_fdcan.c ****          && (((ITs_lines_selection) & FDCAN_IT_GROUP_BIT_LINE_ERROR) != 0U)) || \
 4871              		.loc 1 2875 78 discriminator 1
 4872 0184 002B     		cmp	r3, #0
 4873 0186 04D0     		beq	.L218
2877:Drivers/STM32G4xx_HAL_Driver/Src/stm32g4xx_hal_fdcan.c ****          && (((ITs_lines_selection) & FDCAN_IT_GROUP_PROTOCOL_ERROR) != 0U)))
 4874              		.loc 1 2877 37
 4875 0188 FB68     		ldr	r3, [r7, #12]
 4876 018a 03F04003 		and	r3, r3, #64
 4877              		.loc 1 2877 10
 4878 018e 002B     		cmp	r3, #0
 4879 0190 07D1     		bne	.L212
 4880              	.L218:
2878:Drivers/STM32G4xx_HAL_Driver/Src/stm32g4xx_hal_fdcan.c ****     {
2879:Drivers/STM32G4xx_HAL_Driver/Src/stm32g4xx_hal_fdcan.c ****       /* Do nothing */
2880:Drivers/STM32G4xx_HAL_Driver/Src/stm32g4xx_hal_fdcan.c ****     }
2881:Drivers/STM32G4xx_HAL_Driver/Src/stm32g4xx_hal_fdcan.c ****     else /* no more interrupts enabled on interrupt line 1 */
2882:Drivers/STM32G4xx_HAL_Driver/Src/stm32g4xx_hal_fdcan.c ****     {
2883:Drivers/STM32G4xx_HAL_Driver/Src/stm32g4xx_hal_fdcan.c ****       /* Disable interrupt line 1 */
2884:Drivers/STM32G4xx_HAL_Driver/Src/stm32g4xx_hal_fdcan.c ****       CLEAR_BIT(hfdcan->Instance->ILE, FDCAN_INTERRUPT_LINE1);
 4881              		.loc 1 2884 7
 4882 0192 7B68     		ldr	r3, [r7, #4]
 4883 0194 1B68     		ldr	r3, [r3]
 4884 0196 DA6D     		ldr	r2, [r3, #92]
 4885 0198 7B68     		ldr	r3, [r7, #4]
 4886 019a 1B68     		ldr	r3, [r3]
 4887 019c 22F00202 		bic	r2, r2, #2
 4888 01a0 DA65     		str	r2, [r3, #92]
 4889              	.L212:
2885:Drivers/STM32G4xx_HAL_Driver/Src/stm32g4xx_hal_fdcan.c ****     }
ARM GAS  C:\Users\AURORA~1\AppData\Local\Temp\ccEbooPs.s 			page 137


2886:Drivers/STM32G4xx_HAL_Driver/Src/stm32g4xx_hal_fdcan.c **** 
2887:Drivers/STM32G4xx_HAL_Driver/Src/stm32g4xx_hal_fdcan.c ****     /* Return function status */
2888:Drivers/STM32G4xx_HAL_Driver/Src/stm32g4xx_hal_fdcan.c ****     return HAL_OK;
 4890              		.loc 1 2888 12
 4891 01a2 0023     		movs	r3, #0
 4892 01a4 06E0     		b	.L219
 4893              	.L200:
2889:Drivers/STM32G4xx_HAL_Driver/Src/stm32g4xx_hal_fdcan.c ****   }
2890:Drivers/STM32G4xx_HAL_Driver/Src/stm32g4xx_hal_fdcan.c ****   else
2891:Drivers/STM32G4xx_HAL_Driver/Src/stm32g4xx_hal_fdcan.c ****   {
2892:Drivers/STM32G4xx_HAL_Driver/Src/stm32g4xx_hal_fdcan.c ****     /* Update error code */
2893:Drivers/STM32G4xx_HAL_Driver/Src/stm32g4xx_hal_fdcan.c ****     hfdcan->ErrorCode |= HAL_FDCAN_ERROR_NOT_INITIALIZED;
 4894              		.loc 1 2893 11
 4895 01a6 7B68     		ldr	r3, [r7, #4]
 4896 01a8 1B6E     		ldr	r3, [r3, #96]
 4897              		.loc 1 2893 23
 4898 01aa 43F00202 		orr	r2, r3, #2
 4899 01ae 7B68     		ldr	r3, [r7, #4]
 4900 01b0 1A66     		str	r2, [r3, #96]
2894:Drivers/STM32G4xx_HAL_Driver/Src/stm32g4xx_hal_fdcan.c **** 
2895:Drivers/STM32G4xx_HAL_Driver/Src/stm32g4xx_hal_fdcan.c ****     return HAL_ERROR;
 4901              		.loc 1 2895 12
 4902 01b2 0123     		movs	r3, #1
 4903              	.L219:
2896:Drivers/STM32G4xx_HAL_Driver/Src/stm32g4xx_hal_fdcan.c ****   }
2897:Drivers/STM32G4xx_HAL_Driver/Src/stm32g4xx_hal_fdcan.c **** }
 4904              		.loc 1 2897 1
 4905 01b4 1846     		mov	r0, r3
 4906 01b6 1C37     		adds	r7, r7, #28
 4907              	.LCFI268:
 4908              		.cfi_def_cfa_offset 4
 4909 01b8 BD46     		mov	sp, r7
 4910              	.LCFI269:
 4911              		.cfi_def_cfa_register 13
 4912              		@ sp needed
 4913 01ba 5DF8047B 		ldr	r7, [sp], #4
 4914              	.LCFI270:
 4915              		.cfi_restore 7
 4916              		.cfi_def_cfa_offset 0
 4917 01be 7047     		bx	lr
 4918              		.cfi_endproc
 4919              	.LFE177:
 4921              		.section	.text.HAL_FDCAN_IRQHandler,"ax",%progbits
 4922              		.align	1
 4923              		.global	HAL_FDCAN_IRQHandler
 4924              		.syntax unified
 4925              		.thumb
 4926              		.thumb_func
 4928              	HAL_FDCAN_IRQHandler:
 4929              	.LFB178:
2898:Drivers/STM32G4xx_HAL_Driver/Src/stm32g4xx_hal_fdcan.c **** 
2899:Drivers/STM32G4xx_HAL_Driver/Src/stm32g4xx_hal_fdcan.c **** /**
2900:Drivers/STM32G4xx_HAL_Driver/Src/stm32g4xx_hal_fdcan.c ****   * @brief  Handles FDCAN interrupt request.
2901:Drivers/STM32G4xx_HAL_Driver/Src/stm32g4xx_hal_fdcan.c ****   * @param  hfdcan pointer to an FDCAN_HandleTypeDef structure that contains
2902:Drivers/STM32G4xx_HAL_Driver/Src/stm32g4xx_hal_fdcan.c ****   *         the configuration information for the specified FDCAN.
2903:Drivers/STM32G4xx_HAL_Driver/Src/stm32g4xx_hal_fdcan.c ****   * @retval HAL status
2904:Drivers/STM32G4xx_HAL_Driver/Src/stm32g4xx_hal_fdcan.c ****   */
ARM GAS  C:\Users\AURORA~1\AppData\Local\Temp\ccEbooPs.s 			page 138


2905:Drivers/STM32G4xx_HAL_Driver/Src/stm32g4xx_hal_fdcan.c **** void HAL_FDCAN_IRQHandler(FDCAN_HandleTypeDef *hfdcan)
2906:Drivers/STM32G4xx_HAL_Driver/Src/stm32g4xx_hal_fdcan.c **** {
 4930              		.loc 1 2906 1
 4931              		.cfi_startproc
 4932              		@ args = 0, pretend = 0, frame = 48
 4933              		@ frame_needed = 1, uses_anonymous_args = 0
 4934 0000 80B5     		push	{r7, lr}
 4935              	.LCFI271:
 4936              		.cfi_def_cfa_offset 8
 4937              		.cfi_offset 7, -8
 4938              		.cfi_offset 14, -4
 4939 0002 8CB0     		sub	sp, sp, #48
 4940              	.LCFI272:
 4941              		.cfi_def_cfa_offset 56
 4942 0004 00AF     		add	r7, sp, #0
 4943              	.LCFI273:
 4944              		.cfi_def_cfa_register 7
 4945 0006 7860     		str	r0, [r7, #4]
2907:Drivers/STM32G4xx_HAL_Driver/Src/stm32g4xx_hal_fdcan.c ****   uint32_t TxEventFifoITs;
2908:Drivers/STM32G4xx_HAL_Driver/Src/stm32g4xx_hal_fdcan.c ****   uint32_t RxFifo0ITs;
2909:Drivers/STM32G4xx_HAL_Driver/Src/stm32g4xx_hal_fdcan.c ****   uint32_t RxFifo1ITs;
2910:Drivers/STM32G4xx_HAL_Driver/Src/stm32g4xx_hal_fdcan.c ****   uint32_t Errors;
2911:Drivers/STM32G4xx_HAL_Driver/Src/stm32g4xx_hal_fdcan.c ****   uint32_t ErrorStatusITs;
2912:Drivers/STM32G4xx_HAL_Driver/Src/stm32g4xx_hal_fdcan.c ****   uint32_t TransmittedBuffers;
2913:Drivers/STM32G4xx_HAL_Driver/Src/stm32g4xx_hal_fdcan.c ****   uint32_t AbortedBuffers;
2914:Drivers/STM32G4xx_HAL_Driver/Src/stm32g4xx_hal_fdcan.c ****   uint32_t itsource;
2915:Drivers/STM32G4xx_HAL_Driver/Src/stm32g4xx_hal_fdcan.c ****   uint32_t itflag;
2916:Drivers/STM32G4xx_HAL_Driver/Src/stm32g4xx_hal_fdcan.c **** 
2917:Drivers/STM32G4xx_HAL_Driver/Src/stm32g4xx_hal_fdcan.c ****   TxEventFifoITs = hfdcan->Instance->IR & FDCAN_TX_EVENT_FIFO_MASK;
 4946              		.loc 1 2917 26
 4947 0008 7B68     		ldr	r3, [r7, #4]
 4948 000a 1B68     		ldr	r3, [r3]
 4949              		.loc 1 2917 36
 4950 000c 1B6D     		ldr	r3, [r3, #80]
 4951              		.loc 1 2917 18
 4952 000e 03F4E053 		and	r3, r3, #7168
 4953 0012 FB62     		str	r3, [r7, #44]
2918:Drivers/STM32G4xx_HAL_Driver/Src/stm32g4xx_hal_fdcan.c ****   TxEventFifoITs &= hfdcan->Instance->IE;
 4954              		.loc 1 2918 27
 4955 0014 7B68     		ldr	r3, [r7, #4]
 4956 0016 1B68     		ldr	r3, [r3]
 4957              		.loc 1 2918 37
 4958 0018 5B6D     		ldr	r3, [r3, #84]
 4959              		.loc 1 2918 18
 4960 001a FA6A     		ldr	r2, [r7, #44]
 4961 001c 1340     		ands	r3, r3, r2
 4962 001e FB62     		str	r3, [r7, #44]
2919:Drivers/STM32G4xx_HAL_Driver/Src/stm32g4xx_hal_fdcan.c ****   RxFifo0ITs = hfdcan->Instance->IR & FDCAN_RX_FIFO0_MASK;
 4963              		.loc 1 2919 22
 4964 0020 7B68     		ldr	r3, [r7, #4]
 4965 0022 1B68     		ldr	r3, [r3]
 4966              		.loc 1 2919 32
 4967 0024 1B6D     		ldr	r3, [r3, #80]
 4968              		.loc 1 2919 14
 4969 0026 03F00703 		and	r3, r3, #7
 4970 002a BB62     		str	r3, [r7, #40]
2920:Drivers/STM32G4xx_HAL_Driver/Src/stm32g4xx_hal_fdcan.c ****   RxFifo0ITs &= hfdcan->Instance->IE;
ARM GAS  C:\Users\AURORA~1\AppData\Local\Temp\ccEbooPs.s 			page 139


 4971              		.loc 1 2920 23
 4972 002c 7B68     		ldr	r3, [r7, #4]
 4973 002e 1B68     		ldr	r3, [r3]
 4974              		.loc 1 2920 33
 4975 0030 5B6D     		ldr	r3, [r3, #84]
 4976              		.loc 1 2920 14
 4977 0032 BA6A     		ldr	r2, [r7, #40]
 4978 0034 1340     		ands	r3, r3, r2
 4979 0036 BB62     		str	r3, [r7, #40]
2921:Drivers/STM32G4xx_HAL_Driver/Src/stm32g4xx_hal_fdcan.c ****   RxFifo1ITs = hfdcan->Instance->IR & FDCAN_RX_FIFO1_MASK;
 4980              		.loc 1 2921 22
 4981 0038 7B68     		ldr	r3, [r7, #4]
 4982 003a 1B68     		ldr	r3, [r3]
 4983              		.loc 1 2921 32
 4984 003c 1B6D     		ldr	r3, [r3, #80]
 4985              		.loc 1 2921 14
 4986 003e 03F03803 		and	r3, r3, #56
 4987 0042 7B62     		str	r3, [r7, #36]
2922:Drivers/STM32G4xx_HAL_Driver/Src/stm32g4xx_hal_fdcan.c ****   RxFifo1ITs &= hfdcan->Instance->IE;
 4988              		.loc 1 2922 23
 4989 0044 7B68     		ldr	r3, [r7, #4]
 4990 0046 1B68     		ldr	r3, [r3]
 4991              		.loc 1 2922 33
 4992 0048 5B6D     		ldr	r3, [r3, #84]
 4993              		.loc 1 2922 14
 4994 004a 7A6A     		ldr	r2, [r7, #36]
 4995 004c 1340     		ands	r3, r3, r2
 4996 004e 7B62     		str	r3, [r7, #36]
2923:Drivers/STM32G4xx_HAL_Driver/Src/stm32g4xx_hal_fdcan.c ****   Errors = hfdcan->Instance->IR & FDCAN_ERROR_MASK;
 4997              		.loc 1 2923 18
 4998 0050 7B68     		ldr	r3, [r7, #4]
 4999 0052 1B68     		ldr	r3, [r3]
 5000              		.loc 1 2923 28
 5001 0054 1B6D     		ldr	r3, [r3, #80]
 5002              		.loc 1 2923 10
 5003 0056 03F47103 		and	r3, r3, #15794176
 5004 005a 3B62     		str	r3, [r7, #32]
2924:Drivers/STM32G4xx_HAL_Driver/Src/stm32g4xx_hal_fdcan.c ****   Errors &= hfdcan->Instance->IE;
 5005              		.loc 1 2924 19
 5006 005c 7B68     		ldr	r3, [r7, #4]
 5007 005e 1B68     		ldr	r3, [r3]
 5008              		.loc 1 2924 29
 5009 0060 5B6D     		ldr	r3, [r3, #84]
 5010              		.loc 1 2924 10
 5011 0062 3A6A     		ldr	r2, [r7, #32]
 5012 0064 1340     		ands	r3, r3, r2
 5013 0066 3B62     		str	r3, [r7, #32]
2925:Drivers/STM32G4xx_HAL_Driver/Src/stm32g4xx_hal_fdcan.c ****   ErrorStatusITs = hfdcan->Instance->IR & FDCAN_ERROR_STATUS_MASK;
 5014              		.loc 1 2925 26
 5015 0068 7B68     		ldr	r3, [r7, #4]
 5016 006a 1B68     		ldr	r3, [r3]
 5017              		.loc 1 2925 36
 5018 006c 1B6D     		ldr	r3, [r3, #80]
 5019              		.loc 1 2925 18
 5020 006e 03F46023 		and	r3, r3, #917504
 5021 0072 FB61     		str	r3, [r7, #28]
2926:Drivers/STM32G4xx_HAL_Driver/Src/stm32g4xx_hal_fdcan.c ****   ErrorStatusITs &= hfdcan->Instance->IE;
ARM GAS  C:\Users\AURORA~1\AppData\Local\Temp\ccEbooPs.s 			page 140


 5022              		.loc 1 2926 27
 5023 0074 7B68     		ldr	r3, [r7, #4]
 5024 0076 1B68     		ldr	r3, [r3]
 5025              		.loc 1 2926 37
 5026 0078 5B6D     		ldr	r3, [r3, #84]
 5027              		.loc 1 2926 18
 5028 007a FA69     		ldr	r2, [r7, #28]
 5029 007c 1340     		ands	r3, r3, r2
 5030 007e FB61     		str	r3, [r7, #28]
2927:Drivers/STM32G4xx_HAL_Driver/Src/stm32g4xx_hal_fdcan.c ****   itsource = hfdcan->Instance->IE;
 5031              		.loc 1 2927 20
 5032 0080 7B68     		ldr	r3, [r7, #4]
 5033 0082 1B68     		ldr	r3, [r3]
 5034              		.loc 1 2927 12
 5035 0084 5B6D     		ldr	r3, [r3, #84]
 5036 0086 BB61     		str	r3, [r7, #24]
2928:Drivers/STM32G4xx_HAL_Driver/Src/stm32g4xx_hal_fdcan.c ****   itflag = hfdcan->Instance->IR;
 5037              		.loc 1 2928 18
 5038 0088 7B68     		ldr	r3, [r7, #4]
 5039 008a 1B68     		ldr	r3, [r3]
 5040              		.loc 1 2928 10
 5041 008c 1B6D     		ldr	r3, [r3, #80]
 5042 008e 7B61     		str	r3, [r7, #20]
2929:Drivers/STM32G4xx_HAL_Driver/Src/stm32g4xx_hal_fdcan.c **** 
2930:Drivers/STM32G4xx_HAL_Driver/Src/stm32g4xx_hal_fdcan.c ****   /* High Priority Message interrupt management *******************************/
2931:Drivers/STM32G4xx_HAL_Driver/Src/stm32g4xx_hal_fdcan.c ****   if (FDCAN_CHECK_FLAG(itflag, FDCAN_FLAG_RX_HIGH_PRIORITY_MSG) != RESET)
 5043              		.loc 1 2931 7
 5044 0090 7B69     		ldr	r3, [r7, #20]
 5045 0092 9B09     		lsrs	r3, r3, #6
 5046 0094 03F00103 		and	r3, r3, #1
 5047              		.loc 1 2931 6
 5048 0098 002B     		cmp	r3, #0
 5049 009a 0CD0     		beq	.L221
2932:Drivers/STM32G4xx_HAL_Driver/Src/stm32g4xx_hal_fdcan.c ****   {
2933:Drivers/STM32G4xx_HAL_Driver/Src/stm32g4xx_hal_fdcan.c ****     if (FDCAN_CHECK_IT_SOURCE(itsource, FDCAN_IT_RX_HIGH_PRIORITY_MSG) != RESET)
 5050              		.loc 1 2933 9
 5051 009c BB69     		ldr	r3, [r7, #24]
 5052 009e 9B09     		lsrs	r3, r3, #6
 5053 00a0 03F00103 		and	r3, r3, #1
 5054              		.loc 1 2933 8
 5055 00a4 002B     		cmp	r3, #0
 5056 00a6 06D0     		beq	.L221
2934:Drivers/STM32G4xx_HAL_Driver/Src/stm32g4xx_hal_fdcan.c ****     {
2935:Drivers/STM32G4xx_HAL_Driver/Src/stm32g4xx_hal_fdcan.c ****       /* Clear the High Priority Message flag */
2936:Drivers/STM32G4xx_HAL_Driver/Src/stm32g4xx_hal_fdcan.c ****       __HAL_FDCAN_CLEAR_FLAG(hfdcan, FDCAN_FLAG_RX_HIGH_PRIORITY_MSG);
 5057              		.loc 1 2936 7
 5058 00a8 7B68     		ldr	r3, [r7, #4]
 5059 00aa 1B68     		ldr	r3, [r3]
 5060 00ac 4022     		movs	r2, #64
 5061 00ae 1A65     		str	r2, [r3, #80]
2937:Drivers/STM32G4xx_HAL_Driver/Src/stm32g4xx_hal_fdcan.c **** 
2938:Drivers/STM32G4xx_HAL_Driver/Src/stm32g4xx_hal_fdcan.c **** #if USE_HAL_FDCAN_REGISTER_CALLBACKS == 1
2939:Drivers/STM32G4xx_HAL_Driver/Src/stm32g4xx_hal_fdcan.c ****       /* Call registered callback*/
2940:Drivers/STM32G4xx_HAL_Driver/Src/stm32g4xx_hal_fdcan.c ****       hfdcan->HighPriorityMessageCallback(hfdcan);
2941:Drivers/STM32G4xx_HAL_Driver/Src/stm32g4xx_hal_fdcan.c **** #else
2942:Drivers/STM32G4xx_HAL_Driver/Src/stm32g4xx_hal_fdcan.c ****       /* High Priority Message Callback */
2943:Drivers/STM32G4xx_HAL_Driver/Src/stm32g4xx_hal_fdcan.c ****       HAL_FDCAN_HighPriorityMessageCallback(hfdcan);
ARM GAS  C:\Users\AURORA~1\AppData\Local\Temp\ccEbooPs.s 			page 141


 5062              		.loc 1 2943 7
 5063 00b0 7868     		ldr	r0, [r7, #4]
 5064 00b2 FFF7FEFF 		bl	HAL_FDCAN_HighPriorityMessageCallback
 5065              	.L221:
2944:Drivers/STM32G4xx_HAL_Driver/Src/stm32g4xx_hal_fdcan.c **** #endif /* USE_HAL_FDCAN_REGISTER_CALLBACKS */
2945:Drivers/STM32G4xx_HAL_Driver/Src/stm32g4xx_hal_fdcan.c ****     }
2946:Drivers/STM32G4xx_HAL_Driver/Src/stm32g4xx_hal_fdcan.c ****   }
2947:Drivers/STM32G4xx_HAL_Driver/Src/stm32g4xx_hal_fdcan.c **** 
2948:Drivers/STM32G4xx_HAL_Driver/Src/stm32g4xx_hal_fdcan.c ****   /* Transmission Abort interrupt management **********************************/
2949:Drivers/STM32G4xx_HAL_Driver/Src/stm32g4xx_hal_fdcan.c ****   if (FDCAN_CHECK_FLAG(itflag, FDCAN_FLAG_TX_ABORT_COMPLETE) != RESET)
 5066              		.loc 1 2949 7
 5067 00b6 7B69     		ldr	r3, [r7, #20]
 5068 00b8 1B0A     		lsrs	r3, r3, #8
 5069 00ba 03F00103 		and	r3, r3, #1
 5070              		.loc 1 2949 6
 5071 00be 002B     		cmp	r3, #0
 5072 00c0 1AD0     		beq	.L222
2950:Drivers/STM32G4xx_HAL_Driver/Src/stm32g4xx_hal_fdcan.c ****   {
2951:Drivers/STM32G4xx_HAL_Driver/Src/stm32g4xx_hal_fdcan.c ****     if (FDCAN_CHECK_IT_SOURCE(itsource, FDCAN_IT_TX_ABORT_COMPLETE) != RESET)
 5073              		.loc 1 2951 9
 5074 00c2 BB69     		ldr	r3, [r7, #24]
 5075 00c4 1B0A     		lsrs	r3, r3, #8
 5076 00c6 03F00103 		and	r3, r3, #1
 5077              		.loc 1 2951 8
 5078 00ca 002B     		cmp	r3, #0
 5079 00cc 14D0     		beq	.L222
2952:Drivers/STM32G4xx_HAL_Driver/Src/stm32g4xx_hal_fdcan.c ****     {
2953:Drivers/STM32G4xx_HAL_Driver/Src/stm32g4xx_hal_fdcan.c ****       /* List of aborted monitored buffers */
2954:Drivers/STM32G4xx_HAL_Driver/Src/stm32g4xx_hal_fdcan.c ****       AbortedBuffers = hfdcan->Instance->TXBCF;
 5080              		.loc 1 2954 30
 5081 00ce 7B68     		ldr	r3, [r7, #4]
 5082 00d0 1B68     		ldr	r3, [r3]
 5083              		.loc 1 2954 22
 5084 00d2 D3F8D830 		ldr	r3, [r3, #216]
 5085 00d6 3B61     		str	r3, [r7, #16]
2955:Drivers/STM32G4xx_HAL_Driver/Src/stm32g4xx_hal_fdcan.c ****       AbortedBuffers &= hfdcan->Instance->TXBCIE;
 5086              		.loc 1 2955 31
 5087 00d8 7B68     		ldr	r3, [r7, #4]
 5088 00da 1B68     		ldr	r3, [r3]
 5089              		.loc 1 2955 41
 5090 00dc D3F8E030 		ldr	r3, [r3, #224]
 5091              		.loc 1 2955 22
 5092 00e0 3A69     		ldr	r2, [r7, #16]
 5093 00e2 1340     		ands	r3, r3, r2
 5094 00e4 3B61     		str	r3, [r7, #16]
2956:Drivers/STM32G4xx_HAL_Driver/Src/stm32g4xx_hal_fdcan.c **** 
2957:Drivers/STM32G4xx_HAL_Driver/Src/stm32g4xx_hal_fdcan.c ****       /* Clear the Transmission Cancellation flag */
2958:Drivers/STM32G4xx_HAL_Driver/Src/stm32g4xx_hal_fdcan.c ****       __HAL_FDCAN_CLEAR_FLAG(hfdcan, FDCAN_FLAG_TX_ABORT_COMPLETE);
 5095              		.loc 1 2958 7
 5096 00e6 7B68     		ldr	r3, [r7, #4]
 5097 00e8 1B68     		ldr	r3, [r3]
 5098 00ea 4FF48072 		mov	r2, #256
 5099 00ee 1A65     		str	r2, [r3, #80]
2959:Drivers/STM32G4xx_HAL_Driver/Src/stm32g4xx_hal_fdcan.c **** 
2960:Drivers/STM32G4xx_HAL_Driver/Src/stm32g4xx_hal_fdcan.c **** #if USE_HAL_FDCAN_REGISTER_CALLBACKS == 1
2961:Drivers/STM32G4xx_HAL_Driver/Src/stm32g4xx_hal_fdcan.c ****       /* Call registered callback*/
2962:Drivers/STM32G4xx_HAL_Driver/Src/stm32g4xx_hal_fdcan.c ****       hfdcan->TxBufferAbortCallback(hfdcan, AbortedBuffers);
ARM GAS  C:\Users\AURORA~1\AppData\Local\Temp\ccEbooPs.s 			page 142


2963:Drivers/STM32G4xx_HAL_Driver/Src/stm32g4xx_hal_fdcan.c **** #else
2964:Drivers/STM32G4xx_HAL_Driver/Src/stm32g4xx_hal_fdcan.c ****       /* Transmission Cancellation Callback */
2965:Drivers/STM32G4xx_HAL_Driver/Src/stm32g4xx_hal_fdcan.c ****       HAL_FDCAN_TxBufferAbortCallback(hfdcan, AbortedBuffers);
 5100              		.loc 1 2965 7
 5101 00f0 3969     		ldr	r1, [r7, #16]
 5102 00f2 7868     		ldr	r0, [r7, #4]
 5103 00f4 FFF7FEFF 		bl	HAL_FDCAN_TxBufferAbortCallback
 5104              	.L222:
2966:Drivers/STM32G4xx_HAL_Driver/Src/stm32g4xx_hal_fdcan.c **** #endif /* USE_HAL_FDCAN_REGISTER_CALLBACKS */
2967:Drivers/STM32G4xx_HAL_Driver/Src/stm32g4xx_hal_fdcan.c ****     }
2968:Drivers/STM32G4xx_HAL_Driver/Src/stm32g4xx_hal_fdcan.c ****   }
2969:Drivers/STM32G4xx_HAL_Driver/Src/stm32g4xx_hal_fdcan.c **** 
2970:Drivers/STM32G4xx_HAL_Driver/Src/stm32g4xx_hal_fdcan.c ****   /* Tx event FIFO interrupts management **************************************/
2971:Drivers/STM32G4xx_HAL_Driver/Src/stm32g4xx_hal_fdcan.c ****   if (TxEventFifoITs != 0U)
 5105              		.loc 1 2971 6
 5106 00f8 FB6A     		ldr	r3, [r7, #44]
 5107 00fa 002B     		cmp	r3, #0
 5108 00fc 07D0     		beq	.L223
2972:Drivers/STM32G4xx_HAL_Driver/Src/stm32g4xx_hal_fdcan.c ****   {
2973:Drivers/STM32G4xx_HAL_Driver/Src/stm32g4xx_hal_fdcan.c ****     /* Clear the Tx Event FIFO flags */
2974:Drivers/STM32G4xx_HAL_Driver/Src/stm32g4xx_hal_fdcan.c ****     __HAL_FDCAN_CLEAR_FLAG(hfdcan, TxEventFifoITs);
 5109              		.loc 1 2974 5
 5110 00fe 7B68     		ldr	r3, [r7, #4]
 5111 0100 1B68     		ldr	r3, [r3]
 5112 0102 FA6A     		ldr	r2, [r7, #44]
 5113 0104 1A65     		str	r2, [r3, #80]
2975:Drivers/STM32G4xx_HAL_Driver/Src/stm32g4xx_hal_fdcan.c **** 
2976:Drivers/STM32G4xx_HAL_Driver/Src/stm32g4xx_hal_fdcan.c **** #if USE_HAL_FDCAN_REGISTER_CALLBACKS == 1
2977:Drivers/STM32G4xx_HAL_Driver/Src/stm32g4xx_hal_fdcan.c ****     /* Call registered callback*/
2978:Drivers/STM32G4xx_HAL_Driver/Src/stm32g4xx_hal_fdcan.c ****     hfdcan->TxEventFifoCallback(hfdcan, TxEventFifoITs);
2979:Drivers/STM32G4xx_HAL_Driver/Src/stm32g4xx_hal_fdcan.c **** #else
2980:Drivers/STM32G4xx_HAL_Driver/Src/stm32g4xx_hal_fdcan.c ****     /* Tx Event FIFO Callback */
2981:Drivers/STM32G4xx_HAL_Driver/Src/stm32g4xx_hal_fdcan.c ****     HAL_FDCAN_TxEventFifoCallback(hfdcan, TxEventFifoITs);
 5114              		.loc 1 2981 5
 5115 0106 F96A     		ldr	r1, [r7, #44]
 5116 0108 7868     		ldr	r0, [r7, #4]
 5117 010a FFF7FEFF 		bl	HAL_FDCAN_TxEventFifoCallback
 5118              	.L223:
2982:Drivers/STM32G4xx_HAL_Driver/Src/stm32g4xx_hal_fdcan.c **** #endif /* USE_HAL_FDCAN_REGISTER_CALLBACKS */
2983:Drivers/STM32G4xx_HAL_Driver/Src/stm32g4xx_hal_fdcan.c ****   }
2984:Drivers/STM32G4xx_HAL_Driver/Src/stm32g4xx_hal_fdcan.c **** 
2985:Drivers/STM32G4xx_HAL_Driver/Src/stm32g4xx_hal_fdcan.c ****   /* Rx FIFO 0 interrupts management ******************************************/
2986:Drivers/STM32G4xx_HAL_Driver/Src/stm32g4xx_hal_fdcan.c ****   if (RxFifo0ITs != 0U)
 5119              		.loc 1 2986 6
 5120 010e BB6A     		ldr	r3, [r7, #40]
 5121 0110 002B     		cmp	r3, #0
 5122 0112 07D0     		beq	.L224
2987:Drivers/STM32G4xx_HAL_Driver/Src/stm32g4xx_hal_fdcan.c ****   {
2988:Drivers/STM32G4xx_HAL_Driver/Src/stm32g4xx_hal_fdcan.c ****     /* Clear the Rx FIFO 0 flags */
2989:Drivers/STM32G4xx_HAL_Driver/Src/stm32g4xx_hal_fdcan.c ****     __HAL_FDCAN_CLEAR_FLAG(hfdcan, RxFifo0ITs);
 5123              		.loc 1 2989 5
 5124 0114 7B68     		ldr	r3, [r7, #4]
 5125 0116 1B68     		ldr	r3, [r3]
 5126 0118 BA6A     		ldr	r2, [r7, #40]
 5127 011a 1A65     		str	r2, [r3, #80]
2990:Drivers/STM32G4xx_HAL_Driver/Src/stm32g4xx_hal_fdcan.c **** 
2991:Drivers/STM32G4xx_HAL_Driver/Src/stm32g4xx_hal_fdcan.c **** #if USE_HAL_FDCAN_REGISTER_CALLBACKS == 1
ARM GAS  C:\Users\AURORA~1\AppData\Local\Temp\ccEbooPs.s 			page 143


2992:Drivers/STM32G4xx_HAL_Driver/Src/stm32g4xx_hal_fdcan.c ****     /* Call registered callback*/
2993:Drivers/STM32G4xx_HAL_Driver/Src/stm32g4xx_hal_fdcan.c ****     hfdcan->RxFifo0Callback(hfdcan, RxFifo0ITs);
2994:Drivers/STM32G4xx_HAL_Driver/Src/stm32g4xx_hal_fdcan.c **** #else
2995:Drivers/STM32G4xx_HAL_Driver/Src/stm32g4xx_hal_fdcan.c ****     /* Rx FIFO 0 Callback */
2996:Drivers/STM32G4xx_HAL_Driver/Src/stm32g4xx_hal_fdcan.c ****     HAL_FDCAN_RxFifo0Callback(hfdcan, RxFifo0ITs);
 5128              		.loc 1 2996 5
 5129 011c B96A     		ldr	r1, [r7, #40]
 5130 011e 7868     		ldr	r0, [r7, #4]
 5131 0120 FFF7FEFF 		bl	HAL_FDCAN_RxFifo0Callback
 5132              	.L224:
2997:Drivers/STM32G4xx_HAL_Driver/Src/stm32g4xx_hal_fdcan.c **** #endif /* USE_HAL_FDCAN_REGISTER_CALLBACKS */
2998:Drivers/STM32G4xx_HAL_Driver/Src/stm32g4xx_hal_fdcan.c ****   }
2999:Drivers/STM32G4xx_HAL_Driver/Src/stm32g4xx_hal_fdcan.c **** 
3000:Drivers/STM32G4xx_HAL_Driver/Src/stm32g4xx_hal_fdcan.c ****   /* Rx FIFO 1 interrupts management ******************************************/
3001:Drivers/STM32G4xx_HAL_Driver/Src/stm32g4xx_hal_fdcan.c ****   if (RxFifo1ITs != 0U)
 5133              		.loc 1 3001 6
 5134 0124 7B6A     		ldr	r3, [r7, #36]
 5135 0126 002B     		cmp	r3, #0
 5136 0128 07D0     		beq	.L225
3002:Drivers/STM32G4xx_HAL_Driver/Src/stm32g4xx_hal_fdcan.c ****   {
3003:Drivers/STM32G4xx_HAL_Driver/Src/stm32g4xx_hal_fdcan.c ****     /* Clear the Rx FIFO 1 flags */
3004:Drivers/STM32G4xx_HAL_Driver/Src/stm32g4xx_hal_fdcan.c ****     __HAL_FDCAN_CLEAR_FLAG(hfdcan, RxFifo1ITs);
 5137              		.loc 1 3004 5
 5138 012a 7B68     		ldr	r3, [r7, #4]
 5139 012c 1B68     		ldr	r3, [r3]
 5140 012e 7A6A     		ldr	r2, [r7, #36]
 5141 0130 1A65     		str	r2, [r3, #80]
3005:Drivers/STM32G4xx_HAL_Driver/Src/stm32g4xx_hal_fdcan.c **** 
3006:Drivers/STM32G4xx_HAL_Driver/Src/stm32g4xx_hal_fdcan.c **** #if USE_HAL_FDCAN_REGISTER_CALLBACKS == 1
3007:Drivers/STM32G4xx_HAL_Driver/Src/stm32g4xx_hal_fdcan.c ****     /* Call registered callback*/
3008:Drivers/STM32G4xx_HAL_Driver/Src/stm32g4xx_hal_fdcan.c ****     hfdcan->RxFifo1Callback(hfdcan, RxFifo1ITs);
3009:Drivers/STM32G4xx_HAL_Driver/Src/stm32g4xx_hal_fdcan.c **** #else
3010:Drivers/STM32G4xx_HAL_Driver/Src/stm32g4xx_hal_fdcan.c ****     /* Rx FIFO 1 Callback */
3011:Drivers/STM32G4xx_HAL_Driver/Src/stm32g4xx_hal_fdcan.c ****     HAL_FDCAN_RxFifo1Callback(hfdcan, RxFifo1ITs);
 5142              		.loc 1 3011 5
 5143 0132 796A     		ldr	r1, [r7, #36]
 5144 0134 7868     		ldr	r0, [r7, #4]
 5145 0136 FFF7FEFF 		bl	HAL_FDCAN_RxFifo1Callback
 5146              	.L225:
3012:Drivers/STM32G4xx_HAL_Driver/Src/stm32g4xx_hal_fdcan.c **** #endif /* USE_HAL_FDCAN_REGISTER_CALLBACKS */
3013:Drivers/STM32G4xx_HAL_Driver/Src/stm32g4xx_hal_fdcan.c ****   }
3014:Drivers/STM32G4xx_HAL_Driver/Src/stm32g4xx_hal_fdcan.c **** 
3015:Drivers/STM32G4xx_HAL_Driver/Src/stm32g4xx_hal_fdcan.c ****   /* Tx FIFO empty interrupt management ***************************************/
3016:Drivers/STM32G4xx_HAL_Driver/Src/stm32g4xx_hal_fdcan.c ****   if (FDCAN_CHECK_FLAG(itflag, FDCAN_FLAG_TX_FIFO_EMPTY) != RESET)
 5147              		.loc 1 3016 7
 5148 013a 7B69     		ldr	r3, [r7, #20]
 5149 013c 5B0A     		lsrs	r3, r3, #9
 5150 013e 03F00103 		and	r3, r3, #1
 5151              		.loc 1 3016 6
 5152 0142 002B     		cmp	r3, #0
 5153 0144 0DD0     		beq	.L226
3017:Drivers/STM32G4xx_HAL_Driver/Src/stm32g4xx_hal_fdcan.c ****   {
3018:Drivers/STM32G4xx_HAL_Driver/Src/stm32g4xx_hal_fdcan.c ****     if (FDCAN_CHECK_IT_SOURCE(itsource, FDCAN_IT_TX_FIFO_EMPTY) != RESET)
 5154              		.loc 1 3018 9
 5155 0146 BB69     		ldr	r3, [r7, #24]
 5156 0148 5B0A     		lsrs	r3, r3, #9
 5157 014a 03F00103 		and	r3, r3, #1
ARM GAS  C:\Users\AURORA~1\AppData\Local\Temp\ccEbooPs.s 			page 144


 5158              		.loc 1 3018 8
 5159 014e 002B     		cmp	r3, #0
 5160 0150 07D0     		beq	.L226
3019:Drivers/STM32G4xx_HAL_Driver/Src/stm32g4xx_hal_fdcan.c ****     {
3020:Drivers/STM32G4xx_HAL_Driver/Src/stm32g4xx_hal_fdcan.c ****       /* Clear the Tx FIFO empty flag */
3021:Drivers/STM32G4xx_HAL_Driver/Src/stm32g4xx_hal_fdcan.c ****       __HAL_FDCAN_CLEAR_FLAG(hfdcan, FDCAN_FLAG_TX_FIFO_EMPTY);
 5161              		.loc 1 3021 7
 5162 0152 7B68     		ldr	r3, [r7, #4]
 5163 0154 1B68     		ldr	r3, [r3]
 5164 0156 4FF40072 		mov	r2, #512
 5165 015a 1A65     		str	r2, [r3, #80]
3022:Drivers/STM32G4xx_HAL_Driver/Src/stm32g4xx_hal_fdcan.c **** 
3023:Drivers/STM32G4xx_HAL_Driver/Src/stm32g4xx_hal_fdcan.c **** #if USE_HAL_FDCAN_REGISTER_CALLBACKS == 1
3024:Drivers/STM32G4xx_HAL_Driver/Src/stm32g4xx_hal_fdcan.c ****       /* Call registered callback*/
3025:Drivers/STM32G4xx_HAL_Driver/Src/stm32g4xx_hal_fdcan.c ****       hfdcan->TxFifoEmptyCallback(hfdcan);
3026:Drivers/STM32G4xx_HAL_Driver/Src/stm32g4xx_hal_fdcan.c **** #else
3027:Drivers/STM32G4xx_HAL_Driver/Src/stm32g4xx_hal_fdcan.c ****       /* Tx FIFO empty Callback */
3028:Drivers/STM32G4xx_HAL_Driver/Src/stm32g4xx_hal_fdcan.c ****       HAL_FDCAN_TxFifoEmptyCallback(hfdcan);
 5166              		.loc 1 3028 7
 5167 015c 7868     		ldr	r0, [r7, #4]
 5168 015e FFF7FEFF 		bl	HAL_FDCAN_TxFifoEmptyCallback
 5169              	.L226:
3029:Drivers/STM32G4xx_HAL_Driver/Src/stm32g4xx_hal_fdcan.c **** #endif /* USE_HAL_FDCAN_REGISTER_CALLBACKS */
3030:Drivers/STM32G4xx_HAL_Driver/Src/stm32g4xx_hal_fdcan.c ****     }
3031:Drivers/STM32G4xx_HAL_Driver/Src/stm32g4xx_hal_fdcan.c ****   }
3032:Drivers/STM32G4xx_HAL_Driver/Src/stm32g4xx_hal_fdcan.c **** 
3033:Drivers/STM32G4xx_HAL_Driver/Src/stm32g4xx_hal_fdcan.c ****   /* Transmission Complete interrupt management *******************************/
3034:Drivers/STM32G4xx_HAL_Driver/Src/stm32g4xx_hal_fdcan.c ****   if (FDCAN_CHECK_FLAG(itflag, FDCAN_FLAG_TX_COMPLETE) != RESET)
 5170              		.loc 1 3034 7
 5171 0162 7B69     		ldr	r3, [r7, #20]
 5172 0164 DB09     		lsrs	r3, r3, #7
 5173 0166 03F00103 		and	r3, r3, #1
 5174              		.loc 1 3034 6
 5175 016a 002B     		cmp	r3, #0
 5176 016c 19D0     		beq	.L227
3035:Drivers/STM32G4xx_HAL_Driver/Src/stm32g4xx_hal_fdcan.c ****   {
3036:Drivers/STM32G4xx_HAL_Driver/Src/stm32g4xx_hal_fdcan.c ****     if (FDCAN_CHECK_IT_SOURCE(itsource, FDCAN_IT_TX_COMPLETE) != RESET)
 5177              		.loc 1 3036 9
 5178 016e BB69     		ldr	r3, [r7, #24]
 5179 0170 DB09     		lsrs	r3, r3, #7
 5180 0172 03F00103 		and	r3, r3, #1
 5181              		.loc 1 3036 8
 5182 0176 002B     		cmp	r3, #0
 5183 0178 13D0     		beq	.L227
3037:Drivers/STM32G4xx_HAL_Driver/Src/stm32g4xx_hal_fdcan.c ****     {
3038:Drivers/STM32G4xx_HAL_Driver/Src/stm32g4xx_hal_fdcan.c ****       /* List of transmitted monitored buffers */
3039:Drivers/STM32G4xx_HAL_Driver/Src/stm32g4xx_hal_fdcan.c ****       TransmittedBuffers = hfdcan->Instance->TXBTO;
 5184              		.loc 1 3039 34
 5185 017a 7B68     		ldr	r3, [r7, #4]
 5186 017c 1B68     		ldr	r3, [r3]
 5187              		.loc 1 3039 26
 5188 017e D3F8D430 		ldr	r3, [r3, #212]
 5189 0182 FB60     		str	r3, [r7, #12]
3040:Drivers/STM32G4xx_HAL_Driver/Src/stm32g4xx_hal_fdcan.c ****       TransmittedBuffers &= hfdcan->Instance->TXBTIE;
 5190              		.loc 1 3040 35
 5191 0184 7B68     		ldr	r3, [r7, #4]
 5192 0186 1B68     		ldr	r3, [r3]
ARM GAS  C:\Users\AURORA~1\AppData\Local\Temp\ccEbooPs.s 			page 145


 5193              		.loc 1 3040 45
 5194 0188 D3F8DC30 		ldr	r3, [r3, #220]
 5195              		.loc 1 3040 26
 5196 018c FA68     		ldr	r2, [r7, #12]
 5197 018e 1340     		ands	r3, r3, r2
 5198 0190 FB60     		str	r3, [r7, #12]
3041:Drivers/STM32G4xx_HAL_Driver/Src/stm32g4xx_hal_fdcan.c **** 
3042:Drivers/STM32G4xx_HAL_Driver/Src/stm32g4xx_hal_fdcan.c ****       /* Clear the Transmission Complete flag */
3043:Drivers/STM32G4xx_HAL_Driver/Src/stm32g4xx_hal_fdcan.c ****       __HAL_FDCAN_CLEAR_FLAG(hfdcan, FDCAN_FLAG_TX_COMPLETE);
 5199              		.loc 1 3043 7
 5200 0192 7B68     		ldr	r3, [r7, #4]
 5201 0194 1B68     		ldr	r3, [r3]
 5202 0196 8022     		movs	r2, #128
 5203 0198 1A65     		str	r2, [r3, #80]
3044:Drivers/STM32G4xx_HAL_Driver/Src/stm32g4xx_hal_fdcan.c **** 
3045:Drivers/STM32G4xx_HAL_Driver/Src/stm32g4xx_hal_fdcan.c **** #if USE_HAL_FDCAN_REGISTER_CALLBACKS == 1
3046:Drivers/STM32G4xx_HAL_Driver/Src/stm32g4xx_hal_fdcan.c ****       /* Call registered callback*/
3047:Drivers/STM32G4xx_HAL_Driver/Src/stm32g4xx_hal_fdcan.c ****       hfdcan->TxBufferCompleteCallback(hfdcan, TransmittedBuffers);
3048:Drivers/STM32G4xx_HAL_Driver/Src/stm32g4xx_hal_fdcan.c **** #else
3049:Drivers/STM32G4xx_HAL_Driver/Src/stm32g4xx_hal_fdcan.c ****       /* Transmission Complete Callback */
3050:Drivers/STM32G4xx_HAL_Driver/Src/stm32g4xx_hal_fdcan.c ****       HAL_FDCAN_TxBufferCompleteCallback(hfdcan, TransmittedBuffers);
 5204              		.loc 1 3050 7
 5205 019a F968     		ldr	r1, [r7, #12]
 5206 019c 7868     		ldr	r0, [r7, #4]
 5207 019e FFF7FEFF 		bl	HAL_FDCAN_TxBufferCompleteCallback
 5208              	.L227:
3051:Drivers/STM32G4xx_HAL_Driver/Src/stm32g4xx_hal_fdcan.c **** #endif /* USE_HAL_FDCAN_REGISTER_CALLBACKS */
3052:Drivers/STM32G4xx_HAL_Driver/Src/stm32g4xx_hal_fdcan.c ****     }
3053:Drivers/STM32G4xx_HAL_Driver/Src/stm32g4xx_hal_fdcan.c ****   }
3054:Drivers/STM32G4xx_HAL_Driver/Src/stm32g4xx_hal_fdcan.c **** 
3055:Drivers/STM32G4xx_HAL_Driver/Src/stm32g4xx_hal_fdcan.c ****   /* Timestamp Wraparound interrupt management ********************************/
3056:Drivers/STM32G4xx_HAL_Driver/Src/stm32g4xx_hal_fdcan.c ****   if (FDCAN_CHECK_FLAG(itflag, FDCAN_FLAG_TIMESTAMP_WRAPAROUND) != RESET)
 5209              		.loc 1 3056 7
 5210 01a2 7B69     		ldr	r3, [r7, #20]
 5211 01a4 5B0B     		lsrs	r3, r3, #13
 5212 01a6 03F00103 		and	r3, r3, #1
 5213              		.loc 1 3056 6
 5214 01aa 002B     		cmp	r3, #0
 5215 01ac 0DD0     		beq	.L228
3057:Drivers/STM32G4xx_HAL_Driver/Src/stm32g4xx_hal_fdcan.c ****   {
3058:Drivers/STM32G4xx_HAL_Driver/Src/stm32g4xx_hal_fdcan.c ****     if (FDCAN_CHECK_IT_SOURCE(itsource, FDCAN_IT_TIMESTAMP_WRAPAROUND) != RESET)
 5216              		.loc 1 3058 9
 5217 01ae BB69     		ldr	r3, [r7, #24]
 5218 01b0 5B0B     		lsrs	r3, r3, #13
 5219 01b2 03F00103 		and	r3, r3, #1
 5220              		.loc 1 3058 8
 5221 01b6 002B     		cmp	r3, #0
 5222 01b8 07D0     		beq	.L228
3059:Drivers/STM32G4xx_HAL_Driver/Src/stm32g4xx_hal_fdcan.c ****     {
3060:Drivers/STM32G4xx_HAL_Driver/Src/stm32g4xx_hal_fdcan.c ****       /* Clear the Timestamp Wraparound flag */
3061:Drivers/STM32G4xx_HAL_Driver/Src/stm32g4xx_hal_fdcan.c ****       __HAL_FDCAN_CLEAR_FLAG(hfdcan, FDCAN_FLAG_TIMESTAMP_WRAPAROUND);
 5223              		.loc 1 3061 7
 5224 01ba 7B68     		ldr	r3, [r7, #4]
 5225 01bc 1B68     		ldr	r3, [r3]
 5226 01be 4FF40052 		mov	r2, #8192
 5227 01c2 1A65     		str	r2, [r3, #80]
3062:Drivers/STM32G4xx_HAL_Driver/Src/stm32g4xx_hal_fdcan.c **** 
ARM GAS  C:\Users\AURORA~1\AppData\Local\Temp\ccEbooPs.s 			page 146


3063:Drivers/STM32G4xx_HAL_Driver/Src/stm32g4xx_hal_fdcan.c **** #if USE_HAL_FDCAN_REGISTER_CALLBACKS == 1
3064:Drivers/STM32G4xx_HAL_Driver/Src/stm32g4xx_hal_fdcan.c ****       /* Call registered callback*/
3065:Drivers/STM32G4xx_HAL_Driver/Src/stm32g4xx_hal_fdcan.c ****       hfdcan->TimestampWraparoundCallback(hfdcan);
3066:Drivers/STM32G4xx_HAL_Driver/Src/stm32g4xx_hal_fdcan.c **** #else
3067:Drivers/STM32G4xx_HAL_Driver/Src/stm32g4xx_hal_fdcan.c ****       /* Timestamp Wraparound Callback */
3068:Drivers/STM32G4xx_HAL_Driver/Src/stm32g4xx_hal_fdcan.c ****       HAL_FDCAN_TimestampWraparoundCallback(hfdcan);
 5228              		.loc 1 3068 7
 5229 01c4 7868     		ldr	r0, [r7, #4]
 5230 01c6 FFF7FEFF 		bl	HAL_FDCAN_TimestampWraparoundCallback
 5231              	.L228:
3069:Drivers/STM32G4xx_HAL_Driver/Src/stm32g4xx_hal_fdcan.c **** #endif /* USE_HAL_FDCAN_REGISTER_CALLBACKS */
3070:Drivers/STM32G4xx_HAL_Driver/Src/stm32g4xx_hal_fdcan.c ****     }
3071:Drivers/STM32G4xx_HAL_Driver/Src/stm32g4xx_hal_fdcan.c ****   }
3072:Drivers/STM32G4xx_HAL_Driver/Src/stm32g4xx_hal_fdcan.c **** 
3073:Drivers/STM32G4xx_HAL_Driver/Src/stm32g4xx_hal_fdcan.c ****   /* Timeout Occurred interrupt management ************************************/
3074:Drivers/STM32G4xx_HAL_Driver/Src/stm32g4xx_hal_fdcan.c ****   if (FDCAN_CHECK_FLAG(itflag, FDCAN_FLAG_TIMEOUT_OCCURRED) != RESET)
 5232              		.loc 1 3074 7
 5233 01ca 7B69     		ldr	r3, [r7, #20]
 5234 01cc DB0B     		lsrs	r3, r3, #15
 5235 01ce 03F00103 		and	r3, r3, #1
 5236              		.loc 1 3074 6
 5237 01d2 002B     		cmp	r3, #0
 5238 01d4 0DD0     		beq	.L229
3075:Drivers/STM32G4xx_HAL_Driver/Src/stm32g4xx_hal_fdcan.c ****   {
3076:Drivers/STM32G4xx_HAL_Driver/Src/stm32g4xx_hal_fdcan.c ****     if (FDCAN_CHECK_IT_SOURCE(itsource, FDCAN_IT_TIMEOUT_OCCURRED) != RESET)
 5239              		.loc 1 3076 9
 5240 01d6 BB69     		ldr	r3, [r7, #24]
 5241 01d8 DB0B     		lsrs	r3, r3, #15
 5242 01da 03F00103 		and	r3, r3, #1
 5243              		.loc 1 3076 8
 5244 01de 002B     		cmp	r3, #0
 5245 01e0 07D0     		beq	.L229
3077:Drivers/STM32G4xx_HAL_Driver/Src/stm32g4xx_hal_fdcan.c ****     {
3078:Drivers/STM32G4xx_HAL_Driver/Src/stm32g4xx_hal_fdcan.c ****       /* Clear the Timeout Occurred flag */
3079:Drivers/STM32G4xx_HAL_Driver/Src/stm32g4xx_hal_fdcan.c ****       __HAL_FDCAN_CLEAR_FLAG(hfdcan, FDCAN_FLAG_TIMEOUT_OCCURRED);
 5246              		.loc 1 3079 7
 5247 01e2 7B68     		ldr	r3, [r7, #4]
 5248 01e4 1B68     		ldr	r3, [r3]
 5249 01e6 4FF40042 		mov	r2, #32768
 5250 01ea 1A65     		str	r2, [r3, #80]
3080:Drivers/STM32G4xx_HAL_Driver/Src/stm32g4xx_hal_fdcan.c **** 
3081:Drivers/STM32G4xx_HAL_Driver/Src/stm32g4xx_hal_fdcan.c **** #if USE_HAL_FDCAN_REGISTER_CALLBACKS == 1
3082:Drivers/STM32G4xx_HAL_Driver/Src/stm32g4xx_hal_fdcan.c ****       /* Call registered callback*/
3083:Drivers/STM32G4xx_HAL_Driver/Src/stm32g4xx_hal_fdcan.c ****       hfdcan->TimeoutOccurredCallback(hfdcan);
3084:Drivers/STM32G4xx_HAL_Driver/Src/stm32g4xx_hal_fdcan.c **** #else
3085:Drivers/STM32G4xx_HAL_Driver/Src/stm32g4xx_hal_fdcan.c ****       /* Timeout Occurred Callback */
3086:Drivers/STM32G4xx_HAL_Driver/Src/stm32g4xx_hal_fdcan.c ****       HAL_FDCAN_TimeoutOccurredCallback(hfdcan);
 5251              		.loc 1 3086 7
 5252 01ec 7868     		ldr	r0, [r7, #4]
 5253 01ee FFF7FEFF 		bl	HAL_FDCAN_TimeoutOccurredCallback
 5254              	.L229:
3087:Drivers/STM32G4xx_HAL_Driver/Src/stm32g4xx_hal_fdcan.c **** #endif /* USE_HAL_FDCAN_REGISTER_CALLBACKS */
3088:Drivers/STM32G4xx_HAL_Driver/Src/stm32g4xx_hal_fdcan.c ****     }
3089:Drivers/STM32G4xx_HAL_Driver/Src/stm32g4xx_hal_fdcan.c ****   }
3090:Drivers/STM32G4xx_HAL_Driver/Src/stm32g4xx_hal_fdcan.c **** 
3091:Drivers/STM32G4xx_HAL_Driver/Src/stm32g4xx_hal_fdcan.c ****   /* Message RAM access failure interrupt management **************************/
3092:Drivers/STM32G4xx_HAL_Driver/Src/stm32g4xx_hal_fdcan.c ****   if (FDCAN_CHECK_FLAG(itflag, FDCAN_FLAG_RAM_ACCESS_FAILURE) != RESET)
ARM GAS  C:\Users\AURORA~1\AppData\Local\Temp\ccEbooPs.s 			page 147


 5255              		.loc 1 3092 7
 5256 01f2 7B69     		ldr	r3, [r7, #20]
 5257 01f4 9B0B     		lsrs	r3, r3, #14
 5258 01f6 03F00103 		and	r3, r3, #1
 5259              		.loc 1 3092 6
 5260 01fa 002B     		cmp	r3, #0
 5261 01fc 10D0     		beq	.L230
3093:Drivers/STM32G4xx_HAL_Driver/Src/stm32g4xx_hal_fdcan.c ****   {
3094:Drivers/STM32G4xx_HAL_Driver/Src/stm32g4xx_hal_fdcan.c ****     if (FDCAN_CHECK_IT_SOURCE(itsource, FDCAN_IT_RAM_ACCESS_FAILURE) != RESET)
 5262              		.loc 1 3094 9
 5263 01fe BB69     		ldr	r3, [r7, #24]
 5264 0200 9B0B     		lsrs	r3, r3, #14
 5265 0202 03F00103 		and	r3, r3, #1
 5266              		.loc 1 3094 8
 5267 0206 002B     		cmp	r3, #0
 5268 0208 0AD0     		beq	.L230
3095:Drivers/STM32G4xx_HAL_Driver/Src/stm32g4xx_hal_fdcan.c ****     {
3096:Drivers/STM32G4xx_HAL_Driver/Src/stm32g4xx_hal_fdcan.c ****       /* Clear the Message RAM access failure flag */
3097:Drivers/STM32G4xx_HAL_Driver/Src/stm32g4xx_hal_fdcan.c ****       __HAL_FDCAN_CLEAR_FLAG(hfdcan, FDCAN_FLAG_RAM_ACCESS_FAILURE);
 5269              		.loc 1 3097 7
 5270 020a 7B68     		ldr	r3, [r7, #4]
 5271 020c 1B68     		ldr	r3, [r3]
 5272 020e 4FF48042 		mov	r2, #16384
 5273 0212 1A65     		str	r2, [r3, #80]
3098:Drivers/STM32G4xx_HAL_Driver/Src/stm32g4xx_hal_fdcan.c **** 
3099:Drivers/STM32G4xx_HAL_Driver/Src/stm32g4xx_hal_fdcan.c ****       /* Update error code */
3100:Drivers/STM32G4xx_HAL_Driver/Src/stm32g4xx_hal_fdcan.c ****       hfdcan->ErrorCode |= HAL_FDCAN_ERROR_RAM_ACCESS;
 5274              		.loc 1 3100 13
 5275 0214 7B68     		ldr	r3, [r7, #4]
 5276 0216 1B6E     		ldr	r3, [r3, #96]
 5277              		.loc 1 3100 25
 5278 0218 43F08002 		orr	r2, r3, #128
 5279 021c 7B68     		ldr	r3, [r7, #4]
 5280 021e 1A66     		str	r2, [r3, #96]
 5281              	.L230:
3101:Drivers/STM32G4xx_HAL_Driver/Src/stm32g4xx_hal_fdcan.c ****     }
3102:Drivers/STM32G4xx_HAL_Driver/Src/stm32g4xx_hal_fdcan.c ****   }
3103:Drivers/STM32G4xx_HAL_Driver/Src/stm32g4xx_hal_fdcan.c **** 
3104:Drivers/STM32G4xx_HAL_Driver/Src/stm32g4xx_hal_fdcan.c ****   /* Error Status interrupts management ***************************************/
3105:Drivers/STM32G4xx_HAL_Driver/Src/stm32g4xx_hal_fdcan.c ****   if (ErrorStatusITs != 0U)
 5282              		.loc 1 3105 6
 5283 0220 FB69     		ldr	r3, [r7, #28]
 5284 0222 002B     		cmp	r3, #0
 5285 0224 07D0     		beq	.L231
3106:Drivers/STM32G4xx_HAL_Driver/Src/stm32g4xx_hal_fdcan.c ****   {
3107:Drivers/STM32G4xx_HAL_Driver/Src/stm32g4xx_hal_fdcan.c ****     /* Clear the Error flags */
3108:Drivers/STM32G4xx_HAL_Driver/Src/stm32g4xx_hal_fdcan.c ****     __HAL_FDCAN_CLEAR_FLAG(hfdcan, ErrorStatusITs);
 5286              		.loc 1 3108 5
 5287 0226 7B68     		ldr	r3, [r7, #4]
 5288 0228 1B68     		ldr	r3, [r3]
 5289 022a FA69     		ldr	r2, [r7, #28]
 5290 022c 1A65     		str	r2, [r3, #80]
3109:Drivers/STM32G4xx_HAL_Driver/Src/stm32g4xx_hal_fdcan.c **** 
3110:Drivers/STM32G4xx_HAL_Driver/Src/stm32g4xx_hal_fdcan.c **** #if USE_HAL_FDCAN_REGISTER_CALLBACKS == 1
3111:Drivers/STM32G4xx_HAL_Driver/Src/stm32g4xx_hal_fdcan.c ****     /* Call registered callback*/
3112:Drivers/STM32G4xx_HAL_Driver/Src/stm32g4xx_hal_fdcan.c ****     hfdcan->ErrorStatusCallback(hfdcan, ErrorStatusITs);
3113:Drivers/STM32G4xx_HAL_Driver/Src/stm32g4xx_hal_fdcan.c **** #else
ARM GAS  C:\Users\AURORA~1\AppData\Local\Temp\ccEbooPs.s 			page 148


3114:Drivers/STM32G4xx_HAL_Driver/Src/stm32g4xx_hal_fdcan.c ****     /* Error Status Callback */
3115:Drivers/STM32G4xx_HAL_Driver/Src/stm32g4xx_hal_fdcan.c ****     HAL_FDCAN_ErrorStatusCallback(hfdcan, ErrorStatusITs);
 5291              		.loc 1 3115 5
 5292 022e F969     		ldr	r1, [r7, #28]
 5293 0230 7868     		ldr	r0, [r7, #4]
 5294 0232 FFF7FEFF 		bl	HAL_FDCAN_ErrorStatusCallback
 5295              	.L231:
3116:Drivers/STM32G4xx_HAL_Driver/Src/stm32g4xx_hal_fdcan.c **** #endif /* USE_HAL_FDCAN_REGISTER_CALLBACKS */
3117:Drivers/STM32G4xx_HAL_Driver/Src/stm32g4xx_hal_fdcan.c ****   }
3118:Drivers/STM32G4xx_HAL_Driver/Src/stm32g4xx_hal_fdcan.c **** 
3119:Drivers/STM32G4xx_HAL_Driver/Src/stm32g4xx_hal_fdcan.c ****   /* Error interrupts management **********************************************/
3120:Drivers/STM32G4xx_HAL_Driver/Src/stm32g4xx_hal_fdcan.c ****   if (Errors != 0U)
 5296              		.loc 1 3120 6
 5297 0236 3B6A     		ldr	r3, [r7, #32]
 5298 0238 002B     		cmp	r3, #0
 5299 023a 09D0     		beq	.L232
3121:Drivers/STM32G4xx_HAL_Driver/Src/stm32g4xx_hal_fdcan.c ****   {
3122:Drivers/STM32G4xx_HAL_Driver/Src/stm32g4xx_hal_fdcan.c ****     /* Clear the Error flags */
3123:Drivers/STM32G4xx_HAL_Driver/Src/stm32g4xx_hal_fdcan.c ****     __HAL_FDCAN_CLEAR_FLAG(hfdcan, Errors);
 5300              		.loc 1 3123 5
 5301 023c 7B68     		ldr	r3, [r7, #4]
 5302 023e 1B68     		ldr	r3, [r3]
 5303 0240 3A6A     		ldr	r2, [r7, #32]
 5304 0242 1A65     		str	r2, [r3, #80]
3124:Drivers/STM32G4xx_HAL_Driver/Src/stm32g4xx_hal_fdcan.c **** 
3125:Drivers/STM32G4xx_HAL_Driver/Src/stm32g4xx_hal_fdcan.c ****     /* Update error code */
3126:Drivers/STM32G4xx_HAL_Driver/Src/stm32g4xx_hal_fdcan.c ****     hfdcan->ErrorCode |= Errors;
 5305              		.loc 1 3126 11
 5306 0244 7B68     		ldr	r3, [r7, #4]
 5307 0246 1A6E     		ldr	r2, [r3, #96]
 5308              		.loc 1 3126 23
 5309 0248 3B6A     		ldr	r3, [r7, #32]
 5310 024a 1A43     		orrs	r2, r2, r3
 5311 024c 7B68     		ldr	r3, [r7, #4]
 5312 024e 1A66     		str	r2, [r3, #96]
 5313              	.L232:
3127:Drivers/STM32G4xx_HAL_Driver/Src/stm32g4xx_hal_fdcan.c ****   }
3128:Drivers/STM32G4xx_HAL_Driver/Src/stm32g4xx_hal_fdcan.c **** 
3129:Drivers/STM32G4xx_HAL_Driver/Src/stm32g4xx_hal_fdcan.c ****   if (hfdcan->ErrorCode != HAL_FDCAN_ERROR_NONE)
 5314              		.loc 1 3129 13
 5315 0250 7B68     		ldr	r3, [r7, #4]
 5316 0252 1B6E     		ldr	r3, [r3, #96]
 5317              		.loc 1 3129 6
 5318 0254 002B     		cmp	r3, #0
 5319 0256 02D0     		beq	.L234
3130:Drivers/STM32G4xx_HAL_Driver/Src/stm32g4xx_hal_fdcan.c ****   {
3131:Drivers/STM32G4xx_HAL_Driver/Src/stm32g4xx_hal_fdcan.c **** #if USE_HAL_FDCAN_REGISTER_CALLBACKS == 1
3132:Drivers/STM32G4xx_HAL_Driver/Src/stm32g4xx_hal_fdcan.c ****     /* Call registered callback*/
3133:Drivers/STM32G4xx_HAL_Driver/Src/stm32g4xx_hal_fdcan.c ****     hfdcan->ErrorCallback(hfdcan);
3134:Drivers/STM32G4xx_HAL_Driver/Src/stm32g4xx_hal_fdcan.c **** #else
3135:Drivers/STM32G4xx_HAL_Driver/Src/stm32g4xx_hal_fdcan.c ****     /* Error Callback */
3136:Drivers/STM32G4xx_HAL_Driver/Src/stm32g4xx_hal_fdcan.c ****     HAL_FDCAN_ErrorCallback(hfdcan);
 5320              		.loc 1 3136 5
 5321 0258 7868     		ldr	r0, [r7, #4]
 5322 025a FFF7FEFF 		bl	HAL_FDCAN_ErrorCallback
 5323              	.L234:
3137:Drivers/STM32G4xx_HAL_Driver/Src/stm32g4xx_hal_fdcan.c **** #endif /* USE_HAL_FDCAN_REGISTER_CALLBACKS */
ARM GAS  C:\Users\AURORA~1\AppData\Local\Temp\ccEbooPs.s 			page 149


3138:Drivers/STM32G4xx_HAL_Driver/Src/stm32g4xx_hal_fdcan.c ****   }
3139:Drivers/STM32G4xx_HAL_Driver/Src/stm32g4xx_hal_fdcan.c **** }
 5324              		.loc 1 3139 1
 5325 025e 00BF     		nop
 5326 0260 3037     		adds	r7, r7, #48
 5327              	.LCFI274:
 5328              		.cfi_def_cfa_offset 8
 5329 0262 BD46     		mov	sp, r7
 5330              	.LCFI275:
 5331              		.cfi_def_cfa_register 13
 5332              		@ sp needed
 5333 0264 80BD     		pop	{r7, pc}
 5334              		.cfi_endproc
 5335              	.LFE178:
 5337              		.section	.text.HAL_FDCAN_TxEventFifoCallback,"ax",%progbits
 5338              		.align	1
 5339              		.weak	HAL_FDCAN_TxEventFifoCallback
 5340              		.syntax unified
 5341              		.thumb
 5342              		.thumb_func
 5344              	HAL_FDCAN_TxEventFifoCallback:
 5345              	.LFB179:
3140:Drivers/STM32G4xx_HAL_Driver/Src/stm32g4xx_hal_fdcan.c **** 
3141:Drivers/STM32G4xx_HAL_Driver/Src/stm32g4xx_hal_fdcan.c **** /**
3142:Drivers/STM32G4xx_HAL_Driver/Src/stm32g4xx_hal_fdcan.c ****   * @}
3143:Drivers/STM32G4xx_HAL_Driver/Src/stm32g4xx_hal_fdcan.c ****   */
3144:Drivers/STM32G4xx_HAL_Driver/Src/stm32g4xx_hal_fdcan.c **** 
3145:Drivers/STM32G4xx_HAL_Driver/Src/stm32g4xx_hal_fdcan.c **** /** @defgroup FDCAN_Exported_Functions_Group5 Callback functions
3146:Drivers/STM32G4xx_HAL_Driver/Src/stm32g4xx_hal_fdcan.c ****   *  @brief   FDCAN Callback functions
3147:Drivers/STM32G4xx_HAL_Driver/Src/stm32g4xx_hal_fdcan.c ****   *
3148:Drivers/STM32G4xx_HAL_Driver/Src/stm32g4xx_hal_fdcan.c **** @verbatim
3149:Drivers/STM32G4xx_HAL_Driver/Src/stm32g4xx_hal_fdcan.c ****   ==============================================================================
3150:Drivers/STM32G4xx_HAL_Driver/Src/stm32g4xx_hal_fdcan.c ****                           ##### Callback functions #####
3151:Drivers/STM32G4xx_HAL_Driver/Src/stm32g4xx_hal_fdcan.c ****   ==============================================================================
3152:Drivers/STM32G4xx_HAL_Driver/Src/stm32g4xx_hal_fdcan.c ****     [..]
3153:Drivers/STM32G4xx_HAL_Driver/Src/stm32g4xx_hal_fdcan.c ****     This subsection provides the following callback functions:
3154:Drivers/STM32G4xx_HAL_Driver/Src/stm32g4xx_hal_fdcan.c ****       (+) HAL_FDCAN_TxEventFifoCallback
3155:Drivers/STM32G4xx_HAL_Driver/Src/stm32g4xx_hal_fdcan.c ****       (+) HAL_FDCAN_RxFifo0Callback
3156:Drivers/STM32G4xx_HAL_Driver/Src/stm32g4xx_hal_fdcan.c ****       (+) HAL_FDCAN_RxFifo1Callback
3157:Drivers/STM32G4xx_HAL_Driver/Src/stm32g4xx_hal_fdcan.c ****       (+) HAL_FDCAN_TxFifoEmptyCallback
3158:Drivers/STM32G4xx_HAL_Driver/Src/stm32g4xx_hal_fdcan.c ****       (+) HAL_FDCAN_TxBufferCompleteCallback
3159:Drivers/STM32G4xx_HAL_Driver/Src/stm32g4xx_hal_fdcan.c ****       (+) HAL_FDCAN_TxBufferAbortCallback
3160:Drivers/STM32G4xx_HAL_Driver/Src/stm32g4xx_hal_fdcan.c ****       (+) HAL_FDCAN_HighPriorityMessageCallback
3161:Drivers/STM32G4xx_HAL_Driver/Src/stm32g4xx_hal_fdcan.c ****       (+) HAL_FDCAN_TimestampWraparoundCallback
3162:Drivers/STM32G4xx_HAL_Driver/Src/stm32g4xx_hal_fdcan.c ****       (+) HAL_FDCAN_TimeoutOccurredCallback
3163:Drivers/STM32G4xx_HAL_Driver/Src/stm32g4xx_hal_fdcan.c ****       (+) HAL_FDCAN_ErrorCallback
3164:Drivers/STM32G4xx_HAL_Driver/Src/stm32g4xx_hal_fdcan.c ****       (+) HAL_FDCAN_ErrorStatusCallback
3165:Drivers/STM32G4xx_HAL_Driver/Src/stm32g4xx_hal_fdcan.c **** 
3166:Drivers/STM32G4xx_HAL_Driver/Src/stm32g4xx_hal_fdcan.c **** @endverbatim
3167:Drivers/STM32G4xx_HAL_Driver/Src/stm32g4xx_hal_fdcan.c ****   * @{
3168:Drivers/STM32G4xx_HAL_Driver/Src/stm32g4xx_hal_fdcan.c ****   */
3169:Drivers/STM32G4xx_HAL_Driver/Src/stm32g4xx_hal_fdcan.c **** 
3170:Drivers/STM32G4xx_HAL_Driver/Src/stm32g4xx_hal_fdcan.c **** /**
3171:Drivers/STM32G4xx_HAL_Driver/Src/stm32g4xx_hal_fdcan.c ****   * @brief  Tx Event callback.
3172:Drivers/STM32G4xx_HAL_Driver/Src/stm32g4xx_hal_fdcan.c ****   * @param  hfdcan pointer to an FDCAN_HandleTypeDef structure that contains
3173:Drivers/STM32G4xx_HAL_Driver/Src/stm32g4xx_hal_fdcan.c ****   *         the configuration information for the specified FDCAN.
3174:Drivers/STM32G4xx_HAL_Driver/Src/stm32g4xx_hal_fdcan.c ****   * @param  TxEventFifoITs indicates which Tx Event FIFO interrupts are signaled.
ARM GAS  C:\Users\AURORA~1\AppData\Local\Temp\ccEbooPs.s 			page 150


3175:Drivers/STM32G4xx_HAL_Driver/Src/stm32g4xx_hal_fdcan.c ****   *         This parameter can be any combination of @arg FDCAN_Tx_Event_Fifo_Interrupts.
3176:Drivers/STM32G4xx_HAL_Driver/Src/stm32g4xx_hal_fdcan.c ****   * @retval None
3177:Drivers/STM32G4xx_HAL_Driver/Src/stm32g4xx_hal_fdcan.c ****   */
3178:Drivers/STM32G4xx_HAL_Driver/Src/stm32g4xx_hal_fdcan.c **** __weak void HAL_FDCAN_TxEventFifoCallback(FDCAN_HandleTypeDef *hfdcan, uint32_t TxEventFifoITs)
3179:Drivers/STM32G4xx_HAL_Driver/Src/stm32g4xx_hal_fdcan.c **** {
 5346              		.loc 1 3179 1
 5347              		.cfi_startproc
 5348              		@ args = 0, pretend = 0, frame = 8
 5349              		@ frame_needed = 1, uses_anonymous_args = 0
 5350              		@ link register save eliminated.
 5351 0000 80B4     		push	{r7}
 5352              	.LCFI276:
 5353              		.cfi_def_cfa_offset 4
 5354              		.cfi_offset 7, -4
 5355 0002 83B0     		sub	sp, sp, #12
 5356              	.LCFI277:
 5357              		.cfi_def_cfa_offset 16
 5358 0004 00AF     		add	r7, sp, #0
 5359              	.LCFI278:
 5360              		.cfi_def_cfa_register 7
 5361 0006 7860     		str	r0, [r7, #4]
 5362 0008 3960     		str	r1, [r7]
3180:Drivers/STM32G4xx_HAL_Driver/Src/stm32g4xx_hal_fdcan.c ****   /* Prevent unused argument(s) compilation warning */
3181:Drivers/STM32G4xx_HAL_Driver/Src/stm32g4xx_hal_fdcan.c ****   UNUSED(hfdcan);
3182:Drivers/STM32G4xx_HAL_Driver/Src/stm32g4xx_hal_fdcan.c ****   UNUSED(TxEventFifoITs);
3183:Drivers/STM32G4xx_HAL_Driver/Src/stm32g4xx_hal_fdcan.c **** 
3184:Drivers/STM32G4xx_HAL_Driver/Src/stm32g4xx_hal_fdcan.c ****   /* NOTE: This function Should not be modified, when the callback is needed,
3185:Drivers/STM32G4xx_HAL_Driver/Src/stm32g4xx_hal_fdcan.c ****             the HAL_FDCAN_TxEventFifoCallback could be implemented in the user file
3186:Drivers/STM32G4xx_HAL_Driver/Src/stm32g4xx_hal_fdcan.c ****    */
3187:Drivers/STM32G4xx_HAL_Driver/Src/stm32g4xx_hal_fdcan.c **** }
 5363              		.loc 1 3187 1
 5364 000a 00BF     		nop
 5365 000c 0C37     		adds	r7, r7, #12
 5366              	.LCFI279:
 5367              		.cfi_def_cfa_offset 4
 5368 000e BD46     		mov	sp, r7
 5369              	.LCFI280:
 5370              		.cfi_def_cfa_register 13
 5371              		@ sp needed
 5372 0010 5DF8047B 		ldr	r7, [sp], #4
 5373              	.LCFI281:
 5374              		.cfi_restore 7
 5375              		.cfi_def_cfa_offset 0
 5376 0014 7047     		bx	lr
 5377              		.cfi_endproc
 5378              	.LFE179:
 5380              		.section	.text.HAL_FDCAN_RxFifo0Callback,"ax",%progbits
 5381              		.align	1
 5382              		.weak	HAL_FDCAN_RxFifo0Callback
 5383              		.syntax unified
 5384              		.thumb
 5385              		.thumb_func
 5387              	HAL_FDCAN_RxFifo0Callback:
 5388              	.LFB180:
3188:Drivers/STM32G4xx_HAL_Driver/Src/stm32g4xx_hal_fdcan.c **** 
3189:Drivers/STM32G4xx_HAL_Driver/Src/stm32g4xx_hal_fdcan.c **** /**
3190:Drivers/STM32G4xx_HAL_Driver/Src/stm32g4xx_hal_fdcan.c ****   * @brief  Rx FIFO 0 callback.
ARM GAS  C:\Users\AURORA~1\AppData\Local\Temp\ccEbooPs.s 			page 151


3191:Drivers/STM32G4xx_HAL_Driver/Src/stm32g4xx_hal_fdcan.c ****   * @param  hfdcan pointer to an FDCAN_HandleTypeDef structure that contains
3192:Drivers/STM32G4xx_HAL_Driver/Src/stm32g4xx_hal_fdcan.c ****   *         the configuration information for the specified FDCAN.
3193:Drivers/STM32G4xx_HAL_Driver/Src/stm32g4xx_hal_fdcan.c ****   * @param  RxFifo0ITs indicates which Rx FIFO 0 interrupts are signaled.
3194:Drivers/STM32G4xx_HAL_Driver/Src/stm32g4xx_hal_fdcan.c ****   *         This parameter can be any combination of @arg FDCAN_Rx_Fifo0_Interrupts.
3195:Drivers/STM32G4xx_HAL_Driver/Src/stm32g4xx_hal_fdcan.c ****   * @retval None
3196:Drivers/STM32G4xx_HAL_Driver/Src/stm32g4xx_hal_fdcan.c ****   */
3197:Drivers/STM32G4xx_HAL_Driver/Src/stm32g4xx_hal_fdcan.c **** __weak void HAL_FDCAN_RxFifo0Callback(FDCAN_HandleTypeDef *hfdcan, uint32_t RxFifo0ITs)
3198:Drivers/STM32G4xx_HAL_Driver/Src/stm32g4xx_hal_fdcan.c **** {
 5389              		.loc 1 3198 1
 5390              		.cfi_startproc
 5391              		@ args = 0, pretend = 0, frame = 8
 5392              		@ frame_needed = 1, uses_anonymous_args = 0
 5393              		@ link register save eliminated.
 5394 0000 80B4     		push	{r7}
 5395              	.LCFI282:
 5396              		.cfi_def_cfa_offset 4
 5397              		.cfi_offset 7, -4
 5398 0002 83B0     		sub	sp, sp, #12
 5399              	.LCFI283:
 5400              		.cfi_def_cfa_offset 16
 5401 0004 00AF     		add	r7, sp, #0
 5402              	.LCFI284:
 5403              		.cfi_def_cfa_register 7
 5404 0006 7860     		str	r0, [r7, #4]
 5405 0008 3960     		str	r1, [r7]
3199:Drivers/STM32G4xx_HAL_Driver/Src/stm32g4xx_hal_fdcan.c ****   /* Prevent unused argument(s) compilation warning */
3200:Drivers/STM32G4xx_HAL_Driver/Src/stm32g4xx_hal_fdcan.c ****   UNUSED(hfdcan);
3201:Drivers/STM32G4xx_HAL_Driver/Src/stm32g4xx_hal_fdcan.c ****   UNUSED(RxFifo0ITs);
3202:Drivers/STM32G4xx_HAL_Driver/Src/stm32g4xx_hal_fdcan.c **** 
3203:Drivers/STM32G4xx_HAL_Driver/Src/stm32g4xx_hal_fdcan.c ****   /* NOTE: This function Should not be modified, when the callback is needed,
3204:Drivers/STM32G4xx_HAL_Driver/Src/stm32g4xx_hal_fdcan.c ****             the HAL_FDCAN_RxFifo0Callback could be implemented in the user file
3205:Drivers/STM32G4xx_HAL_Driver/Src/stm32g4xx_hal_fdcan.c ****    */
3206:Drivers/STM32G4xx_HAL_Driver/Src/stm32g4xx_hal_fdcan.c **** }
 5406              		.loc 1 3206 1
 5407 000a 00BF     		nop
 5408 000c 0C37     		adds	r7, r7, #12
 5409              	.LCFI285:
 5410              		.cfi_def_cfa_offset 4
 5411 000e BD46     		mov	sp, r7
 5412              	.LCFI286:
 5413              		.cfi_def_cfa_register 13
 5414              		@ sp needed
 5415 0010 5DF8047B 		ldr	r7, [sp], #4
 5416              	.LCFI287:
 5417              		.cfi_restore 7
 5418              		.cfi_def_cfa_offset 0
 5419 0014 7047     		bx	lr
 5420              		.cfi_endproc
 5421              	.LFE180:
 5423              		.section	.text.HAL_FDCAN_RxFifo1Callback,"ax",%progbits
 5424              		.align	1
 5425              		.weak	HAL_FDCAN_RxFifo1Callback
 5426              		.syntax unified
 5427              		.thumb
 5428              		.thumb_func
 5430              	HAL_FDCAN_RxFifo1Callback:
 5431              	.LFB181:
ARM GAS  C:\Users\AURORA~1\AppData\Local\Temp\ccEbooPs.s 			page 152


3207:Drivers/STM32G4xx_HAL_Driver/Src/stm32g4xx_hal_fdcan.c **** 
3208:Drivers/STM32G4xx_HAL_Driver/Src/stm32g4xx_hal_fdcan.c **** /**
3209:Drivers/STM32G4xx_HAL_Driver/Src/stm32g4xx_hal_fdcan.c ****   * @brief  Rx FIFO 1 callback.
3210:Drivers/STM32G4xx_HAL_Driver/Src/stm32g4xx_hal_fdcan.c ****   * @param  hfdcan pointer to an FDCAN_HandleTypeDef structure that contains
3211:Drivers/STM32G4xx_HAL_Driver/Src/stm32g4xx_hal_fdcan.c ****   *         the configuration information for the specified FDCAN.
3212:Drivers/STM32G4xx_HAL_Driver/Src/stm32g4xx_hal_fdcan.c ****   * @param  RxFifo1ITs indicates which Rx FIFO 1 interrupts are signaled.
3213:Drivers/STM32G4xx_HAL_Driver/Src/stm32g4xx_hal_fdcan.c ****   *         This parameter can be any combination of @arg FDCAN_Rx_Fifo1_Interrupts.
3214:Drivers/STM32G4xx_HAL_Driver/Src/stm32g4xx_hal_fdcan.c ****   * @retval None
3215:Drivers/STM32G4xx_HAL_Driver/Src/stm32g4xx_hal_fdcan.c ****   */
3216:Drivers/STM32G4xx_HAL_Driver/Src/stm32g4xx_hal_fdcan.c **** __weak void HAL_FDCAN_RxFifo1Callback(FDCAN_HandleTypeDef *hfdcan, uint32_t RxFifo1ITs)
3217:Drivers/STM32G4xx_HAL_Driver/Src/stm32g4xx_hal_fdcan.c **** {
 5432              		.loc 1 3217 1
 5433              		.cfi_startproc
 5434              		@ args = 0, pretend = 0, frame = 8
 5435              		@ frame_needed = 1, uses_anonymous_args = 0
 5436              		@ link register save eliminated.
 5437 0000 80B4     		push	{r7}
 5438              	.LCFI288:
 5439              		.cfi_def_cfa_offset 4
 5440              		.cfi_offset 7, -4
 5441 0002 83B0     		sub	sp, sp, #12
 5442              	.LCFI289:
 5443              		.cfi_def_cfa_offset 16
 5444 0004 00AF     		add	r7, sp, #0
 5445              	.LCFI290:
 5446              		.cfi_def_cfa_register 7
 5447 0006 7860     		str	r0, [r7, #4]
 5448 0008 3960     		str	r1, [r7]
3218:Drivers/STM32G4xx_HAL_Driver/Src/stm32g4xx_hal_fdcan.c ****   /* Prevent unused argument(s) compilation warning */
3219:Drivers/STM32G4xx_HAL_Driver/Src/stm32g4xx_hal_fdcan.c ****   UNUSED(hfdcan);
3220:Drivers/STM32G4xx_HAL_Driver/Src/stm32g4xx_hal_fdcan.c ****   UNUSED(RxFifo1ITs);
3221:Drivers/STM32G4xx_HAL_Driver/Src/stm32g4xx_hal_fdcan.c **** 
3222:Drivers/STM32G4xx_HAL_Driver/Src/stm32g4xx_hal_fdcan.c ****   /* NOTE: This function Should not be modified, when the callback is needed,
3223:Drivers/STM32G4xx_HAL_Driver/Src/stm32g4xx_hal_fdcan.c ****             the HAL_FDCAN_RxFifo1Callback could be implemented in the user file
3224:Drivers/STM32G4xx_HAL_Driver/Src/stm32g4xx_hal_fdcan.c ****    */
3225:Drivers/STM32G4xx_HAL_Driver/Src/stm32g4xx_hal_fdcan.c **** }
 5449              		.loc 1 3225 1
 5450 000a 00BF     		nop
 5451 000c 0C37     		adds	r7, r7, #12
 5452              	.LCFI291:
 5453              		.cfi_def_cfa_offset 4
 5454 000e BD46     		mov	sp, r7
 5455              	.LCFI292:
 5456              		.cfi_def_cfa_register 13
 5457              		@ sp needed
 5458 0010 5DF8047B 		ldr	r7, [sp], #4
 5459              	.LCFI293:
 5460              		.cfi_restore 7
 5461              		.cfi_def_cfa_offset 0
 5462 0014 7047     		bx	lr
 5463              		.cfi_endproc
 5464              	.LFE181:
 5466              		.section	.text.HAL_FDCAN_TxFifoEmptyCallback,"ax",%progbits
 5467              		.align	1
 5468              		.weak	HAL_FDCAN_TxFifoEmptyCallback
 5469              		.syntax unified
 5470              		.thumb
ARM GAS  C:\Users\AURORA~1\AppData\Local\Temp\ccEbooPs.s 			page 153


 5471              		.thumb_func
 5473              	HAL_FDCAN_TxFifoEmptyCallback:
 5474              	.LFB182:
3226:Drivers/STM32G4xx_HAL_Driver/Src/stm32g4xx_hal_fdcan.c **** 
3227:Drivers/STM32G4xx_HAL_Driver/Src/stm32g4xx_hal_fdcan.c **** /**
3228:Drivers/STM32G4xx_HAL_Driver/Src/stm32g4xx_hal_fdcan.c ****   * @brief  Tx FIFO Empty callback.
3229:Drivers/STM32G4xx_HAL_Driver/Src/stm32g4xx_hal_fdcan.c ****   * @param  hfdcan pointer to an FDCAN_HandleTypeDef structure that contains
3230:Drivers/STM32G4xx_HAL_Driver/Src/stm32g4xx_hal_fdcan.c ****   *         the configuration information for the specified FDCAN.
3231:Drivers/STM32G4xx_HAL_Driver/Src/stm32g4xx_hal_fdcan.c ****   * @retval None
3232:Drivers/STM32G4xx_HAL_Driver/Src/stm32g4xx_hal_fdcan.c ****   */
3233:Drivers/STM32G4xx_HAL_Driver/Src/stm32g4xx_hal_fdcan.c **** __weak void HAL_FDCAN_TxFifoEmptyCallback(FDCAN_HandleTypeDef *hfdcan)
3234:Drivers/STM32G4xx_HAL_Driver/Src/stm32g4xx_hal_fdcan.c **** {
 5475              		.loc 1 3234 1
 5476              		.cfi_startproc
 5477              		@ args = 0, pretend = 0, frame = 8
 5478              		@ frame_needed = 1, uses_anonymous_args = 0
 5479              		@ link register save eliminated.
 5480 0000 80B4     		push	{r7}
 5481              	.LCFI294:
 5482              		.cfi_def_cfa_offset 4
 5483              		.cfi_offset 7, -4
 5484 0002 83B0     		sub	sp, sp, #12
 5485              	.LCFI295:
 5486              		.cfi_def_cfa_offset 16
 5487 0004 00AF     		add	r7, sp, #0
 5488              	.LCFI296:
 5489              		.cfi_def_cfa_register 7
 5490 0006 7860     		str	r0, [r7, #4]
3235:Drivers/STM32G4xx_HAL_Driver/Src/stm32g4xx_hal_fdcan.c ****   /* Prevent unused argument(s) compilation warning */
3236:Drivers/STM32G4xx_HAL_Driver/Src/stm32g4xx_hal_fdcan.c ****   UNUSED(hfdcan);
3237:Drivers/STM32G4xx_HAL_Driver/Src/stm32g4xx_hal_fdcan.c **** 
3238:Drivers/STM32G4xx_HAL_Driver/Src/stm32g4xx_hal_fdcan.c ****   /* NOTE: This function Should not be modified, when the callback is needed,
3239:Drivers/STM32G4xx_HAL_Driver/Src/stm32g4xx_hal_fdcan.c ****             the HAL_FDCAN_TxFifoEmptyCallback could be implemented in the user file
3240:Drivers/STM32G4xx_HAL_Driver/Src/stm32g4xx_hal_fdcan.c ****    */
3241:Drivers/STM32G4xx_HAL_Driver/Src/stm32g4xx_hal_fdcan.c **** }
 5491              		.loc 1 3241 1
 5492 0008 00BF     		nop
 5493 000a 0C37     		adds	r7, r7, #12
 5494              	.LCFI297:
 5495              		.cfi_def_cfa_offset 4
 5496 000c BD46     		mov	sp, r7
 5497              	.LCFI298:
 5498              		.cfi_def_cfa_register 13
 5499              		@ sp needed
 5500 000e 5DF8047B 		ldr	r7, [sp], #4
 5501              	.LCFI299:
 5502              		.cfi_restore 7
 5503              		.cfi_def_cfa_offset 0
 5504 0012 7047     		bx	lr
 5505              		.cfi_endproc
 5506              	.LFE182:
 5508              		.section	.text.HAL_FDCAN_TxBufferCompleteCallback,"ax",%progbits
 5509              		.align	1
 5510              		.weak	HAL_FDCAN_TxBufferCompleteCallback
 5511              		.syntax unified
 5512              		.thumb
 5513              		.thumb_func
ARM GAS  C:\Users\AURORA~1\AppData\Local\Temp\ccEbooPs.s 			page 154


 5515              	HAL_FDCAN_TxBufferCompleteCallback:
 5516              	.LFB183:
3242:Drivers/STM32G4xx_HAL_Driver/Src/stm32g4xx_hal_fdcan.c **** 
3243:Drivers/STM32G4xx_HAL_Driver/Src/stm32g4xx_hal_fdcan.c **** /**
3244:Drivers/STM32G4xx_HAL_Driver/Src/stm32g4xx_hal_fdcan.c ****   * @brief  Transmission Complete callback.
3245:Drivers/STM32G4xx_HAL_Driver/Src/stm32g4xx_hal_fdcan.c ****   * @param  hfdcan pointer to an FDCAN_HandleTypeDef structure that contains
3246:Drivers/STM32G4xx_HAL_Driver/Src/stm32g4xx_hal_fdcan.c ****   *         the configuration information for the specified FDCAN.
3247:Drivers/STM32G4xx_HAL_Driver/Src/stm32g4xx_hal_fdcan.c ****   * @param  BufferIndexes Indexes of the transmitted buffers.
3248:Drivers/STM32G4xx_HAL_Driver/Src/stm32g4xx_hal_fdcan.c ****   *         This parameter can be any combination of @arg FDCAN_Tx_location.
3249:Drivers/STM32G4xx_HAL_Driver/Src/stm32g4xx_hal_fdcan.c ****   * @retval None
3250:Drivers/STM32G4xx_HAL_Driver/Src/stm32g4xx_hal_fdcan.c ****   */
3251:Drivers/STM32G4xx_HAL_Driver/Src/stm32g4xx_hal_fdcan.c **** __weak void HAL_FDCAN_TxBufferCompleteCallback(FDCAN_HandleTypeDef *hfdcan, uint32_t BufferIndexes)
3252:Drivers/STM32G4xx_HAL_Driver/Src/stm32g4xx_hal_fdcan.c **** {
 5517              		.loc 1 3252 1
 5518              		.cfi_startproc
 5519              		@ args = 0, pretend = 0, frame = 8
 5520              		@ frame_needed = 1, uses_anonymous_args = 0
 5521              		@ link register save eliminated.
 5522 0000 80B4     		push	{r7}
 5523              	.LCFI300:
 5524              		.cfi_def_cfa_offset 4
 5525              		.cfi_offset 7, -4
 5526 0002 83B0     		sub	sp, sp, #12
 5527              	.LCFI301:
 5528              		.cfi_def_cfa_offset 16
 5529 0004 00AF     		add	r7, sp, #0
 5530              	.LCFI302:
 5531              		.cfi_def_cfa_register 7
 5532 0006 7860     		str	r0, [r7, #4]
 5533 0008 3960     		str	r1, [r7]
3253:Drivers/STM32G4xx_HAL_Driver/Src/stm32g4xx_hal_fdcan.c ****   /* Prevent unused argument(s) compilation warning */
3254:Drivers/STM32G4xx_HAL_Driver/Src/stm32g4xx_hal_fdcan.c ****   UNUSED(hfdcan);
3255:Drivers/STM32G4xx_HAL_Driver/Src/stm32g4xx_hal_fdcan.c ****   UNUSED(BufferIndexes);
3256:Drivers/STM32G4xx_HAL_Driver/Src/stm32g4xx_hal_fdcan.c **** 
3257:Drivers/STM32G4xx_HAL_Driver/Src/stm32g4xx_hal_fdcan.c ****   /* NOTE: This function Should not be modified, when the callback is needed,
3258:Drivers/STM32G4xx_HAL_Driver/Src/stm32g4xx_hal_fdcan.c ****             the HAL_FDCAN_TxBufferCompleteCallback could be implemented in the user file
3259:Drivers/STM32G4xx_HAL_Driver/Src/stm32g4xx_hal_fdcan.c ****    */
3260:Drivers/STM32G4xx_HAL_Driver/Src/stm32g4xx_hal_fdcan.c **** }
 5534              		.loc 1 3260 1
 5535 000a 00BF     		nop
 5536 000c 0C37     		adds	r7, r7, #12
 5537              	.LCFI303:
 5538              		.cfi_def_cfa_offset 4
 5539 000e BD46     		mov	sp, r7
 5540              	.LCFI304:
 5541              		.cfi_def_cfa_register 13
 5542              		@ sp needed
 5543 0010 5DF8047B 		ldr	r7, [sp], #4
 5544              	.LCFI305:
 5545              		.cfi_restore 7
 5546              		.cfi_def_cfa_offset 0
 5547 0014 7047     		bx	lr
 5548              		.cfi_endproc
 5549              	.LFE183:
 5551              		.section	.text.HAL_FDCAN_TxBufferAbortCallback,"ax",%progbits
 5552              		.align	1
 5553              		.weak	HAL_FDCAN_TxBufferAbortCallback
ARM GAS  C:\Users\AURORA~1\AppData\Local\Temp\ccEbooPs.s 			page 155


 5554              		.syntax unified
 5555              		.thumb
 5556              		.thumb_func
 5558              	HAL_FDCAN_TxBufferAbortCallback:
 5559              	.LFB184:
3261:Drivers/STM32G4xx_HAL_Driver/Src/stm32g4xx_hal_fdcan.c **** 
3262:Drivers/STM32G4xx_HAL_Driver/Src/stm32g4xx_hal_fdcan.c **** /**
3263:Drivers/STM32G4xx_HAL_Driver/Src/stm32g4xx_hal_fdcan.c ****   * @brief  Transmission Cancellation callback.
3264:Drivers/STM32G4xx_HAL_Driver/Src/stm32g4xx_hal_fdcan.c ****   * @param  hfdcan pointer to an FDCAN_HandleTypeDef structure that contains
3265:Drivers/STM32G4xx_HAL_Driver/Src/stm32g4xx_hal_fdcan.c ****   *         the configuration information for the specified FDCAN.
3266:Drivers/STM32G4xx_HAL_Driver/Src/stm32g4xx_hal_fdcan.c ****   * @param  BufferIndexes Indexes of the aborted buffers.
3267:Drivers/STM32G4xx_HAL_Driver/Src/stm32g4xx_hal_fdcan.c ****   *         This parameter can be any combination of @arg FDCAN_Tx_location.
3268:Drivers/STM32G4xx_HAL_Driver/Src/stm32g4xx_hal_fdcan.c ****   * @retval None
3269:Drivers/STM32G4xx_HAL_Driver/Src/stm32g4xx_hal_fdcan.c ****   */
3270:Drivers/STM32G4xx_HAL_Driver/Src/stm32g4xx_hal_fdcan.c **** __weak void HAL_FDCAN_TxBufferAbortCallback(FDCAN_HandleTypeDef *hfdcan, uint32_t BufferIndexes)
3271:Drivers/STM32G4xx_HAL_Driver/Src/stm32g4xx_hal_fdcan.c **** {
 5560              		.loc 1 3271 1
 5561              		.cfi_startproc
 5562              		@ args = 0, pretend = 0, frame = 8
 5563              		@ frame_needed = 1, uses_anonymous_args = 0
 5564              		@ link register save eliminated.
 5565 0000 80B4     		push	{r7}
 5566              	.LCFI306:
 5567              		.cfi_def_cfa_offset 4
 5568              		.cfi_offset 7, -4
 5569 0002 83B0     		sub	sp, sp, #12
 5570              	.LCFI307:
 5571              		.cfi_def_cfa_offset 16
 5572 0004 00AF     		add	r7, sp, #0
 5573              	.LCFI308:
 5574              		.cfi_def_cfa_register 7
 5575 0006 7860     		str	r0, [r7, #4]
 5576 0008 3960     		str	r1, [r7]
3272:Drivers/STM32G4xx_HAL_Driver/Src/stm32g4xx_hal_fdcan.c ****   /* Prevent unused argument(s) compilation warning */
3273:Drivers/STM32G4xx_HAL_Driver/Src/stm32g4xx_hal_fdcan.c ****   UNUSED(hfdcan);
3274:Drivers/STM32G4xx_HAL_Driver/Src/stm32g4xx_hal_fdcan.c ****   UNUSED(BufferIndexes);
3275:Drivers/STM32G4xx_HAL_Driver/Src/stm32g4xx_hal_fdcan.c **** 
3276:Drivers/STM32G4xx_HAL_Driver/Src/stm32g4xx_hal_fdcan.c ****   /* NOTE: This function Should not be modified, when the callback is needed,
3277:Drivers/STM32G4xx_HAL_Driver/Src/stm32g4xx_hal_fdcan.c ****             the HAL_FDCAN_TxBufferAbortCallback could be implemented in the user file
3278:Drivers/STM32G4xx_HAL_Driver/Src/stm32g4xx_hal_fdcan.c ****    */
3279:Drivers/STM32G4xx_HAL_Driver/Src/stm32g4xx_hal_fdcan.c **** }
 5577              		.loc 1 3279 1
 5578 000a 00BF     		nop
 5579 000c 0C37     		adds	r7, r7, #12
 5580              	.LCFI309:
 5581              		.cfi_def_cfa_offset 4
 5582 000e BD46     		mov	sp, r7
 5583              	.LCFI310:
 5584              		.cfi_def_cfa_register 13
 5585              		@ sp needed
 5586 0010 5DF8047B 		ldr	r7, [sp], #4
 5587              	.LCFI311:
 5588              		.cfi_restore 7
 5589              		.cfi_def_cfa_offset 0
 5590 0014 7047     		bx	lr
 5591              		.cfi_endproc
 5592              	.LFE184:
ARM GAS  C:\Users\AURORA~1\AppData\Local\Temp\ccEbooPs.s 			page 156


 5594              		.section	.text.HAL_FDCAN_TimestampWraparoundCallback,"ax",%progbits
 5595              		.align	1
 5596              		.weak	HAL_FDCAN_TimestampWraparoundCallback
 5597              		.syntax unified
 5598              		.thumb
 5599              		.thumb_func
 5601              	HAL_FDCAN_TimestampWraparoundCallback:
 5602              	.LFB185:
3280:Drivers/STM32G4xx_HAL_Driver/Src/stm32g4xx_hal_fdcan.c **** 
3281:Drivers/STM32G4xx_HAL_Driver/Src/stm32g4xx_hal_fdcan.c **** /**
3282:Drivers/STM32G4xx_HAL_Driver/Src/stm32g4xx_hal_fdcan.c ****   * @brief  Timestamp Wraparound callback.
3283:Drivers/STM32G4xx_HAL_Driver/Src/stm32g4xx_hal_fdcan.c ****   * @param  hfdcan pointer to an FDCAN_HandleTypeDef structure that contains
3284:Drivers/STM32G4xx_HAL_Driver/Src/stm32g4xx_hal_fdcan.c ****   *         the configuration information for the specified FDCAN.
3285:Drivers/STM32G4xx_HAL_Driver/Src/stm32g4xx_hal_fdcan.c ****   * @retval None
3286:Drivers/STM32G4xx_HAL_Driver/Src/stm32g4xx_hal_fdcan.c ****   */
3287:Drivers/STM32G4xx_HAL_Driver/Src/stm32g4xx_hal_fdcan.c **** __weak void HAL_FDCAN_TimestampWraparoundCallback(FDCAN_HandleTypeDef *hfdcan)
3288:Drivers/STM32G4xx_HAL_Driver/Src/stm32g4xx_hal_fdcan.c **** {
 5603              		.loc 1 3288 1
 5604              		.cfi_startproc
 5605              		@ args = 0, pretend = 0, frame = 8
 5606              		@ frame_needed = 1, uses_anonymous_args = 0
 5607              		@ link register save eliminated.
 5608 0000 80B4     		push	{r7}
 5609              	.LCFI312:
 5610              		.cfi_def_cfa_offset 4
 5611              		.cfi_offset 7, -4
 5612 0002 83B0     		sub	sp, sp, #12
 5613              	.LCFI313:
 5614              		.cfi_def_cfa_offset 16
 5615 0004 00AF     		add	r7, sp, #0
 5616              	.LCFI314:
 5617              		.cfi_def_cfa_register 7
 5618 0006 7860     		str	r0, [r7, #4]
3289:Drivers/STM32G4xx_HAL_Driver/Src/stm32g4xx_hal_fdcan.c ****   /* Prevent unused argument(s) compilation warning */
3290:Drivers/STM32G4xx_HAL_Driver/Src/stm32g4xx_hal_fdcan.c ****   UNUSED(hfdcan);
3291:Drivers/STM32G4xx_HAL_Driver/Src/stm32g4xx_hal_fdcan.c **** 
3292:Drivers/STM32G4xx_HAL_Driver/Src/stm32g4xx_hal_fdcan.c ****   /* NOTE: This function Should not be modified, when the callback is needed,
3293:Drivers/STM32G4xx_HAL_Driver/Src/stm32g4xx_hal_fdcan.c ****             the HAL_FDCAN_TimestampWraparoundCallback could be implemented in the user file
3294:Drivers/STM32G4xx_HAL_Driver/Src/stm32g4xx_hal_fdcan.c ****    */
3295:Drivers/STM32G4xx_HAL_Driver/Src/stm32g4xx_hal_fdcan.c **** }
 5619              		.loc 1 3295 1
 5620 0008 00BF     		nop
 5621 000a 0C37     		adds	r7, r7, #12
 5622              	.LCFI315:
 5623              		.cfi_def_cfa_offset 4
 5624 000c BD46     		mov	sp, r7
 5625              	.LCFI316:
 5626              		.cfi_def_cfa_register 13
 5627              		@ sp needed
 5628 000e 5DF8047B 		ldr	r7, [sp], #4
 5629              	.LCFI317:
 5630              		.cfi_restore 7
 5631              		.cfi_def_cfa_offset 0
 5632 0012 7047     		bx	lr
 5633              		.cfi_endproc
 5634              	.LFE185:
 5636              		.section	.text.HAL_FDCAN_TimeoutOccurredCallback,"ax",%progbits
ARM GAS  C:\Users\AURORA~1\AppData\Local\Temp\ccEbooPs.s 			page 157


 5637              		.align	1
 5638              		.weak	HAL_FDCAN_TimeoutOccurredCallback
 5639              		.syntax unified
 5640              		.thumb
 5641              		.thumb_func
 5643              	HAL_FDCAN_TimeoutOccurredCallback:
 5644              	.LFB186:
3296:Drivers/STM32G4xx_HAL_Driver/Src/stm32g4xx_hal_fdcan.c **** 
3297:Drivers/STM32G4xx_HAL_Driver/Src/stm32g4xx_hal_fdcan.c **** /**
3298:Drivers/STM32G4xx_HAL_Driver/Src/stm32g4xx_hal_fdcan.c ****   * @brief  Timeout Occurred callback.
3299:Drivers/STM32G4xx_HAL_Driver/Src/stm32g4xx_hal_fdcan.c ****   * @param  hfdcan pointer to an FDCAN_HandleTypeDef structure that contains
3300:Drivers/STM32G4xx_HAL_Driver/Src/stm32g4xx_hal_fdcan.c ****   *         the configuration information for the specified FDCAN.
3301:Drivers/STM32G4xx_HAL_Driver/Src/stm32g4xx_hal_fdcan.c ****   * @retval None
3302:Drivers/STM32G4xx_HAL_Driver/Src/stm32g4xx_hal_fdcan.c ****   */
3303:Drivers/STM32G4xx_HAL_Driver/Src/stm32g4xx_hal_fdcan.c **** __weak void HAL_FDCAN_TimeoutOccurredCallback(FDCAN_HandleTypeDef *hfdcan)
3304:Drivers/STM32G4xx_HAL_Driver/Src/stm32g4xx_hal_fdcan.c **** {
 5645              		.loc 1 3304 1
 5646              		.cfi_startproc
 5647              		@ args = 0, pretend = 0, frame = 8
 5648              		@ frame_needed = 1, uses_anonymous_args = 0
 5649              		@ link register save eliminated.
 5650 0000 80B4     		push	{r7}
 5651              	.LCFI318:
 5652              		.cfi_def_cfa_offset 4
 5653              		.cfi_offset 7, -4
 5654 0002 83B0     		sub	sp, sp, #12
 5655              	.LCFI319:
 5656              		.cfi_def_cfa_offset 16
 5657 0004 00AF     		add	r7, sp, #0
 5658              	.LCFI320:
 5659              		.cfi_def_cfa_register 7
 5660 0006 7860     		str	r0, [r7, #4]
3305:Drivers/STM32G4xx_HAL_Driver/Src/stm32g4xx_hal_fdcan.c ****   /* Prevent unused argument(s) compilation warning */
3306:Drivers/STM32G4xx_HAL_Driver/Src/stm32g4xx_hal_fdcan.c ****   UNUSED(hfdcan);
3307:Drivers/STM32G4xx_HAL_Driver/Src/stm32g4xx_hal_fdcan.c **** 
3308:Drivers/STM32G4xx_HAL_Driver/Src/stm32g4xx_hal_fdcan.c ****   /* NOTE: This function Should not be modified, when the callback is needed,
3309:Drivers/STM32G4xx_HAL_Driver/Src/stm32g4xx_hal_fdcan.c ****             the HAL_FDCAN_TimeoutOccurredCallback could be implemented in the user file
3310:Drivers/STM32G4xx_HAL_Driver/Src/stm32g4xx_hal_fdcan.c ****    */
3311:Drivers/STM32G4xx_HAL_Driver/Src/stm32g4xx_hal_fdcan.c **** }
 5661              		.loc 1 3311 1
 5662 0008 00BF     		nop
 5663 000a 0C37     		adds	r7, r7, #12
 5664              	.LCFI321:
 5665              		.cfi_def_cfa_offset 4
 5666 000c BD46     		mov	sp, r7
 5667              	.LCFI322:
 5668              		.cfi_def_cfa_register 13
 5669              		@ sp needed
 5670 000e 5DF8047B 		ldr	r7, [sp], #4
 5671              	.LCFI323:
 5672              		.cfi_restore 7
 5673              		.cfi_def_cfa_offset 0
 5674 0012 7047     		bx	lr
 5675              		.cfi_endproc
 5676              	.LFE186:
 5678              		.section	.text.HAL_FDCAN_HighPriorityMessageCallback,"ax",%progbits
 5679              		.align	1
ARM GAS  C:\Users\AURORA~1\AppData\Local\Temp\ccEbooPs.s 			page 158


 5680              		.weak	HAL_FDCAN_HighPriorityMessageCallback
 5681              		.syntax unified
 5682              		.thumb
 5683              		.thumb_func
 5685              	HAL_FDCAN_HighPriorityMessageCallback:
 5686              	.LFB187:
3312:Drivers/STM32G4xx_HAL_Driver/Src/stm32g4xx_hal_fdcan.c **** 
3313:Drivers/STM32G4xx_HAL_Driver/Src/stm32g4xx_hal_fdcan.c **** /**
3314:Drivers/STM32G4xx_HAL_Driver/Src/stm32g4xx_hal_fdcan.c ****   * @brief  High Priority Message callback.
3315:Drivers/STM32G4xx_HAL_Driver/Src/stm32g4xx_hal_fdcan.c ****   * @param  hfdcan pointer to an FDCAN_HandleTypeDef structure that contains
3316:Drivers/STM32G4xx_HAL_Driver/Src/stm32g4xx_hal_fdcan.c ****   *         the configuration information for the specified FDCAN.
3317:Drivers/STM32G4xx_HAL_Driver/Src/stm32g4xx_hal_fdcan.c ****   * @retval None
3318:Drivers/STM32G4xx_HAL_Driver/Src/stm32g4xx_hal_fdcan.c ****   */
3319:Drivers/STM32G4xx_HAL_Driver/Src/stm32g4xx_hal_fdcan.c **** __weak void HAL_FDCAN_HighPriorityMessageCallback(FDCAN_HandleTypeDef *hfdcan)
3320:Drivers/STM32G4xx_HAL_Driver/Src/stm32g4xx_hal_fdcan.c **** {
 5687              		.loc 1 3320 1
 5688              		.cfi_startproc
 5689              		@ args = 0, pretend = 0, frame = 8
 5690              		@ frame_needed = 1, uses_anonymous_args = 0
 5691              		@ link register save eliminated.
 5692 0000 80B4     		push	{r7}
 5693              	.LCFI324:
 5694              		.cfi_def_cfa_offset 4
 5695              		.cfi_offset 7, -4
 5696 0002 83B0     		sub	sp, sp, #12
 5697              	.LCFI325:
 5698              		.cfi_def_cfa_offset 16
 5699 0004 00AF     		add	r7, sp, #0
 5700              	.LCFI326:
 5701              		.cfi_def_cfa_register 7
 5702 0006 7860     		str	r0, [r7, #4]
3321:Drivers/STM32G4xx_HAL_Driver/Src/stm32g4xx_hal_fdcan.c ****   /* Prevent unused argument(s) compilation warning */
3322:Drivers/STM32G4xx_HAL_Driver/Src/stm32g4xx_hal_fdcan.c ****   UNUSED(hfdcan);
3323:Drivers/STM32G4xx_HAL_Driver/Src/stm32g4xx_hal_fdcan.c **** 
3324:Drivers/STM32G4xx_HAL_Driver/Src/stm32g4xx_hal_fdcan.c ****   /* NOTE: This function Should not be modified, when the callback is needed,
3325:Drivers/STM32G4xx_HAL_Driver/Src/stm32g4xx_hal_fdcan.c ****             the HAL_FDCAN_HighPriorityMessageCallback could be implemented in the user file
3326:Drivers/STM32G4xx_HAL_Driver/Src/stm32g4xx_hal_fdcan.c ****    */
3327:Drivers/STM32G4xx_HAL_Driver/Src/stm32g4xx_hal_fdcan.c **** }
 5703              		.loc 1 3327 1
 5704 0008 00BF     		nop
 5705 000a 0C37     		adds	r7, r7, #12
 5706              	.LCFI327:
 5707              		.cfi_def_cfa_offset 4
 5708 000c BD46     		mov	sp, r7
 5709              	.LCFI328:
 5710              		.cfi_def_cfa_register 13
 5711              		@ sp needed
 5712 000e 5DF8047B 		ldr	r7, [sp], #4
 5713              	.LCFI329:
 5714              		.cfi_restore 7
 5715              		.cfi_def_cfa_offset 0
 5716 0012 7047     		bx	lr
 5717              		.cfi_endproc
 5718              	.LFE187:
 5720              		.section	.text.HAL_FDCAN_ErrorCallback,"ax",%progbits
 5721              		.align	1
 5722              		.weak	HAL_FDCAN_ErrorCallback
ARM GAS  C:\Users\AURORA~1\AppData\Local\Temp\ccEbooPs.s 			page 159


 5723              		.syntax unified
 5724              		.thumb
 5725              		.thumb_func
 5727              	HAL_FDCAN_ErrorCallback:
 5728              	.LFB188:
3328:Drivers/STM32G4xx_HAL_Driver/Src/stm32g4xx_hal_fdcan.c **** 
3329:Drivers/STM32G4xx_HAL_Driver/Src/stm32g4xx_hal_fdcan.c **** /**
3330:Drivers/STM32G4xx_HAL_Driver/Src/stm32g4xx_hal_fdcan.c ****   * @brief  Error callback.
3331:Drivers/STM32G4xx_HAL_Driver/Src/stm32g4xx_hal_fdcan.c ****   * @param  hfdcan pointer to an FDCAN_HandleTypeDef structure that contains
3332:Drivers/STM32G4xx_HAL_Driver/Src/stm32g4xx_hal_fdcan.c ****   *         the configuration information for the specified FDCAN.
3333:Drivers/STM32G4xx_HAL_Driver/Src/stm32g4xx_hal_fdcan.c ****   * @retval None
3334:Drivers/STM32G4xx_HAL_Driver/Src/stm32g4xx_hal_fdcan.c ****   */
3335:Drivers/STM32G4xx_HAL_Driver/Src/stm32g4xx_hal_fdcan.c **** __weak void HAL_FDCAN_ErrorCallback(FDCAN_HandleTypeDef *hfdcan)
3336:Drivers/STM32G4xx_HAL_Driver/Src/stm32g4xx_hal_fdcan.c **** {
 5729              		.loc 1 3336 1
 5730              		.cfi_startproc
 5731              		@ args = 0, pretend = 0, frame = 8
 5732              		@ frame_needed = 1, uses_anonymous_args = 0
 5733              		@ link register save eliminated.
 5734 0000 80B4     		push	{r7}
 5735              	.LCFI330:
 5736              		.cfi_def_cfa_offset 4
 5737              		.cfi_offset 7, -4
 5738 0002 83B0     		sub	sp, sp, #12
 5739              	.LCFI331:
 5740              		.cfi_def_cfa_offset 16
 5741 0004 00AF     		add	r7, sp, #0
 5742              	.LCFI332:
 5743              		.cfi_def_cfa_register 7
 5744 0006 7860     		str	r0, [r7, #4]
3337:Drivers/STM32G4xx_HAL_Driver/Src/stm32g4xx_hal_fdcan.c ****   /* Prevent unused argument(s) compilation warning */
3338:Drivers/STM32G4xx_HAL_Driver/Src/stm32g4xx_hal_fdcan.c ****   UNUSED(hfdcan);
3339:Drivers/STM32G4xx_HAL_Driver/Src/stm32g4xx_hal_fdcan.c **** 
3340:Drivers/STM32G4xx_HAL_Driver/Src/stm32g4xx_hal_fdcan.c ****   /* NOTE: This function Should not be modified, when the callback is needed,
3341:Drivers/STM32G4xx_HAL_Driver/Src/stm32g4xx_hal_fdcan.c ****             the HAL_FDCAN_ErrorCallback could be implemented in the user file
3342:Drivers/STM32G4xx_HAL_Driver/Src/stm32g4xx_hal_fdcan.c ****    */
3343:Drivers/STM32G4xx_HAL_Driver/Src/stm32g4xx_hal_fdcan.c **** }
 5745              		.loc 1 3343 1
 5746 0008 00BF     		nop
 5747 000a 0C37     		adds	r7, r7, #12
 5748              	.LCFI333:
 5749              		.cfi_def_cfa_offset 4
 5750 000c BD46     		mov	sp, r7
 5751              	.LCFI334:
 5752              		.cfi_def_cfa_register 13
 5753              		@ sp needed
 5754 000e 5DF8047B 		ldr	r7, [sp], #4
 5755              	.LCFI335:
 5756              		.cfi_restore 7
 5757              		.cfi_def_cfa_offset 0
 5758 0012 7047     		bx	lr
 5759              		.cfi_endproc
 5760              	.LFE188:
 5762              		.section	.text.HAL_FDCAN_ErrorStatusCallback,"ax",%progbits
 5763              		.align	1
 5764              		.weak	HAL_FDCAN_ErrorStatusCallback
 5765              		.syntax unified
ARM GAS  C:\Users\AURORA~1\AppData\Local\Temp\ccEbooPs.s 			page 160


 5766              		.thumb
 5767              		.thumb_func
 5769              	HAL_FDCAN_ErrorStatusCallback:
 5770              	.LFB189:
3344:Drivers/STM32G4xx_HAL_Driver/Src/stm32g4xx_hal_fdcan.c **** 
3345:Drivers/STM32G4xx_HAL_Driver/Src/stm32g4xx_hal_fdcan.c **** /**
3346:Drivers/STM32G4xx_HAL_Driver/Src/stm32g4xx_hal_fdcan.c ****   * @brief  Error status callback.
3347:Drivers/STM32G4xx_HAL_Driver/Src/stm32g4xx_hal_fdcan.c ****   * @param  hfdcan pointer to an FDCAN_HandleTypeDef structure that contains
3348:Drivers/STM32G4xx_HAL_Driver/Src/stm32g4xx_hal_fdcan.c ****   *         the configuration information for the specified FDCAN.
3349:Drivers/STM32G4xx_HAL_Driver/Src/stm32g4xx_hal_fdcan.c ****   * @param  ErrorStatusITs indicates which Error Status interrupts are signaled.
3350:Drivers/STM32G4xx_HAL_Driver/Src/stm32g4xx_hal_fdcan.c ****   *         This parameter can be any combination of @arg FDCAN_Error_Status_Interrupts.
3351:Drivers/STM32G4xx_HAL_Driver/Src/stm32g4xx_hal_fdcan.c ****   * @retval None
3352:Drivers/STM32G4xx_HAL_Driver/Src/stm32g4xx_hal_fdcan.c ****   */
3353:Drivers/STM32G4xx_HAL_Driver/Src/stm32g4xx_hal_fdcan.c **** __weak void HAL_FDCAN_ErrorStatusCallback(FDCAN_HandleTypeDef *hfdcan, uint32_t ErrorStatusITs)
3354:Drivers/STM32G4xx_HAL_Driver/Src/stm32g4xx_hal_fdcan.c **** {
 5771              		.loc 1 3354 1
 5772              		.cfi_startproc
 5773              		@ args = 0, pretend = 0, frame = 8
 5774              		@ frame_needed = 1, uses_anonymous_args = 0
 5775              		@ link register save eliminated.
 5776 0000 80B4     		push	{r7}
 5777              	.LCFI336:
 5778              		.cfi_def_cfa_offset 4
 5779              		.cfi_offset 7, -4
 5780 0002 83B0     		sub	sp, sp, #12
 5781              	.LCFI337:
 5782              		.cfi_def_cfa_offset 16
 5783 0004 00AF     		add	r7, sp, #0
 5784              	.LCFI338:
 5785              		.cfi_def_cfa_register 7
 5786 0006 7860     		str	r0, [r7, #4]
 5787 0008 3960     		str	r1, [r7]
3355:Drivers/STM32G4xx_HAL_Driver/Src/stm32g4xx_hal_fdcan.c ****   /* Prevent unused argument(s) compilation warning */
3356:Drivers/STM32G4xx_HAL_Driver/Src/stm32g4xx_hal_fdcan.c ****   UNUSED(hfdcan);
3357:Drivers/STM32G4xx_HAL_Driver/Src/stm32g4xx_hal_fdcan.c ****   UNUSED(ErrorStatusITs);
3358:Drivers/STM32G4xx_HAL_Driver/Src/stm32g4xx_hal_fdcan.c **** 
3359:Drivers/STM32G4xx_HAL_Driver/Src/stm32g4xx_hal_fdcan.c ****   /* NOTE: This function Should not be modified, when the callback is needed,
3360:Drivers/STM32G4xx_HAL_Driver/Src/stm32g4xx_hal_fdcan.c ****             the HAL_FDCAN_ErrorStatusCallback could be implemented in the user file
3361:Drivers/STM32G4xx_HAL_Driver/Src/stm32g4xx_hal_fdcan.c ****    */
3362:Drivers/STM32G4xx_HAL_Driver/Src/stm32g4xx_hal_fdcan.c **** }
 5788              		.loc 1 3362 1
 5789 000a 00BF     		nop
 5790 000c 0C37     		adds	r7, r7, #12
 5791              	.LCFI339:
 5792              		.cfi_def_cfa_offset 4
 5793 000e BD46     		mov	sp, r7
 5794              	.LCFI340:
 5795              		.cfi_def_cfa_register 13
 5796              		@ sp needed
 5797 0010 5DF8047B 		ldr	r7, [sp], #4
 5798              	.LCFI341:
 5799              		.cfi_restore 7
 5800              		.cfi_def_cfa_offset 0
 5801 0014 7047     		bx	lr
 5802              		.cfi_endproc
 5803              	.LFE189:
 5805              		.section	.text.HAL_FDCAN_GetState,"ax",%progbits
ARM GAS  C:\Users\AURORA~1\AppData\Local\Temp\ccEbooPs.s 			page 161


 5806              		.align	1
 5807              		.global	HAL_FDCAN_GetState
 5808              		.syntax unified
 5809              		.thumb
 5810              		.thumb_func
 5812              	HAL_FDCAN_GetState:
 5813              	.LFB190:
3363:Drivers/STM32G4xx_HAL_Driver/Src/stm32g4xx_hal_fdcan.c **** 
3364:Drivers/STM32G4xx_HAL_Driver/Src/stm32g4xx_hal_fdcan.c **** /**
3365:Drivers/STM32G4xx_HAL_Driver/Src/stm32g4xx_hal_fdcan.c ****   * @}
3366:Drivers/STM32G4xx_HAL_Driver/Src/stm32g4xx_hal_fdcan.c ****   */
3367:Drivers/STM32G4xx_HAL_Driver/Src/stm32g4xx_hal_fdcan.c **** 
3368:Drivers/STM32G4xx_HAL_Driver/Src/stm32g4xx_hal_fdcan.c **** /** @defgroup FDCAN_Exported_Functions_Group6 Peripheral State functions
3369:Drivers/STM32G4xx_HAL_Driver/Src/stm32g4xx_hal_fdcan.c ****   *  @brief   FDCAN Peripheral State functions
3370:Drivers/STM32G4xx_HAL_Driver/Src/stm32g4xx_hal_fdcan.c ****   *
3371:Drivers/STM32G4xx_HAL_Driver/Src/stm32g4xx_hal_fdcan.c **** @verbatim
3372:Drivers/STM32G4xx_HAL_Driver/Src/stm32g4xx_hal_fdcan.c ****   ==============================================================================
3373:Drivers/STM32G4xx_HAL_Driver/Src/stm32g4xx_hal_fdcan.c ****                       ##### Peripheral State functions #####
3374:Drivers/STM32G4xx_HAL_Driver/Src/stm32g4xx_hal_fdcan.c ****   ==============================================================================
3375:Drivers/STM32G4xx_HAL_Driver/Src/stm32g4xx_hal_fdcan.c ****     [..]
3376:Drivers/STM32G4xx_HAL_Driver/Src/stm32g4xx_hal_fdcan.c ****     This subsection provides functions allowing to :
3377:Drivers/STM32G4xx_HAL_Driver/Src/stm32g4xx_hal_fdcan.c ****       (+) HAL_FDCAN_GetState()  : Return the FDCAN state.
3378:Drivers/STM32G4xx_HAL_Driver/Src/stm32g4xx_hal_fdcan.c ****       (+) HAL_FDCAN_GetError()  : Return the FDCAN error code if any.
3379:Drivers/STM32G4xx_HAL_Driver/Src/stm32g4xx_hal_fdcan.c **** 
3380:Drivers/STM32G4xx_HAL_Driver/Src/stm32g4xx_hal_fdcan.c **** @endverbatim
3381:Drivers/STM32G4xx_HAL_Driver/Src/stm32g4xx_hal_fdcan.c ****   * @{
3382:Drivers/STM32G4xx_HAL_Driver/Src/stm32g4xx_hal_fdcan.c ****   */
3383:Drivers/STM32G4xx_HAL_Driver/Src/stm32g4xx_hal_fdcan.c **** /**
3384:Drivers/STM32G4xx_HAL_Driver/Src/stm32g4xx_hal_fdcan.c ****   * @brief  Return the FDCAN state
3385:Drivers/STM32G4xx_HAL_Driver/Src/stm32g4xx_hal_fdcan.c ****   * @param  hfdcan pointer to an FDCAN_HandleTypeDef structure that contains
3386:Drivers/STM32G4xx_HAL_Driver/Src/stm32g4xx_hal_fdcan.c ****   *         the configuration information for the specified FDCAN.
3387:Drivers/STM32G4xx_HAL_Driver/Src/stm32g4xx_hal_fdcan.c ****   * @retval HAL state
3388:Drivers/STM32G4xx_HAL_Driver/Src/stm32g4xx_hal_fdcan.c ****   */
3389:Drivers/STM32G4xx_HAL_Driver/Src/stm32g4xx_hal_fdcan.c **** HAL_FDCAN_StateTypeDef HAL_FDCAN_GetState(const FDCAN_HandleTypeDef *hfdcan)
3390:Drivers/STM32G4xx_HAL_Driver/Src/stm32g4xx_hal_fdcan.c **** {
 5814              		.loc 1 3390 1
 5815              		.cfi_startproc
 5816              		@ args = 0, pretend = 0, frame = 8
 5817              		@ frame_needed = 1, uses_anonymous_args = 0
 5818              		@ link register save eliminated.
 5819 0000 80B4     		push	{r7}
 5820              	.LCFI342:
 5821              		.cfi_def_cfa_offset 4
 5822              		.cfi_offset 7, -4
 5823 0002 83B0     		sub	sp, sp, #12
 5824              	.LCFI343:
 5825              		.cfi_def_cfa_offset 16
 5826 0004 00AF     		add	r7, sp, #0
 5827              	.LCFI344:
 5828              		.cfi_def_cfa_register 7
 5829 0006 7860     		str	r0, [r7, #4]
3391:Drivers/STM32G4xx_HAL_Driver/Src/stm32g4xx_hal_fdcan.c ****   /* Return FDCAN state */
3392:Drivers/STM32G4xx_HAL_Driver/Src/stm32g4xx_hal_fdcan.c ****   return hfdcan->State;
 5830              		.loc 1 3392 16
 5831 0008 7B68     		ldr	r3, [r7, #4]
 5832 000a 93F85C30 		ldrb	r3, [r3, #92]
 5833 000e DBB2     		uxtb	r3, r3
ARM GAS  C:\Users\AURORA~1\AppData\Local\Temp\ccEbooPs.s 			page 162


3393:Drivers/STM32G4xx_HAL_Driver/Src/stm32g4xx_hal_fdcan.c **** }
 5834              		.loc 1 3393 1
 5835 0010 1846     		mov	r0, r3
 5836 0012 0C37     		adds	r7, r7, #12
 5837              	.LCFI345:
 5838              		.cfi_def_cfa_offset 4
 5839 0014 BD46     		mov	sp, r7
 5840              	.LCFI346:
 5841              		.cfi_def_cfa_register 13
 5842              		@ sp needed
 5843 0016 5DF8047B 		ldr	r7, [sp], #4
 5844              	.LCFI347:
 5845              		.cfi_restore 7
 5846              		.cfi_def_cfa_offset 0
 5847 001a 7047     		bx	lr
 5848              		.cfi_endproc
 5849              	.LFE190:
 5851              		.section	.text.HAL_FDCAN_GetError,"ax",%progbits
 5852              		.align	1
 5853              		.global	HAL_FDCAN_GetError
 5854              		.syntax unified
 5855              		.thumb
 5856              		.thumb_func
 5858              	HAL_FDCAN_GetError:
 5859              	.LFB191:
3394:Drivers/STM32G4xx_HAL_Driver/Src/stm32g4xx_hal_fdcan.c **** 
3395:Drivers/STM32G4xx_HAL_Driver/Src/stm32g4xx_hal_fdcan.c **** /**
3396:Drivers/STM32G4xx_HAL_Driver/Src/stm32g4xx_hal_fdcan.c ****   * @brief  Return the FDCAN error code
3397:Drivers/STM32G4xx_HAL_Driver/Src/stm32g4xx_hal_fdcan.c ****   * @param  hfdcan pointer to an FDCAN_HandleTypeDef structure that contains
3398:Drivers/STM32G4xx_HAL_Driver/Src/stm32g4xx_hal_fdcan.c ****   *         the configuration information for the specified FDCAN.
3399:Drivers/STM32G4xx_HAL_Driver/Src/stm32g4xx_hal_fdcan.c ****   * @retval FDCAN Error Code
3400:Drivers/STM32G4xx_HAL_Driver/Src/stm32g4xx_hal_fdcan.c ****   */
3401:Drivers/STM32G4xx_HAL_Driver/Src/stm32g4xx_hal_fdcan.c **** uint32_t HAL_FDCAN_GetError(const FDCAN_HandleTypeDef *hfdcan)
3402:Drivers/STM32G4xx_HAL_Driver/Src/stm32g4xx_hal_fdcan.c **** {
 5860              		.loc 1 3402 1
 5861              		.cfi_startproc
 5862              		@ args = 0, pretend = 0, frame = 8
 5863              		@ frame_needed = 1, uses_anonymous_args = 0
 5864              		@ link register save eliminated.
 5865 0000 80B4     		push	{r7}
 5866              	.LCFI348:
 5867              		.cfi_def_cfa_offset 4
 5868              		.cfi_offset 7, -4
 5869 0002 83B0     		sub	sp, sp, #12
 5870              	.LCFI349:
 5871              		.cfi_def_cfa_offset 16
 5872 0004 00AF     		add	r7, sp, #0
 5873              	.LCFI350:
 5874              		.cfi_def_cfa_register 7
 5875 0006 7860     		str	r0, [r7, #4]
3403:Drivers/STM32G4xx_HAL_Driver/Src/stm32g4xx_hal_fdcan.c ****   /* Return FDCAN error code */
3404:Drivers/STM32G4xx_HAL_Driver/Src/stm32g4xx_hal_fdcan.c ****   return hfdcan->ErrorCode;
 5876              		.loc 1 3404 16
 5877 0008 7B68     		ldr	r3, [r7, #4]
 5878 000a 1B6E     		ldr	r3, [r3, #96]
3405:Drivers/STM32G4xx_HAL_Driver/Src/stm32g4xx_hal_fdcan.c **** }
 5879              		.loc 1 3405 1
ARM GAS  C:\Users\AURORA~1\AppData\Local\Temp\ccEbooPs.s 			page 163


 5880 000c 1846     		mov	r0, r3
 5881 000e 0C37     		adds	r7, r7, #12
 5882              	.LCFI351:
 5883              		.cfi_def_cfa_offset 4
 5884 0010 BD46     		mov	sp, r7
 5885              	.LCFI352:
 5886              		.cfi_def_cfa_register 13
 5887              		@ sp needed
 5888 0012 5DF8047B 		ldr	r7, [sp], #4
 5889              	.LCFI353:
 5890              		.cfi_restore 7
 5891              		.cfi_def_cfa_offset 0
 5892 0016 7047     		bx	lr
 5893              		.cfi_endproc
 5894              	.LFE191:
 5896              		.section	.text.FDCAN_CalcultateRamBlockAddresses,"ax",%progbits
 5897              		.align	1
 5898              		.syntax unified
 5899              		.thumb
 5900              		.thumb_func
 5902              	FDCAN_CalcultateRamBlockAddresses:
 5903              	.LFB192:
3406:Drivers/STM32G4xx_HAL_Driver/Src/stm32g4xx_hal_fdcan.c **** 
3407:Drivers/STM32G4xx_HAL_Driver/Src/stm32g4xx_hal_fdcan.c **** /**
3408:Drivers/STM32G4xx_HAL_Driver/Src/stm32g4xx_hal_fdcan.c ****   * @}
3409:Drivers/STM32G4xx_HAL_Driver/Src/stm32g4xx_hal_fdcan.c ****   */
3410:Drivers/STM32G4xx_HAL_Driver/Src/stm32g4xx_hal_fdcan.c **** 
3411:Drivers/STM32G4xx_HAL_Driver/Src/stm32g4xx_hal_fdcan.c **** /**
3412:Drivers/STM32G4xx_HAL_Driver/Src/stm32g4xx_hal_fdcan.c ****   * @}
3413:Drivers/STM32G4xx_HAL_Driver/Src/stm32g4xx_hal_fdcan.c ****   */
3414:Drivers/STM32G4xx_HAL_Driver/Src/stm32g4xx_hal_fdcan.c **** 
3415:Drivers/STM32G4xx_HAL_Driver/Src/stm32g4xx_hal_fdcan.c **** /** @defgroup FDCAN_Private_Functions FDCAN Private Functions
3416:Drivers/STM32G4xx_HAL_Driver/Src/stm32g4xx_hal_fdcan.c ****   * @{
3417:Drivers/STM32G4xx_HAL_Driver/Src/stm32g4xx_hal_fdcan.c ****   */
3418:Drivers/STM32G4xx_HAL_Driver/Src/stm32g4xx_hal_fdcan.c **** 
3419:Drivers/STM32G4xx_HAL_Driver/Src/stm32g4xx_hal_fdcan.c **** /**
3420:Drivers/STM32G4xx_HAL_Driver/Src/stm32g4xx_hal_fdcan.c ****   * @brief  Calculate each RAM block start address and size
3421:Drivers/STM32G4xx_HAL_Driver/Src/stm32g4xx_hal_fdcan.c ****   * @param  hfdcan pointer to an FDCAN_HandleTypeDef structure that contains
3422:Drivers/STM32G4xx_HAL_Driver/Src/stm32g4xx_hal_fdcan.c ****   *         the configuration information for the specified FDCAN.
3423:Drivers/STM32G4xx_HAL_Driver/Src/stm32g4xx_hal_fdcan.c ****   * @retval none
3424:Drivers/STM32G4xx_HAL_Driver/Src/stm32g4xx_hal_fdcan.c ****  */
3425:Drivers/STM32G4xx_HAL_Driver/Src/stm32g4xx_hal_fdcan.c **** static void FDCAN_CalcultateRamBlockAddresses(FDCAN_HandleTypeDef *hfdcan)
3426:Drivers/STM32G4xx_HAL_Driver/Src/stm32g4xx_hal_fdcan.c **** {
 5904              		.loc 1 3426 1
 5905              		.cfi_startproc
 5906              		@ args = 0, pretend = 0, frame = 16
 5907              		@ frame_needed = 1, uses_anonymous_args = 0
 5908              		@ link register save eliminated.
 5909 0000 80B4     		push	{r7}
 5910              	.LCFI354:
 5911              		.cfi_def_cfa_offset 4
 5912              		.cfi_offset 7, -4
 5913 0002 85B0     		sub	sp, sp, #20
 5914              	.LCFI355:
 5915              		.cfi_def_cfa_offset 24
 5916 0004 00AF     		add	r7, sp, #0
 5917              	.LCFI356:
ARM GAS  C:\Users\AURORA~1\AppData\Local\Temp\ccEbooPs.s 			page 164


 5918              		.cfi_def_cfa_register 7
 5919 0006 7860     		str	r0, [r7, #4]
3427:Drivers/STM32G4xx_HAL_Driver/Src/stm32g4xx_hal_fdcan.c ****   uint32_t RAMcounter;
3428:Drivers/STM32G4xx_HAL_Driver/Src/stm32g4xx_hal_fdcan.c ****   uint32_t SramCanInstanceBase = SRAMCAN_BASE;
 5920              		.loc 1 3428 12
 5921 0008 304B     		ldr	r3, .L255
 5922 000a BB60     		str	r3, [r7, #8]
3429:Drivers/STM32G4xx_HAL_Driver/Src/stm32g4xx_hal_fdcan.c **** #if defined(FDCAN2)
3430:Drivers/STM32G4xx_HAL_Driver/Src/stm32g4xx_hal_fdcan.c **** 
3431:Drivers/STM32G4xx_HAL_Driver/Src/stm32g4xx_hal_fdcan.c ****   if (hfdcan->Instance == FDCAN2)
 5923              		.loc 1 3431 13
 5924 000c 7B68     		ldr	r3, [r7, #4]
 5925 000e 1B68     		ldr	r3, [r3]
 5926              		.loc 1 3431 6
 5927 0010 2F4A     		ldr	r2, .L255+4
 5928 0012 9342     		cmp	r3, r2
 5929 0014 03D1     		bne	.L251
3432:Drivers/STM32G4xx_HAL_Driver/Src/stm32g4xx_hal_fdcan.c ****   {
3433:Drivers/STM32G4xx_HAL_Driver/Src/stm32g4xx_hal_fdcan.c ****     SramCanInstanceBase += SRAMCAN_SIZE;
 5930              		.loc 1 3433 25
 5931 0016 BB68     		ldr	r3, [r7, #8]
 5932 0018 03F55473 		add	r3, r3, #848
 5933 001c BB60     		str	r3, [r7, #8]
 5934              	.L251:
3434:Drivers/STM32G4xx_HAL_Driver/Src/stm32g4xx_hal_fdcan.c ****   }
3435:Drivers/STM32G4xx_HAL_Driver/Src/stm32g4xx_hal_fdcan.c **** #endif /* FDCAN2 */
3436:Drivers/STM32G4xx_HAL_Driver/Src/stm32g4xx_hal_fdcan.c **** #if defined(FDCAN3)
3437:Drivers/STM32G4xx_HAL_Driver/Src/stm32g4xx_hal_fdcan.c ****   if (hfdcan->Instance == FDCAN3)
 5935              		.loc 1 3437 13
 5936 001e 7B68     		ldr	r3, [r7, #4]
 5937 0020 1B68     		ldr	r3, [r3]
 5938              		.loc 1 3437 6
 5939 0022 2C4A     		ldr	r2, .L255+8
 5940 0024 9342     		cmp	r3, r2
 5941 0026 03D1     		bne	.L252
3438:Drivers/STM32G4xx_HAL_Driver/Src/stm32g4xx_hal_fdcan.c ****   {
3439:Drivers/STM32G4xx_HAL_Driver/Src/stm32g4xx_hal_fdcan.c ****     SramCanInstanceBase += SRAMCAN_SIZE * 2U;
 5942              		.loc 1 3439 25
 5943 0028 BB68     		ldr	r3, [r7, #8]
 5944 002a 03F5D463 		add	r3, r3, #1696
 5945 002e BB60     		str	r3, [r7, #8]
 5946              	.L252:
3440:Drivers/STM32G4xx_HAL_Driver/Src/stm32g4xx_hal_fdcan.c ****   }
3441:Drivers/STM32G4xx_HAL_Driver/Src/stm32g4xx_hal_fdcan.c **** #endif /* FDCAN3 */
3442:Drivers/STM32G4xx_HAL_Driver/Src/stm32g4xx_hal_fdcan.c **** 
3443:Drivers/STM32G4xx_HAL_Driver/Src/stm32g4xx_hal_fdcan.c ****   /* Standard filter list start address */
3444:Drivers/STM32G4xx_HAL_Driver/Src/stm32g4xx_hal_fdcan.c ****   hfdcan->msgRam.StandardFilterSA = SramCanInstanceBase + SRAMCAN_FLSSA;
 5947              		.loc 1 3444 35
 5948 0030 7B68     		ldr	r3, [r7, #4]
 5949 0032 BA68     		ldr	r2, [r7, #8]
 5950 0034 1A64     		str	r2, [r3, #64]
3445:Drivers/STM32G4xx_HAL_Driver/Src/stm32g4xx_hal_fdcan.c **** 
3446:Drivers/STM32G4xx_HAL_Driver/Src/stm32g4xx_hal_fdcan.c ****   /* Standard filter elements number */
3447:Drivers/STM32G4xx_HAL_Driver/Src/stm32g4xx_hal_fdcan.c ****   MODIFY_REG(hfdcan->Instance->RXGFC, FDCAN_RXGFC_LSS, (hfdcan->Init.StdFiltersNbr << FDCAN_RXGFC_L
 5951              		.loc 1 3447 3
 5952 0036 7B68     		ldr	r3, [r7, #4]
 5953 0038 1B68     		ldr	r3, [r3]
ARM GAS  C:\Users\AURORA~1\AppData\Local\Temp\ccEbooPs.s 			page 165


 5954 003a D3F88030 		ldr	r3, [r3, #128]
 5955 003e 23F4F811 		bic	r1, r3, #2031616
 5956 0042 7B68     		ldr	r3, [r7, #4]
 5957 0044 5B6B     		ldr	r3, [r3, #52]
 5958 0046 1A04     		lsls	r2, r3, #16
 5959 0048 7B68     		ldr	r3, [r7, #4]
 5960 004a 1B68     		ldr	r3, [r3]
 5961 004c 0A43     		orrs	r2, r2, r1
 5962 004e C3F88020 		str	r2, [r3, #128]
3448:Drivers/STM32G4xx_HAL_Driver/Src/stm32g4xx_hal_fdcan.c **** 
3449:Drivers/STM32G4xx_HAL_Driver/Src/stm32g4xx_hal_fdcan.c ****   /* Extended filter list start address */
3450:Drivers/STM32G4xx_HAL_Driver/Src/stm32g4xx_hal_fdcan.c ****   hfdcan->msgRam.ExtendedFilterSA = SramCanInstanceBase + SRAMCAN_FLESA;
 5963              		.loc 1 3450 57
 5964 0052 BB68     		ldr	r3, [r7, #8]
 5965 0054 03F17002 		add	r2, r3, #112
 5966              		.loc 1 3450 35
 5967 0058 7B68     		ldr	r3, [r7, #4]
 5968 005a 5A64     		str	r2, [r3, #68]
3451:Drivers/STM32G4xx_HAL_Driver/Src/stm32g4xx_hal_fdcan.c **** 
3452:Drivers/STM32G4xx_HAL_Driver/Src/stm32g4xx_hal_fdcan.c ****   /* Extended filter elements number */
3453:Drivers/STM32G4xx_HAL_Driver/Src/stm32g4xx_hal_fdcan.c ****   MODIFY_REG(hfdcan->Instance->RXGFC, FDCAN_RXGFC_LSE, (hfdcan->Init.ExtFiltersNbr << FDCAN_RXGFC_L
 5969              		.loc 1 3453 3
 5970 005c 7B68     		ldr	r3, [r7, #4]
 5971 005e 1B68     		ldr	r3, [r3]
 5972 0060 D3F88030 		ldr	r3, [r3, #128]
 5973 0064 23F07061 		bic	r1, r3, #251658240
 5974 0068 7B68     		ldr	r3, [r7, #4]
 5975 006a 9B6B     		ldr	r3, [r3, #56]
 5976 006c 1A06     		lsls	r2, r3, #24
 5977 006e 7B68     		ldr	r3, [r7, #4]
 5978 0070 1B68     		ldr	r3, [r3]
 5979 0072 0A43     		orrs	r2, r2, r1
 5980 0074 C3F88020 		str	r2, [r3, #128]
3454:Drivers/STM32G4xx_HAL_Driver/Src/stm32g4xx_hal_fdcan.c **** 
3455:Drivers/STM32G4xx_HAL_Driver/Src/stm32g4xx_hal_fdcan.c ****   /* Rx FIFO 0 start address */
3456:Drivers/STM32G4xx_HAL_Driver/Src/stm32g4xx_hal_fdcan.c ****   hfdcan->msgRam.RxFIFO0SA = SramCanInstanceBase + SRAMCAN_RF0SA;
 5981              		.loc 1 3456 50
 5982 0078 BB68     		ldr	r3, [r7, #8]
 5983 007a 03F1B002 		add	r2, r3, #176
 5984              		.loc 1 3456 28
 5985 007e 7B68     		ldr	r3, [r7, #4]
 5986 0080 9A64     		str	r2, [r3, #72]
3457:Drivers/STM32G4xx_HAL_Driver/Src/stm32g4xx_hal_fdcan.c **** 
3458:Drivers/STM32G4xx_HAL_Driver/Src/stm32g4xx_hal_fdcan.c ****   /* Rx FIFO 1 start address */
3459:Drivers/STM32G4xx_HAL_Driver/Src/stm32g4xx_hal_fdcan.c ****   hfdcan->msgRam.RxFIFO1SA = SramCanInstanceBase + SRAMCAN_RF1SA;
 5987              		.loc 1 3459 50
 5988 0082 BB68     		ldr	r3, [r7, #8]
 5989 0084 03F5C472 		add	r2, r3, #392
 5990              		.loc 1 3459 28
 5991 0088 7B68     		ldr	r3, [r7, #4]
 5992 008a DA64     		str	r2, [r3, #76]
3460:Drivers/STM32G4xx_HAL_Driver/Src/stm32g4xx_hal_fdcan.c **** 
3461:Drivers/STM32G4xx_HAL_Driver/Src/stm32g4xx_hal_fdcan.c ****   /* Tx event FIFO start address */
3462:Drivers/STM32G4xx_HAL_Driver/Src/stm32g4xx_hal_fdcan.c ****   hfdcan->msgRam.TxEventFIFOSA = SramCanInstanceBase + SRAMCAN_TEFSA;
 5993              		.loc 1 3462 54
 5994 008c BB68     		ldr	r3, [r7, #8]
 5995 008e 03F51872 		add	r2, r3, #608
ARM GAS  C:\Users\AURORA~1\AppData\Local\Temp\ccEbooPs.s 			page 166


 5996              		.loc 1 3462 32
 5997 0092 7B68     		ldr	r3, [r7, #4]
 5998 0094 1A65     		str	r2, [r3, #80]
3463:Drivers/STM32G4xx_HAL_Driver/Src/stm32g4xx_hal_fdcan.c **** 
3464:Drivers/STM32G4xx_HAL_Driver/Src/stm32g4xx_hal_fdcan.c ****   /* Tx FIFO/queue start address */
3465:Drivers/STM32G4xx_HAL_Driver/Src/stm32g4xx_hal_fdcan.c ****   hfdcan->msgRam.TxFIFOQSA = SramCanInstanceBase + SRAMCAN_TFQSA;
 5999              		.loc 1 3465 50
 6000 0096 BB68     		ldr	r3, [r7, #8]
 6001 0098 03F51E72 		add	r2, r3, #632
 6002              		.loc 1 3465 28
 6003 009c 7B68     		ldr	r3, [r7, #4]
 6004 009e 5A65     		str	r2, [r3, #84]
3466:Drivers/STM32G4xx_HAL_Driver/Src/stm32g4xx_hal_fdcan.c **** 
3467:Drivers/STM32G4xx_HAL_Driver/Src/stm32g4xx_hal_fdcan.c ****   /* Flush the allocated Message RAM area */
3468:Drivers/STM32G4xx_HAL_Driver/Src/stm32g4xx_hal_fdcan.c ****   for (RAMcounter = SramCanInstanceBase; RAMcounter < (SramCanInstanceBase + SRAMCAN_SIZE); RAMcoun
 6005              		.loc 1 3468 19
 6006 00a0 BB68     		ldr	r3, [r7, #8]
 6007 00a2 FB60     		str	r3, [r7, #12]
 6008              		.loc 1 3468 3
 6009 00a4 05E0     		b	.L253
 6010              	.L254:
3469:Drivers/STM32G4xx_HAL_Driver/Src/stm32g4xx_hal_fdcan.c ****   {
3470:Drivers/STM32G4xx_HAL_Driver/Src/stm32g4xx_hal_fdcan.c ****     *(uint32_t *)(RAMcounter) = 0x00000000U;
 6011              		.loc 1 3470 6
 6012 00a6 FB68     		ldr	r3, [r7, #12]
 6013              		.loc 1 3470 31
 6014 00a8 0022     		movs	r2, #0
 6015 00aa 1A60     		str	r2, [r3]
3468:Drivers/STM32G4xx_HAL_Driver/Src/stm32g4xx_hal_fdcan.c ****   {
 6016              		.loc 1 3468 104 discriminator 3
 6017 00ac FB68     		ldr	r3, [r7, #12]
 6018 00ae 0433     		adds	r3, r3, #4
 6019 00b0 FB60     		str	r3, [r7, #12]
 6020              	.L253:
3468:Drivers/STM32G4xx_HAL_Driver/Src/stm32g4xx_hal_fdcan.c ****   {
 6021              		.loc 1 3468 76 discriminator 1
 6022 00b2 BB68     		ldr	r3, [r7, #8]
 6023 00b4 03F55473 		add	r3, r3, #848
3468:Drivers/STM32G4xx_HAL_Driver/Src/stm32g4xx_hal_fdcan.c ****   {
 6024              		.loc 1 3468 53 discriminator 1
 6025 00b8 FA68     		ldr	r2, [r7, #12]
 6026 00ba 9A42     		cmp	r2, r3
 6027 00bc F3D3     		bcc	.L254
3471:Drivers/STM32G4xx_HAL_Driver/Src/stm32g4xx_hal_fdcan.c ****   }
3472:Drivers/STM32G4xx_HAL_Driver/Src/stm32g4xx_hal_fdcan.c **** }
 6028              		.loc 1 3472 1
 6029 00be 00BF     		nop
 6030 00c0 00BF     		nop
 6031 00c2 1437     		adds	r7, r7, #20
 6032              	.LCFI357:
 6033              		.cfi_def_cfa_offset 4
 6034 00c4 BD46     		mov	sp, r7
 6035              	.LCFI358:
 6036              		.cfi_def_cfa_register 13
 6037              		@ sp needed
 6038 00c6 5DF8047B 		ldr	r7, [sp], #4
 6039              	.LCFI359:
ARM GAS  C:\Users\AURORA~1\AppData\Local\Temp\ccEbooPs.s 			page 167


 6040              		.cfi_restore 7
 6041              		.cfi_def_cfa_offset 0
 6042 00ca 7047     		bx	lr
 6043              	.L256:
 6044              		.align	2
 6045              	.L255:
 6046 00cc 00A40040 		.word	1073783808
 6047 00d0 00680040 		.word	1073768448
 6048 00d4 006C0040 		.word	1073769472
 6049              		.cfi_endproc
 6050              	.LFE192:
 6052              		.section	.text.FDCAN_CopyMessageToRAM,"ax",%progbits
 6053              		.align	1
 6054              		.syntax unified
 6055              		.thumb
 6056              		.thumb_func
 6058              	FDCAN_CopyMessageToRAM:
 6059              	.LFB193:
3473:Drivers/STM32G4xx_HAL_Driver/Src/stm32g4xx_hal_fdcan.c **** 
3474:Drivers/STM32G4xx_HAL_Driver/Src/stm32g4xx_hal_fdcan.c **** /**
3475:Drivers/STM32G4xx_HAL_Driver/Src/stm32g4xx_hal_fdcan.c ****   * @brief  Copy Tx message to the message RAM.
3476:Drivers/STM32G4xx_HAL_Driver/Src/stm32g4xx_hal_fdcan.c ****   * @param  hfdcan pointer to an FDCAN_HandleTypeDef structure that contains
3477:Drivers/STM32G4xx_HAL_Driver/Src/stm32g4xx_hal_fdcan.c ****   *         the configuration information for the specified FDCAN.
3478:Drivers/STM32G4xx_HAL_Driver/Src/stm32g4xx_hal_fdcan.c ****   * @param  pTxHeader pointer to a FDCAN_TxHeaderTypeDef structure.
3479:Drivers/STM32G4xx_HAL_Driver/Src/stm32g4xx_hal_fdcan.c ****   * @param  pTxData pointer to a buffer containing the payload of the Tx frame.
3480:Drivers/STM32G4xx_HAL_Driver/Src/stm32g4xx_hal_fdcan.c ****   * @param  BufferIndex index of the buffer to be configured.
3481:Drivers/STM32G4xx_HAL_Driver/Src/stm32g4xx_hal_fdcan.c ****   * @retval none
3482:Drivers/STM32G4xx_HAL_Driver/Src/stm32g4xx_hal_fdcan.c ****  */
3483:Drivers/STM32G4xx_HAL_Driver/Src/stm32g4xx_hal_fdcan.c **** static void FDCAN_CopyMessageToRAM(const FDCAN_HandleTypeDef *hfdcan, const FDCAN_TxHeaderTypeDef *
3484:Drivers/STM32G4xx_HAL_Driver/Src/stm32g4xx_hal_fdcan.c ****                                    const uint8_t *pTxData, uint32_t BufferIndex)
3485:Drivers/STM32G4xx_HAL_Driver/Src/stm32g4xx_hal_fdcan.c **** {
 6060              		.loc 1 3485 1
 6061              		.cfi_startproc
 6062              		@ args = 0, pretend = 0, frame = 32
 6063              		@ frame_needed = 1, uses_anonymous_args = 0
 6064              		@ link register save eliminated.
 6065 0000 80B4     		push	{r7}
 6066              	.LCFI360:
 6067              		.cfi_def_cfa_offset 4
 6068              		.cfi_offset 7, -4
 6069 0002 89B0     		sub	sp, sp, #36
 6070              	.LCFI361:
 6071              		.cfi_def_cfa_offset 40
 6072 0004 00AF     		add	r7, sp, #0
 6073              	.LCFI362:
 6074              		.cfi_def_cfa_register 7
 6075 0006 F860     		str	r0, [r7, #12]
 6076 0008 B960     		str	r1, [r7, #8]
 6077 000a 7A60     		str	r2, [r7, #4]
 6078 000c 3B60     		str	r3, [r7]
3486:Drivers/STM32G4xx_HAL_Driver/Src/stm32g4xx_hal_fdcan.c ****   uint32_t TxElementW1;
3487:Drivers/STM32G4xx_HAL_Driver/Src/stm32g4xx_hal_fdcan.c ****   uint32_t TxElementW2;
3488:Drivers/STM32G4xx_HAL_Driver/Src/stm32g4xx_hal_fdcan.c ****   uint32_t *TxAddress;
3489:Drivers/STM32G4xx_HAL_Driver/Src/stm32g4xx_hal_fdcan.c ****   uint32_t ByteCounter;
3490:Drivers/STM32G4xx_HAL_Driver/Src/stm32g4xx_hal_fdcan.c **** 
3491:Drivers/STM32G4xx_HAL_Driver/Src/stm32g4xx_hal_fdcan.c ****   /* Build first word of Tx header element */
3492:Drivers/STM32G4xx_HAL_Driver/Src/stm32g4xx_hal_fdcan.c ****   if (pTxHeader->IdType == FDCAN_STANDARD_ID)
ARM GAS  C:\Users\AURORA~1\AppData\Local\Temp\ccEbooPs.s 			page 168


 6079              		.loc 1 3492 16
 6080 000e BB68     		ldr	r3, [r7, #8]
 6081 0010 5B68     		ldr	r3, [r3, #4]
 6082              		.loc 1 3492 6
 6083 0012 002B     		cmp	r3, #0
 6084 0014 0AD1     		bne	.L258
3493:Drivers/STM32G4xx_HAL_Driver/Src/stm32g4xx_hal_fdcan.c ****   {
3494:Drivers/STM32G4xx_HAL_Driver/Src/stm32g4xx_hal_fdcan.c ****     TxElementW1 = (pTxHeader->ErrorStateIndicator |
 6085              		.loc 1 3494 29
 6086 0016 BB68     		ldr	r3, [r7, #8]
 6087 0018 1A69     		ldr	r2, [r3, #16]
3495:Drivers/STM32G4xx_HAL_Driver/Src/stm32g4xx_hal_fdcan.c ****                    FDCAN_STANDARD_ID |
3496:Drivers/STM32G4xx_HAL_Driver/Src/stm32g4xx_hal_fdcan.c ****                    pTxHeader->TxFrameType |
 6088              		.loc 1 3496 29
 6089 001a BB68     		ldr	r3, [r7, #8]
 6090 001c 9B68     		ldr	r3, [r3, #8]
3495:Drivers/STM32G4xx_HAL_Driver/Src/stm32g4xx_hal_fdcan.c ****                    FDCAN_STANDARD_ID |
 6091              		.loc 1 3495 38
 6092 001e 1A43     		orrs	r2, r2, r3
3497:Drivers/STM32G4xx_HAL_Driver/Src/stm32g4xx_hal_fdcan.c ****                    (pTxHeader->Identifier << 18U));
 6093              		.loc 1 3497 30
 6094 0020 BB68     		ldr	r3, [r7, #8]
 6095 0022 1B68     		ldr	r3, [r3]
 6096              		.loc 1 3497 43
 6097 0024 9B04     		lsls	r3, r3, #18
3494:Drivers/STM32G4xx_HAL_Driver/Src/stm32g4xx_hal_fdcan.c ****                    FDCAN_STANDARD_ID |
 6098              		.loc 1 3494 17
 6099 0026 1343     		orrs	r3, r3, r2
 6100 0028 FB61     		str	r3, [r7, #28]
 6101 002a 0AE0     		b	.L259
 6102              	.L258:
3498:Drivers/STM32G4xx_HAL_Driver/Src/stm32g4xx_hal_fdcan.c ****   }
3499:Drivers/STM32G4xx_HAL_Driver/Src/stm32g4xx_hal_fdcan.c ****   else /* pTxHeader->IdType == FDCAN_EXTENDED_ID */
3500:Drivers/STM32G4xx_HAL_Driver/Src/stm32g4xx_hal_fdcan.c ****   {
3501:Drivers/STM32G4xx_HAL_Driver/Src/stm32g4xx_hal_fdcan.c ****     TxElementW1 = (pTxHeader->ErrorStateIndicator |
 6103              		.loc 1 3501 29
 6104 002c BB68     		ldr	r3, [r7, #8]
 6105 002e 1A69     		ldr	r2, [r3, #16]
3502:Drivers/STM32G4xx_HAL_Driver/Src/stm32g4xx_hal_fdcan.c ****                    FDCAN_EXTENDED_ID |
3503:Drivers/STM32G4xx_HAL_Driver/Src/stm32g4xx_hal_fdcan.c ****                    pTxHeader->TxFrameType |
 6106              		.loc 1 3503 29
 6107 0030 BB68     		ldr	r3, [r7, #8]
 6108 0032 9B68     		ldr	r3, [r3, #8]
3502:Drivers/STM32G4xx_HAL_Driver/Src/stm32g4xx_hal_fdcan.c ****                    FDCAN_EXTENDED_ID |
 6109              		.loc 1 3502 38
 6110 0034 1A43     		orrs	r2, r2, r3
3504:Drivers/STM32G4xx_HAL_Driver/Src/stm32g4xx_hal_fdcan.c ****                    pTxHeader->Identifier);
 6111              		.loc 1 3504 29
 6112 0036 BB68     		ldr	r3, [r7, #8]
 6113 0038 1B68     		ldr	r3, [r3]
3503:Drivers/STM32G4xx_HAL_Driver/Src/stm32g4xx_hal_fdcan.c ****                    pTxHeader->Identifier);
 6114              		.loc 1 3503 43
 6115 003a 1343     		orrs	r3, r3, r2
3501:Drivers/STM32G4xx_HAL_Driver/Src/stm32g4xx_hal_fdcan.c ****                    FDCAN_EXTENDED_ID |
 6116              		.loc 1 3501 17
 6117 003c 43F08043 		orr	r3, r3, #1073741824
 6118 0040 FB61     		str	r3, [r7, #28]
ARM GAS  C:\Users\AURORA~1\AppData\Local\Temp\ccEbooPs.s 			page 169


 6119              	.L259:
3505:Drivers/STM32G4xx_HAL_Driver/Src/stm32g4xx_hal_fdcan.c ****   }
3506:Drivers/STM32G4xx_HAL_Driver/Src/stm32g4xx_hal_fdcan.c **** 
3507:Drivers/STM32G4xx_HAL_Driver/Src/stm32g4xx_hal_fdcan.c ****   /* Build second word of Tx header element */
3508:Drivers/STM32G4xx_HAL_Driver/Src/stm32g4xx_hal_fdcan.c ****   TxElementW2 = ((pTxHeader->MessageMarker << 24U) |
 6120              		.loc 1 3508 28
 6121 0042 BB68     		ldr	r3, [r7, #8]
 6122 0044 1B6A     		ldr	r3, [r3, #32]
 6123              		.loc 1 3508 44
 6124 0046 1A06     		lsls	r2, r3, #24
3509:Drivers/STM32G4xx_HAL_Driver/Src/stm32g4xx_hal_fdcan.c ****                  pTxHeader->TxEventFifoControl |
 6125              		.loc 1 3509 27
 6126 0048 BB68     		ldr	r3, [r7, #8]
 6127 004a DB69     		ldr	r3, [r3, #28]
3508:Drivers/STM32G4xx_HAL_Driver/Src/stm32g4xx_hal_fdcan.c ****                  pTxHeader->TxEventFifoControl |
 6128              		.loc 1 3508 52
 6129 004c 1A43     		orrs	r2, r2, r3
3510:Drivers/STM32G4xx_HAL_Driver/Src/stm32g4xx_hal_fdcan.c ****                  pTxHeader->FDFormat |
 6130              		.loc 1 3510 27
 6131 004e BB68     		ldr	r3, [r7, #8]
 6132 0050 9B69     		ldr	r3, [r3, #24]
3509:Drivers/STM32G4xx_HAL_Driver/Src/stm32g4xx_hal_fdcan.c ****                  pTxHeader->TxEventFifoControl |
 6133              		.loc 1 3509 48
 6134 0052 1A43     		orrs	r2, r2, r3
3511:Drivers/STM32G4xx_HAL_Driver/Src/stm32g4xx_hal_fdcan.c ****                  pTxHeader->BitRateSwitch |
 6135              		.loc 1 3511 27
 6136 0054 BB68     		ldr	r3, [r7, #8]
 6137 0056 5B69     		ldr	r3, [r3, #20]
3510:Drivers/STM32G4xx_HAL_Driver/Src/stm32g4xx_hal_fdcan.c ****                  pTxHeader->FDFormat |
 6138              		.loc 1 3510 38
 6139 0058 1A43     		orrs	r2, r2, r3
3512:Drivers/STM32G4xx_HAL_Driver/Src/stm32g4xx_hal_fdcan.c ****                  (pTxHeader->DataLength << 16U));
 6140              		.loc 1 3512 28
 6141 005a BB68     		ldr	r3, [r7, #8]
 6142 005c DB68     		ldr	r3, [r3, #12]
 6143              		.loc 1 3512 41
 6144 005e 1B04     		lsls	r3, r3, #16
3508:Drivers/STM32G4xx_HAL_Driver/Src/stm32g4xx_hal_fdcan.c ****                  pTxHeader->TxEventFifoControl |
 6145              		.loc 1 3508 15
 6146 0060 1343     		orrs	r3, r3, r2
 6147 0062 3B61     		str	r3, [r7, #16]
3513:Drivers/STM32G4xx_HAL_Driver/Src/stm32g4xx_hal_fdcan.c **** 
3514:Drivers/STM32G4xx_HAL_Driver/Src/stm32g4xx_hal_fdcan.c ****   /* Calculate Tx element address */
3515:Drivers/STM32G4xx_HAL_Driver/Src/stm32g4xx_hal_fdcan.c ****   TxAddress = (uint32_t *)(hfdcan->msgRam.TxFIFOQSA + (BufferIndex * SRAMCAN_TFQ_SIZE));
 6148              		.loc 1 3515 42
 6149 0064 FB68     		ldr	r3, [r7, #12]
 6150 0066 596D     		ldr	r1, [r3, #84]
 6151              		.loc 1 3515 68
 6152 0068 3A68     		ldr	r2, [r7]
 6153 006a 1346     		mov	r3, r2
 6154 006c DB00     		lsls	r3, r3, #3
 6155 006e 1344     		add	r3, r3, r2
 6156 0070 DB00     		lsls	r3, r3, #3
 6157              		.loc 1 3515 53
 6158 0072 0B44     		add	r3, r3, r1
 6159              		.loc 1 3515 13
 6160 0074 BB61     		str	r3, [r7, #24]
ARM GAS  C:\Users\AURORA~1\AppData\Local\Temp\ccEbooPs.s 			page 170


3516:Drivers/STM32G4xx_HAL_Driver/Src/stm32g4xx_hal_fdcan.c **** 
3517:Drivers/STM32G4xx_HAL_Driver/Src/stm32g4xx_hal_fdcan.c ****   /* Write Tx element header to the message RAM */
3518:Drivers/STM32G4xx_HAL_Driver/Src/stm32g4xx_hal_fdcan.c ****   *TxAddress = TxElementW1;
 6161              		.loc 1 3518 14
 6162 0076 BB69     		ldr	r3, [r7, #24]
 6163 0078 FA69     		ldr	r2, [r7, #28]
 6164 007a 1A60     		str	r2, [r3]
3519:Drivers/STM32G4xx_HAL_Driver/Src/stm32g4xx_hal_fdcan.c ****   TxAddress++;
 6165              		.loc 1 3519 12
 6166 007c BB69     		ldr	r3, [r7, #24]
 6167 007e 0433     		adds	r3, r3, #4
 6168 0080 BB61     		str	r3, [r7, #24]
3520:Drivers/STM32G4xx_HAL_Driver/Src/stm32g4xx_hal_fdcan.c ****   *TxAddress = TxElementW2;
 6169              		.loc 1 3520 14
 6170 0082 BB69     		ldr	r3, [r7, #24]
 6171 0084 3A69     		ldr	r2, [r7, #16]
 6172 0086 1A60     		str	r2, [r3]
3521:Drivers/STM32G4xx_HAL_Driver/Src/stm32g4xx_hal_fdcan.c ****   TxAddress++;
 6173              		.loc 1 3521 12
 6174 0088 BB69     		ldr	r3, [r7, #24]
 6175 008a 0433     		adds	r3, r3, #4
 6176 008c BB61     		str	r3, [r7, #24]
3522:Drivers/STM32G4xx_HAL_Driver/Src/stm32g4xx_hal_fdcan.c **** 
3523:Drivers/STM32G4xx_HAL_Driver/Src/stm32g4xx_hal_fdcan.c ****   /* Write Tx payload to the message RAM */
3524:Drivers/STM32G4xx_HAL_Driver/Src/stm32g4xx_hal_fdcan.c ****   for (ByteCounter = 0; ByteCounter < DLCtoBytes[pTxHeader->DataLength]; ByteCounter += 4U)
 6177              		.loc 1 3524 20
 6178 008e 0023     		movs	r3, #0
 6179 0090 7B61     		str	r3, [r7, #20]
 6180              		.loc 1 3524 3
 6181 0092 20E0     		b	.L260
 6182              	.L261:
3525:Drivers/STM32G4xx_HAL_Driver/Src/stm32g4xx_hal_fdcan.c ****   {
3526:Drivers/STM32G4xx_HAL_Driver/Src/stm32g4xx_hal_fdcan.c ****     *TxAddress = (((uint32_t)pTxData[ByteCounter + 3U] << 24U) |
 6183              		.loc 1 3526 37
 6184 0094 7B69     		ldr	r3, [r7, #20]
 6185 0096 0333     		adds	r3, r3, #3
 6186 0098 7A68     		ldr	r2, [r7, #4]
 6187 009a 1344     		add	r3, r3, r2
 6188 009c 1B78     		ldrb	r3, [r3]	@ zero_extendqisi2
 6189              		.loc 1 3526 56
 6190 009e 1A06     		lsls	r2, r3, #24
3527:Drivers/STM32G4xx_HAL_Driver/Src/stm32g4xx_hal_fdcan.c ****                   ((uint32_t)pTxData[ByteCounter + 2U] << 16U) |
 6191              		.loc 1 3527 37
 6192 00a0 7B69     		ldr	r3, [r7, #20]
 6193 00a2 0233     		adds	r3, r3, #2
 6194 00a4 7968     		ldr	r1, [r7, #4]
 6195 00a6 0B44     		add	r3, r3, r1
 6196 00a8 1B78     		ldrb	r3, [r3]	@ zero_extendqisi2
 6197              		.loc 1 3527 56
 6198 00aa 1B04     		lsls	r3, r3, #16
3526:Drivers/STM32G4xx_HAL_Driver/Src/stm32g4xx_hal_fdcan.c ****                   ((uint32_t)pTxData[ByteCounter + 2U] << 16U) |
 6199              		.loc 1 3526 64
 6200 00ac 1A43     		orrs	r2, r2, r3
3528:Drivers/STM32G4xx_HAL_Driver/Src/stm32g4xx_hal_fdcan.c ****                   ((uint32_t)pTxData[ByteCounter + 1U] << 8U)  |
 6201              		.loc 1 3528 37
 6202 00ae 7B69     		ldr	r3, [r7, #20]
 6203 00b0 0133     		adds	r3, r3, #1
ARM GAS  C:\Users\AURORA~1\AppData\Local\Temp\ccEbooPs.s 			page 171


 6204 00b2 7968     		ldr	r1, [r7, #4]
 6205 00b4 0B44     		add	r3, r3, r1
 6206 00b6 1B78     		ldrb	r3, [r3]	@ zero_extendqisi2
 6207              		.loc 1 3528 56
 6208 00b8 1B02     		lsls	r3, r3, #8
3527:Drivers/STM32G4xx_HAL_Driver/Src/stm32g4xx_hal_fdcan.c ****                   ((uint32_t)pTxData[ByteCounter + 2U] << 16U) |
 6209              		.loc 1 3527 64
 6210 00ba 1343     		orrs	r3, r3, r2
3529:Drivers/STM32G4xx_HAL_Driver/Src/stm32g4xx_hal_fdcan.c ****                   (uint32_t)pTxData[ByteCounter]);
 6211              		.loc 1 3529 36
 6212 00bc 7968     		ldr	r1, [r7, #4]
 6213 00be 7A69     		ldr	r2, [r7, #20]
 6214 00c0 0A44     		add	r2, r2, r1
 6215 00c2 1278     		ldrb	r2, [r2]	@ zero_extendqisi2
3528:Drivers/STM32G4xx_HAL_Driver/Src/stm32g4xx_hal_fdcan.c ****                   ((uint32_t)pTxData[ByteCounter + 1U] << 8U)  |
 6216              		.loc 1 3528 64
 6217 00c4 1A43     		orrs	r2, r2, r3
3526:Drivers/STM32G4xx_HAL_Driver/Src/stm32g4xx_hal_fdcan.c ****                   ((uint32_t)pTxData[ByteCounter + 2U] << 16U) |
 6218              		.loc 1 3526 16
 6219 00c6 BB69     		ldr	r3, [r7, #24]
 6220 00c8 1A60     		str	r2, [r3]
3530:Drivers/STM32G4xx_HAL_Driver/Src/stm32g4xx_hal_fdcan.c ****     TxAddress++;
 6221              		.loc 1 3530 14
 6222 00ca BB69     		ldr	r3, [r7, #24]
 6223 00cc 0433     		adds	r3, r3, #4
 6224 00ce BB61     		str	r3, [r7, #24]
3524:Drivers/STM32G4xx_HAL_Driver/Src/stm32g4xx_hal_fdcan.c ****   {
 6225              		.loc 1 3524 86 discriminator 3
 6226 00d0 7B69     		ldr	r3, [r7, #20]
 6227 00d2 0433     		adds	r3, r3, #4
 6228 00d4 7B61     		str	r3, [r7, #20]
 6229              	.L260:
3524:Drivers/STM32G4xx_HAL_Driver/Src/stm32g4xx_hal_fdcan.c ****   {
 6230              		.loc 1 3524 59 discriminator 1
 6231 00d6 BB68     		ldr	r3, [r7, #8]
 6232 00d8 DB68     		ldr	r3, [r3, #12]
3524:Drivers/STM32G4xx_HAL_Driver/Src/stm32g4xx_hal_fdcan.c ****   {
 6233              		.loc 1 3524 49 discriminator 1
 6234 00da 064A     		ldr	r2, .L262
 6235 00dc D35C     		ldrb	r3, [r2, r3]	@ zero_extendqisi2
 6236 00de 1A46     		mov	r2, r3
3524:Drivers/STM32G4xx_HAL_Driver/Src/stm32g4xx_hal_fdcan.c ****   {
 6237              		.loc 1 3524 37 discriminator 1
 6238 00e0 7B69     		ldr	r3, [r7, #20]
 6239 00e2 9342     		cmp	r3, r2
 6240 00e4 D6D3     		bcc	.L261
3531:Drivers/STM32G4xx_HAL_Driver/Src/stm32g4xx_hal_fdcan.c ****   }
3532:Drivers/STM32G4xx_HAL_Driver/Src/stm32g4xx_hal_fdcan.c **** }
 6241              		.loc 1 3532 1
 6242 00e6 00BF     		nop
 6243 00e8 00BF     		nop
 6244 00ea 2437     		adds	r7, r7, #36
 6245              	.LCFI363:
 6246              		.cfi_def_cfa_offset 4
 6247 00ec BD46     		mov	sp, r7
 6248              	.LCFI364:
 6249              		.cfi_def_cfa_register 13
ARM GAS  C:\Users\AURORA~1\AppData\Local\Temp\ccEbooPs.s 			page 172


 6250              		@ sp needed
 6251 00ee 5DF8047B 		ldr	r7, [sp], #4
 6252              	.LCFI365:
 6253              		.cfi_restore 7
 6254              		.cfi_def_cfa_offset 0
 6255 00f2 7047     		bx	lr
 6256              	.L263:
 6257              		.align	2
 6258              	.L262:
 6259 00f4 00000000 		.word	DLCtoBytes
 6260              		.cfi_endproc
 6261              	.LFE193:
 6263              		.text
 6264              	.Letext0:
 6265              		.file 2 "D:/msys64/mingw64/arm-none-eabi/include/machine/_default_types.h"
 6266              		.file 3 "D:/msys64/mingw64/arm-none-eabi/include/sys/_stdint.h"
 6267              		.file 4 "Drivers/CMSIS/Device/ST/STM32G4xx/Include/stm32g474xx.h"
 6268              		.file 5 "Drivers/CMSIS/Device/ST/STM32G4xx/Include/stm32g4xx.h"
 6269              		.file 6 "Drivers/STM32G4xx_HAL_Driver/Inc/stm32g4xx_hal_def.h"
 6270              		.file 7 "Drivers/STM32G4xx_HAL_Driver/Inc/stm32g4xx_hal_fdcan.h"
 6271              		.file 8 "Drivers/STM32G4xx_HAL_Driver/Inc/stm32g4xx_hal.h"
ARM GAS  C:\Users\AURORA~1\AppData\Local\Temp\ccEbooPs.s 			page 173


DEFINED SYMBOLS
                            *ABS*:00000000 stm32g4xx_hal_fdcan.c
C:\Users\AURORA~1\AppData\Local\Temp\ccEbooPs.s:21     .rodata.DLCtoBytes:00000000 $d
C:\Users\AURORA~1\AppData\Local\Temp\ccEbooPs.s:24     .rodata.DLCtoBytes:00000000 DLCtoBytes
C:\Users\AURORA~1\AppData\Local\Temp\ccEbooPs.s:28     .text.HAL_FDCAN_Init:00000000 $t
C:\Users\AURORA~1\AppData\Local\Temp\ccEbooPs.s:34     .text.HAL_FDCAN_Init:00000000 HAL_FDCAN_Init
C:\Users\AURORA~1\AppData\Local\Temp\ccEbooPs.s:570    .text.HAL_FDCAN_MspInit:00000000 HAL_FDCAN_MspInit
C:\Users\AURORA~1\AppData\Local\Temp\ccEbooPs.s:5902   .text.FDCAN_CalcultateRamBlockAddresses:00000000 FDCAN_CalcultateRamBlockAddresses
C:\Users\AURORA~1\AppData\Local\Temp\ccEbooPs.s:487    .text.HAL_FDCAN_Init:000002ac $d
C:\Users\AURORA~1\AppData\Local\Temp\ccEbooPs.s:493    .text.HAL_FDCAN_DeInit:00000000 $t
C:\Users\AURORA~1\AppData\Local\Temp\ccEbooPs.s:499    .text.HAL_FDCAN_DeInit:00000000 HAL_FDCAN_DeInit
C:\Users\AURORA~1\AppData\Local\Temp\ccEbooPs.s:2590   .text.HAL_FDCAN_Stop:00000000 HAL_FDCAN_Stop
C:\Users\AURORA~1\AppData\Local\Temp\ccEbooPs.s:612    .text.HAL_FDCAN_MspDeInit:00000000 HAL_FDCAN_MspDeInit
C:\Users\AURORA~1\AppData\Local\Temp\ccEbooPs.s:564    .text.HAL_FDCAN_MspInit:00000000 $t
C:\Users\AURORA~1\AppData\Local\Temp\ccEbooPs.s:606    .text.HAL_FDCAN_MspDeInit:00000000 $t
C:\Users\AURORA~1\AppData\Local\Temp\ccEbooPs.s:648    .text.HAL_FDCAN_EnterPowerDownMode:00000000 $t
C:\Users\AURORA~1\AppData\Local\Temp\ccEbooPs.s:654    .text.HAL_FDCAN_EnterPowerDownMode:00000000 HAL_FDCAN_EnterPowerDownMode
C:\Users\AURORA~1\AppData\Local\Temp\ccEbooPs.s:737    .text.HAL_FDCAN_ExitPowerDownMode:00000000 $t
C:\Users\AURORA~1\AppData\Local\Temp\ccEbooPs.s:743    .text.HAL_FDCAN_ExitPowerDownMode:00000000 HAL_FDCAN_ExitPowerDownMode
C:\Users\AURORA~1\AppData\Local\Temp\ccEbooPs.s:834    .text.HAL_FDCAN_ConfigFilter:00000000 $t
C:\Users\AURORA~1\AppData\Local\Temp\ccEbooPs.s:840    .text.HAL_FDCAN_ConfigFilter:00000000 HAL_FDCAN_ConfigFilter
C:\Users\AURORA~1\AppData\Local\Temp\ccEbooPs.s:1000   .text.HAL_FDCAN_ConfigGlobalFilter:00000000 $t
C:\Users\AURORA~1\AppData\Local\Temp\ccEbooPs.s:1006   .text.HAL_FDCAN_ConfigGlobalFilter:00000000 HAL_FDCAN_ConfigGlobalFilter
C:\Users\AURORA~1\AppData\Local\Temp\ccEbooPs.s:1085   .text.HAL_FDCAN_ConfigExtendedIdMask:00000000 $t
C:\Users\AURORA~1\AppData\Local\Temp\ccEbooPs.s:1091   .text.HAL_FDCAN_ConfigExtendedIdMask:00000000 HAL_FDCAN_ConfigExtendedIdMask
C:\Users\AURORA~1\AppData\Local\Temp\ccEbooPs.s:1155   .text.HAL_FDCAN_ConfigRxFifoOverwrite:00000000 $t
C:\Users\AURORA~1\AppData\Local\Temp\ccEbooPs.s:1161   .text.HAL_FDCAN_ConfigRxFifoOverwrite:00000000 HAL_FDCAN_ConfigRxFifoOverwrite
C:\Users\AURORA~1\AppData\Local\Temp\ccEbooPs.s:1249   .text.HAL_FDCAN_ConfigRamWatchdog:00000000 $t
C:\Users\AURORA~1\AppData\Local\Temp\ccEbooPs.s:1255   .text.HAL_FDCAN_ConfigRamWatchdog:00000000 HAL_FDCAN_ConfigRamWatchdog
C:\Users\AURORA~1\AppData\Local\Temp\ccEbooPs.s:1323   .text.HAL_FDCAN_ConfigTimestampCounter:00000000 $t
C:\Users\AURORA~1\AppData\Local\Temp\ccEbooPs.s:1329   .text.HAL_FDCAN_ConfigTimestampCounter:00000000 HAL_FDCAN_ConfigTimestampCounter
C:\Users\AURORA~1\AppData\Local\Temp\ccEbooPs.s:1397   .text.HAL_FDCAN_EnableTimestampCounter:00000000 $t
C:\Users\AURORA~1\AppData\Local\Temp\ccEbooPs.s:1403   .text.HAL_FDCAN_EnableTimestampCounter:00000000 HAL_FDCAN_EnableTimestampCounter
C:\Users\AURORA~1\AppData\Local\Temp\ccEbooPs.s:1471   .text.HAL_FDCAN_DisableTimestampCounter:00000000 $t
C:\Users\AURORA~1\AppData\Local\Temp\ccEbooPs.s:1477   .text.HAL_FDCAN_DisableTimestampCounter:00000000 HAL_FDCAN_DisableTimestampCounter
C:\Users\AURORA~1\AppData\Local\Temp\ccEbooPs.s:1542   .text.HAL_FDCAN_GetTimestampCounter:00000000 $t
C:\Users\AURORA~1\AppData\Local\Temp\ccEbooPs.s:1548   .text.HAL_FDCAN_GetTimestampCounter:00000000 HAL_FDCAN_GetTimestampCounter
C:\Users\AURORA~1\AppData\Local\Temp\ccEbooPs.s:1591   .text.HAL_FDCAN_ResetTimestampCounter:00000000 $t
C:\Users\AURORA~1\AppData\Local\Temp\ccEbooPs.s:1597   .text.HAL_FDCAN_ResetTimestampCounter:00000000 HAL_FDCAN_ResetTimestampCounter
C:\Users\AURORA~1\AppData\Local\Temp\ccEbooPs.s:1662   .text.HAL_FDCAN_ConfigTimeoutCounter:00000000 $t
C:\Users\AURORA~1\AppData\Local\Temp\ccEbooPs.s:1668   .text.HAL_FDCAN_ConfigTimeoutCounter:00000000 HAL_FDCAN_ConfigTimeoutCounter
C:\Users\AURORA~1\AppData\Local\Temp\ccEbooPs.s:1741   .text.HAL_FDCAN_EnableTimeoutCounter:00000000 $t
C:\Users\AURORA~1\AppData\Local\Temp\ccEbooPs.s:1747   .text.HAL_FDCAN_EnableTimeoutCounter:00000000 HAL_FDCAN_EnableTimeoutCounter
C:\Users\AURORA~1\AppData\Local\Temp\ccEbooPs.s:1812   .text.HAL_FDCAN_DisableTimeoutCounter:00000000 $t
C:\Users\AURORA~1\AppData\Local\Temp\ccEbooPs.s:1818   .text.HAL_FDCAN_DisableTimeoutCounter:00000000 HAL_FDCAN_DisableTimeoutCounter
C:\Users\AURORA~1\AppData\Local\Temp\ccEbooPs.s:1883   .text.HAL_FDCAN_GetTimeoutCounter:00000000 $t
C:\Users\AURORA~1\AppData\Local\Temp\ccEbooPs.s:1889   .text.HAL_FDCAN_GetTimeoutCounter:00000000 HAL_FDCAN_GetTimeoutCounter
C:\Users\AURORA~1\AppData\Local\Temp\ccEbooPs.s:1932   .text.HAL_FDCAN_ResetTimeoutCounter:00000000 $t
C:\Users\AURORA~1\AppData\Local\Temp\ccEbooPs.s:1938   .text.HAL_FDCAN_ResetTimeoutCounter:00000000 HAL_FDCAN_ResetTimeoutCounter
C:\Users\AURORA~1\AppData\Local\Temp\ccEbooPs.s:2003   .text.HAL_FDCAN_ConfigTxDelayCompensation:00000000 $t
C:\Users\AURORA~1\AppData\Local\Temp\ccEbooPs.s:2009   .text.HAL_FDCAN_ConfigTxDelayCompensation:00000000 HAL_FDCAN_ConfigTxDelayCompensation
C:\Users\AURORA~1\AppData\Local\Temp\ccEbooPs.s:2079   .text.HAL_FDCAN_EnableTxDelayCompensation:00000000 $t
C:\Users\AURORA~1\AppData\Local\Temp\ccEbooPs.s:2085   .text.HAL_FDCAN_EnableTxDelayCompensation:00000000 HAL_FDCAN_EnableTxDelayCompensation
C:\Users\AURORA~1\AppData\Local\Temp\ccEbooPs.s:2150   .text.HAL_FDCAN_DisableTxDelayCompensation:00000000 $t
C:\Users\AURORA~1\AppData\Local\Temp\ccEbooPs.s:2156   .text.HAL_FDCAN_DisableTxDelayCompensation:00000000 HAL_FDCAN_DisableTxDelayCompensation
C:\Users\AURORA~1\AppData\Local\Temp\ccEbooPs.s:2221   .text.HAL_FDCAN_EnableISOMode:00000000 $t
C:\Users\AURORA~1\AppData\Local\Temp\ccEbooPs.s:2227   .text.HAL_FDCAN_EnableISOMode:00000000 HAL_FDCAN_EnableISOMode
ARM GAS  C:\Users\AURORA~1\AppData\Local\Temp\ccEbooPs.s 			page 174


C:\Users\AURORA~1\AppData\Local\Temp\ccEbooPs.s:2292   .text.HAL_FDCAN_DisableISOMode:00000000 $t
C:\Users\AURORA~1\AppData\Local\Temp\ccEbooPs.s:2298   .text.HAL_FDCAN_DisableISOMode:00000000 HAL_FDCAN_DisableISOMode
C:\Users\AURORA~1\AppData\Local\Temp\ccEbooPs.s:2363   .text.HAL_FDCAN_EnableEdgeFiltering:00000000 $t
C:\Users\AURORA~1\AppData\Local\Temp\ccEbooPs.s:2369   .text.HAL_FDCAN_EnableEdgeFiltering:00000000 HAL_FDCAN_EnableEdgeFiltering
C:\Users\AURORA~1\AppData\Local\Temp\ccEbooPs.s:2434   .text.HAL_FDCAN_DisableEdgeFiltering:00000000 $t
C:\Users\AURORA~1\AppData\Local\Temp\ccEbooPs.s:2440   .text.HAL_FDCAN_DisableEdgeFiltering:00000000 HAL_FDCAN_DisableEdgeFiltering
C:\Users\AURORA~1\AppData\Local\Temp\ccEbooPs.s:2505   .text.HAL_FDCAN_Start:00000000 $t
C:\Users\AURORA~1\AppData\Local\Temp\ccEbooPs.s:2511   .text.HAL_FDCAN_Start:00000000 HAL_FDCAN_Start
C:\Users\AURORA~1\AppData\Local\Temp\ccEbooPs.s:2584   .text.HAL_FDCAN_Stop:00000000 $t
C:\Users\AURORA~1\AppData\Local\Temp\ccEbooPs.s:2759   .text.HAL_FDCAN_AddMessageToTxFifoQ:00000000 $t
C:\Users\AURORA~1\AppData\Local\Temp\ccEbooPs.s:2765   .text.HAL_FDCAN_AddMessageToTxFifoQ:00000000 HAL_FDCAN_AddMessageToTxFifoQ
C:\Users\AURORA~1\AppData\Local\Temp\ccEbooPs.s:6058   .text.FDCAN_CopyMessageToRAM:00000000 FDCAN_CopyMessageToRAM
C:\Users\AURORA~1\AppData\Local\Temp\ccEbooPs.s:2873   .text.HAL_FDCAN_GetLatestTxFifoQRequestBuffer:00000000 $t
C:\Users\AURORA~1\AppData\Local\Temp\ccEbooPs.s:2879   .text.HAL_FDCAN_GetLatestTxFifoQRequestBuffer:00000000 HAL_FDCAN_GetLatestTxFifoQRequestBuffer
C:\Users\AURORA~1\AppData\Local\Temp\ccEbooPs.s:2918   .text.HAL_FDCAN_AbortTxRequest:00000000 $t
C:\Users\AURORA~1\AppData\Local\Temp\ccEbooPs.s:2924   .text.HAL_FDCAN_AbortTxRequest:00000000 HAL_FDCAN_AbortTxRequest
C:\Users\AURORA~1\AppData\Local\Temp\ccEbooPs.s:2988   .text.HAL_FDCAN_GetRxMessage:00000000 $t
C:\Users\AURORA~1\AppData\Local\Temp\ccEbooPs.s:2994   .text.HAL_FDCAN_GetRxMessage:00000000 HAL_FDCAN_GetRxMessage
C:\Users\AURORA~1\AppData\Local\Temp\ccEbooPs.s:3368   .text.HAL_FDCAN_GetRxMessage:0000020c $d
C:\Users\AURORA~1\AppData\Local\Temp\ccEbooPs.s:3373   .text.HAL_FDCAN_GetTxEvent:00000000 $t
C:\Users\AURORA~1\AppData\Local\Temp\ccEbooPs.s:3379   .text.HAL_FDCAN_GetTxEvent:00000000 HAL_FDCAN_GetTxEvent
C:\Users\AURORA~1\AppData\Local\Temp\ccEbooPs.s:3588   .text.HAL_FDCAN_GetHighPriorityMessageStatus:00000000 $t
C:\Users\AURORA~1\AppData\Local\Temp\ccEbooPs.s:3594   .text.HAL_FDCAN_GetHighPriorityMessageStatus:00000000 HAL_FDCAN_GetHighPriorityMessageStatus
C:\Users\AURORA~1\AppData\Local\Temp\ccEbooPs.s:3675   .text.HAL_FDCAN_GetProtocolStatus:00000000 $t
C:\Users\AURORA~1\AppData\Local\Temp\ccEbooPs.s:3681   .text.HAL_FDCAN_GetProtocolStatus:00000000 HAL_FDCAN_GetProtocolStatus
C:\Users\AURORA~1\AppData\Local\Temp\ccEbooPs.s:3801   .text.HAL_FDCAN_GetErrorCounters:00000000 $t
C:\Users\AURORA~1\AppData\Local\Temp\ccEbooPs.s:3807   .text.HAL_FDCAN_GetErrorCounters:00000000 HAL_FDCAN_GetErrorCounters
C:\Users\AURORA~1\AppData\Local\Temp\ccEbooPs.s:3879   .text.HAL_FDCAN_IsTxBufferMessagePending:00000000 $t
C:\Users\AURORA~1\AppData\Local\Temp\ccEbooPs.s:3885   .text.HAL_FDCAN_IsTxBufferMessagePending:00000000 HAL_FDCAN_IsTxBufferMessagePending
C:\Users\AURORA~1\AppData\Local\Temp\ccEbooPs.s:3940   .text.HAL_FDCAN_GetRxFifoFillLevel:00000000 $t
C:\Users\AURORA~1\AppData\Local\Temp\ccEbooPs.s:3946   .text.HAL_FDCAN_GetRxFifoFillLevel:00000000 HAL_FDCAN_GetRxFifoFillLevel
C:\Users\AURORA~1\AppData\Local\Temp\ccEbooPs.s:4008   .text.HAL_FDCAN_GetTxFifoFreeLevel:00000000 $t
C:\Users\AURORA~1\AppData\Local\Temp\ccEbooPs.s:4014   .text.HAL_FDCAN_GetTxFifoFreeLevel:00000000 HAL_FDCAN_GetTxFifoFreeLevel
C:\Users\AURORA~1\AppData\Local\Temp\ccEbooPs.s:4060   .text.HAL_FDCAN_IsRestrictedOperationMode:00000000 $t
C:\Users\AURORA~1\AppData\Local\Temp\ccEbooPs.s:4066   .text.HAL_FDCAN_IsRestrictedOperationMode:00000000 HAL_FDCAN_IsRestrictedOperationMode
C:\Users\AURORA~1\AppData\Local\Temp\ccEbooPs.s:4114   .text.HAL_FDCAN_ExitRestrictedOperationMode:00000000 $t
C:\Users\AURORA~1\AppData\Local\Temp\ccEbooPs.s:4120   .text.HAL_FDCAN_ExitRestrictedOperationMode:00000000 HAL_FDCAN_ExitRestrictedOperationMode
C:\Users\AURORA~1\AppData\Local\Temp\ccEbooPs.s:4191   .text.HAL_FDCAN_ConfigInterruptLines:00000000 $t
C:\Users\AURORA~1\AppData\Local\Temp\ccEbooPs.s:4197   .text.HAL_FDCAN_ConfigInterruptLines:00000000 HAL_FDCAN_ConfigInterruptLines
C:\Users\AURORA~1\AppData\Local\Temp\ccEbooPs.s:4288   .text.HAL_FDCAN_ActivateNotification:00000000 $t
C:\Users\AURORA~1\AppData\Local\Temp\ccEbooPs.s:4294   .text.HAL_FDCAN_ActivateNotification:00000000 HAL_FDCAN_ActivateNotification
C:\Users\AURORA~1\AppData\Local\Temp\ccEbooPs.s:4606   .text.HAL_FDCAN_DeactivateNotification:00000000 $t
C:\Users\AURORA~1\AppData\Local\Temp\ccEbooPs.s:4612   .text.HAL_FDCAN_DeactivateNotification:00000000 HAL_FDCAN_DeactivateNotification
C:\Users\AURORA~1\AppData\Local\Temp\ccEbooPs.s:4922   .text.HAL_FDCAN_IRQHandler:00000000 $t
C:\Users\AURORA~1\AppData\Local\Temp\ccEbooPs.s:4928   .text.HAL_FDCAN_IRQHandler:00000000 HAL_FDCAN_IRQHandler
C:\Users\AURORA~1\AppData\Local\Temp\ccEbooPs.s:5685   .text.HAL_FDCAN_HighPriorityMessageCallback:00000000 HAL_FDCAN_HighPriorityMessageCallback
C:\Users\AURORA~1\AppData\Local\Temp\ccEbooPs.s:5558   .text.HAL_FDCAN_TxBufferAbortCallback:00000000 HAL_FDCAN_TxBufferAbortCallback
C:\Users\AURORA~1\AppData\Local\Temp\ccEbooPs.s:5344   .text.HAL_FDCAN_TxEventFifoCallback:00000000 HAL_FDCAN_TxEventFifoCallback
C:\Users\AURORA~1\AppData\Local\Temp\ccEbooPs.s:5387   .text.HAL_FDCAN_RxFifo0Callback:00000000 HAL_FDCAN_RxFifo0Callback
C:\Users\AURORA~1\AppData\Local\Temp\ccEbooPs.s:5430   .text.HAL_FDCAN_RxFifo1Callback:00000000 HAL_FDCAN_RxFifo1Callback
C:\Users\AURORA~1\AppData\Local\Temp\ccEbooPs.s:5473   .text.HAL_FDCAN_TxFifoEmptyCallback:00000000 HAL_FDCAN_TxFifoEmptyCallback
C:\Users\AURORA~1\AppData\Local\Temp\ccEbooPs.s:5515   .text.HAL_FDCAN_TxBufferCompleteCallback:00000000 HAL_FDCAN_TxBufferCompleteCallback
C:\Users\AURORA~1\AppData\Local\Temp\ccEbooPs.s:5601   .text.HAL_FDCAN_TimestampWraparoundCallback:00000000 HAL_FDCAN_TimestampWraparoundCallback
C:\Users\AURORA~1\AppData\Local\Temp\ccEbooPs.s:5643   .text.HAL_FDCAN_TimeoutOccurredCallback:00000000 HAL_FDCAN_TimeoutOccurredCallback
C:\Users\AURORA~1\AppData\Local\Temp\ccEbooPs.s:5769   .text.HAL_FDCAN_ErrorStatusCallback:00000000 HAL_FDCAN_ErrorStatusCallback
C:\Users\AURORA~1\AppData\Local\Temp\ccEbooPs.s:5727   .text.HAL_FDCAN_ErrorCallback:00000000 HAL_FDCAN_ErrorCallback
C:\Users\AURORA~1\AppData\Local\Temp\ccEbooPs.s:5338   .text.HAL_FDCAN_TxEventFifoCallback:00000000 $t
ARM GAS  C:\Users\AURORA~1\AppData\Local\Temp\ccEbooPs.s 			page 175


C:\Users\AURORA~1\AppData\Local\Temp\ccEbooPs.s:5381   .text.HAL_FDCAN_RxFifo0Callback:00000000 $t
C:\Users\AURORA~1\AppData\Local\Temp\ccEbooPs.s:5424   .text.HAL_FDCAN_RxFifo1Callback:00000000 $t
C:\Users\AURORA~1\AppData\Local\Temp\ccEbooPs.s:5467   .text.HAL_FDCAN_TxFifoEmptyCallback:00000000 $t
C:\Users\AURORA~1\AppData\Local\Temp\ccEbooPs.s:5509   .text.HAL_FDCAN_TxBufferCompleteCallback:00000000 $t
C:\Users\AURORA~1\AppData\Local\Temp\ccEbooPs.s:5552   .text.HAL_FDCAN_TxBufferAbortCallback:00000000 $t
C:\Users\AURORA~1\AppData\Local\Temp\ccEbooPs.s:5595   .text.HAL_FDCAN_TimestampWraparoundCallback:00000000 $t
C:\Users\AURORA~1\AppData\Local\Temp\ccEbooPs.s:5637   .text.HAL_FDCAN_TimeoutOccurredCallback:00000000 $t
C:\Users\AURORA~1\AppData\Local\Temp\ccEbooPs.s:5679   .text.HAL_FDCAN_HighPriorityMessageCallback:00000000 $t
C:\Users\AURORA~1\AppData\Local\Temp\ccEbooPs.s:5721   .text.HAL_FDCAN_ErrorCallback:00000000 $t
C:\Users\AURORA~1\AppData\Local\Temp\ccEbooPs.s:5763   .text.HAL_FDCAN_ErrorStatusCallback:00000000 $t
C:\Users\AURORA~1\AppData\Local\Temp\ccEbooPs.s:5806   .text.HAL_FDCAN_GetState:00000000 $t
C:\Users\AURORA~1\AppData\Local\Temp\ccEbooPs.s:5812   .text.HAL_FDCAN_GetState:00000000 HAL_FDCAN_GetState
C:\Users\AURORA~1\AppData\Local\Temp\ccEbooPs.s:5852   .text.HAL_FDCAN_GetError:00000000 $t
C:\Users\AURORA~1\AppData\Local\Temp\ccEbooPs.s:5858   .text.HAL_FDCAN_GetError:00000000 HAL_FDCAN_GetError
C:\Users\AURORA~1\AppData\Local\Temp\ccEbooPs.s:5897   .text.FDCAN_CalcultateRamBlockAddresses:00000000 $t
C:\Users\AURORA~1\AppData\Local\Temp\ccEbooPs.s:6046   .text.FDCAN_CalcultateRamBlockAddresses:000000cc $d
C:\Users\AURORA~1\AppData\Local\Temp\ccEbooPs.s:6053   .text.FDCAN_CopyMessageToRAM:00000000 $t
C:\Users\AURORA~1\AppData\Local\Temp\ccEbooPs.s:6259   .text.FDCAN_CopyMessageToRAM:000000f4 $d

UNDEFINED SYMBOLS
HAL_GetTick
