ARM GAS  C:\Users\AURORA~1\AppData\Local\Temp\ccnnMEkR.s 			page 1


   1              		.cpu cortex-m4
   2              		.arch armv7e-m
   3              		.fpu fpv4-sp-d16
   4              		.eabi_attribute 27, 1
   5              		.eabi_attribute 28, 1
   6              		.eabi_attribute 20, 1
   7              		.eabi_attribute 21, 1
   8              		.eabi_attribute 23, 3
   9              		.eabi_attribute 24, 1
  10              		.eabi_attribute 25, 1
  11              		.eabi_attribute 26, 1
  12              		.eabi_attribute 30, 6
  13              		.eabi_attribute 34, 1
  14              		.eabi_attribute 18, 4
  15              		.file	"stm32g4xx_hal_pwr.c"
  16              		.text
  17              	.Ltext0:
  18              		.cfi_sections	.debug_frame
  19              		.file 1 "Drivers/STM32G4xx_HAL_Driver/Src/stm32g4xx_hal_pwr.c"
  20              		.section	.text.HAL_PWR_DeInit,"ax",%progbits
  21              		.align	1
  22              		.global	HAL_PWR_DeInit
  23              		.syntax unified
  24              		.thumb
  25              		.thumb_func
  27              	HAL_PWR_DeInit:
  28              	.LFB132:
   1:Drivers/STM32G4xx_HAL_Driver/Src/stm32g4xx_hal_pwr.c **** /**
   2:Drivers/STM32G4xx_HAL_Driver/Src/stm32g4xx_hal_pwr.c ****   ******************************************************************************
   3:Drivers/STM32G4xx_HAL_Driver/Src/stm32g4xx_hal_pwr.c ****   * @file    stm32g4xx_hal_pwr.c
   4:Drivers/STM32G4xx_HAL_Driver/Src/stm32g4xx_hal_pwr.c ****   * @author  MCD Application Team
   5:Drivers/STM32G4xx_HAL_Driver/Src/stm32g4xx_hal_pwr.c ****   * @brief   PWR HAL module driver.
   6:Drivers/STM32G4xx_HAL_Driver/Src/stm32g4xx_hal_pwr.c ****   *          This file provides firmware functions to manage the following
   7:Drivers/STM32G4xx_HAL_Driver/Src/stm32g4xx_hal_pwr.c ****   *          functionalities of the Power Controller (PWR) peripheral:
   8:Drivers/STM32G4xx_HAL_Driver/Src/stm32g4xx_hal_pwr.c ****   *           + Initialization/de-initialization functions
   9:Drivers/STM32G4xx_HAL_Driver/Src/stm32g4xx_hal_pwr.c ****   *           + Peripheral Control functions
  10:Drivers/STM32G4xx_HAL_Driver/Src/stm32g4xx_hal_pwr.c ****   *
  11:Drivers/STM32G4xx_HAL_Driver/Src/stm32g4xx_hal_pwr.c ****   ******************************************************************************
  12:Drivers/STM32G4xx_HAL_Driver/Src/stm32g4xx_hal_pwr.c ****   * @attention
  13:Drivers/STM32G4xx_HAL_Driver/Src/stm32g4xx_hal_pwr.c ****   *
  14:Drivers/STM32G4xx_HAL_Driver/Src/stm32g4xx_hal_pwr.c ****   * Copyright (c) 2019 STMicroelectronics.
  15:Drivers/STM32G4xx_HAL_Driver/Src/stm32g4xx_hal_pwr.c ****   * All rights reserved.
  16:Drivers/STM32G4xx_HAL_Driver/Src/stm32g4xx_hal_pwr.c ****   *
  17:Drivers/STM32G4xx_HAL_Driver/Src/stm32g4xx_hal_pwr.c ****   * This software is licensed under terms that can be found in the LICENSE file
  18:Drivers/STM32G4xx_HAL_Driver/Src/stm32g4xx_hal_pwr.c ****   * in the root directory of this software component.
  19:Drivers/STM32G4xx_HAL_Driver/Src/stm32g4xx_hal_pwr.c ****   * If no LICENSE file comes with this software, it is provided AS-IS.
  20:Drivers/STM32G4xx_HAL_Driver/Src/stm32g4xx_hal_pwr.c ****   *
  21:Drivers/STM32G4xx_HAL_Driver/Src/stm32g4xx_hal_pwr.c ****   ******************************************************************************
  22:Drivers/STM32G4xx_HAL_Driver/Src/stm32g4xx_hal_pwr.c ****   */
  23:Drivers/STM32G4xx_HAL_Driver/Src/stm32g4xx_hal_pwr.c **** 
  24:Drivers/STM32G4xx_HAL_Driver/Src/stm32g4xx_hal_pwr.c **** /* Includes ------------------------------------------------------------------*/
  25:Drivers/STM32G4xx_HAL_Driver/Src/stm32g4xx_hal_pwr.c **** #include "stm32g4xx_hal.h"
  26:Drivers/STM32G4xx_HAL_Driver/Src/stm32g4xx_hal_pwr.c **** 
  27:Drivers/STM32G4xx_HAL_Driver/Src/stm32g4xx_hal_pwr.c **** /** @addtogroup STM32G4xx_HAL_Driver
  28:Drivers/STM32G4xx_HAL_Driver/Src/stm32g4xx_hal_pwr.c ****   * @{
  29:Drivers/STM32G4xx_HAL_Driver/Src/stm32g4xx_hal_pwr.c ****   */
  30:Drivers/STM32G4xx_HAL_Driver/Src/stm32g4xx_hal_pwr.c **** 
ARM GAS  C:\Users\AURORA~1\AppData\Local\Temp\ccnnMEkR.s 			page 2


  31:Drivers/STM32G4xx_HAL_Driver/Src/stm32g4xx_hal_pwr.c **** /** @defgroup PWR PWR
  32:Drivers/STM32G4xx_HAL_Driver/Src/stm32g4xx_hal_pwr.c ****   * @brief PWR HAL module driver
  33:Drivers/STM32G4xx_HAL_Driver/Src/stm32g4xx_hal_pwr.c ****   * @{
  34:Drivers/STM32G4xx_HAL_Driver/Src/stm32g4xx_hal_pwr.c ****   */
  35:Drivers/STM32G4xx_HAL_Driver/Src/stm32g4xx_hal_pwr.c **** 
  36:Drivers/STM32G4xx_HAL_Driver/Src/stm32g4xx_hal_pwr.c **** #ifdef HAL_PWR_MODULE_ENABLED
  37:Drivers/STM32G4xx_HAL_Driver/Src/stm32g4xx_hal_pwr.c **** 
  38:Drivers/STM32G4xx_HAL_Driver/Src/stm32g4xx_hal_pwr.c **** /* Private typedef -----------------------------------------------------------*/
  39:Drivers/STM32G4xx_HAL_Driver/Src/stm32g4xx_hal_pwr.c **** /* Private define ------------------------------------------------------------*/
  40:Drivers/STM32G4xx_HAL_Driver/Src/stm32g4xx_hal_pwr.c **** 
  41:Drivers/STM32G4xx_HAL_Driver/Src/stm32g4xx_hal_pwr.c **** /** @defgroup PWR_Private_Defines PWR Private Defines
  42:Drivers/STM32G4xx_HAL_Driver/Src/stm32g4xx_hal_pwr.c ****   * @{
  43:Drivers/STM32G4xx_HAL_Driver/Src/stm32g4xx_hal_pwr.c ****   */
  44:Drivers/STM32G4xx_HAL_Driver/Src/stm32g4xx_hal_pwr.c **** 
  45:Drivers/STM32G4xx_HAL_Driver/Src/stm32g4xx_hal_pwr.c **** /** @defgroup PWR_PVD_Mode_Mask PWR PVD Mode Mask
  46:Drivers/STM32G4xx_HAL_Driver/Src/stm32g4xx_hal_pwr.c ****   * @{
  47:Drivers/STM32G4xx_HAL_Driver/Src/stm32g4xx_hal_pwr.c ****   */
  48:Drivers/STM32G4xx_HAL_Driver/Src/stm32g4xx_hal_pwr.c **** #define PVD_MODE_IT               ((uint32_t)0x00010000)  /*!< Mask for interruption yielded by PVD
  49:Drivers/STM32G4xx_HAL_Driver/Src/stm32g4xx_hal_pwr.c **** #define PVD_MODE_EVT              ((uint32_t)0x00020000)  /*!< Mask for event yielded by PVD thresh
  50:Drivers/STM32G4xx_HAL_Driver/Src/stm32g4xx_hal_pwr.c **** #define PVD_RISING_EDGE           ((uint32_t)0x00000001)  /*!< Mask for rising edge set as PVD trig
  51:Drivers/STM32G4xx_HAL_Driver/Src/stm32g4xx_hal_pwr.c **** #define PVD_FALLING_EDGE          ((uint32_t)0x00000002)  /*!< Mask for falling edge set as PVD tri
  52:Drivers/STM32G4xx_HAL_Driver/Src/stm32g4xx_hal_pwr.c **** /**
  53:Drivers/STM32G4xx_HAL_Driver/Src/stm32g4xx_hal_pwr.c ****   * @}
  54:Drivers/STM32G4xx_HAL_Driver/Src/stm32g4xx_hal_pwr.c ****   */
  55:Drivers/STM32G4xx_HAL_Driver/Src/stm32g4xx_hal_pwr.c **** 
  56:Drivers/STM32G4xx_HAL_Driver/Src/stm32g4xx_hal_pwr.c **** /**
  57:Drivers/STM32G4xx_HAL_Driver/Src/stm32g4xx_hal_pwr.c ****   * @}
  58:Drivers/STM32G4xx_HAL_Driver/Src/stm32g4xx_hal_pwr.c ****   */
  59:Drivers/STM32G4xx_HAL_Driver/Src/stm32g4xx_hal_pwr.c **** 
  60:Drivers/STM32G4xx_HAL_Driver/Src/stm32g4xx_hal_pwr.c **** /* Private macro -------------------------------------------------------------*/
  61:Drivers/STM32G4xx_HAL_Driver/Src/stm32g4xx_hal_pwr.c **** /* Private variables ---------------------------------------------------------*/
  62:Drivers/STM32G4xx_HAL_Driver/Src/stm32g4xx_hal_pwr.c **** /* Private function prototypes -----------------------------------------------*/
  63:Drivers/STM32G4xx_HAL_Driver/Src/stm32g4xx_hal_pwr.c **** /* Exported functions --------------------------------------------------------*/
  64:Drivers/STM32G4xx_HAL_Driver/Src/stm32g4xx_hal_pwr.c **** 
  65:Drivers/STM32G4xx_HAL_Driver/Src/stm32g4xx_hal_pwr.c **** /** @defgroup PWR_Exported_Functions PWR Exported Functions
  66:Drivers/STM32G4xx_HAL_Driver/Src/stm32g4xx_hal_pwr.c ****   * @{
  67:Drivers/STM32G4xx_HAL_Driver/Src/stm32g4xx_hal_pwr.c ****   */
  68:Drivers/STM32G4xx_HAL_Driver/Src/stm32g4xx_hal_pwr.c **** 
  69:Drivers/STM32G4xx_HAL_Driver/Src/stm32g4xx_hal_pwr.c **** /** @defgroup PWR_Exported_Functions_Group1 Initialization and de-initialization functions
  70:Drivers/STM32G4xx_HAL_Driver/Src/stm32g4xx_hal_pwr.c ****   *  @brief    Initialization and de-initialization functions
  71:Drivers/STM32G4xx_HAL_Driver/Src/stm32g4xx_hal_pwr.c ****   *
  72:Drivers/STM32G4xx_HAL_Driver/Src/stm32g4xx_hal_pwr.c **** @verbatim
  73:Drivers/STM32G4xx_HAL_Driver/Src/stm32g4xx_hal_pwr.c ****  ===============================================================================
  74:Drivers/STM32G4xx_HAL_Driver/Src/stm32g4xx_hal_pwr.c ****               ##### Initialization and de-initialization functions #####
  75:Drivers/STM32G4xx_HAL_Driver/Src/stm32g4xx_hal_pwr.c ****  ===============================================================================
  76:Drivers/STM32G4xx_HAL_Driver/Src/stm32g4xx_hal_pwr.c ****     [..]
  77:Drivers/STM32G4xx_HAL_Driver/Src/stm32g4xx_hal_pwr.c **** 
  78:Drivers/STM32G4xx_HAL_Driver/Src/stm32g4xx_hal_pwr.c **** @endverbatim
  79:Drivers/STM32G4xx_HAL_Driver/Src/stm32g4xx_hal_pwr.c ****   * @{
  80:Drivers/STM32G4xx_HAL_Driver/Src/stm32g4xx_hal_pwr.c ****   */
  81:Drivers/STM32G4xx_HAL_Driver/Src/stm32g4xx_hal_pwr.c **** 
  82:Drivers/STM32G4xx_HAL_Driver/Src/stm32g4xx_hal_pwr.c **** /**
  83:Drivers/STM32G4xx_HAL_Driver/Src/stm32g4xx_hal_pwr.c ****   * @brief Deinitialize the HAL PWR peripheral registers to their default reset values.
  84:Drivers/STM32G4xx_HAL_Driver/Src/stm32g4xx_hal_pwr.c ****   * @retval None
  85:Drivers/STM32G4xx_HAL_Driver/Src/stm32g4xx_hal_pwr.c ****   */
  86:Drivers/STM32G4xx_HAL_Driver/Src/stm32g4xx_hal_pwr.c **** void HAL_PWR_DeInit(void)
  87:Drivers/STM32G4xx_HAL_Driver/Src/stm32g4xx_hal_pwr.c **** {
ARM GAS  C:\Users\AURORA~1\AppData\Local\Temp\ccnnMEkR.s 			page 3


  29              		.loc 1 87 1
  30              		.cfi_startproc
  31              		@ args = 0, pretend = 0, frame = 0
  32              		@ frame_needed = 1, uses_anonymous_args = 0
  33              		@ link register save eliminated.
  34 0000 80B4     		push	{r7}
  35              	.LCFI0:
  36              		.cfi_def_cfa_offset 4
  37              		.cfi_offset 7, -4
  38 0002 00AF     		add	r7, sp, #0
  39              	.LCFI1:
  40              		.cfi_def_cfa_register 7
  88:Drivers/STM32G4xx_HAL_Driver/Src/stm32g4xx_hal_pwr.c ****   __HAL_RCC_PWR_FORCE_RESET();
  41              		.loc 1 88 3
  42 0004 084B     		ldr	r3, .L2
  43 0006 9B6B     		ldr	r3, [r3, #56]
  44 0008 074A     		ldr	r2, .L2
  45 000a 43F08053 		orr	r3, r3, #268435456
  46 000e 9363     		str	r3, [r2, #56]
  89:Drivers/STM32G4xx_HAL_Driver/Src/stm32g4xx_hal_pwr.c ****   __HAL_RCC_PWR_RELEASE_RESET();
  47              		.loc 1 89 3
  48 0010 054B     		ldr	r3, .L2
  49 0012 9B6B     		ldr	r3, [r3, #56]
  50 0014 044A     		ldr	r2, .L2
  51 0016 23F08053 		bic	r3, r3, #268435456
  52 001a 9363     		str	r3, [r2, #56]
  90:Drivers/STM32G4xx_HAL_Driver/Src/stm32g4xx_hal_pwr.c **** }
  53              		.loc 1 90 1
  54 001c 00BF     		nop
  55 001e BD46     		mov	sp, r7
  56              	.LCFI2:
  57              		.cfi_def_cfa_register 13
  58              		@ sp needed
  59 0020 5DF8047B 		ldr	r7, [sp], #4
  60              	.LCFI3:
  61              		.cfi_restore 7
  62              		.cfi_def_cfa_offset 0
  63 0024 7047     		bx	lr
  64              	.L3:
  65 0026 00BF     		.align	2
  66              	.L2:
  67 0028 00100240 		.word	1073876992
  68              		.cfi_endproc
  69              	.LFE132:
  71              		.section	.text.HAL_PWR_EnableBkUpAccess,"ax",%progbits
  72              		.align	1
  73              		.global	HAL_PWR_EnableBkUpAccess
  74              		.syntax unified
  75              		.thumb
  76              		.thumb_func
  78              	HAL_PWR_EnableBkUpAccess:
  79              	.LFB133:
  91:Drivers/STM32G4xx_HAL_Driver/Src/stm32g4xx_hal_pwr.c **** 
  92:Drivers/STM32G4xx_HAL_Driver/Src/stm32g4xx_hal_pwr.c **** /**
  93:Drivers/STM32G4xx_HAL_Driver/Src/stm32g4xx_hal_pwr.c ****   * @brief Enable access to the backup domain
  94:Drivers/STM32G4xx_HAL_Driver/Src/stm32g4xx_hal_pwr.c ****   *        (RTC registers, RTC backup data registers).
  95:Drivers/STM32G4xx_HAL_Driver/Src/stm32g4xx_hal_pwr.c ****   * @note  After reset, the backup domain is protected against
ARM GAS  C:\Users\AURORA~1\AppData\Local\Temp\ccnnMEkR.s 			page 4


  96:Drivers/STM32G4xx_HAL_Driver/Src/stm32g4xx_hal_pwr.c ****   *        possible unwanted write accesses.
  97:Drivers/STM32G4xx_HAL_Driver/Src/stm32g4xx_hal_pwr.c ****   * @note  RTCSEL that sets the RTC clock source selection is in the RTC back-up domain.
  98:Drivers/STM32G4xx_HAL_Driver/Src/stm32g4xx_hal_pwr.c ****   *        In order to set or modify the RTC clock, the backup domain access must be
  99:Drivers/STM32G4xx_HAL_Driver/Src/stm32g4xx_hal_pwr.c ****   *        disabled.
 100:Drivers/STM32G4xx_HAL_Driver/Src/stm32g4xx_hal_pwr.c ****   * @note  LSEON bit that switches on and off the LSE crystal belongs as well to the
 101:Drivers/STM32G4xx_HAL_Driver/Src/stm32g4xx_hal_pwr.c ****   *        back-up domain.
 102:Drivers/STM32G4xx_HAL_Driver/Src/stm32g4xx_hal_pwr.c ****   * @retval None
 103:Drivers/STM32G4xx_HAL_Driver/Src/stm32g4xx_hal_pwr.c ****   */
 104:Drivers/STM32G4xx_HAL_Driver/Src/stm32g4xx_hal_pwr.c **** void HAL_PWR_EnableBkUpAccess(void)
 105:Drivers/STM32G4xx_HAL_Driver/Src/stm32g4xx_hal_pwr.c **** {
  80              		.loc 1 105 1
  81              		.cfi_startproc
  82              		@ args = 0, pretend = 0, frame = 0
  83              		@ frame_needed = 1, uses_anonymous_args = 0
  84              		@ link register save eliminated.
  85 0000 80B4     		push	{r7}
  86              	.LCFI4:
  87              		.cfi_def_cfa_offset 4
  88              		.cfi_offset 7, -4
  89 0002 00AF     		add	r7, sp, #0
  90              	.LCFI5:
  91              		.cfi_def_cfa_register 7
 106:Drivers/STM32G4xx_HAL_Driver/Src/stm32g4xx_hal_pwr.c ****   SET_BIT(PWR->CR1, PWR_CR1_DBP);
  92              		.loc 1 106 3
  93 0004 054B     		ldr	r3, .L5
  94 0006 1B68     		ldr	r3, [r3]
  95 0008 044A     		ldr	r2, .L5
  96 000a 43F48073 		orr	r3, r3, #256
  97 000e 1360     		str	r3, [r2]
 107:Drivers/STM32G4xx_HAL_Driver/Src/stm32g4xx_hal_pwr.c **** }
  98              		.loc 1 107 1
  99 0010 00BF     		nop
 100 0012 BD46     		mov	sp, r7
 101              	.LCFI6:
 102              		.cfi_def_cfa_register 13
 103              		@ sp needed
 104 0014 5DF8047B 		ldr	r7, [sp], #4
 105              	.LCFI7:
 106              		.cfi_restore 7
 107              		.cfi_def_cfa_offset 0
 108 0018 7047     		bx	lr
 109              	.L6:
 110 001a 00BF     		.align	2
 111              	.L5:
 112 001c 00700040 		.word	1073770496
 113              		.cfi_endproc
 114              	.LFE133:
 116              		.section	.text.HAL_PWR_DisableBkUpAccess,"ax",%progbits
 117              		.align	1
 118              		.global	HAL_PWR_DisableBkUpAccess
 119              		.syntax unified
 120              		.thumb
 121              		.thumb_func
 123              	HAL_PWR_DisableBkUpAccess:
 124              	.LFB134:
 108:Drivers/STM32G4xx_HAL_Driver/Src/stm32g4xx_hal_pwr.c **** 
 109:Drivers/STM32G4xx_HAL_Driver/Src/stm32g4xx_hal_pwr.c **** /**
ARM GAS  C:\Users\AURORA~1\AppData\Local\Temp\ccnnMEkR.s 			page 5


 110:Drivers/STM32G4xx_HAL_Driver/Src/stm32g4xx_hal_pwr.c ****   * @brief Disable access to the backup domain
 111:Drivers/STM32G4xx_HAL_Driver/Src/stm32g4xx_hal_pwr.c ****   *        (RTC registers, RTC backup data registers).
 112:Drivers/STM32G4xx_HAL_Driver/Src/stm32g4xx_hal_pwr.c ****   * @retval None
 113:Drivers/STM32G4xx_HAL_Driver/Src/stm32g4xx_hal_pwr.c ****   */
 114:Drivers/STM32G4xx_HAL_Driver/Src/stm32g4xx_hal_pwr.c **** void HAL_PWR_DisableBkUpAccess(void)
 115:Drivers/STM32G4xx_HAL_Driver/Src/stm32g4xx_hal_pwr.c **** {
 125              		.loc 1 115 1
 126              		.cfi_startproc
 127              		@ args = 0, pretend = 0, frame = 0
 128              		@ frame_needed = 1, uses_anonymous_args = 0
 129              		@ link register save eliminated.
 130 0000 80B4     		push	{r7}
 131              	.LCFI8:
 132              		.cfi_def_cfa_offset 4
 133              		.cfi_offset 7, -4
 134 0002 00AF     		add	r7, sp, #0
 135              	.LCFI9:
 136              		.cfi_def_cfa_register 7
 116:Drivers/STM32G4xx_HAL_Driver/Src/stm32g4xx_hal_pwr.c ****   CLEAR_BIT(PWR->CR1, PWR_CR1_DBP);
 137              		.loc 1 116 3
 138 0004 054B     		ldr	r3, .L8
 139 0006 1B68     		ldr	r3, [r3]
 140 0008 044A     		ldr	r2, .L8
 141 000a 23F48073 		bic	r3, r3, #256
 142 000e 1360     		str	r3, [r2]
 117:Drivers/STM32G4xx_HAL_Driver/Src/stm32g4xx_hal_pwr.c **** }
 143              		.loc 1 117 1
 144 0010 00BF     		nop
 145 0012 BD46     		mov	sp, r7
 146              	.LCFI10:
 147              		.cfi_def_cfa_register 13
 148              		@ sp needed
 149 0014 5DF8047B 		ldr	r7, [sp], #4
 150              	.LCFI11:
 151              		.cfi_restore 7
 152              		.cfi_def_cfa_offset 0
 153 0018 7047     		bx	lr
 154              	.L9:
 155 001a 00BF     		.align	2
 156              	.L8:
 157 001c 00700040 		.word	1073770496
 158              		.cfi_endproc
 159              	.LFE134:
 161              		.section	.text.HAL_PWR_ConfigPVD,"ax",%progbits
 162              		.align	1
 163              		.global	HAL_PWR_ConfigPVD
 164              		.syntax unified
 165              		.thumb
 166              		.thumb_func
 168              	HAL_PWR_ConfigPVD:
 169              	.LFB135:
 118:Drivers/STM32G4xx_HAL_Driver/Src/stm32g4xx_hal_pwr.c **** 
 119:Drivers/STM32G4xx_HAL_Driver/Src/stm32g4xx_hal_pwr.c **** 
 120:Drivers/STM32G4xx_HAL_Driver/Src/stm32g4xx_hal_pwr.c **** 
 121:Drivers/STM32G4xx_HAL_Driver/Src/stm32g4xx_hal_pwr.c **** 
 122:Drivers/STM32G4xx_HAL_Driver/Src/stm32g4xx_hal_pwr.c **** /**
 123:Drivers/STM32G4xx_HAL_Driver/Src/stm32g4xx_hal_pwr.c ****   * @}
ARM GAS  C:\Users\AURORA~1\AppData\Local\Temp\ccnnMEkR.s 			page 6


 124:Drivers/STM32G4xx_HAL_Driver/Src/stm32g4xx_hal_pwr.c ****   */
 125:Drivers/STM32G4xx_HAL_Driver/Src/stm32g4xx_hal_pwr.c **** 
 126:Drivers/STM32G4xx_HAL_Driver/Src/stm32g4xx_hal_pwr.c **** 
 127:Drivers/STM32G4xx_HAL_Driver/Src/stm32g4xx_hal_pwr.c **** 
 128:Drivers/STM32G4xx_HAL_Driver/Src/stm32g4xx_hal_pwr.c **** /** @defgroup PWR_Exported_Functions_Group2 Peripheral Control functions
 129:Drivers/STM32G4xx_HAL_Driver/Src/stm32g4xx_hal_pwr.c ****   *  @brief Low Power modes configuration functions
 130:Drivers/STM32G4xx_HAL_Driver/Src/stm32g4xx_hal_pwr.c ****   *
 131:Drivers/STM32G4xx_HAL_Driver/Src/stm32g4xx_hal_pwr.c **** @verbatim
 132:Drivers/STM32G4xx_HAL_Driver/Src/stm32g4xx_hal_pwr.c **** 
 133:Drivers/STM32G4xx_HAL_Driver/Src/stm32g4xx_hal_pwr.c ****  ===============================================================================
 134:Drivers/STM32G4xx_HAL_Driver/Src/stm32g4xx_hal_pwr.c ****                  ##### Peripheral Control functions #####
 135:Drivers/STM32G4xx_HAL_Driver/Src/stm32g4xx_hal_pwr.c ****  ===============================================================================
 136:Drivers/STM32G4xx_HAL_Driver/Src/stm32g4xx_hal_pwr.c **** 
 137:Drivers/STM32G4xx_HAL_Driver/Src/stm32g4xx_hal_pwr.c ****      [..]
 138:Drivers/STM32G4xx_HAL_Driver/Src/stm32g4xx_hal_pwr.c ****      *** PVD configuration ***
 139:Drivers/STM32G4xx_HAL_Driver/Src/stm32g4xx_hal_pwr.c ****     =========================
 140:Drivers/STM32G4xx_HAL_Driver/Src/stm32g4xx_hal_pwr.c ****     [..]
 141:Drivers/STM32G4xx_HAL_Driver/Src/stm32g4xx_hal_pwr.c ****       (+) The PVD is used to monitor the VDD power supply by comparing it to a
 142:Drivers/STM32G4xx_HAL_Driver/Src/stm32g4xx_hal_pwr.c ****           threshold selected by the PVD Level (PLS[2:0] bits in PWR_CR2 register).
 143:Drivers/STM32G4xx_HAL_Driver/Src/stm32g4xx_hal_pwr.c **** 
 144:Drivers/STM32G4xx_HAL_Driver/Src/stm32g4xx_hal_pwr.c ****       (+) PVDO flag is available to indicate if VDD/VDDA is higher or lower
 145:Drivers/STM32G4xx_HAL_Driver/Src/stm32g4xx_hal_pwr.c ****           than the PVD threshold. This event is internally connected to the EXTI
 146:Drivers/STM32G4xx_HAL_Driver/Src/stm32g4xx_hal_pwr.c ****           line16 and can generate an interrupt if enabled. This is done through
 147:Drivers/STM32G4xx_HAL_Driver/Src/stm32g4xx_hal_pwr.c ****           __HAL_PVD_EXTI_ENABLE_IT() macro.
 148:Drivers/STM32G4xx_HAL_Driver/Src/stm32g4xx_hal_pwr.c ****       (+) The PVD is stopped in Standby mode.
 149:Drivers/STM32G4xx_HAL_Driver/Src/stm32g4xx_hal_pwr.c **** 
 150:Drivers/STM32G4xx_HAL_Driver/Src/stm32g4xx_hal_pwr.c **** 
 151:Drivers/STM32G4xx_HAL_Driver/Src/stm32g4xx_hal_pwr.c ****     *** WakeUp pin configuration ***
 152:Drivers/STM32G4xx_HAL_Driver/Src/stm32g4xx_hal_pwr.c ****     ================================
 153:Drivers/STM32G4xx_HAL_Driver/Src/stm32g4xx_hal_pwr.c ****     [..]
 154:Drivers/STM32G4xx_HAL_Driver/Src/stm32g4xx_hal_pwr.c ****       (+) WakeUp pins are used to wakeup the system from Standby mode or Shutdown mode.
 155:Drivers/STM32G4xx_HAL_Driver/Src/stm32g4xx_hal_pwr.c ****           The polarity of these pins can be set to configure event detection on high
 156:Drivers/STM32G4xx_HAL_Driver/Src/stm32g4xx_hal_pwr.c ****           level (rising edge) or low level (falling edge).
 157:Drivers/STM32G4xx_HAL_Driver/Src/stm32g4xx_hal_pwr.c **** 
 158:Drivers/STM32G4xx_HAL_Driver/Src/stm32g4xx_hal_pwr.c **** 
 159:Drivers/STM32G4xx_HAL_Driver/Src/stm32g4xx_hal_pwr.c **** 
 160:Drivers/STM32G4xx_HAL_Driver/Src/stm32g4xx_hal_pwr.c ****     *** Low Power modes configuration ***
 161:Drivers/STM32G4xx_HAL_Driver/Src/stm32g4xx_hal_pwr.c ****     =====================================
 162:Drivers/STM32G4xx_HAL_Driver/Src/stm32g4xx_hal_pwr.c ****     [..]
 163:Drivers/STM32G4xx_HAL_Driver/Src/stm32g4xx_hal_pwr.c ****       The devices feature 8 low-power modes:
 164:Drivers/STM32G4xx_HAL_Driver/Src/stm32g4xx_hal_pwr.c ****       (+) Low-power Run mode: core and peripherals are running, main regulator off, low power regul
 165:Drivers/STM32G4xx_HAL_Driver/Src/stm32g4xx_hal_pwr.c ****       (+) Sleep mode: Cortex-M4 core stopped, peripherals kept running, main and low power regulato
 166:Drivers/STM32G4xx_HAL_Driver/Src/stm32g4xx_hal_pwr.c ****       (+) Low-power Sleep mode: Cortex-M4 core stopped, peripherals kept running, main regulator of
 167:Drivers/STM32G4xx_HAL_Driver/Src/stm32g4xx_hal_pwr.c ****       (+) Stop 0 mode: all clocks are stopped except LSI and LSE, main and low power regulators on.
 168:Drivers/STM32G4xx_HAL_Driver/Src/stm32g4xx_hal_pwr.c ****       (+) Stop 1 mode: all clocks are stopped except LSI and LSE, main regulator off, low power reg
 169:Drivers/STM32G4xx_HAL_Driver/Src/stm32g4xx_hal_pwr.c ****       (+) Standby mode with SRAM2: all clocks are stopped except LSI and LSE, SRAM2 content preserv
 170:Drivers/STM32G4xx_HAL_Driver/Src/stm32g4xx_hal_pwr.c ****       (+) Standby mode without SRAM2: all clocks are stopped except LSI and LSE, main and low power
 171:Drivers/STM32G4xx_HAL_Driver/Src/stm32g4xx_hal_pwr.c ****       (+) Shutdown mode: all clocks are stopped except LSE, main and low power regulators off.
 172:Drivers/STM32G4xx_HAL_Driver/Src/stm32g4xx_hal_pwr.c **** 
 173:Drivers/STM32G4xx_HAL_Driver/Src/stm32g4xx_hal_pwr.c **** 
 174:Drivers/STM32G4xx_HAL_Driver/Src/stm32g4xx_hal_pwr.c ****    *** Low-power run mode ***
 175:Drivers/STM32G4xx_HAL_Driver/Src/stm32g4xx_hal_pwr.c ****    ==========================
 176:Drivers/STM32G4xx_HAL_Driver/Src/stm32g4xx_hal_pwr.c ****     [..]
 177:Drivers/STM32G4xx_HAL_Driver/Src/stm32g4xx_hal_pwr.c ****       (+) Entry: (from main run mode)
 178:Drivers/STM32G4xx_HAL_Driver/Src/stm32g4xx_hal_pwr.c ****         (++) set LPR bit with HAL_PWREx_EnableLowPowerRunMode() API after having decreased the syst
 179:Drivers/STM32G4xx_HAL_Driver/Src/stm32g4xx_hal_pwr.c **** 
 180:Drivers/STM32G4xx_HAL_Driver/Src/stm32g4xx_hal_pwr.c ****       (+) Exit:
ARM GAS  C:\Users\AURORA~1\AppData\Local\Temp\ccnnMEkR.s 			page 7


 181:Drivers/STM32G4xx_HAL_Driver/Src/stm32g4xx_hal_pwr.c ****         (++) clear LPR bit then wait for REGLP bit to be reset with HAL_PWREx_DisableLowPowerRunMod
 182:Drivers/STM32G4xx_HAL_Driver/Src/stm32g4xx_hal_pwr.c ****              then can the system clock frequency be increased above 2 MHz.
 183:Drivers/STM32G4xx_HAL_Driver/Src/stm32g4xx_hal_pwr.c **** 
 184:Drivers/STM32G4xx_HAL_Driver/Src/stm32g4xx_hal_pwr.c **** 
 185:Drivers/STM32G4xx_HAL_Driver/Src/stm32g4xx_hal_pwr.c ****    *** Sleep mode / Low-power sleep mode ***
 186:Drivers/STM32G4xx_HAL_Driver/Src/stm32g4xx_hal_pwr.c ****    =========================================
 187:Drivers/STM32G4xx_HAL_Driver/Src/stm32g4xx_hal_pwr.c ****     [..]
 188:Drivers/STM32G4xx_HAL_Driver/Src/stm32g4xx_hal_pwr.c ****       (+) Entry:
 189:Drivers/STM32G4xx_HAL_Driver/Src/stm32g4xx_hal_pwr.c ****           The Sleep mode / Low-power Sleep mode is entered through HAL_PWR_EnterSLEEPMode() API
 190:Drivers/STM32G4xx_HAL_Driver/Src/stm32g4xx_hal_pwr.c ****           in specifying whether or not the regulator is forced to low-power mode and if exit is int
 191:Drivers/STM32G4xx_HAL_Driver/Src/stm32g4xx_hal_pwr.c ****           (++) PWR_MAINREGULATOR_ON: Sleep mode (regulator in main mode).
 192:Drivers/STM32G4xx_HAL_Driver/Src/stm32g4xx_hal_pwr.c ****           (++) PWR_LOWPOWERREGULATOR_ON: Low-power sleep (regulator in low power mode).
 193:Drivers/STM32G4xx_HAL_Driver/Src/stm32g4xx_hal_pwr.c ****           In the latter case, the system clock frequency must have been decreased below 2 MHz befor
 194:Drivers/STM32G4xx_HAL_Driver/Src/stm32g4xx_hal_pwr.c ****           (++) PWR_SLEEPENTRY_WFI: enter SLEEP mode with WFI instruction
 195:Drivers/STM32G4xx_HAL_Driver/Src/stm32g4xx_hal_pwr.c ****           (++) PWR_SLEEPENTRY_WFE: enter SLEEP mode with WFE instruction
 196:Drivers/STM32G4xx_HAL_Driver/Src/stm32g4xx_hal_pwr.c **** 
 197:Drivers/STM32G4xx_HAL_Driver/Src/stm32g4xx_hal_pwr.c ****       (+) WFI Exit:
 198:Drivers/STM32G4xx_HAL_Driver/Src/stm32g4xx_hal_pwr.c ****         (++) Any peripheral interrupt acknowledged by the nested vectored interrupt
 199:Drivers/STM32G4xx_HAL_Driver/Src/stm32g4xx_hal_pwr.c ****              controller (NVIC) or any wake-up event.
 200:Drivers/STM32G4xx_HAL_Driver/Src/stm32g4xx_hal_pwr.c **** 
 201:Drivers/STM32G4xx_HAL_Driver/Src/stm32g4xx_hal_pwr.c ****       (+) WFE Exit:
 202:Drivers/STM32G4xx_HAL_Driver/Src/stm32g4xx_hal_pwr.c ****         (++) Any wake-up event such as an EXTI line configured in event mode.
 203:Drivers/STM32G4xx_HAL_Driver/Src/stm32g4xx_hal_pwr.c **** 
 204:Drivers/STM32G4xx_HAL_Driver/Src/stm32g4xx_hal_pwr.c ****          [..] When exiting the Low-power sleep mode by issuing an interrupt or a wakeup event,
 205:Drivers/STM32G4xx_HAL_Driver/Src/stm32g4xx_hal_pwr.c ****              the MCU is in Low-power Run mode.
 206:Drivers/STM32G4xx_HAL_Driver/Src/stm32g4xx_hal_pwr.c **** 
 207:Drivers/STM32G4xx_HAL_Driver/Src/stm32g4xx_hal_pwr.c ****    *** Stop 0, Stop 1 modes ***
 208:Drivers/STM32G4xx_HAL_Driver/Src/stm32g4xx_hal_pwr.c ****    ===============================
 209:Drivers/STM32G4xx_HAL_Driver/Src/stm32g4xx_hal_pwr.c ****     [..]
 210:Drivers/STM32G4xx_HAL_Driver/Src/stm32g4xx_hal_pwr.c ****       (+) Entry:
 211:Drivers/STM32G4xx_HAL_Driver/Src/stm32g4xx_hal_pwr.c ****           The Stop 0, Stop 1 modes are entered through the following API's:
 212:Drivers/STM32G4xx_HAL_Driver/Src/stm32g4xx_hal_pwr.c ****           (++) HAL_PWREx_EnterSTOP0Mode() for mode 0 or HAL_PWREx_EnterSTOP1Mode() for mode 1 or fo
 213:Drivers/STM32G4xx_HAL_Driver/Src/stm32g4xx_hal_pwr.c ****       (+) Regulator setting (applicable to HAL_PWR_EnterSTOPMode() only):
 214:Drivers/STM32G4xx_HAL_Driver/Src/stm32g4xx_hal_pwr.c ****           (++) PWR_MAINREGULATOR_ON
 215:Drivers/STM32G4xx_HAL_Driver/Src/stm32g4xx_hal_pwr.c ****           (++) PWR_LOWPOWERREGULATOR_ON
 216:Drivers/STM32G4xx_HAL_Driver/Src/stm32g4xx_hal_pwr.c ****       (+) Exit (interrupt or event-triggered, specified when entering STOP mode):
 217:Drivers/STM32G4xx_HAL_Driver/Src/stm32g4xx_hal_pwr.c ****           (++) PWR_STOPENTRY_WFI: enter Stop mode with WFI instruction
 218:Drivers/STM32G4xx_HAL_Driver/Src/stm32g4xx_hal_pwr.c ****           (++) PWR_STOPENTRY_WFE: enter Stop mode with WFE instruction
 219:Drivers/STM32G4xx_HAL_Driver/Src/stm32g4xx_hal_pwr.c **** 
 220:Drivers/STM32G4xx_HAL_Driver/Src/stm32g4xx_hal_pwr.c ****       (+) WFI Exit:
 221:Drivers/STM32G4xx_HAL_Driver/Src/stm32g4xx_hal_pwr.c ****           (++) Any EXTI Line (Internal or External) configured in Interrupt mode.
 222:Drivers/STM32G4xx_HAL_Driver/Src/stm32g4xx_hal_pwr.c ****           (++) Some specific communication peripherals (USART, LPUART, I2C) interrupts
 223:Drivers/STM32G4xx_HAL_Driver/Src/stm32g4xx_hal_pwr.c ****                when programmed in wakeup mode.
 224:Drivers/STM32G4xx_HAL_Driver/Src/stm32g4xx_hal_pwr.c ****       (+) WFE Exit:
 225:Drivers/STM32G4xx_HAL_Driver/Src/stm32g4xx_hal_pwr.c ****           (++) Any EXTI Line (Internal or External) configured in Event mode.
 226:Drivers/STM32G4xx_HAL_Driver/Src/stm32g4xx_hal_pwr.c **** 
 227:Drivers/STM32G4xx_HAL_Driver/Src/stm32g4xx_hal_pwr.c ****        [..]
 228:Drivers/STM32G4xx_HAL_Driver/Src/stm32g4xx_hal_pwr.c ****           When exiting Stop 0 and Stop 1 modes, the MCU is either in Run mode or in Low-power Run m
 229:Drivers/STM32G4xx_HAL_Driver/Src/stm32g4xx_hal_pwr.c ****           depending on the LPR bit setting.
 230:Drivers/STM32G4xx_HAL_Driver/Src/stm32g4xx_hal_pwr.c **** 
 231:Drivers/STM32G4xx_HAL_Driver/Src/stm32g4xx_hal_pwr.c ****    *** Standby mode ***
 232:Drivers/STM32G4xx_HAL_Driver/Src/stm32g4xx_hal_pwr.c ****    ====================
 233:Drivers/STM32G4xx_HAL_Driver/Src/stm32g4xx_hal_pwr.c ****      [..]
 234:Drivers/STM32G4xx_HAL_Driver/Src/stm32g4xx_hal_pwr.c ****       The Standby mode offers two options:
 235:Drivers/STM32G4xx_HAL_Driver/Src/stm32g4xx_hal_pwr.c ****       (+) option a) all clocks off except LSI and LSE, RRS bit set (keeps voltage regulator in low 
 236:Drivers/STM32G4xx_HAL_Driver/Src/stm32g4xx_hal_pwr.c ****         SRAM and registers contents are lost except for the SRAM2 content, the RTC registers, RTC b
 237:Drivers/STM32G4xx_HAL_Driver/Src/stm32g4xx_hal_pwr.c ****         and Standby circuitry.
ARM GAS  C:\Users\AURORA~1\AppData\Local\Temp\ccnnMEkR.s 			page 8


 238:Drivers/STM32G4xx_HAL_Driver/Src/stm32g4xx_hal_pwr.c ****       (+) option b) all clocks off except LSI and LSE, RRS bit cleared (voltage regulator then disa
 239:Drivers/STM32G4xx_HAL_Driver/Src/stm32g4xx_hal_pwr.c ****         SRAM and register contents are lost except for the RTC registers, RTC backup registers
 240:Drivers/STM32G4xx_HAL_Driver/Src/stm32g4xx_hal_pwr.c ****         and Standby circuitry.
 241:Drivers/STM32G4xx_HAL_Driver/Src/stm32g4xx_hal_pwr.c **** 
 242:Drivers/STM32G4xx_HAL_Driver/Src/stm32g4xx_hal_pwr.c ****       (++) Entry:
 243:Drivers/STM32G4xx_HAL_Driver/Src/stm32g4xx_hal_pwr.c ****           (+++) The Standby mode is entered through HAL_PWR_EnterSTANDBYMode() API.
 244:Drivers/STM32G4xx_HAL_Driver/Src/stm32g4xx_hal_pwr.c ****                 SRAM1 and register contents are lost except for registers in the Backup domain and
 245:Drivers/STM32G4xx_HAL_Driver/Src/stm32g4xx_hal_pwr.c ****                 Standby circuitry. SRAM2 content can be preserved if the bit RRS is set in PWR_CR3 
 246:Drivers/STM32G4xx_HAL_Driver/Src/stm32g4xx_hal_pwr.c ****                 To enable this feature, the user can resort to HAL_PWREx_EnableSRAM2ContentRetentio
 247:Drivers/STM32G4xx_HAL_Driver/Src/stm32g4xx_hal_pwr.c ****                 to set RRS bit.
 248:Drivers/STM32G4xx_HAL_Driver/Src/stm32g4xx_hal_pwr.c **** 
 249:Drivers/STM32G4xx_HAL_Driver/Src/stm32g4xx_hal_pwr.c ****       (++) Exit:
 250:Drivers/STM32G4xx_HAL_Driver/Src/stm32g4xx_hal_pwr.c ****           (+++) WKUP pin rising edge, RTC alarm or wakeup, tamper event, time-stamp event,
 251:Drivers/STM32G4xx_HAL_Driver/Src/stm32g4xx_hal_pwr.c ****                 external reset in NRST pin, IWDG reset.
 252:Drivers/STM32G4xx_HAL_Driver/Src/stm32g4xx_hal_pwr.c **** 
 253:Drivers/STM32G4xx_HAL_Driver/Src/stm32g4xx_hal_pwr.c ****       [..]    After waking up from Standby mode, program execution restarts in the same way as afte
 254:Drivers/STM32G4xx_HAL_Driver/Src/stm32g4xx_hal_pwr.c **** 
 255:Drivers/STM32G4xx_HAL_Driver/Src/stm32g4xx_hal_pwr.c **** 
 256:Drivers/STM32G4xx_HAL_Driver/Src/stm32g4xx_hal_pwr.c ****     *** Shutdown mode ***
 257:Drivers/STM32G4xx_HAL_Driver/Src/stm32g4xx_hal_pwr.c ****    ======================
 258:Drivers/STM32G4xx_HAL_Driver/Src/stm32g4xx_hal_pwr.c ****      [..]
 259:Drivers/STM32G4xx_HAL_Driver/Src/stm32g4xx_hal_pwr.c ****       In Shutdown mode,
 260:Drivers/STM32G4xx_HAL_Driver/Src/stm32g4xx_hal_pwr.c ****         voltage regulator is disabled, all clocks are off except LSE, RRS bit is cleared.
 261:Drivers/STM32G4xx_HAL_Driver/Src/stm32g4xx_hal_pwr.c ****         SRAM and registers contents are lost except for backup domain registers.
 262:Drivers/STM32G4xx_HAL_Driver/Src/stm32g4xx_hal_pwr.c **** 
 263:Drivers/STM32G4xx_HAL_Driver/Src/stm32g4xx_hal_pwr.c ****       (+) Entry:
 264:Drivers/STM32G4xx_HAL_Driver/Src/stm32g4xx_hal_pwr.c ****           The Shutdown mode is entered through HAL_PWREx_EnterSHUTDOWNMode() API.
 265:Drivers/STM32G4xx_HAL_Driver/Src/stm32g4xx_hal_pwr.c **** 
 266:Drivers/STM32G4xx_HAL_Driver/Src/stm32g4xx_hal_pwr.c ****       (+) Exit:
 267:Drivers/STM32G4xx_HAL_Driver/Src/stm32g4xx_hal_pwr.c ****           (++) WKUP pin rising edge, RTC alarm or wakeup, tamper event, time-stamp event,
 268:Drivers/STM32G4xx_HAL_Driver/Src/stm32g4xx_hal_pwr.c ****                external reset in NRST pin.
 269:Drivers/STM32G4xx_HAL_Driver/Src/stm32g4xx_hal_pwr.c **** 
 270:Drivers/STM32G4xx_HAL_Driver/Src/stm32g4xx_hal_pwr.c ****          [..] After waking up from Shutdown mode, program execution restarts in the same way as aft
 271:Drivers/STM32G4xx_HAL_Driver/Src/stm32g4xx_hal_pwr.c **** 
 272:Drivers/STM32G4xx_HAL_Driver/Src/stm32g4xx_hal_pwr.c **** 
 273:Drivers/STM32G4xx_HAL_Driver/Src/stm32g4xx_hal_pwr.c ****    *** Auto-wakeup (AWU) from low-power mode ***
 274:Drivers/STM32G4xx_HAL_Driver/Src/stm32g4xx_hal_pwr.c ****    =============================================
 275:Drivers/STM32G4xx_HAL_Driver/Src/stm32g4xx_hal_pwr.c ****     [..]
 276:Drivers/STM32G4xx_HAL_Driver/Src/stm32g4xx_hal_pwr.c ****       The MCU can be woken up from low-power mode by an RTC Alarm event, an RTC
 277:Drivers/STM32G4xx_HAL_Driver/Src/stm32g4xx_hal_pwr.c ****       Wakeup event, a tamper event or a time-stamp event, without depending on
 278:Drivers/STM32G4xx_HAL_Driver/Src/stm32g4xx_hal_pwr.c ****       an external interrupt (Auto-wakeup mode).
 279:Drivers/STM32G4xx_HAL_Driver/Src/stm32g4xx_hal_pwr.c **** 
 280:Drivers/STM32G4xx_HAL_Driver/Src/stm32g4xx_hal_pwr.c ****       (+) RTC auto-wakeup (AWU) from the Stop, Standby and Shutdown modes
 281:Drivers/STM32G4xx_HAL_Driver/Src/stm32g4xx_hal_pwr.c **** 
 282:Drivers/STM32G4xx_HAL_Driver/Src/stm32g4xx_hal_pwr.c **** 
 283:Drivers/STM32G4xx_HAL_Driver/Src/stm32g4xx_hal_pwr.c ****         (++) To wake up from the Stop mode with an RTC alarm event, it is necessary to
 284:Drivers/STM32G4xx_HAL_Driver/Src/stm32g4xx_hal_pwr.c ****              configure the RTC to generate the RTC alarm using the HAL_RTC_SetAlarm_IT() function.
 285:Drivers/STM32G4xx_HAL_Driver/Src/stm32g4xx_hal_pwr.c **** 
 286:Drivers/STM32G4xx_HAL_Driver/Src/stm32g4xx_hal_pwr.c ****         (++) To wake up from the Stop mode with an RTC Tamper or time stamp event, it
 287:Drivers/STM32G4xx_HAL_Driver/Src/stm32g4xx_hal_pwr.c ****              is necessary to configure the RTC to detect the tamper or time stamp event using the
 288:Drivers/STM32G4xx_HAL_Driver/Src/stm32g4xx_hal_pwr.c ****              HAL_RTCEx_SetTimeStamp_IT() or HAL_RTCEx_SetTamper_IT() functions.
 289:Drivers/STM32G4xx_HAL_Driver/Src/stm32g4xx_hal_pwr.c **** 
 290:Drivers/STM32G4xx_HAL_Driver/Src/stm32g4xx_hal_pwr.c ****         (++) To wake up from the Stop mode with an RTC WakeUp event, it is necessary to
 291:Drivers/STM32G4xx_HAL_Driver/Src/stm32g4xx_hal_pwr.c ****               configure the RTC to generate the RTC WakeUp event using the HAL_RTCEx_SetWakeUpTimer
 292:Drivers/STM32G4xx_HAL_Driver/Src/stm32g4xx_hal_pwr.c **** 
 293:Drivers/STM32G4xx_HAL_Driver/Src/stm32g4xx_hal_pwr.c **** @endverbatim
 294:Drivers/STM32G4xx_HAL_Driver/Src/stm32g4xx_hal_pwr.c ****   * @{
ARM GAS  C:\Users\AURORA~1\AppData\Local\Temp\ccnnMEkR.s 			page 9


 295:Drivers/STM32G4xx_HAL_Driver/Src/stm32g4xx_hal_pwr.c ****   */
 296:Drivers/STM32G4xx_HAL_Driver/Src/stm32g4xx_hal_pwr.c **** 
 297:Drivers/STM32G4xx_HAL_Driver/Src/stm32g4xx_hal_pwr.c **** 
 298:Drivers/STM32G4xx_HAL_Driver/Src/stm32g4xx_hal_pwr.c **** 
 299:Drivers/STM32G4xx_HAL_Driver/Src/stm32g4xx_hal_pwr.c **** /**
 300:Drivers/STM32G4xx_HAL_Driver/Src/stm32g4xx_hal_pwr.c ****   * @brief Configure the voltage threshold detected by the Power Voltage Detector (PVD).
 301:Drivers/STM32G4xx_HAL_Driver/Src/stm32g4xx_hal_pwr.c ****   * @param sConfigPVD: pointer to a PWR_PVDTypeDef structure that contains the PVD
 302:Drivers/STM32G4xx_HAL_Driver/Src/stm32g4xx_hal_pwr.c ****   *        configuration information.
 303:Drivers/STM32G4xx_HAL_Driver/Src/stm32g4xx_hal_pwr.c ****   * @note Refer to the electrical characteristics of your device datasheet for
 304:Drivers/STM32G4xx_HAL_Driver/Src/stm32g4xx_hal_pwr.c ****   *         more details about the voltage thresholds corresponding to each
 305:Drivers/STM32G4xx_HAL_Driver/Src/stm32g4xx_hal_pwr.c ****   *         detection level.
 306:Drivers/STM32G4xx_HAL_Driver/Src/stm32g4xx_hal_pwr.c ****   * @retval None
 307:Drivers/STM32G4xx_HAL_Driver/Src/stm32g4xx_hal_pwr.c ****   */
 308:Drivers/STM32G4xx_HAL_Driver/Src/stm32g4xx_hal_pwr.c **** HAL_StatusTypeDef HAL_PWR_ConfigPVD(PWR_PVDTypeDef *sConfigPVD)
 309:Drivers/STM32G4xx_HAL_Driver/Src/stm32g4xx_hal_pwr.c **** {
 170              		.loc 1 309 1
 171              		.cfi_startproc
 172              		@ args = 0, pretend = 0, frame = 8
 173              		@ frame_needed = 1, uses_anonymous_args = 0
 174              		@ link register save eliminated.
 175 0000 80B4     		push	{r7}
 176              	.LCFI12:
 177              		.cfi_def_cfa_offset 4
 178              		.cfi_offset 7, -4
 179 0002 83B0     		sub	sp, sp, #12
 180              	.LCFI13:
 181              		.cfi_def_cfa_offset 16
 182 0004 00AF     		add	r7, sp, #0
 183              	.LCFI14:
 184              		.cfi_def_cfa_register 7
 185 0006 7860     		str	r0, [r7, #4]
 310:Drivers/STM32G4xx_HAL_Driver/Src/stm32g4xx_hal_pwr.c ****   /* Check the parameters */
 311:Drivers/STM32G4xx_HAL_Driver/Src/stm32g4xx_hal_pwr.c ****   assert_param(IS_PWR_PVD_LEVEL(sConfigPVD->PVDLevel));
 312:Drivers/STM32G4xx_HAL_Driver/Src/stm32g4xx_hal_pwr.c ****   assert_param(IS_PWR_PVD_MODE(sConfigPVD->Mode));
 313:Drivers/STM32G4xx_HAL_Driver/Src/stm32g4xx_hal_pwr.c **** 
 314:Drivers/STM32G4xx_HAL_Driver/Src/stm32g4xx_hal_pwr.c ****   /* Set PLS bits according to PVDLevel value */
 315:Drivers/STM32G4xx_HAL_Driver/Src/stm32g4xx_hal_pwr.c ****   MODIFY_REG(PWR->CR2, PWR_CR2_PLS, sConfigPVD->PVDLevel);
 186              		.loc 1 315 3
 187 0008 2B4B     		ldr	r3, .L16
 188 000a 5B68     		ldr	r3, [r3, #4]
 189 000c 23F00E02 		bic	r2, r3, #14
 190 0010 7B68     		ldr	r3, [r7, #4]
 191 0012 1B68     		ldr	r3, [r3]
 192 0014 2849     		ldr	r1, .L16
 193 0016 1343     		orrs	r3, r3, r2
 194 0018 4B60     		str	r3, [r1, #4]
 316:Drivers/STM32G4xx_HAL_Driver/Src/stm32g4xx_hal_pwr.c **** 
 317:Drivers/STM32G4xx_HAL_Driver/Src/stm32g4xx_hal_pwr.c ****   /* Clear any previous config. Keep it clear if no event or IT mode is selected */
 318:Drivers/STM32G4xx_HAL_Driver/Src/stm32g4xx_hal_pwr.c ****   __HAL_PWR_PVD_EXTI_DISABLE_EVENT();
 195              		.loc 1 318 3
 196 001a 284B     		ldr	r3, .L16+4
 197 001c 5B68     		ldr	r3, [r3, #4]
 198 001e 274A     		ldr	r2, .L16+4
 199 0020 23F48033 		bic	r3, r3, #65536
 200 0024 5360     		str	r3, [r2, #4]
 319:Drivers/STM32G4xx_HAL_Driver/Src/stm32g4xx_hal_pwr.c ****   __HAL_PWR_PVD_EXTI_DISABLE_IT();
 201              		.loc 1 319 3
ARM GAS  C:\Users\AURORA~1\AppData\Local\Temp\ccnnMEkR.s 			page 10


 202 0026 254B     		ldr	r3, .L16+4
 203 0028 1B68     		ldr	r3, [r3]
 204 002a 244A     		ldr	r2, .L16+4
 205 002c 23F48033 		bic	r3, r3, #65536
 206 0030 1360     		str	r3, [r2]
 320:Drivers/STM32G4xx_HAL_Driver/Src/stm32g4xx_hal_pwr.c ****   __HAL_PWR_PVD_EXTI_DISABLE_FALLING_EDGE();
 207              		.loc 1 320 3
 208 0032 224B     		ldr	r3, .L16+4
 209 0034 DB68     		ldr	r3, [r3, #12]
 210 0036 214A     		ldr	r2, .L16+4
 211 0038 23F48033 		bic	r3, r3, #65536
 212 003c D360     		str	r3, [r2, #12]
 321:Drivers/STM32G4xx_HAL_Driver/Src/stm32g4xx_hal_pwr.c ****   __HAL_PWR_PVD_EXTI_DISABLE_RISING_EDGE();
 213              		.loc 1 321 3
 214 003e 1F4B     		ldr	r3, .L16+4
 215 0040 9B68     		ldr	r3, [r3, #8]
 216 0042 1E4A     		ldr	r2, .L16+4
 217 0044 23F48033 		bic	r3, r3, #65536
 218 0048 9360     		str	r3, [r2, #8]
 322:Drivers/STM32G4xx_HAL_Driver/Src/stm32g4xx_hal_pwr.c **** 
 323:Drivers/STM32G4xx_HAL_Driver/Src/stm32g4xx_hal_pwr.c ****   /* Configure interrupt mode */
 324:Drivers/STM32G4xx_HAL_Driver/Src/stm32g4xx_hal_pwr.c ****   if((sConfigPVD->Mode & PVD_MODE_IT) == PVD_MODE_IT)
 219              		.loc 1 324 17
 220 004a 7B68     		ldr	r3, [r7, #4]
 221 004c 5B68     		ldr	r3, [r3, #4]
 222              		.loc 1 324 24
 223 004e 03F48033 		and	r3, r3, #65536
 224              		.loc 1 324 5
 225 0052 002B     		cmp	r3, #0
 226 0054 05D0     		beq	.L11
 325:Drivers/STM32G4xx_HAL_Driver/Src/stm32g4xx_hal_pwr.c ****   {
 326:Drivers/STM32G4xx_HAL_Driver/Src/stm32g4xx_hal_pwr.c ****     __HAL_PWR_PVD_EXTI_ENABLE_IT();
 227              		.loc 1 326 5
 228 0056 194B     		ldr	r3, .L16+4
 229 0058 1B68     		ldr	r3, [r3]
 230 005a 184A     		ldr	r2, .L16+4
 231 005c 43F48033 		orr	r3, r3, #65536
 232 0060 1360     		str	r3, [r2]
 233              	.L11:
 327:Drivers/STM32G4xx_HAL_Driver/Src/stm32g4xx_hal_pwr.c ****   }
 328:Drivers/STM32G4xx_HAL_Driver/Src/stm32g4xx_hal_pwr.c **** 
 329:Drivers/STM32G4xx_HAL_Driver/Src/stm32g4xx_hal_pwr.c ****   /* Configure event mode */
 330:Drivers/STM32G4xx_HAL_Driver/Src/stm32g4xx_hal_pwr.c ****   if((sConfigPVD->Mode & PVD_MODE_EVT) == PVD_MODE_EVT)
 234              		.loc 1 330 17
 235 0062 7B68     		ldr	r3, [r7, #4]
 236 0064 5B68     		ldr	r3, [r3, #4]
 237              		.loc 1 330 24
 238 0066 03F40033 		and	r3, r3, #131072
 239              		.loc 1 330 5
 240 006a 002B     		cmp	r3, #0
 241 006c 05D0     		beq	.L12
 331:Drivers/STM32G4xx_HAL_Driver/Src/stm32g4xx_hal_pwr.c ****   {
 332:Drivers/STM32G4xx_HAL_Driver/Src/stm32g4xx_hal_pwr.c ****     __HAL_PWR_PVD_EXTI_ENABLE_EVENT();
 242              		.loc 1 332 5
 243 006e 134B     		ldr	r3, .L16+4
 244 0070 5B68     		ldr	r3, [r3, #4]
 245 0072 124A     		ldr	r2, .L16+4
ARM GAS  C:\Users\AURORA~1\AppData\Local\Temp\ccnnMEkR.s 			page 11


 246 0074 43F48033 		orr	r3, r3, #65536
 247 0078 5360     		str	r3, [r2, #4]
 248              	.L12:
 333:Drivers/STM32G4xx_HAL_Driver/Src/stm32g4xx_hal_pwr.c ****   }
 334:Drivers/STM32G4xx_HAL_Driver/Src/stm32g4xx_hal_pwr.c **** 
 335:Drivers/STM32G4xx_HAL_Driver/Src/stm32g4xx_hal_pwr.c ****   /* Configure the edge */
 336:Drivers/STM32G4xx_HAL_Driver/Src/stm32g4xx_hal_pwr.c ****   if((sConfigPVD->Mode & PVD_RISING_EDGE) == PVD_RISING_EDGE)
 249              		.loc 1 336 17
 250 007a 7B68     		ldr	r3, [r7, #4]
 251 007c 5B68     		ldr	r3, [r3, #4]
 252              		.loc 1 336 24
 253 007e 03F00103 		and	r3, r3, #1
 254              		.loc 1 336 5
 255 0082 002B     		cmp	r3, #0
 256 0084 05D0     		beq	.L13
 337:Drivers/STM32G4xx_HAL_Driver/Src/stm32g4xx_hal_pwr.c ****   {
 338:Drivers/STM32G4xx_HAL_Driver/Src/stm32g4xx_hal_pwr.c ****     __HAL_PWR_PVD_EXTI_ENABLE_RISING_EDGE();
 257              		.loc 1 338 5
 258 0086 0D4B     		ldr	r3, .L16+4
 259 0088 9B68     		ldr	r3, [r3, #8]
 260 008a 0C4A     		ldr	r2, .L16+4
 261 008c 43F48033 		orr	r3, r3, #65536
 262 0090 9360     		str	r3, [r2, #8]
 263              	.L13:
 339:Drivers/STM32G4xx_HAL_Driver/Src/stm32g4xx_hal_pwr.c ****   }
 340:Drivers/STM32G4xx_HAL_Driver/Src/stm32g4xx_hal_pwr.c **** 
 341:Drivers/STM32G4xx_HAL_Driver/Src/stm32g4xx_hal_pwr.c ****   if((sConfigPVD->Mode & PVD_FALLING_EDGE) == PVD_FALLING_EDGE)
 264              		.loc 1 341 17
 265 0092 7B68     		ldr	r3, [r7, #4]
 266 0094 5B68     		ldr	r3, [r3, #4]
 267              		.loc 1 341 24
 268 0096 03F00203 		and	r3, r3, #2
 269              		.loc 1 341 5
 270 009a 002B     		cmp	r3, #0
 271 009c 05D0     		beq	.L14
 342:Drivers/STM32G4xx_HAL_Driver/Src/stm32g4xx_hal_pwr.c ****   {
 343:Drivers/STM32G4xx_HAL_Driver/Src/stm32g4xx_hal_pwr.c ****     __HAL_PWR_PVD_EXTI_ENABLE_FALLING_EDGE();
 272              		.loc 1 343 5
 273 009e 074B     		ldr	r3, .L16+4
 274 00a0 DB68     		ldr	r3, [r3, #12]
 275 00a2 064A     		ldr	r2, .L16+4
 276 00a4 43F48033 		orr	r3, r3, #65536
 277 00a8 D360     		str	r3, [r2, #12]
 278              	.L14:
 344:Drivers/STM32G4xx_HAL_Driver/Src/stm32g4xx_hal_pwr.c ****   }
 345:Drivers/STM32G4xx_HAL_Driver/Src/stm32g4xx_hal_pwr.c **** 
 346:Drivers/STM32G4xx_HAL_Driver/Src/stm32g4xx_hal_pwr.c ****   return HAL_OK;
 279              		.loc 1 346 10
 280 00aa 0023     		movs	r3, #0
 347:Drivers/STM32G4xx_HAL_Driver/Src/stm32g4xx_hal_pwr.c **** }
 281              		.loc 1 347 1
 282 00ac 1846     		mov	r0, r3
 283 00ae 0C37     		adds	r7, r7, #12
 284              	.LCFI15:
 285              		.cfi_def_cfa_offset 4
 286 00b0 BD46     		mov	sp, r7
 287              	.LCFI16:
ARM GAS  C:\Users\AURORA~1\AppData\Local\Temp\ccnnMEkR.s 			page 12


 288              		.cfi_def_cfa_register 13
 289              		@ sp needed
 290 00b2 5DF8047B 		ldr	r7, [sp], #4
 291              	.LCFI17:
 292              		.cfi_restore 7
 293              		.cfi_def_cfa_offset 0
 294 00b6 7047     		bx	lr
 295              	.L17:
 296              		.align	2
 297              	.L16:
 298 00b8 00700040 		.word	1073770496
 299 00bc 00040140 		.word	1073808384
 300              		.cfi_endproc
 301              	.LFE135:
 303              		.section	.text.HAL_PWR_EnablePVD,"ax",%progbits
 304              		.align	1
 305              		.global	HAL_PWR_EnablePVD
 306              		.syntax unified
 307              		.thumb
 308              		.thumb_func
 310              	HAL_PWR_EnablePVD:
 311              	.LFB136:
 348:Drivers/STM32G4xx_HAL_Driver/Src/stm32g4xx_hal_pwr.c **** 
 349:Drivers/STM32G4xx_HAL_Driver/Src/stm32g4xx_hal_pwr.c **** 
 350:Drivers/STM32G4xx_HAL_Driver/Src/stm32g4xx_hal_pwr.c **** /**
 351:Drivers/STM32G4xx_HAL_Driver/Src/stm32g4xx_hal_pwr.c ****   * @brief Enable the Power Voltage Detector (PVD).
 352:Drivers/STM32G4xx_HAL_Driver/Src/stm32g4xx_hal_pwr.c ****   * @retval None
 353:Drivers/STM32G4xx_HAL_Driver/Src/stm32g4xx_hal_pwr.c ****   */
 354:Drivers/STM32G4xx_HAL_Driver/Src/stm32g4xx_hal_pwr.c **** void HAL_PWR_EnablePVD(void)
 355:Drivers/STM32G4xx_HAL_Driver/Src/stm32g4xx_hal_pwr.c **** {
 312              		.loc 1 355 1
 313              		.cfi_startproc
 314              		@ args = 0, pretend = 0, frame = 0
 315              		@ frame_needed = 1, uses_anonymous_args = 0
 316              		@ link register save eliminated.
 317 0000 80B4     		push	{r7}
 318              	.LCFI18:
 319              		.cfi_def_cfa_offset 4
 320              		.cfi_offset 7, -4
 321 0002 00AF     		add	r7, sp, #0
 322              	.LCFI19:
 323              		.cfi_def_cfa_register 7
 356:Drivers/STM32G4xx_HAL_Driver/Src/stm32g4xx_hal_pwr.c ****   SET_BIT(PWR->CR2, PWR_CR2_PVDE);
 324              		.loc 1 356 3
 325 0004 054B     		ldr	r3, .L19
 326 0006 5B68     		ldr	r3, [r3, #4]
 327 0008 044A     		ldr	r2, .L19
 328 000a 43F00103 		orr	r3, r3, #1
 329 000e 5360     		str	r3, [r2, #4]
 357:Drivers/STM32G4xx_HAL_Driver/Src/stm32g4xx_hal_pwr.c **** }
 330              		.loc 1 357 1
 331 0010 00BF     		nop
 332 0012 BD46     		mov	sp, r7
 333              	.LCFI20:
 334              		.cfi_def_cfa_register 13
 335              		@ sp needed
 336 0014 5DF8047B 		ldr	r7, [sp], #4
ARM GAS  C:\Users\AURORA~1\AppData\Local\Temp\ccnnMEkR.s 			page 13


 337              	.LCFI21:
 338              		.cfi_restore 7
 339              		.cfi_def_cfa_offset 0
 340 0018 7047     		bx	lr
 341              	.L20:
 342 001a 00BF     		.align	2
 343              	.L19:
 344 001c 00700040 		.word	1073770496
 345              		.cfi_endproc
 346              	.LFE136:
 348              		.section	.text.HAL_PWR_DisablePVD,"ax",%progbits
 349              		.align	1
 350              		.global	HAL_PWR_DisablePVD
 351              		.syntax unified
 352              		.thumb
 353              		.thumb_func
 355              	HAL_PWR_DisablePVD:
 356              	.LFB137:
 358:Drivers/STM32G4xx_HAL_Driver/Src/stm32g4xx_hal_pwr.c **** 
 359:Drivers/STM32G4xx_HAL_Driver/Src/stm32g4xx_hal_pwr.c **** /**
 360:Drivers/STM32G4xx_HAL_Driver/Src/stm32g4xx_hal_pwr.c ****   * @brief Disable the Power Voltage Detector (PVD).
 361:Drivers/STM32G4xx_HAL_Driver/Src/stm32g4xx_hal_pwr.c ****   * @retval None
 362:Drivers/STM32G4xx_HAL_Driver/Src/stm32g4xx_hal_pwr.c ****   */
 363:Drivers/STM32G4xx_HAL_Driver/Src/stm32g4xx_hal_pwr.c **** void HAL_PWR_DisablePVD(void)
 364:Drivers/STM32G4xx_HAL_Driver/Src/stm32g4xx_hal_pwr.c **** {
 357              		.loc 1 364 1
 358              		.cfi_startproc
 359              		@ args = 0, pretend = 0, frame = 0
 360              		@ frame_needed = 1, uses_anonymous_args = 0
 361              		@ link register save eliminated.
 362 0000 80B4     		push	{r7}
 363              	.LCFI22:
 364              		.cfi_def_cfa_offset 4
 365              		.cfi_offset 7, -4
 366 0002 00AF     		add	r7, sp, #0
 367              	.LCFI23:
 368              		.cfi_def_cfa_register 7
 365:Drivers/STM32G4xx_HAL_Driver/Src/stm32g4xx_hal_pwr.c ****   CLEAR_BIT(PWR->CR2, PWR_CR2_PVDE);
 369              		.loc 1 365 3
 370 0004 054B     		ldr	r3, .L22
 371 0006 5B68     		ldr	r3, [r3, #4]
 372 0008 044A     		ldr	r2, .L22
 373 000a 23F00103 		bic	r3, r3, #1
 374 000e 5360     		str	r3, [r2, #4]
 366:Drivers/STM32G4xx_HAL_Driver/Src/stm32g4xx_hal_pwr.c **** }
 375              		.loc 1 366 1
 376 0010 00BF     		nop
 377 0012 BD46     		mov	sp, r7
 378              	.LCFI24:
 379              		.cfi_def_cfa_register 13
 380              		@ sp needed
 381 0014 5DF8047B 		ldr	r7, [sp], #4
 382              	.LCFI25:
 383              		.cfi_restore 7
 384              		.cfi_def_cfa_offset 0
 385 0018 7047     		bx	lr
 386              	.L23:
ARM GAS  C:\Users\AURORA~1\AppData\Local\Temp\ccnnMEkR.s 			page 14


 387 001a 00BF     		.align	2
 388              	.L22:
 389 001c 00700040 		.word	1073770496
 390              		.cfi_endproc
 391              	.LFE137:
 393              		.section	.text.HAL_PWR_EnableWakeUpPin,"ax",%progbits
 394              		.align	1
 395              		.global	HAL_PWR_EnableWakeUpPin
 396              		.syntax unified
 397              		.thumb
 398              		.thumb_func
 400              	HAL_PWR_EnableWakeUpPin:
 401              	.LFB138:
 367:Drivers/STM32G4xx_HAL_Driver/Src/stm32g4xx_hal_pwr.c **** 
 368:Drivers/STM32G4xx_HAL_Driver/Src/stm32g4xx_hal_pwr.c **** 
 369:Drivers/STM32G4xx_HAL_Driver/Src/stm32g4xx_hal_pwr.c **** 
 370:Drivers/STM32G4xx_HAL_Driver/Src/stm32g4xx_hal_pwr.c **** 
 371:Drivers/STM32G4xx_HAL_Driver/Src/stm32g4xx_hal_pwr.c **** /**
 372:Drivers/STM32G4xx_HAL_Driver/Src/stm32g4xx_hal_pwr.c ****   * @brief Enable the WakeUp PINx functionality.
 373:Drivers/STM32G4xx_HAL_Driver/Src/stm32g4xx_hal_pwr.c ****   * @param WakeUpPinPolarity: Specifies which Wake-Up pin to enable.
 374:Drivers/STM32G4xx_HAL_Driver/Src/stm32g4xx_hal_pwr.c ****   *         This parameter can be one of the following legacy values which set the default polarity
 375:Drivers/STM32G4xx_HAL_Driver/Src/stm32g4xx_hal_pwr.c ****   *         i.e. detection on high level (rising edge):
 376:Drivers/STM32G4xx_HAL_Driver/Src/stm32g4xx_hal_pwr.c ****   *           @arg @ref PWR_WAKEUP_PIN1, PWR_WAKEUP_PIN2, PWR_WAKEUP_PIN3, PWR_WAKEUP_PIN4, PWR_WAK
 377:Drivers/STM32G4xx_HAL_Driver/Src/stm32g4xx_hal_pwr.c ****   *
 378:Drivers/STM32G4xx_HAL_Driver/Src/stm32g4xx_hal_pwr.c ****   *         or one of the following value where the user can explicitly specify the enabled pin and
 379:Drivers/STM32G4xx_HAL_Driver/Src/stm32g4xx_hal_pwr.c ****   *         the chosen polarity:
 380:Drivers/STM32G4xx_HAL_Driver/Src/stm32g4xx_hal_pwr.c ****   *           @arg @ref PWR_WAKEUP_PIN1_HIGH or PWR_WAKEUP_PIN1_LOW
 381:Drivers/STM32G4xx_HAL_Driver/Src/stm32g4xx_hal_pwr.c ****   *           @arg @ref PWR_WAKEUP_PIN2_HIGH or PWR_WAKEUP_PIN2_LOW
 382:Drivers/STM32G4xx_HAL_Driver/Src/stm32g4xx_hal_pwr.c ****   *           @arg @ref PWR_WAKEUP_PIN3_HIGH or PWR_WAKEUP_PIN3_LOW
 383:Drivers/STM32G4xx_HAL_Driver/Src/stm32g4xx_hal_pwr.c ****   *           @arg @ref PWR_WAKEUP_PIN4_HIGH or PWR_WAKEUP_PIN4_LOW
 384:Drivers/STM32G4xx_HAL_Driver/Src/stm32g4xx_hal_pwr.c ****   *           @arg @ref PWR_WAKEUP_PIN5_HIGH or PWR_WAKEUP_PIN5_LOW
 385:Drivers/STM32G4xx_HAL_Driver/Src/stm32g4xx_hal_pwr.c ****   * @note  PWR_WAKEUP_PINx and PWR_WAKEUP_PINx_HIGH are equivalent.
 386:Drivers/STM32G4xx_HAL_Driver/Src/stm32g4xx_hal_pwr.c ****   * @retval None
 387:Drivers/STM32G4xx_HAL_Driver/Src/stm32g4xx_hal_pwr.c ****   */
 388:Drivers/STM32G4xx_HAL_Driver/Src/stm32g4xx_hal_pwr.c **** void HAL_PWR_EnableWakeUpPin(uint32_t WakeUpPinPolarity)
 389:Drivers/STM32G4xx_HAL_Driver/Src/stm32g4xx_hal_pwr.c **** {
 402              		.loc 1 389 1
 403              		.cfi_startproc
 404              		@ args = 0, pretend = 0, frame = 8
 405              		@ frame_needed = 1, uses_anonymous_args = 0
 406              		@ link register save eliminated.
 407 0000 80B4     		push	{r7}
 408              	.LCFI26:
 409              		.cfi_def_cfa_offset 4
 410              		.cfi_offset 7, -4
 411 0002 83B0     		sub	sp, sp, #12
 412              	.LCFI27:
 413              		.cfi_def_cfa_offset 16
 414 0004 00AF     		add	r7, sp, #0
 415              	.LCFI28:
 416              		.cfi_def_cfa_register 7
 417 0006 7860     		str	r0, [r7, #4]
 390:Drivers/STM32G4xx_HAL_Driver/Src/stm32g4xx_hal_pwr.c ****   assert_param(IS_PWR_WAKEUP_PIN(WakeUpPinPolarity));
 391:Drivers/STM32G4xx_HAL_Driver/Src/stm32g4xx_hal_pwr.c **** 
 392:Drivers/STM32G4xx_HAL_Driver/Src/stm32g4xx_hal_pwr.c ****   /* Specifies the Wake-Up pin polarity for the event detection
 393:Drivers/STM32G4xx_HAL_Driver/Src/stm32g4xx_hal_pwr.c ****     (rising or falling edge) */
 394:Drivers/STM32G4xx_HAL_Driver/Src/stm32g4xx_hal_pwr.c ****   MODIFY_REG(PWR->CR4, (PWR_CR3_EWUP & WakeUpPinPolarity), (WakeUpPinPolarity >> PWR_WUP_POLARITY_S
ARM GAS  C:\Users\AURORA~1\AppData\Local\Temp\ccnnMEkR.s 			page 15


 418              		.loc 1 394 3
 419 0008 0C4B     		ldr	r3, .L25
 420 000a DA68     		ldr	r2, [r3, #12]
 421 000c 7B68     		ldr	r3, [r7, #4]
 422 000e 03F01F03 		and	r3, r3, #31
 423 0012 DB43     		mvns	r3, r3
 424 0014 1A40     		ands	r2, r2, r3
 425 0016 7B68     		ldr	r3, [r7, #4]
 426 0018 5B09     		lsrs	r3, r3, #5
 427 001a 0849     		ldr	r1, .L25
 428 001c 1343     		orrs	r3, r3, r2
 429 001e CB60     		str	r3, [r1, #12]
 395:Drivers/STM32G4xx_HAL_Driver/Src/stm32g4xx_hal_pwr.c **** 
 396:Drivers/STM32G4xx_HAL_Driver/Src/stm32g4xx_hal_pwr.c ****   /* Enable wake-up pin */
 397:Drivers/STM32G4xx_HAL_Driver/Src/stm32g4xx_hal_pwr.c ****   SET_BIT(PWR->CR3, (PWR_CR3_EWUP & WakeUpPinPolarity));
 430              		.loc 1 397 3
 431 0020 064B     		ldr	r3, .L25
 432 0022 9A68     		ldr	r2, [r3, #8]
 433 0024 7B68     		ldr	r3, [r7, #4]
 434 0026 03F01F03 		and	r3, r3, #31
 435 002a 0449     		ldr	r1, .L25
 436 002c 1343     		orrs	r3, r3, r2
 437 002e 8B60     		str	r3, [r1, #8]
 398:Drivers/STM32G4xx_HAL_Driver/Src/stm32g4xx_hal_pwr.c **** 
 399:Drivers/STM32G4xx_HAL_Driver/Src/stm32g4xx_hal_pwr.c **** 
 400:Drivers/STM32G4xx_HAL_Driver/Src/stm32g4xx_hal_pwr.c **** }
 438              		.loc 1 400 1
 439 0030 00BF     		nop
 440 0032 0C37     		adds	r7, r7, #12
 441              	.LCFI29:
 442              		.cfi_def_cfa_offset 4
 443 0034 BD46     		mov	sp, r7
 444              	.LCFI30:
 445              		.cfi_def_cfa_register 13
 446              		@ sp needed
 447 0036 5DF8047B 		ldr	r7, [sp], #4
 448              	.LCFI31:
 449              		.cfi_restore 7
 450              		.cfi_def_cfa_offset 0
 451 003a 7047     		bx	lr
 452              	.L26:
 453              		.align	2
 454              	.L25:
 455 003c 00700040 		.word	1073770496
 456              		.cfi_endproc
 457              	.LFE138:
 459              		.section	.text.HAL_PWR_DisableWakeUpPin,"ax",%progbits
 460              		.align	1
 461              		.global	HAL_PWR_DisableWakeUpPin
 462              		.syntax unified
 463              		.thumb
 464              		.thumb_func
 466              	HAL_PWR_DisableWakeUpPin:
 467              	.LFB139:
 401:Drivers/STM32G4xx_HAL_Driver/Src/stm32g4xx_hal_pwr.c **** 
 402:Drivers/STM32G4xx_HAL_Driver/Src/stm32g4xx_hal_pwr.c **** /**
 403:Drivers/STM32G4xx_HAL_Driver/Src/stm32g4xx_hal_pwr.c ****   * @brief Disable the WakeUp PINx functionality.
ARM GAS  C:\Users\AURORA~1\AppData\Local\Temp\ccnnMEkR.s 			page 16


 404:Drivers/STM32G4xx_HAL_Driver/Src/stm32g4xx_hal_pwr.c ****   * @param WakeUpPinx: Specifies the Power Wake-Up pin to disable.
 405:Drivers/STM32G4xx_HAL_Driver/Src/stm32g4xx_hal_pwr.c ****   *         This parameter can be one of the following values:
 406:Drivers/STM32G4xx_HAL_Driver/Src/stm32g4xx_hal_pwr.c ****   *           @arg @ref PWR_WAKEUP_PIN1, PWR_WAKEUP_PIN2, PWR_WAKEUP_PIN3, PWR_WAKEUP_PIN4, PWR_WAK
 407:Drivers/STM32G4xx_HAL_Driver/Src/stm32g4xx_hal_pwr.c ****   * @retval None
 408:Drivers/STM32G4xx_HAL_Driver/Src/stm32g4xx_hal_pwr.c ****   */
 409:Drivers/STM32G4xx_HAL_Driver/Src/stm32g4xx_hal_pwr.c **** void HAL_PWR_DisableWakeUpPin(uint32_t WakeUpPinx)
 410:Drivers/STM32G4xx_HAL_Driver/Src/stm32g4xx_hal_pwr.c **** {
 468              		.loc 1 410 1
 469              		.cfi_startproc
 470              		@ args = 0, pretend = 0, frame = 8
 471              		@ frame_needed = 1, uses_anonymous_args = 0
 472              		@ link register save eliminated.
 473 0000 80B4     		push	{r7}
 474              	.LCFI32:
 475              		.cfi_def_cfa_offset 4
 476              		.cfi_offset 7, -4
 477 0002 83B0     		sub	sp, sp, #12
 478              	.LCFI33:
 479              		.cfi_def_cfa_offset 16
 480 0004 00AF     		add	r7, sp, #0
 481              	.LCFI34:
 482              		.cfi_def_cfa_register 7
 483 0006 7860     		str	r0, [r7, #4]
 411:Drivers/STM32G4xx_HAL_Driver/Src/stm32g4xx_hal_pwr.c ****   assert_param(IS_PWR_WAKEUP_PIN(WakeUpPinx));
 412:Drivers/STM32G4xx_HAL_Driver/Src/stm32g4xx_hal_pwr.c **** 
 413:Drivers/STM32G4xx_HAL_Driver/Src/stm32g4xx_hal_pwr.c ****   CLEAR_BIT(PWR->CR3, (PWR_CR3_EWUP & WakeUpPinx));
 484              		.loc 1 413 3
 485 0008 074B     		ldr	r3, .L28
 486 000a 9A68     		ldr	r2, [r3, #8]
 487 000c 7B68     		ldr	r3, [r7, #4]
 488 000e 03F01F03 		and	r3, r3, #31
 489 0012 DB43     		mvns	r3, r3
 490 0014 0449     		ldr	r1, .L28
 491 0016 1340     		ands	r3, r3, r2
 492 0018 8B60     		str	r3, [r1, #8]
 414:Drivers/STM32G4xx_HAL_Driver/Src/stm32g4xx_hal_pwr.c **** }
 493              		.loc 1 414 1
 494 001a 00BF     		nop
 495 001c 0C37     		adds	r7, r7, #12
 496              	.LCFI35:
 497              		.cfi_def_cfa_offset 4
 498 001e BD46     		mov	sp, r7
 499              	.LCFI36:
 500              		.cfi_def_cfa_register 13
 501              		@ sp needed
 502 0020 5DF8047B 		ldr	r7, [sp], #4
 503              	.LCFI37:
 504              		.cfi_restore 7
 505              		.cfi_def_cfa_offset 0
 506 0024 7047     		bx	lr
 507              	.L29:
 508 0026 00BF     		.align	2
 509              	.L28:
 510 0028 00700040 		.word	1073770496
 511              		.cfi_endproc
 512              	.LFE139:
 514              		.section	.text.HAL_PWR_EnterSLEEPMode,"ax",%progbits
ARM GAS  C:\Users\AURORA~1\AppData\Local\Temp\ccnnMEkR.s 			page 17


 515              		.align	1
 516              		.global	HAL_PWR_EnterSLEEPMode
 517              		.syntax unified
 518              		.thumb
 519              		.thumb_func
 521              	HAL_PWR_EnterSLEEPMode:
 522              	.LFB140:
 415:Drivers/STM32G4xx_HAL_Driver/Src/stm32g4xx_hal_pwr.c **** 
 416:Drivers/STM32G4xx_HAL_Driver/Src/stm32g4xx_hal_pwr.c **** 
 417:Drivers/STM32G4xx_HAL_Driver/Src/stm32g4xx_hal_pwr.c **** /**
 418:Drivers/STM32G4xx_HAL_Driver/Src/stm32g4xx_hal_pwr.c ****   * @brief Enter Sleep or Low-power Sleep mode.
 419:Drivers/STM32G4xx_HAL_Driver/Src/stm32g4xx_hal_pwr.c ****   * @note  In Sleep/Low-power Sleep mode, all I/O pins keep the same state as in Run mode.
 420:Drivers/STM32G4xx_HAL_Driver/Src/stm32g4xx_hal_pwr.c ****   * @param Regulator: Specifies the regulator state in Sleep/Low-power Sleep mode.
 421:Drivers/STM32G4xx_HAL_Driver/Src/stm32g4xx_hal_pwr.c ****   *          This parameter can be one of the following values:
 422:Drivers/STM32G4xx_HAL_Driver/Src/stm32g4xx_hal_pwr.c ****   *            @arg @ref PWR_MAINREGULATOR_ON Sleep mode (regulator in main mode)
 423:Drivers/STM32G4xx_HAL_Driver/Src/stm32g4xx_hal_pwr.c ****   *            @arg @ref PWR_LOWPOWERREGULATOR_ON Low-power Sleep mode (regulator in low-power mode
 424:Drivers/STM32G4xx_HAL_Driver/Src/stm32g4xx_hal_pwr.c ****   * @note  Low-power Sleep mode is entered from Low-power Run mode. Therefore, if not yet
 425:Drivers/STM32G4xx_HAL_Driver/Src/stm32g4xx_hal_pwr.c ****   *        in Low-power Run mode before calling HAL_PWR_EnterSLEEPMode() with Regulator set
 426:Drivers/STM32G4xx_HAL_Driver/Src/stm32g4xx_hal_pwr.c ****   *        to PWR_LOWPOWERREGULATOR_ON, the user can optionally configure the
 427:Drivers/STM32G4xx_HAL_Driver/Src/stm32g4xx_hal_pwr.c ****   *        Flash in power-down monde in setting the SLEEP_PD bit in FLASH_ACR register.
 428:Drivers/STM32G4xx_HAL_Driver/Src/stm32g4xx_hal_pwr.c ****   *        Additionally, the clock frequency must be reduced below 2 MHz.
 429:Drivers/STM32G4xx_HAL_Driver/Src/stm32g4xx_hal_pwr.c ****   *        Setting SLEEP_PD in FLASH_ACR then appropriately reducing the clock frequency must
 430:Drivers/STM32G4xx_HAL_Driver/Src/stm32g4xx_hal_pwr.c ****   *        be done before calling HAL_PWR_EnterSLEEPMode() API.
 431:Drivers/STM32G4xx_HAL_Driver/Src/stm32g4xx_hal_pwr.c ****   * @note  When exiting Low-power Sleep mode, the MCU is in Low-power Run mode. To move in
 432:Drivers/STM32G4xx_HAL_Driver/Src/stm32g4xx_hal_pwr.c ****   *        Run mode, the user must resort to HAL_PWREx_DisableLowPowerRunMode() API.
 433:Drivers/STM32G4xx_HAL_Driver/Src/stm32g4xx_hal_pwr.c ****   * @param SLEEPEntry: Specifies if Sleep mode is entered with WFI or WFE instruction.
 434:Drivers/STM32G4xx_HAL_Driver/Src/stm32g4xx_hal_pwr.c ****   *           This parameter can be one of the following values:
 435:Drivers/STM32G4xx_HAL_Driver/Src/stm32g4xx_hal_pwr.c ****   *            @arg @ref PWR_SLEEPENTRY_WFI enter Sleep or Low-power Sleep mode with WFI instructio
 436:Drivers/STM32G4xx_HAL_Driver/Src/stm32g4xx_hal_pwr.c ****   *            @arg @ref PWR_SLEEPENTRY_WFE enter Sleep or Low-power Sleep mode with WFE instructio
 437:Drivers/STM32G4xx_HAL_Driver/Src/stm32g4xx_hal_pwr.c ****   * @note  When WFI entry is used, tick interrupt have to be disabled if not desired as
 438:Drivers/STM32G4xx_HAL_Driver/Src/stm32g4xx_hal_pwr.c ****   *        the interrupt wake up source.
 439:Drivers/STM32G4xx_HAL_Driver/Src/stm32g4xx_hal_pwr.c ****   * @retval None
 440:Drivers/STM32G4xx_HAL_Driver/Src/stm32g4xx_hal_pwr.c ****   */
 441:Drivers/STM32G4xx_HAL_Driver/Src/stm32g4xx_hal_pwr.c **** void HAL_PWR_EnterSLEEPMode(uint32_t Regulator, uint8_t SLEEPEntry)
 442:Drivers/STM32G4xx_HAL_Driver/Src/stm32g4xx_hal_pwr.c **** {
 523              		.loc 1 442 1
 524              		.cfi_startproc
 525              		@ args = 0, pretend = 0, frame = 8
 526              		@ frame_needed = 1, uses_anonymous_args = 0
 527 0000 80B5     		push	{r7, lr}
 528              	.LCFI38:
 529              		.cfi_def_cfa_offset 8
 530              		.cfi_offset 7, -8
 531              		.cfi_offset 14, -4
 532 0002 82B0     		sub	sp, sp, #8
 533              	.LCFI39:
 534              		.cfi_def_cfa_offset 16
 535 0004 00AF     		add	r7, sp, #0
 536              	.LCFI40:
 537              		.cfi_def_cfa_register 7
 538 0006 7860     		str	r0, [r7, #4]
 539 0008 0B46     		mov	r3, r1
 540 000a FB70     		strb	r3, [r7, #3]
 443:Drivers/STM32G4xx_HAL_Driver/Src/stm32g4xx_hal_pwr.c ****   /* Check the parameters */
 444:Drivers/STM32G4xx_HAL_Driver/Src/stm32g4xx_hal_pwr.c ****   assert_param(IS_PWR_REGULATOR(Regulator));
 445:Drivers/STM32G4xx_HAL_Driver/Src/stm32g4xx_hal_pwr.c ****   assert_param(IS_PWR_SLEEP_ENTRY(SLEEPEntry));
 446:Drivers/STM32G4xx_HAL_Driver/Src/stm32g4xx_hal_pwr.c **** 
ARM GAS  C:\Users\AURORA~1\AppData\Local\Temp\ccnnMEkR.s 			page 18


 447:Drivers/STM32G4xx_HAL_Driver/Src/stm32g4xx_hal_pwr.c ****   /* Set Regulator parameter */
 448:Drivers/STM32G4xx_HAL_Driver/Src/stm32g4xx_hal_pwr.c ****   if (Regulator == PWR_MAINREGULATOR_ON)
 541              		.loc 1 448 6
 542 000c 7B68     		ldr	r3, [r7, #4]
 543 000e 002B     		cmp	r3, #0
 544 0010 09D1     		bne	.L31
 449:Drivers/STM32G4xx_HAL_Driver/Src/stm32g4xx_hal_pwr.c ****   {
 450:Drivers/STM32G4xx_HAL_Driver/Src/stm32g4xx_hal_pwr.c ****     /* If in low-power run mode at this point, exit it */
 451:Drivers/STM32G4xx_HAL_Driver/Src/stm32g4xx_hal_pwr.c ****     if (HAL_IS_BIT_SET(PWR->SR2, PWR_SR2_REGLPF))
 545              		.loc 1 451 9
 546 0012 124B     		ldr	r3, .L36
 547 0014 5B69     		ldr	r3, [r3, #20]
 548 0016 03F40073 		and	r3, r3, #512
 549              		.loc 1 451 8
 550 001a B3F5007F 		cmp	r3, #512
 551 001e 0BD1     		bne	.L32
 452:Drivers/STM32G4xx_HAL_Driver/Src/stm32g4xx_hal_pwr.c ****     {
 453:Drivers/STM32G4xx_HAL_Driver/Src/stm32g4xx_hal_pwr.c ****       (void)HAL_PWREx_DisableLowPowerRunMode();
 552              		.loc 1 453 13
 553 0020 FFF7FEFF 		bl	HAL_PWREx_DisableLowPowerRunMode
 554 0024 08E0     		b	.L32
 555              	.L31:
 454:Drivers/STM32G4xx_HAL_Driver/Src/stm32g4xx_hal_pwr.c ****     }
 455:Drivers/STM32G4xx_HAL_Driver/Src/stm32g4xx_hal_pwr.c ****     /* Regulator now in main mode. */
 456:Drivers/STM32G4xx_HAL_Driver/Src/stm32g4xx_hal_pwr.c ****   }
 457:Drivers/STM32G4xx_HAL_Driver/Src/stm32g4xx_hal_pwr.c ****   else
 458:Drivers/STM32G4xx_HAL_Driver/Src/stm32g4xx_hal_pwr.c ****   {
 459:Drivers/STM32G4xx_HAL_Driver/Src/stm32g4xx_hal_pwr.c ****     /* If in run mode, first move to low-power run mode.
 460:Drivers/STM32G4xx_HAL_Driver/Src/stm32g4xx_hal_pwr.c ****        The system clock frequency must be below 2 MHz at this point. */
 461:Drivers/STM32G4xx_HAL_Driver/Src/stm32g4xx_hal_pwr.c ****     if (HAL_IS_BIT_SET(PWR->SR2, PWR_SR2_REGLPF) == 0U)
 556              		.loc 1 461 9
 557 0026 0D4B     		ldr	r3, .L36
 558 0028 5B69     		ldr	r3, [r3, #20]
 559 002a 03F40073 		and	r3, r3, #512
 560              		.loc 1 461 8
 561 002e B3F5007F 		cmp	r3, #512
 562 0032 01D0     		beq	.L32
 462:Drivers/STM32G4xx_HAL_Driver/Src/stm32g4xx_hal_pwr.c ****     {
 463:Drivers/STM32G4xx_HAL_Driver/Src/stm32g4xx_hal_pwr.c ****       HAL_PWREx_EnableLowPowerRunMode();
 563              		.loc 1 463 7
 564 0034 FFF7FEFF 		bl	HAL_PWREx_EnableLowPowerRunMode
 565              	.L32:
 464:Drivers/STM32G4xx_HAL_Driver/Src/stm32g4xx_hal_pwr.c ****     }
 465:Drivers/STM32G4xx_HAL_Driver/Src/stm32g4xx_hal_pwr.c ****   }
 466:Drivers/STM32G4xx_HAL_Driver/Src/stm32g4xx_hal_pwr.c **** 
 467:Drivers/STM32G4xx_HAL_Driver/Src/stm32g4xx_hal_pwr.c ****   /* Clear SLEEPDEEP bit of Cortex System Control Register */
 468:Drivers/STM32G4xx_HAL_Driver/Src/stm32g4xx_hal_pwr.c ****   CLEAR_BIT(SCB->SCR, ((uint32_t)SCB_SCR_SLEEPDEEP_Msk));
 566              		.loc 1 468 3
 567 0038 094B     		ldr	r3, .L36+4
 568 003a 1B69     		ldr	r3, [r3, #16]
 569 003c 084A     		ldr	r2, .L36+4
 570 003e 23F00403 		bic	r3, r3, #4
 571 0042 1361     		str	r3, [r2, #16]
 469:Drivers/STM32G4xx_HAL_Driver/Src/stm32g4xx_hal_pwr.c **** 
 470:Drivers/STM32G4xx_HAL_Driver/Src/stm32g4xx_hal_pwr.c ****   /* Select SLEEP mode entry -------------------------------------------------*/
 471:Drivers/STM32G4xx_HAL_Driver/Src/stm32g4xx_hal_pwr.c ****   if(SLEEPEntry == PWR_SLEEPENTRY_WFI)
 572              		.loc 1 471 5
ARM GAS  C:\Users\AURORA~1\AppData\Local\Temp\ccnnMEkR.s 			page 19


 573 0044 FB78     		ldrb	r3, [r7, #3]	@ zero_extendqisi2
 574 0046 012B     		cmp	r3, #1
 575 0048 01D1     		bne	.L33
 472:Drivers/STM32G4xx_HAL_Driver/Src/stm32g4xx_hal_pwr.c ****   {
 473:Drivers/STM32G4xx_HAL_Driver/Src/stm32g4xx_hal_pwr.c ****     /* Request Wait For Interrupt */
 474:Drivers/STM32G4xx_HAL_Driver/Src/stm32g4xx_hal_pwr.c ****     __WFI();
 576              		.loc 1 474 5
 577              		.syntax unified
 578              	@ 474 "Drivers/STM32G4xx_HAL_Driver/Src/stm32g4xx_hal_pwr.c" 1
 579 004a 30BF     		wfi
 580              	@ 0 "" 2
 475:Drivers/STM32G4xx_HAL_Driver/Src/stm32g4xx_hal_pwr.c ****   }
 476:Drivers/STM32G4xx_HAL_Driver/Src/stm32g4xx_hal_pwr.c ****   else
 477:Drivers/STM32G4xx_HAL_Driver/Src/stm32g4xx_hal_pwr.c ****   {
 478:Drivers/STM32G4xx_HAL_Driver/Src/stm32g4xx_hal_pwr.c ****     /* Request Wait For Event */
 479:Drivers/STM32G4xx_HAL_Driver/Src/stm32g4xx_hal_pwr.c ****     __SEV();
 480:Drivers/STM32G4xx_HAL_Driver/Src/stm32g4xx_hal_pwr.c ****     __WFE();
 481:Drivers/STM32G4xx_HAL_Driver/Src/stm32g4xx_hal_pwr.c ****     __WFE();
 482:Drivers/STM32G4xx_HAL_Driver/Src/stm32g4xx_hal_pwr.c ****   }
 483:Drivers/STM32G4xx_HAL_Driver/Src/stm32g4xx_hal_pwr.c **** 
 484:Drivers/STM32G4xx_HAL_Driver/Src/stm32g4xx_hal_pwr.c **** }
 581              		.loc 1 484 1
 582              		.thumb
 583              		.syntax unified
 584 004c 02E0     		b	.L35
 585              	.L33:
 479:Drivers/STM32G4xx_HAL_Driver/Src/stm32g4xx_hal_pwr.c ****     __WFE();
 586              		.loc 1 479 5
 587              		.syntax unified
 588              	@ 479 "Drivers/STM32G4xx_HAL_Driver/Src/stm32g4xx_hal_pwr.c" 1
 589 004e 40BF     		sev
 590              	@ 0 "" 2
 480:Drivers/STM32G4xx_HAL_Driver/Src/stm32g4xx_hal_pwr.c ****     __WFE();
 591              		.loc 1 480 5
 592              	@ 480 "Drivers/STM32G4xx_HAL_Driver/Src/stm32g4xx_hal_pwr.c" 1
 593 0050 20BF     		wfe
 594              	@ 0 "" 2
 481:Drivers/STM32G4xx_HAL_Driver/Src/stm32g4xx_hal_pwr.c ****   }
 595              		.loc 1 481 5
 596              	@ 481 "Drivers/STM32G4xx_HAL_Driver/Src/stm32g4xx_hal_pwr.c" 1
 597 0052 20BF     		wfe
 598              	@ 0 "" 2
 599              		.thumb
 600              		.syntax unified
 601              	.L35:
 602              		.loc 1 484 1
 603 0054 00BF     		nop
 604 0056 0837     		adds	r7, r7, #8
 605              	.LCFI41:
 606              		.cfi_def_cfa_offset 8
 607 0058 BD46     		mov	sp, r7
 608              	.LCFI42:
 609              		.cfi_def_cfa_register 13
 610              		@ sp needed
 611 005a 80BD     		pop	{r7, pc}
 612              	.L37:
 613              		.align	2
ARM GAS  C:\Users\AURORA~1\AppData\Local\Temp\ccnnMEkR.s 			page 20


 614              	.L36:
 615 005c 00700040 		.word	1073770496
 616 0060 00ED00E0 		.word	-536810240
 617              		.cfi_endproc
 618              	.LFE140:
 620              		.section	.text.HAL_PWR_EnterSTOPMode,"ax",%progbits
 621              		.align	1
 622              		.global	HAL_PWR_EnterSTOPMode
 623              		.syntax unified
 624              		.thumb
 625              		.thumb_func
 627              	HAL_PWR_EnterSTOPMode:
 628              	.LFB141:
 485:Drivers/STM32G4xx_HAL_Driver/Src/stm32g4xx_hal_pwr.c **** 
 486:Drivers/STM32G4xx_HAL_Driver/Src/stm32g4xx_hal_pwr.c **** 
 487:Drivers/STM32G4xx_HAL_Driver/Src/stm32g4xx_hal_pwr.c **** /**
 488:Drivers/STM32G4xx_HAL_Driver/Src/stm32g4xx_hal_pwr.c ****   * @brief Enter Stop mode
 489:Drivers/STM32G4xx_HAL_Driver/Src/stm32g4xx_hal_pwr.c ****   * @note  This API is named HAL_PWR_EnterSTOPMode to ensure compatibility with legacy code running
 490:Drivers/STM32G4xx_HAL_Driver/Src/stm32g4xx_hal_pwr.c ****   *        on devices where only "Stop mode" is mentioned with main or low power regulator ON.
 491:Drivers/STM32G4xx_HAL_Driver/Src/stm32g4xx_hal_pwr.c ****   * @note  In Stop mode, all I/O pins keep the same state as in Run mode.
 492:Drivers/STM32G4xx_HAL_Driver/Src/stm32g4xx_hal_pwr.c ****   * @note  All clocks in the VCORE domain are stopped; the PLL,
 493:Drivers/STM32G4xx_HAL_Driver/Src/stm32g4xx_hal_pwr.c ****   *        the HSI and the HSE oscillators are disabled. Some peripherals with the wakeup capabilit
 494:Drivers/STM32G4xx_HAL_Driver/Src/stm32g4xx_hal_pwr.c ****   *        (I2Cx, USARTx and LPUART) can switch on the HSI to receive a frame, and switch off the H
 495:Drivers/STM32G4xx_HAL_Driver/Src/stm32g4xx_hal_pwr.c ****   *        after receiving the frame if it is not a wakeup frame. In this case, the HSI clock is pr
 496:Drivers/STM32G4xx_HAL_Driver/Src/stm32g4xx_hal_pwr.c ****   *        only to the peripheral requesting it.
 497:Drivers/STM32G4xx_HAL_Driver/Src/stm32g4xx_hal_pwr.c ****   *        SRAM1, SRAM2 and register contents are preserved.
 498:Drivers/STM32G4xx_HAL_Driver/Src/stm32g4xx_hal_pwr.c ****   *        The BOR is available.
 499:Drivers/STM32G4xx_HAL_Driver/Src/stm32g4xx_hal_pwr.c ****   *        The voltage regulator can be configured either in normal (Stop 0) or low-power mode (Sto
 500:Drivers/STM32G4xx_HAL_Driver/Src/stm32g4xx_hal_pwr.c ****   * @note  When exiting Stop 0 or Stop 1 mode by issuing an interrupt or a wakeup event,
 501:Drivers/STM32G4xx_HAL_Driver/Src/stm32g4xx_hal_pwr.c ****   *         the HSI RC oscillator is selected as system clock.
 502:Drivers/STM32G4xx_HAL_Driver/Src/stm32g4xx_hal_pwr.c ****   * @note  When the voltage regulator operates in low power mode (Stop 1), an additional
 503:Drivers/STM32G4xx_HAL_Driver/Src/stm32g4xx_hal_pwr.c ****   *         startup delay is incurred when waking up.
 504:Drivers/STM32G4xx_HAL_Driver/Src/stm32g4xx_hal_pwr.c ****   *         By keeping the internal regulator ON during Stop mode (Stop 0), the consumption
 505:Drivers/STM32G4xx_HAL_Driver/Src/stm32g4xx_hal_pwr.c ****   *         is higher although the startup time is reduced.
 506:Drivers/STM32G4xx_HAL_Driver/Src/stm32g4xx_hal_pwr.c ****   * @param Regulator: Specifies the regulator state in Stop mode.
 507:Drivers/STM32G4xx_HAL_Driver/Src/stm32g4xx_hal_pwr.c ****   *          This parameter can be one of the following values:
 508:Drivers/STM32G4xx_HAL_Driver/Src/stm32g4xx_hal_pwr.c ****   *            @arg @ref PWR_MAINREGULATOR_ON  Stop 0 mode (main regulator ON)
 509:Drivers/STM32G4xx_HAL_Driver/Src/stm32g4xx_hal_pwr.c ****   *            @arg @ref PWR_LOWPOWERREGULATOR_ON  Stop 1 mode (low power regulator ON)
 510:Drivers/STM32G4xx_HAL_Driver/Src/stm32g4xx_hal_pwr.c ****   * @param STOPEntry: Specifies Stop 0 or Stop 1 mode is entered with WFI or WFE instruction.
 511:Drivers/STM32G4xx_HAL_Driver/Src/stm32g4xx_hal_pwr.c ****   *          This parameter can be one of the following values:
 512:Drivers/STM32G4xx_HAL_Driver/Src/stm32g4xx_hal_pwr.c ****   *            @arg @ref PWR_STOPENTRY_WFI  Enter Stop 0 or Stop 1 mode with WFI instruction.
 513:Drivers/STM32G4xx_HAL_Driver/Src/stm32g4xx_hal_pwr.c ****   *            @arg @ref PWR_STOPENTRY_WFE  Enter Stop 0 or Stop 1 mode with WFE instruction.
 514:Drivers/STM32G4xx_HAL_Driver/Src/stm32g4xx_hal_pwr.c ****   * @retval None
 515:Drivers/STM32G4xx_HAL_Driver/Src/stm32g4xx_hal_pwr.c ****   */
 516:Drivers/STM32G4xx_HAL_Driver/Src/stm32g4xx_hal_pwr.c **** void HAL_PWR_EnterSTOPMode(uint32_t Regulator, uint8_t STOPEntry)
 517:Drivers/STM32G4xx_HAL_Driver/Src/stm32g4xx_hal_pwr.c **** {
 629              		.loc 1 517 1
 630              		.cfi_startproc
 631              		@ args = 0, pretend = 0, frame = 8
 632              		@ frame_needed = 1, uses_anonymous_args = 0
 633 0000 80B5     		push	{r7, lr}
 634              	.LCFI43:
 635              		.cfi_def_cfa_offset 8
 636              		.cfi_offset 7, -8
 637              		.cfi_offset 14, -4
 638 0002 82B0     		sub	sp, sp, #8
 639              	.LCFI44:
ARM GAS  C:\Users\AURORA~1\AppData\Local\Temp\ccnnMEkR.s 			page 21


 640              		.cfi_def_cfa_offset 16
 641 0004 00AF     		add	r7, sp, #0
 642              	.LCFI45:
 643              		.cfi_def_cfa_register 7
 644 0006 7860     		str	r0, [r7, #4]
 645 0008 0B46     		mov	r3, r1
 646 000a FB70     		strb	r3, [r7, #3]
 518:Drivers/STM32G4xx_HAL_Driver/Src/stm32g4xx_hal_pwr.c ****   /* Check the parameters */
 519:Drivers/STM32G4xx_HAL_Driver/Src/stm32g4xx_hal_pwr.c ****   assert_param(IS_PWR_REGULATOR(Regulator));
 520:Drivers/STM32G4xx_HAL_Driver/Src/stm32g4xx_hal_pwr.c **** 
 521:Drivers/STM32G4xx_HAL_Driver/Src/stm32g4xx_hal_pwr.c ****   if(Regulator == PWR_LOWPOWERREGULATOR_ON)
 647              		.loc 1 521 5
 648 000c 7B68     		ldr	r3, [r7, #4]
 649 000e B3F5804F 		cmp	r3, #16384
 650 0012 04D1     		bne	.L39
 522:Drivers/STM32G4xx_HAL_Driver/Src/stm32g4xx_hal_pwr.c ****   {
 523:Drivers/STM32G4xx_HAL_Driver/Src/stm32g4xx_hal_pwr.c ****     HAL_PWREx_EnterSTOP1Mode(STOPEntry);
 651              		.loc 1 523 5
 652 0014 FB78     		ldrb	r3, [r7, #3]	@ zero_extendqisi2
 653 0016 1846     		mov	r0, r3
 654 0018 FFF7FEFF 		bl	HAL_PWREx_EnterSTOP1Mode
 524:Drivers/STM32G4xx_HAL_Driver/Src/stm32g4xx_hal_pwr.c ****   }
 525:Drivers/STM32G4xx_HAL_Driver/Src/stm32g4xx_hal_pwr.c ****   else
 526:Drivers/STM32G4xx_HAL_Driver/Src/stm32g4xx_hal_pwr.c ****   {
 527:Drivers/STM32G4xx_HAL_Driver/Src/stm32g4xx_hal_pwr.c ****     HAL_PWREx_EnterSTOP0Mode(STOPEntry);
 528:Drivers/STM32G4xx_HAL_Driver/Src/stm32g4xx_hal_pwr.c ****   }
 529:Drivers/STM32G4xx_HAL_Driver/Src/stm32g4xx_hal_pwr.c **** }
 655              		.loc 1 529 1
 656 001c 03E0     		b	.L41
 657              	.L39:
 527:Drivers/STM32G4xx_HAL_Driver/Src/stm32g4xx_hal_pwr.c ****   }
 658              		.loc 1 527 5
 659 001e FB78     		ldrb	r3, [r7, #3]	@ zero_extendqisi2
 660 0020 1846     		mov	r0, r3
 661 0022 FFF7FEFF 		bl	HAL_PWREx_EnterSTOP0Mode
 662              	.L41:
 663              		.loc 1 529 1
 664 0026 00BF     		nop
 665 0028 0837     		adds	r7, r7, #8
 666              	.LCFI46:
 667              		.cfi_def_cfa_offset 8
 668 002a BD46     		mov	sp, r7
 669              	.LCFI47:
 670              		.cfi_def_cfa_register 13
 671              		@ sp needed
 672 002c 80BD     		pop	{r7, pc}
 673              		.cfi_endproc
 674              	.LFE141:
 676              		.section	.text.HAL_PWR_EnterSTANDBYMode,"ax",%progbits
 677              		.align	1
 678              		.global	HAL_PWR_EnterSTANDBYMode
 679              		.syntax unified
 680              		.thumb
 681              		.thumb_func
 683              	HAL_PWR_EnterSTANDBYMode:
 684              	.LFB142:
 530:Drivers/STM32G4xx_HAL_Driver/Src/stm32g4xx_hal_pwr.c **** 
ARM GAS  C:\Users\AURORA~1\AppData\Local\Temp\ccnnMEkR.s 			page 22


 531:Drivers/STM32G4xx_HAL_Driver/Src/stm32g4xx_hal_pwr.c **** /**
 532:Drivers/STM32G4xx_HAL_Driver/Src/stm32g4xx_hal_pwr.c ****   * @brief Enter Standby mode.
 533:Drivers/STM32G4xx_HAL_Driver/Src/stm32g4xx_hal_pwr.c ****   * @note  In Standby mode, the PLL, the HSI and the HSE oscillators are switched
 534:Drivers/STM32G4xx_HAL_Driver/Src/stm32g4xx_hal_pwr.c ****   *        off. The voltage regulator is disabled, except when SRAM2 content is preserved
 535:Drivers/STM32G4xx_HAL_Driver/Src/stm32g4xx_hal_pwr.c ****   *        in which case the regulator is in low-power mode.
 536:Drivers/STM32G4xx_HAL_Driver/Src/stm32g4xx_hal_pwr.c ****   *        SRAM1 and register contents are lost except for registers in the Backup domain and
 537:Drivers/STM32G4xx_HAL_Driver/Src/stm32g4xx_hal_pwr.c ****   *        Standby circuitry. SRAM2 content can be preserved if the bit RRS is set in PWR_CR3 regis
 538:Drivers/STM32G4xx_HAL_Driver/Src/stm32g4xx_hal_pwr.c ****   *        To enable this feature, the user can resort to HAL_PWREx_EnableSRAM2ContentRetention() A
 539:Drivers/STM32G4xx_HAL_Driver/Src/stm32g4xx_hal_pwr.c ****   *        to set RRS bit.
 540:Drivers/STM32G4xx_HAL_Driver/Src/stm32g4xx_hal_pwr.c ****   *        The BOR is available.
 541:Drivers/STM32G4xx_HAL_Driver/Src/stm32g4xx_hal_pwr.c ****   * @note  The I/Os can be configured either with a pull-up or pull-down or can be kept in analog s
 542:Drivers/STM32G4xx_HAL_Driver/Src/stm32g4xx_hal_pwr.c ****   *        HAL_PWREx_EnableGPIOPullUp() and HAL_PWREx_EnableGPIOPullDown() respectively enable Pull
 543:Drivers/STM32G4xx_HAL_Driver/Src/stm32g4xx_hal_pwr.c ****   *        Pull Down state, HAL_PWREx_DisableGPIOPullUp() and HAL_PWREx_DisableGPIOPullDown() disab
 544:Drivers/STM32G4xx_HAL_Driver/Src/stm32g4xx_hal_pwr.c ****   *        same.
 545:Drivers/STM32G4xx_HAL_Driver/Src/stm32g4xx_hal_pwr.c ****   *        These states are effective in Standby mode only if APC bit is set through
 546:Drivers/STM32G4xx_HAL_Driver/Src/stm32g4xx_hal_pwr.c ****   *        HAL_PWREx_EnablePullUpPullDownConfig() API.
 547:Drivers/STM32G4xx_HAL_Driver/Src/stm32g4xx_hal_pwr.c ****   * @retval None
 548:Drivers/STM32G4xx_HAL_Driver/Src/stm32g4xx_hal_pwr.c ****   */
 549:Drivers/STM32G4xx_HAL_Driver/Src/stm32g4xx_hal_pwr.c **** void HAL_PWR_EnterSTANDBYMode(void)
 550:Drivers/STM32G4xx_HAL_Driver/Src/stm32g4xx_hal_pwr.c **** {
 685              		.loc 1 550 1
 686              		.cfi_startproc
 687              		@ args = 0, pretend = 0, frame = 0
 688              		@ frame_needed = 1, uses_anonymous_args = 0
 689              		@ link register save eliminated.
 690 0000 80B4     		push	{r7}
 691              	.LCFI48:
 692              		.cfi_def_cfa_offset 4
 693              		.cfi_offset 7, -4
 694 0002 00AF     		add	r7, sp, #0
 695              	.LCFI49:
 696              		.cfi_def_cfa_register 7
 551:Drivers/STM32G4xx_HAL_Driver/Src/stm32g4xx_hal_pwr.c ****   /* Set Stand-by mode */
 552:Drivers/STM32G4xx_HAL_Driver/Src/stm32g4xx_hal_pwr.c ****   MODIFY_REG(PWR->CR1, PWR_CR1_LPMS, PWR_CR1_LPMS_STANDBY);
 697              		.loc 1 552 3
 698 0004 094B     		ldr	r3, .L43
 699 0006 1B68     		ldr	r3, [r3]
 700 0008 23F00703 		bic	r3, r3, #7
 701 000c 074A     		ldr	r2, .L43
 702 000e 43F00303 		orr	r3, r3, #3
 703 0012 1360     		str	r3, [r2]
 553:Drivers/STM32G4xx_HAL_Driver/Src/stm32g4xx_hal_pwr.c **** 
 554:Drivers/STM32G4xx_HAL_Driver/Src/stm32g4xx_hal_pwr.c ****   /* Set SLEEPDEEP bit of Cortex System Control Register */
 555:Drivers/STM32G4xx_HAL_Driver/Src/stm32g4xx_hal_pwr.c ****   SET_BIT(SCB->SCR, ((uint32_t)SCB_SCR_SLEEPDEEP_Msk));
 704              		.loc 1 555 3
 705 0014 064B     		ldr	r3, .L43+4
 706 0016 1B69     		ldr	r3, [r3, #16]
 707 0018 054A     		ldr	r2, .L43+4
 708 001a 43F00403 		orr	r3, r3, #4
 709 001e 1361     		str	r3, [r2, #16]
 556:Drivers/STM32G4xx_HAL_Driver/Src/stm32g4xx_hal_pwr.c **** 
 557:Drivers/STM32G4xx_HAL_Driver/Src/stm32g4xx_hal_pwr.c **** /* This option is used to ensure that store operations are completed */
 558:Drivers/STM32G4xx_HAL_Driver/Src/stm32g4xx_hal_pwr.c **** #if defined ( __CC_ARM)
 559:Drivers/STM32G4xx_HAL_Driver/Src/stm32g4xx_hal_pwr.c ****   __force_stores();
 560:Drivers/STM32G4xx_HAL_Driver/Src/stm32g4xx_hal_pwr.c **** #endif
 561:Drivers/STM32G4xx_HAL_Driver/Src/stm32g4xx_hal_pwr.c ****   /* Request Wait For Interrupt */
 562:Drivers/STM32G4xx_HAL_Driver/Src/stm32g4xx_hal_pwr.c ****   __WFI();
ARM GAS  C:\Users\AURORA~1\AppData\Local\Temp\ccnnMEkR.s 			page 23


 710              		.loc 1 562 3
 711              		.syntax unified
 712              	@ 562 "Drivers/STM32G4xx_HAL_Driver/Src/stm32g4xx_hal_pwr.c" 1
 713 0020 30BF     		wfi
 714              	@ 0 "" 2
 563:Drivers/STM32G4xx_HAL_Driver/Src/stm32g4xx_hal_pwr.c **** }
 715              		.loc 1 563 1
 716              		.thumb
 717              		.syntax unified
 718 0022 00BF     		nop
 719 0024 BD46     		mov	sp, r7
 720              	.LCFI50:
 721              		.cfi_def_cfa_register 13
 722              		@ sp needed
 723 0026 5DF8047B 		ldr	r7, [sp], #4
 724              	.LCFI51:
 725              		.cfi_restore 7
 726              		.cfi_def_cfa_offset 0
 727 002a 7047     		bx	lr
 728              	.L44:
 729              		.align	2
 730              	.L43:
 731 002c 00700040 		.word	1073770496
 732 0030 00ED00E0 		.word	-536810240
 733              		.cfi_endproc
 734              	.LFE142:
 736              		.section	.text.HAL_PWR_EnableSleepOnExit,"ax",%progbits
 737              		.align	1
 738              		.global	HAL_PWR_EnableSleepOnExit
 739              		.syntax unified
 740              		.thumb
 741              		.thumb_func
 743              	HAL_PWR_EnableSleepOnExit:
 744              	.LFB143:
 564:Drivers/STM32G4xx_HAL_Driver/Src/stm32g4xx_hal_pwr.c **** 
 565:Drivers/STM32G4xx_HAL_Driver/Src/stm32g4xx_hal_pwr.c **** 
 566:Drivers/STM32G4xx_HAL_Driver/Src/stm32g4xx_hal_pwr.c **** 
 567:Drivers/STM32G4xx_HAL_Driver/Src/stm32g4xx_hal_pwr.c **** /**
 568:Drivers/STM32G4xx_HAL_Driver/Src/stm32g4xx_hal_pwr.c ****   * @brief Indicate Sleep-On-Exit when returning from Handler mode to Thread mode.
 569:Drivers/STM32G4xx_HAL_Driver/Src/stm32g4xx_hal_pwr.c ****   * @note Set SLEEPONEXIT bit of SCR register. When this bit is set, the processor
 570:Drivers/STM32G4xx_HAL_Driver/Src/stm32g4xx_hal_pwr.c ****   *       re-enters SLEEP mode when an interruption handling is over.
 571:Drivers/STM32G4xx_HAL_Driver/Src/stm32g4xx_hal_pwr.c ****   *       Setting this bit is useful when the processor is expected to run only on
 572:Drivers/STM32G4xx_HAL_Driver/Src/stm32g4xx_hal_pwr.c ****   *       interruptions handling.
 573:Drivers/STM32G4xx_HAL_Driver/Src/stm32g4xx_hal_pwr.c ****   * @retval None
 574:Drivers/STM32G4xx_HAL_Driver/Src/stm32g4xx_hal_pwr.c ****   */
 575:Drivers/STM32G4xx_HAL_Driver/Src/stm32g4xx_hal_pwr.c **** void HAL_PWR_EnableSleepOnExit(void)
 576:Drivers/STM32G4xx_HAL_Driver/Src/stm32g4xx_hal_pwr.c **** {
 745              		.loc 1 576 1
 746              		.cfi_startproc
 747              		@ args = 0, pretend = 0, frame = 0
 748              		@ frame_needed = 1, uses_anonymous_args = 0
 749              		@ link register save eliminated.
 750 0000 80B4     		push	{r7}
 751              	.LCFI52:
 752              		.cfi_def_cfa_offset 4
 753              		.cfi_offset 7, -4
 754 0002 00AF     		add	r7, sp, #0
ARM GAS  C:\Users\AURORA~1\AppData\Local\Temp\ccnnMEkR.s 			page 24


 755              	.LCFI53:
 756              		.cfi_def_cfa_register 7
 577:Drivers/STM32G4xx_HAL_Driver/Src/stm32g4xx_hal_pwr.c ****   /* Set SLEEPONEXIT bit of Cortex System Control Register */
 578:Drivers/STM32G4xx_HAL_Driver/Src/stm32g4xx_hal_pwr.c ****   SET_BIT(SCB->SCR, ((uint32_t)SCB_SCR_SLEEPONEXIT_Msk));
 757              		.loc 1 578 3
 758 0004 054B     		ldr	r3, .L46
 759 0006 1B69     		ldr	r3, [r3, #16]
 760 0008 044A     		ldr	r2, .L46
 761 000a 43F00203 		orr	r3, r3, #2
 762 000e 1361     		str	r3, [r2, #16]
 579:Drivers/STM32G4xx_HAL_Driver/Src/stm32g4xx_hal_pwr.c **** }
 763              		.loc 1 579 1
 764 0010 00BF     		nop
 765 0012 BD46     		mov	sp, r7
 766              	.LCFI54:
 767              		.cfi_def_cfa_register 13
 768              		@ sp needed
 769 0014 5DF8047B 		ldr	r7, [sp], #4
 770              	.LCFI55:
 771              		.cfi_restore 7
 772              		.cfi_def_cfa_offset 0
 773 0018 7047     		bx	lr
 774              	.L47:
 775 001a 00BF     		.align	2
 776              	.L46:
 777 001c 00ED00E0 		.word	-536810240
 778              		.cfi_endproc
 779              	.LFE143:
 781              		.section	.text.HAL_PWR_DisableSleepOnExit,"ax",%progbits
 782              		.align	1
 783              		.global	HAL_PWR_DisableSleepOnExit
 784              		.syntax unified
 785              		.thumb
 786              		.thumb_func
 788              	HAL_PWR_DisableSleepOnExit:
 789              	.LFB144:
 580:Drivers/STM32G4xx_HAL_Driver/Src/stm32g4xx_hal_pwr.c **** 
 581:Drivers/STM32G4xx_HAL_Driver/Src/stm32g4xx_hal_pwr.c **** 
 582:Drivers/STM32G4xx_HAL_Driver/Src/stm32g4xx_hal_pwr.c **** /**
 583:Drivers/STM32G4xx_HAL_Driver/Src/stm32g4xx_hal_pwr.c ****   * @brief Disable Sleep-On-Exit feature when returning from Handler mode to Thread mode.
 584:Drivers/STM32G4xx_HAL_Driver/Src/stm32g4xx_hal_pwr.c ****   * @note Clear SLEEPONEXIT bit of SCR register. When this bit is set, the processor
 585:Drivers/STM32G4xx_HAL_Driver/Src/stm32g4xx_hal_pwr.c ****   *       re-enters SLEEP mode when an interruption handling is over.
 586:Drivers/STM32G4xx_HAL_Driver/Src/stm32g4xx_hal_pwr.c ****   * @retval None
 587:Drivers/STM32G4xx_HAL_Driver/Src/stm32g4xx_hal_pwr.c ****   */
 588:Drivers/STM32G4xx_HAL_Driver/Src/stm32g4xx_hal_pwr.c **** void HAL_PWR_DisableSleepOnExit(void)
 589:Drivers/STM32G4xx_HAL_Driver/Src/stm32g4xx_hal_pwr.c **** {
 790              		.loc 1 589 1
 791              		.cfi_startproc
 792              		@ args = 0, pretend = 0, frame = 0
 793              		@ frame_needed = 1, uses_anonymous_args = 0
 794              		@ link register save eliminated.
 795 0000 80B4     		push	{r7}
 796              	.LCFI56:
 797              		.cfi_def_cfa_offset 4
 798              		.cfi_offset 7, -4
 799 0002 00AF     		add	r7, sp, #0
 800              	.LCFI57:
ARM GAS  C:\Users\AURORA~1\AppData\Local\Temp\ccnnMEkR.s 			page 25


 801              		.cfi_def_cfa_register 7
 590:Drivers/STM32G4xx_HAL_Driver/Src/stm32g4xx_hal_pwr.c ****   /* Clear SLEEPONEXIT bit of Cortex System Control Register */
 591:Drivers/STM32G4xx_HAL_Driver/Src/stm32g4xx_hal_pwr.c ****   CLEAR_BIT(SCB->SCR, ((uint32_t)SCB_SCR_SLEEPONEXIT_Msk));
 802              		.loc 1 591 3
 803 0004 054B     		ldr	r3, .L49
 804 0006 1B69     		ldr	r3, [r3, #16]
 805 0008 044A     		ldr	r2, .L49
 806 000a 23F00203 		bic	r3, r3, #2
 807 000e 1361     		str	r3, [r2, #16]
 592:Drivers/STM32G4xx_HAL_Driver/Src/stm32g4xx_hal_pwr.c **** }
 808              		.loc 1 592 1
 809 0010 00BF     		nop
 810 0012 BD46     		mov	sp, r7
 811              	.LCFI58:
 812              		.cfi_def_cfa_register 13
 813              		@ sp needed
 814 0014 5DF8047B 		ldr	r7, [sp], #4
 815              	.LCFI59:
 816              		.cfi_restore 7
 817              		.cfi_def_cfa_offset 0
 818 0018 7047     		bx	lr
 819              	.L50:
 820 001a 00BF     		.align	2
 821              	.L49:
 822 001c 00ED00E0 		.word	-536810240
 823              		.cfi_endproc
 824              	.LFE144:
 826              		.section	.text.HAL_PWR_EnableSEVOnPend,"ax",%progbits
 827              		.align	1
 828              		.global	HAL_PWR_EnableSEVOnPend
 829              		.syntax unified
 830              		.thumb
 831              		.thumb_func
 833              	HAL_PWR_EnableSEVOnPend:
 834              	.LFB145:
 593:Drivers/STM32G4xx_HAL_Driver/Src/stm32g4xx_hal_pwr.c **** 
 594:Drivers/STM32G4xx_HAL_Driver/Src/stm32g4xx_hal_pwr.c **** 
 595:Drivers/STM32G4xx_HAL_Driver/Src/stm32g4xx_hal_pwr.c **** 
 596:Drivers/STM32G4xx_HAL_Driver/Src/stm32g4xx_hal_pwr.c **** /**
 597:Drivers/STM32G4xx_HAL_Driver/Src/stm32g4xx_hal_pwr.c ****   * @brief Enable CORTEX M4 SEVONPEND bit.
 598:Drivers/STM32G4xx_HAL_Driver/Src/stm32g4xx_hal_pwr.c ****   * @note Set SEVONPEND bit of SCR register. When this bit is set, this causes
 599:Drivers/STM32G4xx_HAL_Driver/Src/stm32g4xx_hal_pwr.c ****   *       WFE to wake up when an interrupt moves from inactive to pended.
 600:Drivers/STM32G4xx_HAL_Driver/Src/stm32g4xx_hal_pwr.c ****   * @retval None
 601:Drivers/STM32G4xx_HAL_Driver/Src/stm32g4xx_hal_pwr.c ****   */
 602:Drivers/STM32G4xx_HAL_Driver/Src/stm32g4xx_hal_pwr.c **** void HAL_PWR_EnableSEVOnPend(void)
 603:Drivers/STM32G4xx_HAL_Driver/Src/stm32g4xx_hal_pwr.c **** {
 835              		.loc 1 603 1
 836              		.cfi_startproc
 837              		@ args = 0, pretend = 0, frame = 0
 838              		@ frame_needed = 1, uses_anonymous_args = 0
 839              		@ link register save eliminated.
 840 0000 80B4     		push	{r7}
 841              	.LCFI60:
 842              		.cfi_def_cfa_offset 4
 843              		.cfi_offset 7, -4
 844 0002 00AF     		add	r7, sp, #0
 845              	.LCFI61:
ARM GAS  C:\Users\AURORA~1\AppData\Local\Temp\ccnnMEkR.s 			page 26


 846              		.cfi_def_cfa_register 7
 604:Drivers/STM32G4xx_HAL_Driver/Src/stm32g4xx_hal_pwr.c ****   /* Set SEVONPEND bit of Cortex System Control Register */
 605:Drivers/STM32G4xx_HAL_Driver/Src/stm32g4xx_hal_pwr.c ****   SET_BIT(SCB->SCR, ((uint32_t)SCB_SCR_SEVONPEND_Msk));
 847              		.loc 1 605 3
 848 0004 054B     		ldr	r3, .L52
 849 0006 1B69     		ldr	r3, [r3, #16]
 850 0008 044A     		ldr	r2, .L52
 851 000a 43F01003 		orr	r3, r3, #16
 852 000e 1361     		str	r3, [r2, #16]
 606:Drivers/STM32G4xx_HAL_Driver/Src/stm32g4xx_hal_pwr.c **** }
 853              		.loc 1 606 1
 854 0010 00BF     		nop
 855 0012 BD46     		mov	sp, r7
 856              	.LCFI62:
 857              		.cfi_def_cfa_register 13
 858              		@ sp needed
 859 0014 5DF8047B 		ldr	r7, [sp], #4
 860              	.LCFI63:
 861              		.cfi_restore 7
 862              		.cfi_def_cfa_offset 0
 863 0018 7047     		bx	lr
 864              	.L53:
 865 001a 00BF     		.align	2
 866              	.L52:
 867 001c 00ED00E0 		.word	-536810240
 868              		.cfi_endproc
 869              	.LFE145:
 871              		.section	.text.HAL_PWR_DisableSEVOnPend,"ax",%progbits
 872              		.align	1
 873              		.global	HAL_PWR_DisableSEVOnPend
 874              		.syntax unified
 875              		.thumb
 876              		.thumb_func
 878              	HAL_PWR_DisableSEVOnPend:
 879              	.LFB146:
 607:Drivers/STM32G4xx_HAL_Driver/Src/stm32g4xx_hal_pwr.c **** 
 608:Drivers/STM32G4xx_HAL_Driver/Src/stm32g4xx_hal_pwr.c **** 
 609:Drivers/STM32G4xx_HAL_Driver/Src/stm32g4xx_hal_pwr.c **** /**
 610:Drivers/STM32G4xx_HAL_Driver/Src/stm32g4xx_hal_pwr.c ****   * @brief Disable CORTEX M4 SEVONPEND bit.
 611:Drivers/STM32G4xx_HAL_Driver/Src/stm32g4xx_hal_pwr.c ****   * @note Clear SEVONPEND bit of SCR register. When this bit is set, this causes
 612:Drivers/STM32G4xx_HAL_Driver/Src/stm32g4xx_hal_pwr.c ****   *       WFE to wake up when an interrupt moves from inactive to pended.
 613:Drivers/STM32G4xx_HAL_Driver/Src/stm32g4xx_hal_pwr.c ****   * @retval None
 614:Drivers/STM32G4xx_HAL_Driver/Src/stm32g4xx_hal_pwr.c ****   */
 615:Drivers/STM32G4xx_HAL_Driver/Src/stm32g4xx_hal_pwr.c **** void HAL_PWR_DisableSEVOnPend(void)
 616:Drivers/STM32G4xx_HAL_Driver/Src/stm32g4xx_hal_pwr.c **** {
 880              		.loc 1 616 1
 881              		.cfi_startproc
 882              		@ args = 0, pretend = 0, frame = 0
 883              		@ frame_needed = 1, uses_anonymous_args = 0
 884              		@ link register save eliminated.
 885 0000 80B4     		push	{r7}
 886              	.LCFI64:
 887              		.cfi_def_cfa_offset 4
 888              		.cfi_offset 7, -4
 889 0002 00AF     		add	r7, sp, #0
 890              	.LCFI65:
 891              		.cfi_def_cfa_register 7
ARM GAS  C:\Users\AURORA~1\AppData\Local\Temp\ccnnMEkR.s 			page 27


 617:Drivers/STM32G4xx_HAL_Driver/Src/stm32g4xx_hal_pwr.c ****   /* Clear SEVONPEND bit of Cortex System Control Register */
 618:Drivers/STM32G4xx_HAL_Driver/Src/stm32g4xx_hal_pwr.c ****   CLEAR_BIT(SCB->SCR, ((uint32_t)SCB_SCR_SEVONPEND_Msk));
 892              		.loc 1 618 3
 893 0004 054B     		ldr	r3, .L55
 894 0006 1B69     		ldr	r3, [r3, #16]
 895 0008 044A     		ldr	r2, .L55
 896 000a 23F01003 		bic	r3, r3, #16
 897 000e 1361     		str	r3, [r2, #16]
 619:Drivers/STM32G4xx_HAL_Driver/Src/stm32g4xx_hal_pwr.c **** }
 898              		.loc 1 619 1
 899 0010 00BF     		nop
 900 0012 BD46     		mov	sp, r7
 901              	.LCFI66:
 902              		.cfi_def_cfa_register 13
 903              		@ sp needed
 904 0014 5DF8047B 		ldr	r7, [sp], #4
 905              	.LCFI67:
 906              		.cfi_restore 7
 907              		.cfi_def_cfa_offset 0
 908 0018 7047     		bx	lr
 909              	.L56:
 910 001a 00BF     		.align	2
 911              	.L55:
 912 001c 00ED00E0 		.word	-536810240
 913              		.cfi_endproc
 914              	.LFE146:
 916              		.section	.text.HAL_PWR_PVDCallback,"ax",%progbits
 917              		.align	1
 918              		.weak	HAL_PWR_PVDCallback
 919              		.syntax unified
 920              		.thumb
 921              		.thumb_func
 923              	HAL_PWR_PVDCallback:
 924              	.LFB147:
 620:Drivers/STM32G4xx_HAL_Driver/Src/stm32g4xx_hal_pwr.c **** 
 621:Drivers/STM32G4xx_HAL_Driver/Src/stm32g4xx_hal_pwr.c **** 
 622:Drivers/STM32G4xx_HAL_Driver/Src/stm32g4xx_hal_pwr.c **** 
 623:Drivers/STM32G4xx_HAL_Driver/Src/stm32g4xx_hal_pwr.c **** 
 624:Drivers/STM32G4xx_HAL_Driver/Src/stm32g4xx_hal_pwr.c **** 
 625:Drivers/STM32G4xx_HAL_Driver/Src/stm32g4xx_hal_pwr.c **** /**
 626:Drivers/STM32G4xx_HAL_Driver/Src/stm32g4xx_hal_pwr.c ****   * @brief PWR PVD interrupt callback
 627:Drivers/STM32G4xx_HAL_Driver/Src/stm32g4xx_hal_pwr.c ****   * @retval None
 628:Drivers/STM32G4xx_HAL_Driver/Src/stm32g4xx_hal_pwr.c ****   */
 629:Drivers/STM32G4xx_HAL_Driver/Src/stm32g4xx_hal_pwr.c **** __weak void HAL_PWR_PVDCallback(void)
 630:Drivers/STM32G4xx_HAL_Driver/Src/stm32g4xx_hal_pwr.c **** {
 925              		.loc 1 630 1
 926              		.cfi_startproc
 927              		@ args = 0, pretend = 0, frame = 0
 928              		@ frame_needed = 1, uses_anonymous_args = 0
 929              		@ link register save eliminated.
 930 0000 80B4     		push	{r7}
 931              	.LCFI68:
 932              		.cfi_def_cfa_offset 4
 933              		.cfi_offset 7, -4
 934 0002 00AF     		add	r7, sp, #0
 935              	.LCFI69:
 936              		.cfi_def_cfa_register 7
ARM GAS  C:\Users\AURORA~1\AppData\Local\Temp\ccnnMEkR.s 			page 28


 631:Drivers/STM32G4xx_HAL_Driver/Src/stm32g4xx_hal_pwr.c ****   /* NOTE : This function should not be modified; when the callback is needed,
 632:Drivers/STM32G4xx_HAL_Driver/Src/stm32g4xx_hal_pwr.c ****             the HAL_PWR_PVDCallback can be implemented in the user file
 633:Drivers/STM32G4xx_HAL_Driver/Src/stm32g4xx_hal_pwr.c ****    */
 634:Drivers/STM32G4xx_HAL_Driver/Src/stm32g4xx_hal_pwr.c **** }
 937              		.loc 1 634 1
 938 0004 00BF     		nop
 939 0006 BD46     		mov	sp, r7
 940              	.LCFI70:
 941              		.cfi_def_cfa_register 13
 942              		@ sp needed
 943 0008 5DF8047B 		ldr	r7, [sp], #4
 944              	.LCFI71:
 945              		.cfi_restore 7
 946              		.cfi_def_cfa_offset 0
 947 000c 7047     		bx	lr
 948              		.cfi_endproc
 949              	.LFE147:
 951              		.text
 952              	.Letext0:
 953              		.file 2 "D:/msys64/mingw64/arm-none-eabi/include/machine/_default_types.h"
 954              		.file 3 "D:/msys64/mingw64/arm-none-eabi/include/sys/_stdint.h"
 955              		.file 4 "Drivers/CMSIS/Include/core_cm4.h"
 956              		.file 5 "Drivers/CMSIS/Device/ST/STM32G4xx/Include/stm32g474xx.h"
 957              		.file 6 "Drivers/STM32G4xx_HAL_Driver/Inc/stm32g4xx_hal_def.h"
 958              		.file 7 "Drivers/STM32G4xx_HAL_Driver/Inc/stm32g4xx_hal_pwr.h"
 959              		.file 8 "Drivers/STM32G4xx_HAL_Driver/Inc/stm32g4xx_hal_pwr_ex.h"
ARM GAS  C:\Users\AURORA~1\AppData\Local\Temp\ccnnMEkR.s 			page 29

