ARM GAS  C:\Users\AURORA~1\AppData\Local\Temp\cc3nfJXy.s 			page 1


   1              		.cpu cortex-m4
   2              		.arch armv7e-m
   3              		.fpu fpv4-sp-d16
   4              		.eabi_attribute 27, 1
   5              		.eabi_attribute 28, 1
   6              		.eabi_attribute 20, 1
   7              		.eabi_attribute 21, 1
   8              		.eabi_attribute 23, 3
   9              		.eabi_attribute 24, 1
  10              		.eabi_attribute 25, 1
  11              		.eabi_attribute 26, 1
  12              		.eabi_attribute 30, 6
  13              		.eabi_attribute 34, 1
  14              		.eabi_attribute 18, 4
  15              		.file	"stm32g4xx_hal_rcc_ex.c"
  16              		.text
  17              	.Ltext0:
  18              		.cfi_sections	.debug_frame
  19              		.file 1 "Drivers/STM32G4xx_HAL_Driver/Src/stm32g4xx_hal_rcc_ex.c"
  20              		.section	.text.HAL_RCCEx_PeriphCLKConfig,"ax",%progbits
  21              		.align	1
  22              		.global	HAL_RCCEx_PeriphCLKConfig
  23              		.syntax unified
  24              		.thumb
  25              		.thumb_func
  27              	HAL_RCCEx_PeriphCLKConfig:
  28              	.LFB132:
   1:Drivers/STM32G4xx_HAL_Driver/Src/stm32g4xx_hal_rcc_ex.c **** /**
   2:Drivers/STM32G4xx_HAL_Driver/Src/stm32g4xx_hal_rcc_ex.c ****   ******************************************************************************
   3:Drivers/STM32G4xx_HAL_Driver/Src/stm32g4xx_hal_rcc_ex.c ****   * @file    stm32g4xx_hal_rcc_ex.c
   4:Drivers/STM32G4xx_HAL_Driver/Src/stm32g4xx_hal_rcc_ex.c ****   * @author  MCD Application Team
   5:Drivers/STM32G4xx_HAL_Driver/Src/stm32g4xx_hal_rcc_ex.c ****   * @brief   Extended RCC HAL module driver.
   6:Drivers/STM32G4xx_HAL_Driver/Src/stm32g4xx_hal_rcc_ex.c ****   *          This file provides firmware functions to manage the following
   7:Drivers/STM32G4xx_HAL_Driver/Src/stm32g4xx_hal_rcc_ex.c ****   *          functionalities RCC extended peripheral:
   8:Drivers/STM32G4xx_HAL_Driver/Src/stm32g4xx_hal_rcc_ex.c ****   *           + Extended Peripheral Control functions
   9:Drivers/STM32G4xx_HAL_Driver/Src/stm32g4xx_hal_rcc_ex.c ****   *           + Extended Clock management functions
  10:Drivers/STM32G4xx_HAL_Driver/Src/stm32g4xx_hal_rcc_ex.c ****   *           + Extended Clock Recovery System Control functions
  11:Drivers/STM32G4xx_HAL_Driver/Src/stm32g4xx_hal_rcc_ex.c ****   *
  12:Drivers/STM32G4xx_HAL_Driver/Src/stm32g4xx_hal_rcc_ex.c ****   ******************************************************************************
  13:Drivers/STM32G4xx_HAL_Driver/Src/stm32g4xx_hal_rcc_ex.c ****   * @attention
  14:Drivers/STM32G4xx_HAL_Driver/Src/stm32g4xx_hal_rcc_ex.c ****   *
  15:Drivers/STM32G4xx_HAL_Driver/Src/stm32g4xx_hal_rcc_ex.c ****   * Copyright (c) 2019 STMicroelectronics.
  16:Drivers/STM32G4xx_HAL_Driver/Src/stm32g4xx_hal_rcc_ex.c ****   * All rights reserved.
  17:Drivers/STM32G4xx_HAL_Driver/Src/stm32g4xx_hal_rcc_ex.c ****   *
  18:Drivers/STM32G4xx_HAL_Driver/Src/stm32g4xx_hal_rcc_ex.c ****   * This software is licensed under terms that can be found in the LICENSE file in
  19:Drivers/STM32G4xx_HAL_Driver/Src/stm32g4xx_hal_rcc_ex.c ****   * the root directory of this software component.
  20:Drivers/STM32G4xx_HAL_Driver/Src/stm32g4xx_hal_rcc_ex.c ****   * If no LICENSE file comes with this software, it is provided AS-IS.
  21:Drivers/STM32G4xx_HAL_Driver/Src/stm32g4xx_hal_rcc_ex.c ****   ******************************************************************************
  22:Drivers/STM32G4xx_HAL_Driver/Src/stm32g4xx_hal_rcc_ex.c ****   */
  23:Drivers/STM32G4xx_HAL_Driver/Src/stm32g4xx_hal_rcc_ex.c **** 
  24:Drivers/STM32G4xx_HAL_Driver/Src/stm32g4xx_hal_rcc_ex.c **** /* Includes ------------------------------------------------------------------*/
  25:Drivers/STM32G4xx_HAL_Driver/Src/stm32g4xx_hal_rcc_ex.c **** #include "stm32g4xx_hal.h"
  26:Drivers/STM32G4xx_HAL_Driver/Src/stm32g4xx_hal_rcc_ex.c **** 
  27:Drivers/STM32G4xx_HAL_Driver/Src/stm32g4xx_hal_rcc_ex.c **** /** @addtogroup STM32G4xx_HAL_Driver
  28:Drivers/STM32G4xx_HAL_Driver/Src/stm32g4xx_hal_rcc_ex.c ****   * @{
  29:Drivers/STM32G4xx_HAL_Driver/Src/stm32g4xx_hal_rcc_ex.c ****   */
  30:Drivers/STM32G4xx_HAL_Driver/Src/stm32g4xx_hal_rcc_ex.c **** 
ARM GAS  C:\Users\AURORA~1\AppData\Local\Temp\cc3nfJXy.s 			page 2


  31:Drivers/STM32G4xx_HAL_Driver/Src/stm32g4xx_hal_rcc_ex.c **** /** @defgroup RCCEx RCCEx
  32:Drivers/STM32G4xx_HAL_Driver/Src/stm32g4xx_hal_rcc_ex.c ****   * @brief RCC Extended HAL module driver
  33:Drivers/STM32G4xx_HAL_Driver/Src/stm32g4xx_hal_rcc_ex.c ****   * @{
  34:Drivers/STM32G4xx_HAL_Driver/Src/stm32g4xx_hal_rcc_ex.c ****   */
  35:Drivers/STM32G4xx_HAL_Driver/Src/stm32g4xx_hal_rcc_ex.c **** 
  36:Drivers/STM32G4xx_HAL_Driver/Src/stm32g4xx_hal_rcc_ex.c **** #ifdef HAL_RCC_MODULE_ENABLED
  37:Drivers/STM32G4xx_HAL_Driver/Src/stm32g4xx_hal_rcc_ex.c **** 
  38:Drivers/STM32G4xx_HAL_Driver/Src/stm32g4xx_hal_rcc_ex.c **** /* Private typedef -----------------------------------------------------------*/
  39:Drivers/STM32G4xx_HAL_Driver/Src/stm32g4xx_hal_rcc_ex.c **** /* Private defines -----------------------------------------------------------*/
  40:Drivers/STM32G4xx_HAL_Driver/Src/stm32g4xx_hal_rcc_ex.c **** /** @defgroup RCCEx_Private_Constants RCCEx Private Constants
  41:Drivers/STM32G4xx_HAL_Driver/Src/stm32g4xx_hal_rcc_ex.c ****  * @{
  42:Drivers/STM32G4xx_HAL_Driver/Src/stm32g4xx_hal_rcc_ex.c ****  */
  43:Drivers/STM32G4xx_HAL_Driver/Src/stm32g4xx_hal_rcc_ex.c **** #define PLL_TIMEOUT_VALUE        2U                /* 2 ms (minimum Tick + 1) */
  44:Drivers/STM32G4xx_HAL_Driver/Src/stm32g4xx_hal_rcc_ex.c **** 
  45:Drivers/STM32G4xx_HAL_Driver/Src/stm32g4xx_hal_rcc_ex.c **** #define DIVIDER_P_UPDATE          0U
  46:Drivers/STM32G4xx_HAL_Driver/Src/stm32g4xx_hal_rcc_ex.c **** #define DIVIDER_Q_UPDATE          1U
  47:Drivers/STM32G4xx_HAL_Driver/Src/stm32g4xx_hal_rcc_ex.c **** #define DIVIDER_R_UPDATE          2U
  48:Drivers/STM32G4xx_HAL_Driver/Src/stm32g4xx_hal_rcc_ex.c **** 
  49:Drivers/STM32G4xx_HAL_Driver/Src/stm32g4xx_hal_rcc_ex.c **** #define __LSCO_CLK_ENABLE()       __HAL_RCC_GPIOA_CLK_ENABLE()
  50:Drivers/STM32G4xx_HAL_Driver/Src/stm32g4xx_hal_rcc_ex.c **** #define LSCO_GPIO_PORT            GPIOA
  51:Drivers/STM32G4xx_HAL_Driver/Src/stm32g4xx_hal_rcc_ex.c **** #define LSCO_PIN                  GPIO_PIN_2
  52:Drivers/STM32G4xx_HAL_Driver/Src/stm32g4xx_hal_rcc_ex.c **** /**
  53:Drivers/STM32G4xx_HAL_Driver/Src/stm32g4xx_hal_rcc_ex.c ****   * @}
  54:Drivers/STM32G4xx_HAL_Driver/Src/stm32g4xx_hal_rcc_ex.c ****   */
  55:Drivers/STM32G4xx_HAL_Driver/Src/stm32g4xx_hal_rcc_ex.c **** 
  56:Drivers/STM32G4xx_HAL_Driver/Src/stm32g4xx_hal_rcc_ex.c **** /* Private macros ------------------------------------------------------------*/
  57:Drivers/STM32G4xx_HAL_Driver/Src/stm32g4xx_hal_rcc_ex.c **** /* Private variables ---------------------------------------------------------*/
  58:Drivers/STM32G4xx_HAL_Driver/Src/stm32g4xx_hal_rcc_ex.c **** /* Private function prototypes -----------------------------------------------*/
  59:Drivers/STM32G4xx_HAL_Driver/Src/stm32g4xx_hal_rcc_ex.c **** /** @defgroup RCCEx_Private_Functions RCCEx Private Functions
  60:Drivers/STM32G4xx_HAL_Driver/Src/stm32g4xx_hal_rcc_ex.c ****  * @{
  61:Drivers/STM32G4xx_HAL_Driver/Src/stm32g4xx_hal_rcc_ex.c ****  */
  62:Drivers/STM32G4xx_HAL_Driver/Src/stm32g4xx_hal_rcc_ex.c **** 
  63:Drivers/STM32G4xx_HAL_Driver/Src/stm32g4xx_hal_rcc_ex.c **** /**
  64:Drivers/STM32G4xx_HAL_Driver/Src/stm32g4xx_hal_rcc_ex.c ****   * @}
  65:Drivers/STM32G4xx_HAL_Driver/Src/stm32g4xx_hal_rcc_ex.c ****   */
  66:Drivers/STM32G4xx_HAL_Driver/Src/stm32g4xx_hal_rcc_ex.c **** 
  67:Drivers/STM32G4xx_HAL_Driver/Src/stm32g4xx_hal_rcc_ex.c **** /* Exported functions --------------------------------------------------------*/
  68:Drivers/STM32G4xx_HAL_Driver/Src/stm32g4xx_hal_rcc_ex.c **** 
  69:Drivers/STM32G4xx_HAL_Driver/Src/stm32g4xx_hal_rcc_ex.c **** /** @defgroup RCCEx_Exported_Functions RCCEx Exported Functions
  70:Drivers/STM32G4xx_HAL_Driver/Src/stm32g4xx_hal_rcc_ex.c ****   * @{
  71:Drivers/STM32G4xx_HAL_Driver/Src/stm32g4xx_hal_rcc_ex.c ****   */
  72:Drivers/STM32G4xx_HAL_Driver/Src/stm32g4xx_hal_rcc_ex.c **** 
  73:Drivers/STM32G4xx_HAL_Driver/Src/stm32g4xx_hal_rcc_ex.c **** /** @defgroup RCCEx_Exported_Functions_Group1 Extended Peripheral Control functions
  74:Drivers/STM32G4xx_HAL_Driver/Src/stm32g4xx_hal_rcc_ex.c ****  *  @brief  Extended Peripheral Control functions
  75:Drivers/STM32G4xx_HAL_Driver/Src/stm32g4xx_hal_rcc_ex.c ****  *
  76:Drivers/STM32G4xx_HAL_Driver/Src/stm32g4xx_hal_rcc_ex.c **** @verbatim
  77:Drivers/STM32G4xx_HAL_Driver/Src/stm32g4xx_hal_rcc_ex.c ****  ===============================================================================
  78:Drivers/STM32G4xx_HAL_Driver/Src/stm32g4xx_hal_rcc_ex.c ****                 ##### Extended Peripheral Control functions  #####
  79:Drivers/STM32G4xx_HAL_Driver/Src/stm32g4xx_hal_rcc_ex.c ****  ===============================================================================
  80:Drivers/STM32G4xx_HAL_Driver/Src/stm32g4xx_hal_rcc_ex.c ****     [..]
  81:Drivers/STM32G4xx_HAL_Driver/Src/stm32g4xx_hal_rcc_ex.c ****     This subsection provides a set of functions allowing to control the RCC Clocks
  82:Drivers/STM32G4xx_HAL_Driver/Src/stm32g4xx_hal_rcc_ex.c ****     frequencies.
  83:Drivers/STM32G4xx_HAL_Driver/Src/stm32g4xx_hal_rcc_ex.c ****     [..]
  84:Drivers/STM32G4xx_HAL_Driver/Src/stm32g4xx_hal_rcc_ex.c ****     (@) Important note: Care must be taken when HAL_RCCEx_PeriphCLKConfig() is used to
  85:Drivers/STM32G4xx_HAL_Driver/Src/stm32g4xx_hal_rcc_ex.c ****         select the RTC clock source; in this case the Backup domain will be reset in
  86:Drivers/STM32G4xx_HAL_Driver/Src/stm32g4xx_hal_rcc_ex.c ****         order to modify the RTC Clock source, as consequence RTC registers (including
  87:Drivers/STM32G4xx_HAL_Driver/Src/stm32g4xx_hal_rcc_ex.c ****         the backup registers) are set to their reset values.
ARM GAS  C:\Users\AURORA~1\AppData\Local\Temp\cc3nfJXy.s 			page 3


  88:Drivers/STM32G4xx_HAL_Driver/Src/stm32g4xx_hal_rcc_ex.c **** 
  89:Drivers/STM32G4xx_HAL_Driver/Src/stm32g4xx_hal_rcc_ex.c **** @endverbatim
  90:Drivers/STM32G4xx_HAL_Driver/Src/stm32g4xx_hal_rcc_ex.c ****   * @{
  91:Drivers/STM32G4xx_HAL_Driver/Src/stm32g4xx_hal_rcc_ex.c ****   */
  92:Drivers/STM32G4xx_HAL_Driver/Src/stm32g4xx_hal_rcc_ex.c **** /**
  93:Drivers/STM32G4xx_HAL_Driver/Src/stm32g4xx_hal_rcc_ex.c ****   * @brief  Initialize the RCC extended peripherals clocks according to the specified
  94:Drivers/STM32G4xx_HAL_Driver/Src/stm32g4xx_hal_rcc_ex.c ****   *         parameters in the RCC_PeriphCLKInitTypeDef.
  95:Drivers/STM32G4xx_HAL_Driver/Src/stm32g4xx_hal_rcc_ex.c ****   * @param  PeriphClkInit  pointer to an RCC_PeriphCLKInitTypeDef structure that
  96:Drivers/STM32G4xx_HAL_Driver/Src/stm32g4xx_hal_rcc_ex.c ****   *         contains a field PeriphClockSelection which can be a combination of the following value
  97:Drivers/STM32G4xx_HAL_Driver/Src/stm32g4xx_hal_rcc_ex.c ****   *            @arg @ref RCC_PERIPHCLK_RTC  RTC peripheral clock
  98:Drivers/STM32G4xx_HAL_Driver/Src/stm32g4xx_hal_rcc_ex.c ****   *            @arg @ref RCC_PERIPHCLK_USART1  USART1 peripheral clock
  99:Drivers/STM32G4xx_HAL_Driver/Src/stm32g4xx_hal_rcc_ex.c ****   *            @arg @ref RCC_PERIPHCLK_USART2  USART2 peripheral clock
 100:Drivers/STM32G4xx_HAL_Driver/Src/stm32g4xx_hal_rcc_ex.c ****   *            @arg @ref RCC_PERIPHCLK_USART3  USART3 peripheral clock
 101:Drivers/STM32G4xx_HAL_Driver/Src/stm32g4xx_hal_rcc_ex.c ****   *            @arg @ref RCC_PERIPHCLK_UART4  UART4 peripheral clock (only for devices with UART4)
 102:Drivers/STM32G4xx_HAL_Driver/Src/stm32g4xx_hal_rcc_ex.c ****   *            @arg @ref RCC_PERIPHCLK_UART5  UART5 peripheral clock (only for devices with UART5)
 103:Drivers/STM32G4xx_HAL_Driver/Src/stm32g4xx_hal_rcc_ex.c ****   *            @arg @ref RCC_PERIPHCLK_LPUART1  LPUART1 peripheral clock
 104:Drivers/STM32G4xx_HAL_Driver/Src/stm32g4xx_hal_rcc_ex.c ****   *            @arg @ref RCC_PERIPHCLK_I2C1  I2C1 peripheral clock
 105:Drivers/STM32G4xx_HAL_Driver/Src/stm32g4xx_hal_rcc_ex.c ****   *            @arg @ref RCC_PERIPHCLK_I2C2  I2C2 peripheral clock
 106:Drivers/STM32G4xx_HAL_Driver/Src/stm32g4xx_hal_rcc_ex.c ****   *            @arg @ref RCC_PERIPHCLK_I2C3  I2C3 peripheral clock
 107:Drivers/STM32G4xx_HAL_Driver/Src/stm32g4xx_hal_rcc_ex.c ****   *            @arg @ref RCC_PERIPHCLK_I2C4  I2C4 peripheral clock (only for devices with I2C4)
 108:Drivers/STM32G4xx_HAL_Driver/Src/stm32g4xx_hal_rcc_ex.c ****   *            @arg @ref RCC_PERIPHCLK_LPTIM1  LPTIM1 peripheral clock
 109:Drivers/STM32G4xx_HAL_Driver/Src/stm32g4xx_hal_rcc_ex.c ****   *            @arg @ref RCC_PERIPHCLK_SAI1  SAI1 peripheral clock
 110:Drivers/STM32G4xx_HAL_Driver/Src/stm32g4xx_hal_rcc_ex.c ****   *            @arg @ref RCC_PERIPHCLK_I2S  I2S peripheral clock
 111:Drivers/STM32G4xx_HAL_Driver/Src/stm32g4xx_hal_rcc_ex.c ****   *            @arg @ref RCC_PERIPHCLK_FDCAN  FDCAN peripheral clock (only for devices with FDCAN)
 112:Drivers/STM32G4xx_HAL_Driver/Src/stm32g4xx_hal_rcc_ex.c ****   *            @arg @ref RCC_PERIPHCLK_RNG  RNG peripheral clock
 113:Drivers/STM32G4xx_HAL_Driver/Src/stm32g4xx_hal_rcc_ex.c ****   *            @arg @ref RCC_PERIPHCLK_USB  USB peripheral clock (only for devices with USB)
 114:Drivers/STM32G4xx_HAL_Driver/Src/stm32g4xx_hal_rcc_ex.c ****   *            @arg @ref RCC_PERIPHCLK_ADC12  ADC1 and ADC2 peripheral clock
 115:Drivers/STM32G4xx_HAL_Driver/Src/stm32g4xx_hal_rcc_ex.c ****   *            @arg @ref RCC_PERIPHCLK_ADC345  ADC3, ADC4 and ADC5 peripheral clock (only for devic
 116:Drivers/STM32G4xx_HAL_Driver/Src/stm32g4xx_hal_rcc_ex.c ****   *            @arg @ref RCC_PERIPHCLK_QSPI  QuadSPI peripheral clock (only for devices with QuadSP
 117:Drivers/STM32G4xx_HAL_Driver/Src/stm32g4xx_hal_rcc_ex.c ****   *
 118:Drivers/STM32G4xx_HAL_Driver/Src/stm32g4xx_hal_rcc_ex.c ****   * @note   Care must be taken when HAL_RCCEx_PeriphCLKConfig() is used to select
 119:Drivers/STM32G4xx_HAL_Driver/Src/stm32g4xx_hal_rcc_ex.c ****   *         the RTC clock source: in this case the access to Backup domain is enabled.
 120:Drivers/STM32G4xx_HAL_Driver/Src/stm32g4xx_hal_rcc_ex.c ****   *
 121:Drivers/STM32G4xx_HAL_Driver/Src/stm32g4xx_hal_rcc_ex.c ****   * @retval HAL status
 122:Drivers/STM32G4xx_HAL_Driver/Src/stm32g4xx_hal_rcc_ex.c ****   */
 123:Drivers/STM32G4xx_HAL_Driver/Src/stm32g4xx_hal_rcc_ex.c **** HAL_StatusTypeDef HAL_RCCEx_PeriphCLKConfig(RCC_PeriphCLKInitTypeDef  *PeriphClkInit)
 124:Drivers/STM32G4xx_HAL_Driver/Src/stm32g4xx_hal_rcc_ex.c **** {
  29              		.loc 1 124 1
  30              		.cfi_startproc
  31              		@ args = 0, pretend = 0, frame = 24
  32              		@ frame_needed = 1, uses_anonymous_args = 0
  33 0000 80B5     		push	{r7, lr}
  34              	.LCFI0:
  35              		.cfi_def_cfa_offset 8
  36              		.cfi_offset 7, -8
  37              		.cfi_offset 14, -4
  38 0002 86B0     		sub	sp, sp, #24
  39              	.LCFI1:
  40              		.cfi_def_cfa_offset 32
  41 0004 00AF     		add	r7, sp, #0
  42              	.LCFI2:
  43              		.cfi_def_cfa_register 7
  44 0006 7860     		str	r0, [r7, #4]
 125:Drivers/STM32G4xx_HAL_Driver/Src/stm32g4xx_hal_rcc_ex.c ****   uint32_t tmpregister;
 126:Drivers/STM32G4xx_HAL_Driver/Src/stm32g4xx_hal_rcc_ex.c ****   uint32_t tickstart;
 127:Drivers/STM32G4xx_HAL_Driver/Src/stm32g4xx_hal_rcc_ex.c ****   HAL_StatusTypeDef ret = HAL_OK;      /* Intermediate status */
  45              		.loc 1 127 21
ARM GAS  C:\Users\AURORA~1\AppData\Local\Temp\cc3nfJXy.s 			page 4


  46 0008 0023     		movs	r3, #0
  47 000a FB74     		strb	r3, [r7, #19]
 128:Drivers/STM32G4xx_HAL_Driver/Src/stm32g4xx_hal_rcc_ex.c ****   HAL_StatusTypeDef status = HAL_OK;   /* Final status */
  48              		.loc 1 128 21
  49 000c 0023     		movs	r3, #0
  50 000e BB74     		strb	r3, [r7, #18]
 129:Drivers/STM32G4xx_HAL_Driver/Src/stm32g4xx_hal_rcc_ex.c **** 
 130:Drivers/STM32G4xx_HAL_Driver/Src/stm32g4xx_hal_rcc_ex.c ****   /* Check the parameters */
 131:Drivers/STM32G4xx_HAL_Driver/Src/stm32g4xx_hal_rcc_ex.c ****   assert_param(IS_RCC_PERIPHCLOCK(PeriphClkInit->PeriphClockSelection));
 132:Drivers/STM32G4xx_HAL_Driver/Src/stm32g4xx_hal_rcc_ex.c **** 
 133:Drivers/STM32G4xx_HAL_Driver/Src/stm32g4xx_hal_rcc_ex.c ****   /*-------------------------- RTC clock source configuration ----------------------*/
 134:Drivers/STM32G4xx_HAL_Driver/Src/stm32g4xx_hal_rcc_ex.c ****   if((PeriphClkInit->PeriphClockSelection & RCC_PERIPHCLK_RTC) == RCC_PERIPHCLK_RTC)
  51              		.loc 1 134 20
  52 0010 7B68     		ldr	r3, [r7, #4]
  53 0012 1B68     		ldr	r3, [r3]
  54              		.loc 1 134 43
  55 0014 03F40023 		and	r3, r3, #524288
  56              		.loc 1 134 5
  57 0018 002B     		cmp	r3, #0
  58 001a 00F09880 		beq	.L2
  59              	.LBB2:
 135:Drivers/STM32G4xx_HAL_Driver/Src/stm32g4xx_hal_rcc_ex.c ****   {
 136:Drivers/STM32G4xx_HAL_Driver/Src/stm32g4xx_hal_rcc_ex.c ****     FlagStatus       pwrclkchanged = RESET;
  60              		.loc 1 136 22
  61 001e 0023     		movs	r3, #0
  62 0020 7B74     		strb	r3, [r7, #17]
 137:Drivers/STM32G4xx_HAL_Driver/Src/stm32g4xx_hal_rcc_ex.c ****     
 138:Drivers/STM32G4xx_HAL_Driver/Src/stm32g4xx_hal_rcc_ex.c ****     /* Check for RTC Parameters used to output RTCCLK */
 139:Drivers/STM32G4xx_HAL_Driver/Src/stm32g4xx_hal_rcc_ex.c ****     assert_param(IS_RCC_RTCCLKSOURCE(PeriphClkInit->RTCClockSelection));
 140:Drivers/STM32G4xx_HAL_Driver/Src/stm32g4xx_hal_rcc_ex.c **** 
 141:Drivers/STM32G4xx_HAL_Driver/Src/stm32g4xx_hal_rcc_ex.c ****     /* Enable Power Clock */
 142:Drivers/STM32G4xx_HAL_Driver/Src/stm32g4xx_hal_rcc_ex.c ****     if(__HAL_RCC_PWR_IS_CLK_DISABLED())
  63              		.loc 1 142 8
  64 0022 434B     		ldr	r3, .L34
  65 0024 9B6D     		ldr	r3, [r3, #88]
  66 0026 03F08053 		and	r3, r3, #268435456
  67              		.loc 1 142 7
  68 002a 002B     		cmp	r3, #0
  69 002c 0DD1     		bne	.L3
  70              	.LBB3:
 143:Drivers/STM32G4xx_HAL_Driver/Src/stm32g4xx_hal_rcc_ex.c ****     {
 144:Drivers/STM32G4xx_HAL_Driver/Src/stm32g4xx_hal_rcc_ex.c ****       __HAL_RCC_PWR_CLK_ENABLE();
  71              		.loc 1 144 7
  72 002e 404B     		ldr	r3, .L34
  73 0030 9B6D     		ldr	r3, [r3, #88]
  74 0032 3F4A     		ldr	r2, .L34
  75 0034 43F08053 		orr	r3, r3, #268435456
  76 0038 9365     		str	r3, [r2, #88]
  77 003a 3D4B     		ldr	r3, .L34
  78 003c 9B6D     		ldr	r3, [r3, #88]
  79 003e 03F08053 		and	r3, r3, #268435456
  80 0042 BB60     		str	r3, [r7, #8]
  81 0044 BB68     		ldr	r3, [r7, #8]
  82              	.LBE3:
 145:Drivers/STM32G4xx_HAL_Driver/Src/stm32g4xx_hal_rcc_ex.c ****       pwrclkchanged = SET;
  83              		.loc 1 145 21
  84 0046 0123     		movs	r3, #1
ARM GAS  C:\Users\AURORA~1\AppData\Local\Temp\cc3nfJXy.s 			page 5


  85 0048 7B74     		strb	r3, [r7, #17]
  86              	.L3:
 146:Drivers/STM32G4xx_HAL_Driver/Src/stm32g4xx_hal_rcc_ex.c ****     }
 147:Drivers/STM32G4xx_HAL_Driver/Src/stm32g4xx_hal_rcc_ex.c ****       
 148:Drivers/STM32G4xx_HAL_Driver/Src/stm32g4xx_hal_rcc_ex.c ****     /* Enable write access to Backup domain */
 149:Drivers/STM32G4xx_HAL_Driver/Src/stm32g4xx_hal_rcc_ex.c ****     SET_BIT(PWR->CR1, PWR_CR1_DBP);
  87              		.loc 1 149 5
  88 004a 3A4B     		ldr	r3, .L34+4
  89 004c 1B68     		ldr	r3, [r3]
  90 004e 394A     		ldr	r2, .L34+4
  91 0050 43F48073 		orr	r3, r3, #256
  92 0054 1360     		str	r3, [r2]
 150:Drivers/STM32G4xx_HAL_Driver/Src/stm32g4xx_hal_rcc_ex.c **** 
 151:Drivers/STM32G4xx_HAL_Driver/Src/stm32g4xx_hal_rcc_ex.c ****     /* Wait for Backup domain Write protection disable */
 152:Drivers/STM32G4xx_HAL_Driver/Src/stm32g4xx_hal_rcc_ex.c ****     tickstart = HAL_GetTick();
  93              		.loc 1 152 17
  94 0056 FFF7FEFF 		bl	HAL_GetTick
  95 005a F860     		str	r0, [r7, #12]
 153:Drivers/STM32G4xx_HAL_Driver/Src/stm32g4xx_hal_rcc_ex.c **** 
 154:Drivers/STM32G4xx_HAL_Driver/Src/stm32g4xx_hal_rcc_ex.c ****     while((PWR->CR1 & PWR_CR1_DBP) == 0U)
  96              		.loc 1 154 10
  97 005c 09E0     		b	.L4
  98              	.L6:
 155:Drivers/STM32G4xx_HAL_Driver/Src/stm32g4xx_hal_rcc_ex.c ****     {
 156:Drivers/STM32G4xx_HAL_Driver/Src/stm32g4xx_hal_rcc_ex.c ****       if((HAL_GetTick() - tickstart) > RCC_DBP_TIMEOUT_VALUE)
  99              		.loc 1 156 11
 100 005e FFF7FEFF 		bl	HAL_GetTick
 101 0062 0246     		mov	r2, r0
 102              		.loc 1 156 25 discriminator 1
 103 0064 FB68     		ldr	r3, [r7, #12]
 104 0066 D31A     		subs	r3, r2, r3
 105              		.loc 1 156 9 discriminator 1
 106 0068 022B     		cmp	r3, #2
 107 006a 02D9     		bls	.L4
 157:Drivers/STM32G4xx_HAL_Driver/Src/stm32g4xx_hal_rcc_ex.c ****       {
 158:Drivers/STM32G4xx_HAL_Driver/Src/stm32g4xx_hal_rcc_ex.c ****         ret = HAL_TIMEOUT;
 108              		.loc 1 158 13
 109 006c 0323     		movs	r3, #3
 110 006e FB74     		strb	r3, [r7, #19]
 159:Drivers/STM32G4xx_HAL_Driver/Src/stm32g4xx_hal_rcc_ex.c ****         break;
 111              		.loc 1 159 9
 112 0070 05E0     		b	.L5
 113              	.L4:
 154:Drivers/STM32G4xx_HAL_Driver/Src/stm32g4xx_hal_rcc_ex.c ****     {
 114              		.loc 1 154 15
 115 0072 304B     		ldr	r3, .L34+4
 116 0074 1B68     		ldr	r3, [r3]
 154:Drivers/STM32G4xx_HAL_Driver/Src/stm32g4xx_hal_rcc_ex.c ****     {
 117              		.loc 1 154 21
 118 0076 03F48073 		and	r3, r3, #256
 154:Drivers/STM32G4xx_HAL_Driver/Src/stm32g4xx_hal_rcc_ex.c ****     {
 119              		.loc 1 154 36
 120 007a 002B     		cmp	r3, #0
 121 007c EFD0     		beq	.L6
 122              	.L5:
 160:Drivers/STM32G4xx_HAL_Driver/Src/stm32g4xx_hal_rcc_ex.c ****       }
 161:Drivers/STM32G4xx_HAL_Driver/Src/stm32g4xx_hal_rcc_ex.c ****     }
ARM GAS  C:\Users\AURORA~1\AppData\Local\Temp\cc3nfJXy.s 			page 6


 162:Drivers/STM32G4xx_HAL_Driver/Src/stm32g4xx_hal_rcc_ex.c **** 
 163:Drivers/STM32G4xx_HAL_Driver/Src/stm32g4xx_hal_rcc_ex.c ****     if(ret == HAL_OK)
 123              		.loc 1 163 7
 124 007e FB7C     		ldrb	r3, [r7, #19]	@ zero_extendqisi2
 125 0080 002B     		cmp	r3, #0
 126 0082 59D1     		bne	.L7
 164:Drivers/STM32G4xx_HAL_Driver/Src/stm32g4xx_hal_rcc_ex.c ****     { 
 165:Drivers/STM32G4xx_HAL_Driver/Src/stm32g4xx_hal_rcc_ex.c ****       /* Reset the Backup domain only if the RTC Clock source selection is modified from default */
 166:Drivers/STM32G4xx_HAL_Driver/Src/stm32g4xx_hal_rcc_ex.c ****       tmpregister = READ_BIT(RCC->BDCR, RCC_BDCR_RTCSEL);
 127              		.loc 1 166 21
 128 0084 2A4B     		ldr	r3, .L34
 129 0086 D3F89030 		ldr	r3, [r3, #144]
 130              		.loc 1 166 19
 131 008a 03F44073 		and	r3, r3, #768
 132 008e 7B61     		str	r3, [r7, #20]
 167:Drivers/STM32G4xx_HAL_Driver/Src/stm32g4xx_hal_rcc_ex.c ****       
 168:Drivers/STM32G4xx_HAL_Driver/Src/stm32g4xx_hal_rcc_ex.c ****       if((tmpregister != RCC_RTCCLKSOURCE_NONE) && (tmpregister != PeriphClkInit->RTCClockSelection
 133              		.loc 1 168 9
 134 0090 7B69     		ldr	r3, [r7, #20]
 135 0092 002B     		cmp	r3, #0
 136 0094 1ED0     		beq	.L8
 137              		.loc 1 168 81 discriminator 1
 138 0096 7B68     		ldr	r3, [r7, #4]
 139 0098 1B6D     		ldr	r3, [r3, #80]
 140              		.loc 1 168 49 discriminator 1
 141 009a 7A69     		ldr	r2, [r7, #20]
 142 009c 9A42     		cmp	r2, r3
 143 009e 19D0     		beq	.L8
 169:Drivers/STM32G4xx_HAL_Driver/Src/stm32g4xx_hal_rcc_ex.c ****       {
 170:Drivers/STM32G4xx_HAL_Driver/Src/stm32g4xx_hal_rcc_ex.c ****         /* Store the content of BDCR register before the reset of Backup Domain */
 171:Drivers/STM32G4xx_HAL_Driver/Src/stm32g4xx_hal_rcc_ex.c ****         tmpregister = READ_BIT(RCC->BDCR, ~(RCC_BDCR_RTCSEL));
 144              		.loc 1 171 23
 145 00a0 234B     		ldr	r3, .L34
 146 00a2 D3F89030 		ldr	r3, [r3, #144]
 147              		.loc 1 171 21
 148 00a6 23F44073 		bic	r3, r3, #768
 149 00aa 7B61     		str	r3, [r7, #20]
 172:Drivers/STM32G4xx_HAL_Driver/Src/stm32g4xx_hal_rcc_ex.c ****         /* RTC Clock selection can be changed only if the Backup Domain is reset */
 173:Drivers/STM32G4xx_HAL_Driver/Src/stm32g4xx_hal_rcc_ex.c ****         __HAL_RCC_BACKUPRESET_FORCE();
 150              		.loc 1 173 9
 151 00ac 204B     		ldr	r3, .L34
 152 00ae D3F89030 		ldr	r3, [r3, #144]
 153 00b2 1F4A     		ldr	r2, .L34
 154 00b4 43F48033 		orr	r3, r3, #65536
 155 00b8 C2F89030 		str	r3, [r2, #144]
 174:Drivers/STM32G4xx_HAL_Driver/Src/stm32g4xx_hal_rcc_ex.c ****         __HAL_RCC_BACKUPRESET_RELEASE();
 156              		.loc 1 174 9
 157 00bc 1C4B     		ldr	r3, .L34
 158 00be D3F89030 		ldr	r3, [r3, #144]
 159 00c2 1B4A     		ldr	r2, .L34
 160 00c4 23F48033 		bic	r3, r3, #65536
 161 00c8 C2F89030 		str	r3, [r2, #144]
 175:Drivers/STM32G4xx_HAL_Driver/Src/stm32g4xx_hal_rcc_ex.c ****         /* Restore the Content of BDCR register */
 176:Drivers/STM32G4xx_HAL_Driver/Src/stm32g4xx_hal_rcc_ex.c ****         RCC->BDCR = tmpregister;
 162              		.loc 1 176 12
 163 00cc 184A     		ldr	r2, .L34
 164              		.loc 1 176 19
ARM GAS  C:\Users\AURORA~1\AppData\Local\Temp\cc3nfJXy.s 			page 7


 165 00ce 7B69     		ldr	r3, [r7, #20]
 166 00d0 C2F89030 		str	r3, [r2, #144]
 167              	.L8:
 177:Drivers/STM32G4xx_HAL_Driver/Src/stm32g4xx_hal_rcc_ex.c ****       }
 178:Drivers/STM32G4xx_HAL_Driver/Src/stm32g4xx_hal_rcc_ex.c **** 
 179:Drivers/STM32G4xx_HAL_Driver/Src/stm32g4xx_hal_rcc_ex.c ****       /* Wait for LSE reactivation if LSE was enable prior to Backup Domain reset */
 180:Drivers/STM32G4xx_HAL_Driver/Src/stm32g4xx_hal_rcc_ex.c ****       if (HAL_IS_BIT_SET(tmpregister, RCC_BDCR_LSEON))
 168              		.loc 1 180 11
 169 00d4 7B69     		ldr	r3, [r7, #20]
 170 00d6 03F00103 		and	r3, r3, #1
 171              		.loc 1 180 10
 172 00da 002B     		cmp	r3, #0
 173 00dc 16D0     		beq	.L9
 181:Drivers/STM32G4xx_HAL_Driver/Src/stm32g4xx_hal_rcc_ex.c ****       {
 182:Drivers/STM32G4xx_HAL_Driver/Src/stm32g4xx_hal_rcc_ex.c ****         /* Get Start Tick*/
 183:Drivers/STM32G4xx_HAL_Driver/Src/stm32g4xx_hal_rcc_ex.c ****         tickstart = HAL_GetTick();
 174              		.loc 1 183 21
 175 00de FFF7FEFF 		bl	HAL_GetTick
 176 00e2 F860     		str	r0, [r7, #12]
 184:Drivers/STM32G4xx_HAL_Driver/Src/stm32g4xx_hal_rcc_ex.c **** 
 185:Drivers/STM32G4xx_HAL_Driver/Src/stm32g4xx_hal_rcc_ex.c ****         /* Wait till LSE is ready */
 186:Drivers/STM32G4xx_HAL_Driver/Src/stm32g4xx_hal_rcc_ex.c ****         while(READ_BIT(RCC->BDCR, RCC_BDCR_LSERDY) == 0U)
 177              		.loc 1 186 14
 178 00e4 0BE0     		b	.L10
 179              	.L11:
 187:Drivers/STM32G4xx_HAL_Driver/Src/stm32g4xx_hal_rcc_ex.c ****         {
 188:Drivers/STM32G4xx_HAL_Driver/Src/stm32g4xx_hal_rcc_ex.c ****           if((HAL_GetTick() - tickstart) > RCC_LSE_TIMEOUT_VALUE)
 180              		.loc 1 188 15
 181 00e6 FFF7FEFF 		bl	HAL_GetTick
 182 00ea 0246     		mov	r2, r0
 183              		.loc 1 188 29 discriminator 1
 184 00ec FB68     		ldr	r3, [r7, #12]
 185 00ee D31A     		subs	r3, r2, r3
 186              		.loc 1 188 13 discriminator 1
 187 00f0 41F28832 		movw	r2, #5000
 188 00f4 9342     		cmp	r3, r2
 189 00f6 02D9     		bls	.L10
 189:Drivers/STM32G4xx_HAL_Driver/Src/stm32g4xx_hal_rcc_ex.c ****           {
 190:Drivers/STM32G4xx_HAL_Driver/Src/stm32g4xx_hal_rcc_ex.c ****             ret = HAL_TIMEOUT;
 190              		.loc 1 190 17
 191 00f8 0323     		movs	r3, #3
 192 00fa FB74     		strb	r3, [r7, #19]
 191:Drivers/STM32G4xx_HAL_Driver/Src/stm32g4xx_hal_rcc_ex.c ****             break;
 193              		.loc 1 191 13
 194 00fc 06E0     		b	.L9
 195              	.L10:
 186:Drivers/STM32G4xx_HAL_Driver/Src/stm32g4xx_hal_rcc_ex.c ****         {
 196              		.loc 1 186 15
 197 00fe 0C4B     		ldr	r3, .L34
 198 0100 D3F89030 		ldr	r3, [r3, #144]
 199 0104 03F00203 		and	r3, r3, #2
 186:Drivers/STM32G4xx_HAL_Driver/Src/stm32g4xx_hal_rcc_ex.c ****         {
 200              		.loc 1 186 52
 201 0108 002B     		cmp	r3, #0
 202 010a ECD0     		beq	.L11
 203              	.L9:
 192:Drivers/STM32G4xx_HAL_Driver/Src/stm32g4xx_hal_rcc_ex.c ****           }
ARM GAS  C:\Users\AURORA~1\AppData\Local\Temp\cc3nfJXy.s 			page 8


 193:Drivers/STM32G4xx_HAL_Driver/Src/stm32g4xx_hal_rcc_ex.c ****         }
 194:Drivers/STM32G4xx_HAL_Driver/Src/stm32g4xx_hal_rcc_ex.c ****       }
 195:Drivers/STM32G4xx_HAL_Driver/Src/stm32g4xx_hal_rcc_ex.c ****       
 196:Drivers/STM32G4xx_HAL_Driver/Src/stm32g4xx_hal_rcc_ex.c ****       if(ret == HAL_OK)
 204              		.loc 1 196 9
 205 010c FB7C     		ldrb	r3, [r7, #19]	@ zero_extendqisi2
 206 010e 002B     		cmp	r3, #0
 207 0110 0BD1     		bne	.L12
 197:Drivers/STM32G4xx_HAL_Driver/Src/stm32g4xx_hal_rcc_ex.c ****       {
 198:Drivers/STM32G4xx_HAL_Driver/Src/stm32g4xx_hal_rcc_ex.c ****         /* Apply new RTC clock source selection */
 199:Drivers/STM32G4xx_HAL_Driver/Src/stm32g4xx_hal_rcc_ex.c ****         __HAL_RCC_RTC_CONFIG(PeriphClkInit->RTCClockSelection);
 208              		.loc 1 199 9
 209 0112 074B     		ldr	r3, .L34
 210 0114 D3F89030 		ldr	r3, [r3, #144]
 211 0118 23F44072 		bic	r2, r3, #768
 212 011c 7B68     		ldr	r3, [r7, #4]
 213 011e 1B6D     		ldr	r3, [r3, #80]
 214 0120 0349     		ldr	r1, .L34
 215 0122 1343     		orrs	r3, r3, r2
 216 0124 C1F89030 		str	r3, [r1, #144]
 217 0128 08E0     		b	.L13
 218              	.L12:
 200:Drivers/STM32G4xx_HAL_Driver/Src/stm32g4xx_hal_rcc_ex.c ****       }
 201:Drivers/STM32G4xx_HAL_Driver/Src/stm32g4xx_hal_rcc_ex.c ****       else
 202:Drivers/STM32G4xx_HAL_Driver/Src/stm32g4xx_hal_rcc_ex.c ****       {
 203:Drivers/STM32G4xx_HAL_Driver/Src/stm32g4xx_hal_rcc_ex.c ****         /* set overall return value */
 204:Drivers/STM32G4xx_HAL_Driver/Src/stm32g4xx_hal_rcc_ex.c ****         status = ret;
 219              		.loc 1 204 16
 220 012a FB7C     		ldrb	r3, [r7, #19]
 221 012c BB74     		strb	r3, [r7, #18]
 222 012e 05E0     		b	.L13
 223              	.L35:
 224              		.align	2
 225              	.L34:
 226 0130 00100240 		.word	1073876992
 227 0134 00700040 		.word	1073770496
 228              	.L7:
 205:Drivers/STM32G4xx_HAL_Driver/Src/stm32g4xx_hal_rcc_ex.c ****       }
 206:Drivers/STM32G4xx_HAL_Driver/Src/stm32g4xx_hal_rcc_ex.c ****     }
 207:Drivers/STM32G4xx_HAL_Driver/Src/stm32g4xx_hal_rcc_ex.c ****     else
 208:Drivers/STM32G4xx_HAL_Driver/Src/stm32g4xx_hal_rcc_ex.c ****     {
 209:Drivers/STM32G4xx_HAL_Driver/Src/stm32g4xx_hal_rcc_ex.c ****       /* set overall return value */
 210:Drivers/STM32G4xx_HAL_Driver/Src/stm32g4xx_hal_rcc_ex.c ****       status = ret;
 229              		.loc 1 210 14
 230 0138 FB7C     		ldrb	r3, [r7, #19]
 231 013a BB74     		strb	r3, [r7, #18]
 232              	.L13:
 211:Drivers/STM32G4xx_HAL_Driver/Src/stm32g4xx_hal_rcc_ex.c ****     }
 212:Drivers/STM32G4xx_HAL_Driver/Src/stm32g4xx_hal_rcc_ex.c **** 
 213:Drivers/STM32G4xx_HAL_Driver/Src/stm32g4xx_hal_rcc_ex.c ****     /* Restore clock configuration if changed */
 214:Drivers/STM32G4xx_HAL_Driver/Src/stm32g4xx_hal_rcc_ex.c ****     if(pwrclkchanged == SET)
 233              		.loc 1 214 7
 234 013c 7B7C     		ldrb	r3, [r7, #17]	@ zero_extendqisi2
 235 013e 012B     		cmp	r3, #1
 236 0140 05D1     		bne	.L2
 215:Drivers/STM32G4xx_HAL_Driver/Src/stm32g4xx_hal_rcc_ex.c ****     {
 216:Drivers/STM32G4xx_HAL_Driver/Src/stm32g4xx_hal_rcc_ex.c ****       __HAL_RCC_PWR_CLK_DISABLE();
ARM GAS  C:\Users\AURORA~1\AppData\Local\Temp\cc3nfJXy.s 			page 9


 237              		.loc 1 216 7
 238 0142 A74B     		ldr	r3, .L36
 239 0144 9B6D     		ldr	r3, [r3, #88]
 240 0146 A64A     		ldr	r2, .L36
 241 0148 23F08053 		bic	r3, r3, #268435456
 242 014c 9365     		str	r3, [r2, #88]
 243              	.L2:
 244              	.LBE2:
 217:Drivers/STM32G4xx_HAL_Driver/Src/stm32g4xx_hal_rcc_ex.c ****     }
 218:Drivers/STM32G4xx_HAL_Driver/Src/stm32g4xx_hal_rcc_ex.c ****   }
 219:Drivers/STM32G4xx_HAL_Driver/Src/stm32g4xx_hal_rcc_ex.c **** 
 220:Drivers/STM32G4xx_HAL_Driver/Src/stm32g4xx_hal_rcc_ex.c ****   /*-------------------------- USART1 clock source configuration -------------------*/
 221:Drivers/STM32G4xx_HAL_Driver/Src/stm32g4xx_hal_rcc_ex.c ****   if(((PeriphClkInit->PeriphClockSelection) & RCC_PERIPHCLK_USART1) == RCC_PERIPHCLK_USART1)
 245              		.loc 1 221 21
 246 014e 7B68     		ldr	r3, [r7, #4]
 247 0150 1B68     		ldr	r3, [r3]
 248              		.loc 1 221 45
 249 0152 03F00103 		and	r3, r3, #1
 250              		.loc 1 221 5
 251 0156 002B     		cmp	r3, #0
 252 0158 0AD0     		beq	.L14
 222:Drivers/STM32G4xx_HAL_Driver/Src/stm32g4xx_hal_rcc_ex.c ****   {
 223:Drivers/STM32G4xx_HAL_Driver/Src/stm32g4xx_hal_rcc_ex.c ****     /* Check the parameters */
 224:Drivers/STM32G4xx_HAL_Driver/Src/stm32g4xx_hal_rcc_ex.c ****     assert_param(IS_RCC_USART1CLKSOURCE(PeriphClkInit->Usart1ClockSelection));
 225:Drivers/STM32G4xx_HAL_Driver/Src/stm32g4xx_hal_rcc_ex.c **** 
 226:Drivers/STM32G4xx_HAL_Driver/Src/stm32g4xx_hal_rcc_ex.c ****     /* Configure the USART1 clock source */
 227:Drivers/STM32G4xx_HAL_Driver/Src/stm32g4xx_hal_rcc_ex.c ****     __HAL_RCC_USART1_CONFIG(PeriphClkInit->Usart1ClockSelection);
 253              		.loc 1 227 5
 254 015a A14B     		ldr	r3, .L36
 255 015c D3F88830 		ldr	r3, [r3, #136]
 256 0160 23F00302 		bic	r2, r3, #3
 257 0164 7B68     		ldr	r3, [r7, #4]
 258 0166 5B68     		ldr	r3, [r3, #4]
 259 0168 9D49     		ldr	r1, .L36
 260 016a 1343     		orrs	r3, r3, r2
 261 016c C1F88830 		str	r3, [r1, #136]
 262              	.L14:
 228:Drivers/STM32G4xx_HAL_Driver/Src/stm32g4xx_hal_rcc_ex.c ****   }
 229:Drivers/STM32G4xx_HAL_Driver/Src/stm32g4xx_hal_rcc_ex.c **** 
 230:Drivers/STM32G4xx_HAL_Driver/Src/stm32g4xx_hal_rcc_ex.c ****   /*-------------------------- USART2 clock source configuration -------------------*/
 231:Drivers/STM32G4xx_HAL_Driver/Src/stm32g4xx_hal_rcc_ex.c ****   if(((PeriphClkInit->PeriphClockSelection) & RCC_PERIPHCLK_USART2) == RCC_PERIPHCLK_USART2)
 263              		.loc 1 231 21
 264 0170 7B68     		ldr	r3, [r7, #4]
 265 0172 1B68     		ldr	r3, [r3]
 266              		.loc 1 231 45
 267 0174 03F00203 		and	r3, r3, #2
 268              		.loc 1 231 5
 269 0178 002B     		cmp	r3, #0
 270 017a 0AD0     		beq	.L15
 232:Drivers/STM32G4xx_HAL_Driver/Src/stm32g4xx_hal_rcc_ex.c ****   {
 233:Drivers/STM32G4xx_HAL_Driver/Src/stm32g4xx_hal_rcc_ex.c ****     /* Check the parameters */
 234:Drivers/STM32G4xx_HAL_Driver/Src/stm32g4xx_hal_rcc_ex.c ****     assert_param(IS_RCC_USART2CLKSOURCE(PeriphClkInit->Usart2ClockSelection));
 235:Drivers/STM32G4xx_HAL_Driver/Src/stm32g4xx_hal_rcc_ex.c **** 
 236:Drivers/STM32G4xx_HAL_Driver/Src/stm32g4xx_hal_rcc_ex.c ****     /* Configure the USART2 clock source */
 237:Drivers/STM32G4xx_HAL_Driver/Src/stm32g4xx_hal_rcc_ex.c ****     __HAL_RCC_USART2_CONFIG(PeriphClkInit->Usart2ClockSelection);
 271              		.loc 1 237 5
 272 017c 984B     		ldr	r3, .L36
ARM GAS  C:\Users\AURORA~1\AppData\Local\Temp\cc3nfJXy.s 			page 10


 273 017e D3F88830 		ldr	r3, [r3, #136]
 274 0182 23F00C02 		bic	r2, r3, #12
 275 0186 7B68     		ldr	r3, [r7, #4]
 276 0188 9B68     		ldr	r3, [r3, #8]
 277 018a 9549     		ldr	r1, .L36
 278 018c 1343     		orrs	r3, r3, r2
 279 018e C1F88830 		str	r3, [r1, #136]
 280              	.L15:
 238:Drivers/STM32G4xx_HAL_Driver/Src/stm32g4xx_hal_rcc_ex.c ****   }
 239:Drivers/STM32G4xx_HAL_Driver/Src/stm32g4xx_hal_rcc_ex.c **** 
 240:Drivers/STM32G4xx_HAL_Driver/Src/stm32g4xx_hal_rcc_ex.c ****   /*-------------------------- USART3 clock source configuration -------------------*/
 241:Drivers/STM32G4xx_HAL_Driver/Src/stm32g4xx_hal_rcc_ex.c ****   if(((PeriphClkInit->PeriphClockSelection) & RCC_PERIPHCLK_USART3) == RCC_PERIPHCLK_USART3)
 281              		.loc 1 241 21
 282 0192 7B68     		ldr	r3, [r7, #4]
 283 0194 1B68     		ldr	r3, [r3]
 284              		.loc 1 241 45
 285 0196 03F00403 		and	r3, r3, #4
 286              		.loc 1 241 5
 287 019a 002B     		cmp	r3, #0
 288 019c 0AD0     		beq	.L16
 242:Drivers/STM32G4xx_HAL_Driver/Src/stm32g4xx_hal_rcc_ex.c ****   {
 243:Drivers/STM32G4xx_HAL_Driver/Src/stm32g4xx_hal_rcc_ex.c ****     /* Check the parameters */
 244:Drivers/STM32G4xx_HAL_Driver/Src/stm32g4xx_hal_rcc_ex.c ****     assert_param(IS_RCC_USART3CLKSOURCE(PeriphClkInit->Usart3ClockSelection));
 245:Drivers/STM32G4xx_HAL_Driver/Src/stm32g4xx_hal_rcc_ex.c **** 
 246:Drivers/STM32G4xx_HAL_Driver/Src/stm32g4xx_hal_rcc_ex.c ****     /* Configure the USART3 clock source */
 247:Drivers/STM32G4xx_HAL_Driver/Src/stm32g4xx_hal_rcc_ex.c ****     __HAL_RCC_USART3_CONFIG(PeriphClkInit->Usart3ClockSelection);
 289              		.loc 1 247 5
 290 019e 904B     		ldr	r3, .L36
 291 01a0 D3F88830 		ldr	r3, [r3, #136]
 292 01a4 23F03002 		bic	r2, r3, #48
 293 01a8 7B68     		ldr	r3, [r7, #4]
 294 01aa DB68     		ldr	r3, [r3, #12]
 295 01ac 8C49     		ldr	r1, .L36
 296 01ae 1343     		orrs	r3, r3, r2
 297 01b0 C1F88830 		str	r3, [r1, #136]
 298              	.L16:
 248:Drivers/STM32G4xx_HAL_Driver/Src/stm32g4xx_hal_rcc_ex.c ****   }
 249:Drivers/STM32G4xx_HAL_Driver/Src/stm32g4xx_hal_rcc_ex.c **** 
 250:Drivers/STM32G4xx_HAL_Driver/Src/stm32g4xx_hal_rcc_ex.c **** #if defined(UART4)
 251:Drivers/STM32G4xx_HAL_Driver/Src/stm32g4xx_hal_rcc_ex.c ****   /*-------------------------- UART4 clock source configuration --------------------*/
 252:Drivers/STM32G4xx_HAL_Driver/Src/stm32g4xx_hal_rcc_ex.c ****   if(((PeriphClkInit->PeriphClockSelection) & RCC_PERIPHCLK_UART4) == RCC_PERIPHCLK_UART4)
 299              		.loc 1 252 21
 300 01b4 7B68     		ldr	r3, [r7, #4]
 301 01b6 1B68     		ldr	r3, [r3]
 302              		.loc 1 252 45
 303 01b8 03F00803 		and	r3, r3, #8
 304              		.loc 1 252 5
 305 01bc 002B     		cmp	r3, #0
 306 01be 0AD0     		beq	.L17
 253:Drivers/STM32G4xx_HAL_Driver/Src/stm32g4xx_hal_rcc_ex.c ****   {
 254:Drivers/STM32G4xx_HAL_Driver/Src/stm32g4xx_hal_rcc_ex.c ****     /* Check the parameters */
 255:Drivers/STM32G4xx_HAL_Driver/Src/stm32g4xx_hal_rcc_ex.c ****     assert_param(IS_RCC_UART4CLKSOURCE(PeriphClkInit->Uart4ClockSelection));
 256:Drivers/STM32G4xx_HAL_Driver/Src/stm32g4xx_hal_rcc_ex.c **** 
 257:Drivers/STM32G4xx_HAL_Driver/Src/stm32g4xx_hal_rcc_ex.c ****     /* Configure the UART4 clock source */
 258:Drivers/STM32G4xx_HAL_Driver/Src/stm32g4xx_hal_rcc_ex.c ****     __HAL_RCC_UART4_CONFIG(PeriphClkInit->Uart4ClockSelection);
 307              		.loc 1 258 5
 308 01c0 874B     		ldr	r3, .L36
ARM GAS  C:\Users\AURORA~1\AppData\Local\Temp\cc3nfJXy.s 			page 11


 309 01c2 D3F88830 		ldr	r3, [r3, #136]
 310 01c6 23F0C002 		bic	r2, r3, #192
 311 01ca 7B68     		ldr	r3, [r7, #4]
 312 01cc 1B69     		ldr	r3, [r3, #16]
 313 01ce 8449     		ldr	r1, .L36
 314 01d0 1343     		orrs	r3, r3, r2
 315 01d2 C1F88830 		str	r3, [r1, #136]
 316              	.L17:
 259:Drivers/STM32G4xx_HAL_Driver/Src/stm32g4xx_hal_rcc_ex.c ****   }
 260:Drivers/STM32G4xx_HAL_Driver/Src/stm32g4xx_hal_rcc_ex.c **** #endif /* UART4 */
 261:Drivers/STM32G4xx_HAL_Driver/Src/stm32g4xx_hal_rcc_ex.c **** 
 262:Drivers/STM32G4xx_HAL_Driver/Src/stm32g4xx_hal_rcc_ex.c **** #if defined(UART5)
 263:Drivers/STM32G4xx_HAL_Driver/Src/stm32g4xx_hal_rcc_ex.c **** 
 264:Drivers/STM32G4xx_HAL_Driver/Src/stm32g4xx_hal_rcc_ex.c ****   /*-------------------------- UART5 clock source configuration --------------------*/
 265:Drivers/STM32G4xx_HAL_Driver/Src/stm32g4xx_hal_rcc_ex.c ****   if(((PeriphClkInit->PeriphClockSelection) & RCC_PERIPHCLK_UART5) == RCC_PERIPHCLK_UART5)
 317              		.loc 1 265 21
 318 01d6 7B68     		ldr	r3, [r7, #4]
 319 01d8 1B68     		ldr	r3, [r3]
 320              		.loc 1 265 45
 321 01da 03F01003 		and	r3, r3, #16
 322              		.loc 1 265 5
 323 01de 002B     		cmp	r3, #0
 324 01e0 0AD0     		beq	.L18
 266:Drivers/STM32G4xx_HAL_Driver/Src/stm32g4xx_hal_rcc_ex.c ****   {
 267:Drivers/STM32G4xx_HAL_Driver/Src/stm32g4xx_hal_rcc_ex.c ****     /* Check the parameters */
 268:Drivers/STM32G4xx_HAL_Driver/Src/stm32g4xx_hal_rcc_ex.c ****     assert_param(IS_RCC_UART5CLKSOURCE(PeriphClkInit->Uart5ClockSelection));
 269:Drivers/STM32G4xx_HAL_Driver/Src/stm32g4xx_hal_rcc_ex.c **** 
 270:Drivers/STM32G4xx_HAL_Driver/Src/stm32g4xx_hal_rcc_ex.c ****     /* Configure the UART5 clock source */
 271:Drivers/STM32G4xx_HAL_Driver/Src/stm32g4xx_hal_rcc_ex.c ****     __HAL_RCC_UART5_CONFIG(PeriphClkInit->Uart5ClockSelection);
 325              		.loc 1 271 5
 326 01e2 7F4B     		ldr	r3, .L36
 327 01e4 D3F88830 		ldr	r3, [r3, #136]
 328 01e8 23F44072 		bic	r2, r3, #768
 329 01ec 7B68     		ldr	r3, [r7, #4]
 330 01ee 5B69     		ldr	r3, [r3, #20]
 331 01f0 7B49     		ldr	r1, .L36
 332 01f2 1343     		orrs	r3, r3, r2
 333 01f4 C1F88830 		str	r3, [r1, #136]
 334              	.L18:
 272:Drivers/STM32G4xx_HAL_Driver/Src/stm32g4xx_hal_rcc_ex.c ****   }
 273:Drivers/STM32G4xx_HAL_Driver/Src/stm32g4xx_hal_rcc_ex.c **** 
 274:Drivers/STM32G4xx_HAL_Driver/Src/stm32g4xx_hal_rcc_ex.c **** #endif /* UART5 */
 275:Drivers/STM32G4xx_HAL_Driver/Src/stm32g4xx_hal_rcc_ex.c **** 
 276:Drivers/STM32G4xx_HAL_Driver/Src/stm32g4xx_hal_rcc_ex.c ****   /*-------------------------- LPUART1 clock source configuration ------------------*/
 277:Drivers/STM32G4xx_HAL_Driver/Src/stm32g4xx_hal_rcc_ex.c ****   if(((PeriphClkInit->PeriphClockSelection) & RCC_PERIPHCLK_LPUART1) == RCC_PERIPHCLK_LPUART1)
 335              		.loc 1 277 21
 336 01f8 7B68     		ldr	r3, [r7, #4]
 337 01fa 1B68     		ldr	r3, [r3]
 338              		.loc 1 277 45
 339 01fc 03F02003 		and	r3, r3, #32
 340              		.loc 1 277 5
 341 0200 002B     		cmp	r3, #0
 342 0202 0AD0     		beq	.L19
 278:Drivers/STM32G4xx_HAL_Driver/Src/stm32g4xx_hal_rcc_ex.c ****   {
 279:Drivers/STM32G4xx_HAL_Driver/Src/stm32g4xx_hal_rcc_ex.c ****     /* Check the parameters */
 280:Drivers/STM32G4xx_HAL_Driver/Src/stm32g4xx_hal_rcc_ex.c ****     assert_param(IS_RCC_LPUART1CLKSOURCE(PeriphClkInit->Lpuart1ClockSelection));
 281:Drivers/STM32G4xx_HAL_Driver/Src/stm32g4xx_hal_rcc_ex.c **** 
ARM GAS  C:\Users\AURORA~1\AppData\Local\Temp\cc3nfJXy.s 			page 12


 282:Drivers/STM32G4xx_HAL_Driver/Src/stm32g4xx_hal_rcc_ex.c ****     /* Configure the LPUAR1 clock source */
 283:Drivers/STM32G4xx_HAL_Driver/Src/stm32g4xx_hal_rcc_ex.c ****     __HAL_RCC_LPUART1_CONFIG(PeriphClkInit->Lpuart1ClockSelection);
 343              		.loc 1 283 5
 344 0204 764B     		ldr	r3, .L36
 345 0206 D3F88830 		ldr	r3, [r3, #136]
 346 020a 23F44062 		bic	r2, r3, #3072
 347 020e 7B68     		ldr	r3, [r7, #4]
 348 0210 9B69     		ldr	r3, [r3, #24]
 349 0212 7349     		ldr	r1, .L36
 350 0214 1343     		orrs	r3, r3, r2
 351 0216 C1F88830 		str	r3, [r1, #136]
 352              	.L19:
 284:Drivers/STM32G4xx_HAL_Driver/Src/stm32g4xx_hal_rcc_ex.c ****   }
 285:Drivers/STM32G4xx_HAL_Driver/Src/stm32g4xx_hal_rcc_ex.c **** 
 286:Drivers/STM32G4xx_HAL_Driver/Src/stm32g4xx_hal_rcc_ex.c ****   /*-------------------------- I2C1 clock source configuration ---------------------*/
 287:Drivers/STM32G4xx_HAL_Driver/Src/stm32g4xx_hal_rcc_ex.c ****   if(((PeriphClkInit->PeriphClockSelection) & RCC_PERIPHCLK_I2C1) == RCC_PERIPHCLK_I2C1)
 353              		.loc 1 287 21
 354 021a 7B68     		ldr	r3, [r7, #4]
 355 021c 1B68     		ldr	r3, [r3]
 356              		.loc 1 287 45
 357 021e 03F04003 		and	r3, r3, #64
 358              		.loc 1 287 5
 359 0222 002B     		cmp	r3, #0
 360 0224 0AD0     		beq	.L20
 288:Drivers/STM32G4xx_HAL_Driver/Src/stm32g4xx_hal_rcc_ex.c ****   {
 289:Drivers/STM32G4xx_HAL_Driver/Src/stm32g4xx_hal_rcc_ex.c ****     /* Check the parameters */
 290:Drivers/STM32G4xx_HAL_Driver/Src/stm32g4xx_hal_rcc_ex.c ****     assert_param(IS_RCC_I2C1CLKSOURCE(PeriphClkInit->I2c1ClockSelection));
 291:Drivers/STM32G4xx_HAL_Driver/Src/stm32g4xx_hal_rcc_ex.c **** 
 292:Drivers/STM32G4xx_HAL_Driver/Src/stm32g4xx_hal_rcc_ex.c ****     /* Configure the I2C1 clock source */
 293:Drivers/STM32G4xx_HAL_Driver/Src/stm32g4xx_hal_rcc_ex.c ****     __HAL_RCC_I2C1_CONFIG(PeriphClkInit->I2c1ClockSelection);
 361              		.loc 1 293 5
 362 0226 6E4B     		ldr	r3, .L36
 363 0228 D3F88830 		ldr	r3, [r3, #136]
 364 022c 23F44052 		bic	r2, r3, #12288
 365 0230 7B68     		ldr	r3, [r7, #4]
 366 0232 DB69     		ldr	r3, [r3, #28]
 367 0234 6A49     		ldr	r1, .L36
 368 0236 1343     		orrs	r3, r3, r2
 369 0238 C1F88830 		str	r3, [r1, #136]
 370              	.L20:
 294:Drivers/STM32G4xx_HAL_Driver/Src/stm32g4xx_hal_rcc_ex.c ****   }
 295:Drivers/STM32G4xx_HAL_Driver/Src/stm32g4xx_hal_rcc_ex.c **** 
 296:Drivers/STM32G4xx_HAL_Driver/Src/stm32g4xx_hal_rcc_ex.c ****   /*-------------------------- I2C2 clock source configuration ---------------------*/
 297:Drivers/STM32G4xx_HAL_Driver/Src/stm32g4xx_hal_rcc_ex.c ****   if(((PeriphClkInit->PeriphClockSelection) & RCC_PERIPHCLK_I2C2) == RCC_PERIPHCLK_I2C2)
 371              		.loc 1 297 21
 372 023c 7B68     		ldr	r3, [r7, #4]
 373 023e 1B68     		ldr	r3, [r3]
 374              		.loc 1 297 45
 375 0240 03F08003 		and	r3, r3, #128
 376              		.loc 1 297 5
 377 0244 002B     		cmp	r3, #0
 378 0246 0AD0     		beq	.L21
 298:Drivers/STM32G4xx_HAL_Driver/Src/stm32g4xx_hal_rcc_ex.c ****   {
 299:Drivers/STM32G4xx_HAL_Driver/Src/stm32g4xx_hal_rcc_ex.c ****     /* Check the parameters */
 300:Drivers/STM32G4xx_HAL_Driver/Src/stm32g4xx_hal_rcc_ex.c ****     assert_param(IS_RCC_I2C2CLKSOURCE(PeriphClkInit->I2c2ClockSelection));
 301:Drivers/STM32G4xx_HAL_Driver/Src/stm32g4xx_hal_rcc_ex.c **** 
 302:Drivers/STM32G4xx_HAL_Driver/Src/stm32g4xx_hal_rcc_ex.c ****     /* Configure the I2C2 clock source */
ARM GAS  C:\Users\AURORA~1\AppData\Local\Temp\cc3nfJXy.s 			page 13


 303:Drivers/STM32G4xx_HAL_Driver/Src/stm32g4xx_hal_rcc_ex.c ****     __HAL_RCC_I2C2_CONFIG(PeriphClkInit->I2c2ClockSelection);
 379              		.loc 1 303 5
 380 0248 654B     		ldr	r3, .L36
 381 024a D3F88830 		ldr	r3, [r3, #136]
 382 024e 23F44042 		bic	r2, r3, #49152
 383 0252 7B68     		ldr	r3, [r7, #4]
 384 0254 1B6A     		ldr	r3, [r3, #32]
 385 0256 6249     		ldr	r1, .L36
 386 0258 1343     		orrs	r3, r3, r2
 387 025a C1F88830 		str	r3, [r1, #136]
 388              	.L21:
 304:Drivers/STM32G4xx_HAL_Driver/Src/stm32g4xx_hal_rcc_ex.c ****   }
 305:Drivers/STM32G4xx_HAL_Driver/Src/stm32g4xx_hal_rcc_ex.c **** 
 306:Drivers/STM32G4xx_HAL_Driver/Src/stm32g4xx_hal_rcc_ex.c ****   /*-------------------------- I2C3 clock source configuration ---------------------*/
 307:Drivers/STM32G4xx_HAL_Driver/Src/stm32g4xx_hal_rcc_ex.c ****   if(((PeriphClkInit->PeriphClockSelection) & RCC_PERIPHCLK_I2C3) == RCC_PERIPHCLK_I2C3)
 389              		.loc 1 307 21
 390 025e 7B68     		ldr	r3, [r7, #4]
 391 0260 1B68     		ldr	r3, [r3]
 392              		.loc 1 307 45
 393 0262 03F48073 		and	r3, r3, #256
 394              		.loc 1 307 5
 395 0266 002B     		cmp	r3, #0
 396 0268 0AD0     		beq	.L22
 308:Drivers/STM32G4xx_HAL_Driver/Src/stm32g4xx_hal_rcc_ex.c ****   {
 309:Drivers/STM32G4xx_HAL_Driver/Src/stm32g4xx_hal_rcc_ex.c ****     /* Check the parameters */
 310:Drivers/STM32G4xx_HAL_Driver/Src/stm32g4xx_hal_rcc_ex.c ****     assert_param(IS_RCC_I2C3CLKSOURCE(PeriphClkInit->I2c3ClockSelection));
 311:Drivers/STM32G4xx_HAL_Driver/Src/stm32g4xx_hal_rcc_ex.c **** 
 312:Drivers/STM32G4xx_HAL_Driver/Src/stm32g4xx_hal_rcc_ex.c ****     /* Configure the I2C3 clock source */
 313:Drivers/STM32G4xx_HAL_Driver/Src/stm32g4xx_hal_rcc_ex.c ****     __HAL_RCC_I2C3_CONFIG(PeriphClkInit->I2c3ClockSelection);
 397              		.loc 1 313 5
 398 026a 5D4B     		ldr	r3, .L36
 399 026c D3F88830 		ldr	r3, [r3, #136]
 400 0270 23F44032 		bic	r2, r3, #196608
 401 0274 7B68     		ldr	r3, [r7, #4]
 402 0276 5B6A     		ldr	r3, [r3, #36]
 403 0278 5949     		ldr	r1, .L36
 404 027a 1343     		orrs	r3, r3, r2
 405 027c C1F88830 		str	r3, [r1, #136]
 406              	.L22:
 314:Drivers/STM32G4xx_HAL_Driver/Src/stm32g4xx_hal_rcc_ex.c ****   }
 315:Drivers/STM32G4xx_HAL_Driver/Src/stm32g4xx_hal_rcc_ex.c **** 
 316:Drivers/STM32G4xx_HAL_Driver/Src/stm32g4xx_hal_rcc_ex.c **** #if defined(I2C4)  
 317:Drivers/STM32G4xx_HAL_Driver/Src/stm32g4xx_hal_rcc_ex.c **** 
 318:Drivers/STM32G4xx_HAL_Driver/Src/stm32g4xx_hal_rcc_ex.c ****   /*-------------------------- I2C4 clock source configuration ---------------------*/
 319:Drivers/STM32G4xx_HAL_Driver/Src/stm32g4xx_hal_rcc_ex.c ****   if(((PeriphClkInit->PeriphClockSelection) & RCC_PERIPHCLK_I2C4) == RCC_PERIPHCLK_I2C4)
 407              		.loc 1 319 21
 408 0280 7B68     		ldr	r3, [r7, #4]
 409 0282 1B68     		ldr	r3, [r3]
 410              		.loc 1 319 45
 411 0284 03F40033 		and	r3, r3, #131072
 412              		.loc 1 319 5
 413 0288 002B     		cmp	r3, #0
 414 028a 0AD0     		beq	.L23
 320:Drivers/STM32G4xx_HAL_Driver/Src/stm32g4xx_hal_rcc_ex.c ****   {
 321:Drivers/STM32G4xx_HAL_Driver/Src/stm32g4xx_hal_rcc_ex.c ****     /* Check the parameters */
 322:Drivers/STM32G4xx_HAL_Driver/Src/stm32g4xx_hal_rcc_ex.c ****     assert_param(IS_RCC_I2C4CLKSOURCE(PeriphClkInit->I2c4ClockSelection));
 323:Drivers/STM32G4xx_HAL_Driver/Src/stm32g4xx_hal_rcc_ex.c **** 
ARM GAS  C:\Users\AURORA~1\AppData\Local\Temp\cc3nfJXy.s 			page 14


 324:Drivers/STM32G4xx_HAL_Driver/Src/stm32g4xx_hal_rcc_ex.c ****     /* Configure the I2C4 clock source */
 325:Drivers/STM32G4xx_HAL_Driver/Src/stm32g4xx_hal_rcc_ex.c ****     __HAL_RCC_I2C4_CONFIG(PeriphClkInit->I2c4ClockSelection);
 415              		.loc 1 325 5
 416 028c 544B     		ldr	r3, .L36
 417 028e D3F89C30 		ldr	r3, [r3, #156]
 418 0292 23F00302 		bic	r2, r3, #3
 419 0296 7B68     		ldr	r3, [r7, #4]
 420 0298 9B6A     		ldr	r3, [r3, #40]
 421 029a 5149     		ldr	r1, .L36
 422 029c 1343     		orrs	r3, r3, r2
 423 029e C1F89C30 		str	r3, [r1, #156]
 424              	.L23:
 326:Drivers/STM32G4xx_HAL_Driver/Src/stm32g4xx_hal_rcc_ex.c ****   }
 327:Drivers/STM32G4xx_HAL_Driver/Src/stm32g4xx_hal_rcc_ex.c **** 
 328:Drivers/STM32G4xx_HAL_Driver/Src/stm32g4xx_hal_rcc_ex.c **** #endif /* I2C4 */
 329:Drivers/STM32G4xx_HAL_Driver/Src/stm32g4xx_hal_rcc_ex.c **** 
 330:Drivers/STM32G4xx_HAL_Driver/Src/stm32g4xx_hal_rcc_ex.c ****   /*-------------------------- LPTIM1 clock source configuration ---------------------*/
 331:Drivers/STM32G4xx_HAL_Driver/Src/stm32g4xx_hal_rcc_ex.c ****   if(((PeriphClkInit->PeriphClockSelection) & RCC_PERIPHCLK_LPTIM1) == RCC_PERIPHCLK_LPTIM1)
 425              		.loc 1 331 21
 426 02a2 7B68     		ldr	r3, [r7, #4]
 427 02a4 1B68     		ldr	r3, [r3]
 428              		.loc 1 331 45
 429 02a6 03F40073 		and	r3, r3, #512
 430              		.loc 1 331 5
 431 02aa 002B     		cmp	r3, #0
 432 02ac 0AD0     		beq	.L24
 332:Drivers/STM32G4xx_HAL_Driver/Src/stm32g4xx_hal_rcc_ex.c ****   {
 333:Drivers/STM32G4xx_HAL_Driver/Src/stm32g4xx_hal_rcc_ex.c ****     /* Check the parameters */
 334:Drivers/STM32G4xx_HAL_Driver/Src/stm32g4xx_hal_rcc_ex.c ****     assert_param(IS_RCC_LPTIM1CLKSOURCE(PeriphClkInit->Lptim1ClockSelection));
 335:Drivers/STM32G4xx_HAL_Driver/Src/stm32g4xx_hal_rcc_ex.c **** 
 336:Drivers/STM32G4xx_HAL_Driver/Src/stm32g4xx_hal_rcc_ex.c ****     /* Configure the LPTIM1 clock source */
 337:Drivers/STM32G4xx_HAL_Driver/Src/stm32g4xx_hal_rcc_ex.c ****     __HAL_RCC_LPTIM1_CONFIG(PeriphClkInit->Lptim1ClockSelection);
 433              		.loc 1 337 5
 434 02ae 4C4B     		ldr	r3, .L36
 435 02b0 D3F88830 		ldr	r3, [r3, #136]
 436 02b4 23F44022 		bic	r2, r3, #786432
 437 02b8 7B68     		ldr	r3, [r7, #4]
 438 02ba DB6A     		ldr	r3, [r3, #44]
 439 02bc 4849     		ldr	r1, .L36
 440 02be 1343     		orrs	r3, r3, r2
 441 02c0 C1F88830 		str	r3, [r1, #136]
 442              	.L24:
 338:Drivers/STM32G4xx_HAL_Driver/Src/stm32g4xx_hal_rcc_ex.c ****   }
 339:Drivers/STM32G4xx_HAL_Driver/Src/stm32g4xx_hal_rcc_ex.c **** 
 340:Drivers/STM32G4xx_HAL_Driver/Src/stm32g4xx_hal_rcc_ex.c ****   /*-------------------------- SAI1 clock source configuration ---------------------*/
 341:Drivers/STM32G4xx_HAL_Driver/Src/stm32g4xx_hal_rcc_ex.c ****   if(((PeriphClkInit->PeriphClockSelection) & RCC_PERIPHCLK_SAI1) == RCC_PERIPHCLK_SAI1)
 443              		.loc 1 341 21
 444 02c4 7B68     		ldr	r3, [r7, #4]
 445 02c6 1B68     		ldr	r3, [r3]
 446              		.loc 1 341 45
 447 02c8 03F48063 		and	r3, r3, #1024
 448              		.loc 1 341 5
 449 02cc 002B     		cmp	r3, #0
 450 02ce 15D0     		beq	.L25
 342:Drivers/STM32G4xx_HAL_Driver/Src/stm32g4xx_hal_rcc_ex.c ****   {
 343:Drivers/STM32G4xx_HAL_Driver/Src/stm32g4xx_hal_rcc_ex.c ****     /* Check the parameters */
 344:Drivers/STM32G4xx_HAL_Driver/Src/stm32g4xx_hal_rcc_ex.c ****     assert_param(IS_RCC_SAI1CLKSOURCE(PeriphClkInit->Sai1ClockSelection));
ARM GAS  C:\Users\AURORA~1\AppData\Local\Temp\cc3nfJXy.s 			page 15


 345:Drivers/STM32G4xx_HAL_Driver/Src/stm32g4xx_hal_rcc_ex.c **** 
 346:Drivers/STM32G4xx_HAL_Driver/Src/stm32g4xx_hal_rcc_ex.c ****     /* Configure the SAI1 interface clock source */
 347:Drivers/STM32G4xx_HAL_Driver/Src/stm32g4xx_hal_rcc_ex.c ****     __HAL_RCC_SAI1_CONFIG(PeriphClkInit->Sai1ClockSelection);
 451              		.loc 1 347 5
 452 02d0 434B     		ldr	r3, .L36
 453 02d2 D3F88830 		ldr	r3, [r3, #136]
 454 02d6 23F44012 		bic	r2, r3, #3145728
 455 02da 7B68     		ldr	r3, [r7, #4]
 456 02dc 1B6B     		ldr	r3, [r3, #48]
 457 02de 4049     		ldr	r1, .L36
 458 02e0 1343     		orrs	r3, r3, r2
 459 02e2 C1F88830 		str	r3, [r1, #136]
 348:Drivers/STM32G4xx_HAL_Driver/Src/stm32g4xx_hal_rcc_ex.c ****     
 349:Drivers/STM32G4xx_HAL_Driver/Src/stm32g4xx_hal_rcc_ex.c ****     if(PeriphClkInit->Sai1ClockSelection == RCC_SAI1CLKSOURCE_PLL)
 460              		.loc 1 349 21
 461 02e6 7B68     		ldr	r3, [r7, #4]
 462 02e8 1B6B     		ldr	r3, [r3, #48]
 463              		.loc 1 349 7
 464 02ea B3F5801F 		cmp	r3, #1048576
 465 02ee 05D1     		bne	.L25
 350:Drivers/STM32G4xx_HAL_Driver/Src/stm32g4xx_hal_rcc_ex.c ****     {
 351:Drivers/STM32G4xx_HAL_Driver/Src/stm32g4xx_hal_rcc_ex.c ****       /* Enable PLL48M1CLK output */
 352:Drivers/STM32G4xx_HAL_Driver/Src/stm32g4xx_hal_rcc_ex.c ****       __HAL_RCC_PLLCLKOUT_ENABLE(RCC_PLL_48M1CLK);
 466              		.loc 1 352 7
 467 02f0 3B4B     		ldr	r3, .L36
 468 02f2 DB68     		ldr	r3, [r3, #12]
 469 02f4 3A4A     		ldr	r2, .L36
 470 02f6 43F48013 		orr	r3, r3, #1048576
 471 02fa D360     		str	r3, [r2, #12]
 472              	.L25:
 353:Drivers/STM32G4xx_HAL_Driver/Src/stm32g4xx_hal_rcc_ex.c ****     }
 354:Drivers/STM32G4xx_HAL_Driver/Src/stm32g4xx_hal_rcc_ex.c ****   }
 355:Drivers/STM32G4xx_HAL_Driver/Src/stm32g4xx_hal_rcc_ex.c **** 
 356:Drivers/STM32G4xx_HAL_Driver/Src/stm32g4xx_hal_rcc_ex.c ****   /*-------------------------- I2S clock source configuration ---------------------*/
 357:Drivers/STM32G4xx_HAL_Driver/Src/stm32g4xx_hal_rcc_ex.c ****   if(((PeriphClkInit->PeriphClockSelection) & RCC_PERIPHCLK_I2S) == RCC_PERIPHCLK_I2S)
 473              		.loc 1 357 21
 474 02fc 7B68     		ldr	r3, [r7, #4]
 475 02fe 1B68     		ldr	r3, [r3]
 476              		.loc 1 357 45
 477 0300 03F40063 		and	r3, r3, #2048
 478              		.loc 1 357 5
 479 0304 002B     		cmp	r3, #0
 480 0306 15D0     		beq	.L26
 358:Drivers/STM32G4xx_HAL_Driver/Src/stm32g4xx_hal_rcc_ex.c ****   {
 359:Drivers/STM32G4xx_HAL_Driver/Src/stm32g4xx_hal_rcc_ex.c ****     /* Check the parameters */
 360:Drivers/STM32G4xx_HAL_Driver/Src/stm32g4xx_hal_rcc_ex.c ****     assert_param(IS_RCC_I2SCLKSOURCE(PeriphClkInit->I2sClockSelection));
 361:Drivers/STM32G4xx_HAL_Driver/Src/stm32g4xx_hal_rcc_ex.c **** 
 362:Drivers/STM32G4xx_HAL_Driver/Src/stm32g4xx_hal_rcc_ex.c ****     /* Configure the I2S interface clock source */
 363:Drivers/STM32G4xx_HAL_Driver/Src/stm32g4xx_hal_rcc_ex.c ****     __HAL_RCC_I2S_CONFIG(PeriphClkInit->I2sClockSelection);
 481              		.loc 1 363 5
 482 0308 354B     		ldr	r3, .L36
 483 030a D3F88830 		ldr	r3, [r3, #136]
 484 030e 23F44002 		bic	r2, r3, #12582912
 485 0312 7B68     		ldr	r3, [r7, #4]
 486 0314 5B6B     		ldr	r3, [r3, #52]
 487 0316 3249     		ldr	r1, .L36
 488 0318 1343     		orrs	r3, r3, r2
ARM GAS  C:\Users\AURORA~1\AppData\Local\Temp\cc3nfJXy.s 			page 16


 489 031a C1F88830 		str	r3, [r1, #136]
 364:Drivers/STM32G4xx_HAL_Driver/Src/stm32g4xx_hal_rcc_ex.c ****     
 365:Drivers/STM32G4xx_HAL_Driver/Src/stm32g4xx_hal_rcc_ex.c ****     if(PeriphClkInit->I2sClockSelection == RCC_I2SCLKSOURCE_PLL)
 490              		.loc 1 365 21
 491 031e 7B68     		ldr	r3, [r7, #4]
 492 0320 5B6B     		ldr	r3, [r3, #52]
 493              		.loc 1 365 7
 494 0322 B3F5800F 		cmp	r3, #4194304
 495 0326 05D1     		bne	.L26
 366:Drivers/STM32G4xx_HAL_Driver/Src/stm32g4xx_hal_rcc_ex.c ****     {
 367:Drivers/STM32G4xx_HAL_Driver/Src/stm32g4xx_hal_rcc_ex.c ****       /* Enable PLL48M1CLK output */
 368:Drivers/STM32G4xx_HAL_Driver/Src/stm32g4xx_hal_rcc_ex.c ****       __HAL_RCC_PLLCLKOUT_ENABLE(RCC_PLL_48M1CLK);
 496              		.loc 1 368 7
 497 0328 2D4B     		ldr	r3, .L36
 498 032a DB68     		ldr	r3, [r3, #12]
 499 032c 2C4A     		ldr	r2, .L36
 500 032e 43F48013 		orr	r3, r3, #1048576
 501 0332 D360     		str	r3, [r2, #12]
 502              	.L26:
 369:Drivers/STM32G4xx_HAL_Driver/Src/stm32g4xx_hal_rcc_ex.c ****     }
 370:Drivers/STM32G4xx_HAL_Driver/Src/stm32g4xx_hal_rcc_ex.c ****   }
 371:Drivers/STM32G4xx_HAL_Driver/Src/stm32g4xx_hal_rcc_ex.c **** 
 372:Drivers/STM32G4xx_HAL_Driver/Src/stm32g4xx_hal_rcc_ex.c **** #if defined(FDCAN1)
 373:Drivers/STM32G4xx_HAL_Driver/Src/stm32g4xx_hal_rcc_ex.c ****   /*-------------------------- FDCAN clock source configuration ---------------------*/
 374:Drivers/STM32G4xx_HAL_Driver/Src/stm32g4xx_hal_rcc_ex.c ****   if(((PeriphClkInit->PeriphClockSelection) & RCC_PERIPHCLK_FDCAN) == RCC_PERIPHCLK_FDCAN)
 503              		.loc 1 374 21
 504 0334 7B68     		ldr	r3, [r7, #4]
 505 0336 1B68     		ldr	r3, [r3]
 506              		.loc 1 374 45
 507 0338 03F48053 		and	r3, r3, #4096
 508              		.loc 1 374 5
 509 033c 002B     		cmp	r3, #0
 510 033e 15D0     		beq	.L27
 375:Drivers/STM32G4xx_HAL_Driver/Src/stm32g4xx_hal_rcc_ex.c ****   {
 376:Drivers/STM32G4xx_HAL_Driver/Src/stm32g4xx_hal_rcc_ex.c ****     /* Check the parameters */
 377:Drivers/STM32G4xx_HAL_Driver/Src/stm32g4xx_hal_rcc_ex.c ****     assert_param(IS_RCC_FDCANCLKSOURCE(PeriphClkInit->FdcanClockSelection));
 378:Drivers/STM32G4xx_HAL_Driver/Src/stm32g4xx_hal_rcc_ex.c **** 
 379:Drivers/STM32G4xx_HAL_Driver/Src/stm32g4xx_hal_rcc_ex.c ****     /* Configure the FDCAN interface clock source */
 380:Drivers/STM32G4xx_HAL_Driver/Src/stm32g4xx_hal_rcc_ex.c ****     __HAL_RCC_FDCAN_CONFIG(PeriphClkInit->FdcanClockSelection);
 511              		.loc 1 380 5
 512 0340 274B     		ldr	r3, .L36
 513 0342 D3F88830 		ldr	r3, [r3, #136]
 514 0346 23F04072 		bic	r2, r3, #50331648
 515 034a 7B68     		ldr	r3, [r7, #4]
 516 034c 9B6B     		ldr	r3, [r3, #56]
 517 034e 2449     		ldr	r1, .L36
 518 0350 1343     		orrs	r3, r3, r2
 519 0352 C1F88830 		str	r3, [r1, #136]
 381:Drivers/STM32G4xx_HAL_Driver/Src/stm32g4xx_hal_rcc_ex.c ****     
 382:Drivers/STM32G4xx_HAL_Driver/Src/stm32g4xx_hal_rcc_ex.c ****     if(PeriphClkInit->FdcanClockSelection == RCC_FDCANCLKSOURCE_PLL)
 520              		.loc 1 382 21
 521 0356 7B68     		ldr	r3, [r7, #4]
 522 0358 9B6B     		ldr	r3, [r3, #56]
 523              		.loc 1 382 7
 524 035a B3F1807F 		cmp	r3, #16777216
 525 035e 05D1     		bne	.L27
 383:Drivers/STM32G4xx_HAL_Driver/Src/stm32g4xx_hal_rcc_ex.c ****     {
ARM GAS  C:\Users\AURORA~1\AppData\Local\Temp\cc3nfJXy.s 			page 17


 384:Drivers/STM32G4xx_HAL_Driver/Src/stm32g4xx_hal_rcc_ex.c ****       /* Enable PLL48M1CLK output */
 385:Drivers/STM32G4xx_HAL_Driver/Src/stm32g4xx_hal_rcc_ex.c ****       __HAL_RCC_PLLCLKOUT_ENABLE(RCC_PLL_48M1CLK);
 526              		.loc 1 385 7
 527 0360 1F4B     		ldr	r3, .L36
 528 0362 DB68     		ldr	r3, [r3, #12]
 529 0364 1E4A     		ldr	r2, .L36
 530 0366 43F48013 		orr	r3, r3, #1048576
 531 036a D360     		str	r3, [r2, #12]
 532              	.L27:
 386:Drivers/STM32G4xx_HAL_Driver/Src/stm32g4xx_hal_rcc_ex.c ****     }
 387:Drivers/STM32G4xx_HAL_Driver/Src/stm32g4xx_hal_rcc_ex.c ****   }
 388:Drivers/STM32G4xx_HAL_Driver/Src/stm32g4xx_hal_rcc_ex.c **** #endif /* FDCAN1 */
 389:Drivers/STM32G4xx_HAL_Driver/Src/stm32g4xx_hal_rcc_ex.c **** 
 390:Drivers/STM32G4xx_HAL_Driver/Src/stm32g4xx_hal_rcc_ex.c **** #if defined(USB)
 391:Drivers/STM32G4xx_HAL_Driver/Src/stm32g4xx_hal_rcc_ex.c **** 
 392:Drivers/STM32G4xx_HAL_Driver/Src/stm32g4xx_hal_rcc_ex.c ****   /*-------------------------- USB clock source configuration ----------------------*/
 393:Drivers/STM32G4xx_HAL_Driver/Src/stm32g4xx_hal_rcc_ex.c ****   if(((PeriphClkInit->PeriphClockSelection) & RCC_PERIPHCLK_USB) == (RCC_PERIPHCLK_USB))
 533              		.loc 1 393 21
 534 036c 7B68     		ldr	r3, [r7, #4]
 535 036e 1B68     		ldr	r3, [r3]
 536              		.loc 1 393 45
 537 0370 03F40053 		and	r3, r3, #8192
 538              		.loc 1 393 5
 539 0374 002B     		cmp	r3, #0
 540 0376 15D0     		beq	.L28
 394:Drivers/STM32G4xx_HAL_Driver/Src/stm32g4xx_hal_rcc_ex.c ****   {
 395:Drivers/STM32G4xx_HAL_Driver/Src/stm32g4xx_hal_rcc_ex.c ****     assert_param(IS_RCC_USBCLKSOURCE(PeriphClkInit->UsbClockSelection));
 396:Drivers/STM32G4xx_HAL_Driver/Src/stm32g4xx_hal_rcc_ex.c ****     __HAL_RCC_USB_CONFIG(PeriphClkInit->UsbClockSelection);
 541              		.loc 1 396 5
 542 0378 194B     		ldr	r3, .L36
 543 037a D3F88830 		ldr	r3, [r3, #136]
 544 037e 23F04062 		bic	r2, r3, #201326592
 545 0382 7B68     		ldr	r3, [r7, #4]
 546 0384 DB6B     		ldr	r3, [r3, #60]
 547 0386 1649     		ldr	r1, .L36
 548 0388 1343     		orrs	r3, r3, r2
 549 038a C1F88830 		str	r3, [r1, #136]
 397:Drivers/STM32G4xx_HAL_Driver/Src/stm32g4xx_hal_rcc_ex.c **** 
 398:Drivers/STM32G4xx_HAL_Driver/Src/stm32g4xx_hal_rcc_ex.c ****     if(PeriphClkInit->UsbClockSelection == RCC_USBCLKSOURCE_PLL)
 550              		.loc 1 398 21
 551 038e 7B68     		ldr	r3, [r7, #4]
 552 0390 DB6B     		ldr	r3, [r3, #60]
 553              		.loc 1 398 7
 554 0392 B3F1006F 		cmp	r3, #134217728
 555 0396 05D1     		bne	.L28
 399:Drivers/STM32G4xx_HAL_Driver/Src/stm32g4xx_hal_rcc_ex.c ****     {
 400:Drivers/STM32G4xx_HAL_Driver/Src/stm32g4xx_hal_rcc_ex.c ****       /* Enable PLL48M1CLK output */
 401:Drivers/STM32G4xx_HAL_Driver/Src/stm32g4xx_hal_rcc_ex.c ****       __HAL_RCC_PLLCLKOUT_ENABLE(RCC_PLL_48M1CLK);
 556              		.loc 1 401 7
 557 0398 114B     		ldr	r3, .L36
 558 039a DB68     		ldr	r3, [r3, #12]
 559 039c 104A     		ldr	r2, .L36
 560 039e 43F48013 		orr	r3, r3, #1048576
 561 03a2 D360     		str	r3, [r2, #12]
 562              	.L28:
 402:Drivers/STM32G4xx_HAL_Driver/Src/stm32g4xx_hal_rcc_ex.c ****     }
 403:Drivers/STM32G4xx_HAL_Driver/Src/stm32g4xx_hal_rcc_ex.c ****   }
ARM GAS  C:\Users\AURORA~1\AppData\Local\Temp\cc3nfJXy.s 			page 18


 404:Drivers/STM32G4xx_HAL_Driver/Src/stm32g4xx_hal_rcc_ex.c **** 
 405:Drivers/STM32G4xx_HAL_Driver/Src/stm32g4xx_hal_rcc_ex.c **** #endif /* USB */
 406:Drivers/STM32G4xx_HAL_Driver/Src/stm32g4xx_hal_rcc_ex.c **** 
 407:Drivers/STM32G4xx_HAL_Driver/Src/stm32g4xx_hal_rcc_ex.c ****   /*-------------------------- RNG clock source configuration ----------------------*/
 408:Drivers/STM32G4xx_HAL_Driver/Src/stm32g4xx_hal_rcc_ex.c ****   if(((PeriphClkInit->PeriphClockSelection) & RCC_PERIPHCLK_RNG) == (RCC_PERIPHCLK_RNG))
 563              		.loc 1 408 21
 564 03a4 7B68     		ldr	r3, [r7, #4]
 565 03a6 1B68     		ldr	r3, [r3]
 566              		.loc 1 408 45
 567 03a8 03F48043 		and	r3, r3, #16384
 568              		.loc 1 408 5
 569 03ac 002B     		cmp	r3, #0
 570 03ae 19D0     		beq	.L29
 409:Drivers/STM32G4xx_HAL_Driver/Src/stm32g4xx_hal_rcc_ex.c ****   {
 410:Drivers/STM32G4xx_HAL_Driver/Src/stm32g4xx_hal_rcc_ex.c ****     assert_param(IS_RCC_RNGCLKSOURCE(PeriphClkInit->RngClockSelection));
 411:Drivers/STM32G4xx_HAL_Driver/Src/stm32g4xx_hal_rcc_ex.c ****     __HAL_RCC_RNG_CONFIG(PeriphClkInit->RngClockSelection);
 571              		.loc 1 411 5
 572 03b0 0B4B     		ldr	r3, .L36
 573 03b2 D3F88830 		ldr	r3, [r3, #136]
 574 03b6 23F04062 		bic	r2, r3, #201326592
 575 03ba 7B68     		ldr	r3, [r7, #4]
 576 03bc 1B6C     		ldr	r3, [r3, #64]
 577 03be 0849     		ldr	r1, .L36
 578 03c0 1343     		orrs	r3, r3, r2
 579 03c2 C1F88830 		str	r3, [r1, #136]
 412:Drivers/STM32G4xx_HAL_Driver/Src/stm32g4xx_hal_rcc_ex.c **** 
 413:Drivers/STM32G4xx_HAL_Driver/Src/stm32g4xx_hal_rcc_ex.c ****     if(PeriphClkInit->RngClockSelection == RCC_RNGCLKSOURCE_PLL)
 580              		.loc 1 413 21
 581 03c6 7B68     		ldr	r3, [r7, #4]
 582 03c8 1B6C     		ldr	r3, [r3, #64]
 583              		.loc 1 413 7
 584 03ca B3F1006F 		cmp	r3, #134217728
 585 03ce 09D1     		bne	.L29
 414:Drivers/STM32G4xx_HAL_Driver/Src/stm32g4xx_hal_rcc_ex.c ****     {
 415:Drivers/STM32G4xx_HAL_Driver/Src/stm32g4xx_hal_rcc_ex.c ****       /* Enable PLL48M1CLK output */
 416:Drivers/STM32G4xx_HAL_Driver/Src/stm32g4xx_hal_rcc_ex.c ****       __HAL_RCC_PLLCLKOUT_ENABLE(RCC_PLL_48M1CLK);
 586              		.loc 1 416 7
 587 03d0 034B     		ldr	r3, .L36
 588 03d2 DB68     		ldr	r3, [r3, #12]
 589 03d4 024A     		ldr	r2, .L36
 590 03d6 43F48013 		orr	r3, r3, #1048576
 591 03da D360     		str	r3, [r2, #12]
 592 03dc 02E0     		b	.L37
 593              	.L38:
 594 03de 00BF     		.align	2
 595              	.L36:
 596 03e0 00100240 		.word	1073876992
 597              	.L37:
 598              	.L29:
 417:Drivers/STM32G4xx_HAL_Driver/Src/stm32g4xx_hal_rcc_ex.c ****     }
 418:Drivers/STM32G4xx_HAL_Driver/Src/stm32g4xx_hal_rcc_ex.c ****   }
 419:Drivers/STM32G4xx_HAL_Driver/Src/stm32g4xx_hal_rcc_ex.c **** 
 420:Drivers/STM32G4xx_HAL_Driver/Src/stm32g4xx_hal_rcc_ex.c ****   /*-------------------------- ADC12 clock source configuration ----------------------*/
 421:Drivers/STM32G4xx_HAL_Driver/Src/stm32g4xx_hal_rcc_ex.c ****   if(((PeriphClkInit->PeriphClockSelection) & RCC_PERIPHCLK_ADC12) == RCC_PERIPHCLK_ADC12)
 599              		.loc 1 421 21
 600 03e4 7B68     		ldr	r3, [r7, #4]
 601 03e6 1B68     		ldr	r3, [r3]
ARM GAS  C:\Users\AURORA~1\AppData\Local\Temp\cc3nfJXy.s 			page 19


 602              		.loc 1 421 45
 603 03e8 03F40043 		and	r3, r3, #32768
 604              		.loc 1 421 5
 605 03ec 002B     		cmp	r3, #0
 606 03ee 15D0     		beq	.L30
 422:Drivers/STM32G4xx_HAL_Driver/Src/stm32g4xx_hal_rcc_ex.c ****   {
 423:Drivers/STM32G4xx_HAL_Driver/Src/stm32g4xx_hal_rcc_ex.c ****     /* Check the parameters */
 424:Drivers/STM32G4xx_HAL_Driver/Src/stm32g4xx_hal_rcc_ex.c ****     assert_param(IS_RCC_ADC12CLKSOURCE(PeriphClkInit->Adc12ClockSelection));
 425:Drivers/STM32G4xx_HAL_Driver/Src/stm32g4xx_hal_rcc_ex.c **** 
 426:Drivers/STM32G4xx_HAL_Driver/Src/stm32g4xx_hal_rcc_ex.c ****     /* Configure the ADC12 interface clock source */
 427:Drivers/STM32G4xx_HAL_Driver/Src/stm32g4xx_hal_rcc_ex.c ****     __HAL_RCC_ADC12_CONFIG(PeriphClkInit->Adc12ClockSelection);
 607              		.loc 1 427 5
 608 03f0 294B     		ldr	r3, .L39
 609 03f2 D3F88830 		ldr	r3, [r3, #136]
 610 03f6 23F04052 		bic	r2, r3, #805306368
 611 03fa 7B68     		ldr	r3, [r7, #4]
 612 03fc 5B6C     		ldr	r3, [r3, #68]
 613 03fe 2649     		ldr	r1, .L39
 614 0400 1343     		orrs	r3, r3, r2
 615 0402 C1F88830 		str	r3, [r1, #136]
 428:Drivers/STM32G4xx_HAL_Driver/Src/stm32g4xx_hal_rcc_ex.c ****     
 429:Drivers/STM32G4xx_HAL_Driver/Src/stm32g4xx_hal_rcc_ex.c ****     if(PeriphClkInit->Adc12ClockSelection == RCC_ADC12CLKSOURCE_PLL)
 616              		.loc 1 429 21
 617 0406 7B68     		ldr	r3, [r7, #4]
 618 0408 5B6C     		ldr	r3, [r3, #68]
 619              		.loc 1 429 7
 620 040a B3F1805F 		cmp	r3, #268435456
 621 040e 05D1     		bne	.L30
 430:Drivers/STM32G4xx_HAL_Driver/Src/stm32g4xx_hal_rcc_ex.c ****     {
 431:Drivers/STM32G4xx_HAL_Driver/Src/stm32g4xx_hal_rcc_ex.c ****       /* Enable PLLADCCLK output */
 432:Drivers/STM32G4xx_HAL_Driver/Src/stm32g4xx_hal_rcc_ex.c ****       __HAL_RCC_PLLCLKOUT_ENABLE(RCC_PLL_ADCCLK);
 622              		.loc 1 432 7
 623 0410 214B     		ldr	r3, .L39
 624 0412 DB68     		ldr	r3, [r3, #12]
 625 0414 204A     		ldr	r2, .L39
 626 0416 43F48033 		orr	r3, r3, #65536
 627 041a D360     		str	r3, [r2, #12]
 628              	.L30:
 433:Drivers/STM32G4xx_HAL_Driver/Src/stm32g4xx_hal_rcc_ex.c ****     }
 434:Drivers/STM32G4xx_HAL_Driver/Src/stm32g4xx_hal_rcc_ex.c ****   }
 435:Drivers/STM32G4xx_HAL_Driver/Src/stm32g4xx_hal_rcc_ex.c ****   
 436:Drivers/STM32G4xx_HAL_Driver/Src/stm32g4xx_hal_rcc_ex.c **** #if defined(ADC345_COMMON)
 437:Drivers/STM32G4xx_HAL_Driver/Src/stm32g4xx_hal_rcc_ex.c ****   /*-------------------------- ADC345 clock source configuration ----------------------*/
 438:Drivers/STM32G4xx_HAL_Driver/Src/stm32g4xx_hal_rcc_ex.c ****   if(((PeriphClkInit->PeriphClockSelection) & RCC_PERIPHCLK_ADC345) == RCC_PERIPHCLK_ADC345)
 629              		.loc 1 438 21
 630 041c 7B68     		ldr	r3, [r7, #4]
 631 041e 1B68     		ldr	r3, [r3]
 632              		.loc 1 438 45
 633 0420 03F48033 		and	r3, r3, #65536
 634              		.loc 1 438 5
 635 0424 002B     		cmp	r3, #0
 636 0426 15D0     		beq	.L31
 439:Drivers/STM32G4xx_HAL_Driver/Src/stm32g4xx_hal_rcc_ex.c ****   {
 440:Drivers/STM32G4xx_HAL_Driver/Src/stm32g4xx_hal_rcc_ex.c ****     /* Check the parameters */
 441:Drivers/STM32G4xx_HAL_Driver/Src/stm32g4xx_hal_rcc_ex.c ****     assert_param(IS_RCC_ADC345CLKSOURCE(PeriphClkInit->Adc345ClockSelection));
 442:Drivers/STM32G4xx_HAL_Driver/Src/stm32g4xx_hal_rcc_ex.c **** 
 443:Drivers/STM32G4xx_HAL_Driver/Src/stm32g4xx_hal_rcc_ex.c ****     /* Configure the ADC345 interface clock source */
ARM GAS  C:\Users\AURORA~1\AppData\Local\Temp\cc3nfJXy.s 			page 20


 444:Drivers/STM32G4xx_HAL_Driver/Src/stm32g4xx_hal_rcc_ex.c ****     __HAL_RCC_ADC345_CONFIG(PeriphClkInit->Adc345ClockSelection);
 637              		.loc 1 444 5
 638 0428 1B4B     		ldr	r3, .L39
 639 042a D3F88830 		ldr	r3, [r3, #136]
 640 042e 23F04042 		bic	r2, r3, #-1073741824
 641 0432 7B68     		ldr	r3, [r7, #4]
 642 0434 9B6C     		ldr	r3, [r3, #72]
 643 0436 1849     		ldr	r1, .L39
 644 0438 1343     		orrs	r3, r3, r2
 645 043a C1F88830 		str	r3, [r1, #136]
 445:Drivers/STM32G4xx_HAL_Driver/Src/stm32g4xx_hal_rcc_ex.c ****     
 446:Drivers/STM32G4xx_HAL_Driver/Src/stm32g4xx_hal_rcc_ex.c ****     if(PeriphClkInit->Adc345ClockSelection == RCC_ADC345CLKSOURCE_PLL)
 646              		.loc 1 446 21
 647 043e 7B68     		ldr	r3, [r7, #4]
 648 0440 9B6C     		ldr	r3, [r3, #72]
 649              		.loc 1 446 7
 650 0442 B3F1804F 		cmp	r3, #1073741824
 651 0446 05D1     		bne	.L31
 447:Drivers/STM32G4xx_HAL_Driver/Src/stm32g4xx_hal_rcc_ex.c ****     {
 448:Drivers/STM32G4xx_HAL_Driver/Src/stm32g4xx_hal_rcc_ex.c ****       /* Enable PLLADCCLK output */
 449:Drivers/STM32G4xx_HAL_Driver/Src/stm32g4xx_hal_rcc_ex.c ****       __HAL_RCC_PLLCLKOUT_ENABLE(RCC_PLL_ADCCLK);
 652              		.loc 1 449 7
 653 0448 134B     		ldr	r3, .L39
 654 044a DB68     		ldr	r3, [r3, #12]
 655 044c 124A     		ldr	r2, .L39
 656 044e 43F48033 		orr	r3, r3, #65536
 657 0452 D360     		str	r3, [r2, #12]
 658              	.L31:
 450:Drivers/STM32G4xx_HAL_Driver/Src/stm32g4xx_hal_rcc_ex.c ****     }
 451:Drivers/STM32G4xx_HAL_Driver/Src/stm32g4xx_hal_rcc_ex.c ****   }
 452:Drivers/STM32G4xx_HAL_Driver/Src/stm32g4xx_hal_rcc_ex.c **** #endif /* ADC345_COMMON */
 453:Drivers/STM32G4xx_HAL_Driver/Src/stm32g4xx_hal_rcc_ex.c **** 
 454:Drivers/STM32G4xx_HAL_Driver/Src/stm32g4xx_hal_rcc_ex.c **** #if defined(QUADSPI)
 455:Drivers/STM32G4xx_HAL_Driver/Src/stm32g4xx_hal_rcc_ex.c **** 
 456:Drivers/STM32G4xx_HAL_Driver/Src/stm32g4xx_hal_rcc_ex.c ****   /*-------------------------- QuadSPIx clock source configuration ----------------*/
 457:Drivers/STM32G4xx_HAL_Driver/Src/stm32g4xx_hal_rcc_ex.c ****   if(((PeriphClkInit->PeriphClockSelection) & RCC_PERIPHCLK_QSPI) == RCC_PERIPHCLK_QSPI)
 659              		.loc 1 457 21
 660 0454 7B68     		ldr	r3, [r7, #4]
 661 0456 1B68     		ldr	r3, [r3]
 662              		.loc 1 457 45
 663 0458 03F48023 		and	r3, r3, #262144
 664              		.loc 1 457 5
 665 045c 002B     		cmp	r3, #0
 666 045e 15D0     		beq	.L32
 458:Drivers/STM32G4xx_HAL_Driver/Src/stm32g4xx_hal_rcc_ex.c ****   {
 459:Drivers/STM32G4xx_HAL_Driver/Src/stm32g4xx_hal_rcc_ex.c ****     /* Check the parameters */
 460:Drivers/STM32G4xx_HAL_Driver/Src/stm32g4xx_hal_rcc_ex.c ****     assert_param(IS_RCC_QSPICLKSOURCE(PeriphClkInit->QspiClockSelection));
 461:Drivers/STM32G4xx_HAL_Driver/Src/stm32g4xx_hal_rcc_ex.c **** 
 462:Drivers/STM32G4xx_HAL_Driver/Src/stm32g4xx_hal_rcc_ex.c ****     /* Configure the QuadSPI clock source */
 463:Drivers/STM32G4xx_HAL_Driver/Src/stm32g4xx_hal_rcc_ex.c ****     __HAL_RCC_QSPI_CONFIG(PeriphClkInit->QspiClockSelection);
 667              		.loc 1 463 5
 668 0460 0D4B     		ldr	r3, .L39
 669 0462 D3F89C30 		ldr	r3, [r3, #156]
 670 0466 23F44012 		bic	r2, r3, #3145728
 671 046a 7B68     		ldr	r3, [r7, #4]
 672 046c DB6C     		ldr	r3, [r3, #76]
 673 046e 0A49     		ldr	r1, .L39
ARM GAS  C:\Users\AURORA~1\AppData\Local\Temp\cc3nfJXy.s 			page 21


 674 0470 1343     		orrs	r3, r3, r2
 675 0472 C1F89C30 		str	r3, [r1, #156]
 464:Drivers/STM32G4xx_HAL_Driver/Src/stm32g4xx_hal_rcc_ex.c **** 
 465:Drivers/STM32G4xx_HAL_Driver/Src/stm32g4xx_hal_rcc_ex.c ****     if(PeriphClkInit->QspiClockSelection == RCC_QSPICLKSOURCE_PLL)
 676              		.loc 1 465 21
 677 0476 7B68     		ldr	r3, [r7, #4]
 678 0478 DB6C     		ldr	r3, [r3, #76]
 679              		.loc 1 465 7
 680 047a B3F5001F 		cmp	r3, #2097152
 681 047e 05D1     		bne	.L32
 466:Drivers/STM32G4xx_HAL_Driver/Src/stm32g4xx_hal_rcc_ex.c ****     {
 467:Drivers/STM32G4xx_HAL_Driver/Src/stm32g4xx_hal_rcc_ex.c ****       /* Enable PLL48M1CLK output */
 468:Drivers/STM32G4xx_HAL_Driver/Src/stm32g4xx_hal_rcc_ex.c ****       __HAL_RCC_PLLCLKOUT_ENABLE(RCC_PLL_48M1CLK);
 682              		.loc 1 468 7
 683 0480 054B     		ldr	r3, .L39
 684 0482 DB68     		ldr	r3, [r3, #12]
 685 0484 044A     		ldr	r2, .L39
 686 0486 43F48013 		orr	r3, r3, #1048576
 687 048a D360     		str	r3, [r2, #12]
 688              	.L32:
 469:Drivers/STM32G4xx_HAL_Driver/Src/stm32g4xx_hal_rcc_ex.c ****     }
 470:Drivers/STM32G4xx_HAL_Driver/Src/stm32g4xx_hal_rcc_ex.c ****   }
 471:Drivers/STM32G4xx_HAL_Driver/Src/stm32g4xx_hal_rcc_ex.c **** 
 472:Drivers/STM32G4xx_HAL_Driver/Src/stm32g4xx_hal_rcc_ex.c **** #endif /* QUADSPI */
 473:Drivers/STM32G4xx_HAL_Driver/Src/stm32g4xx_hal_rcc_ex.c **** 
 474:Drivers/STM32G4xx_HAL_Driver/Src/stm32g4xx_hal_rcc_ex.c ****   return status;
 689              		.loc 1 474 10
 690 048c BB7C     		ldrb	r3, [r7, #18]	@ zero_extendqisi2
 475:Drivers/STM32G4xx_HAL_Driver/Src/stm32g4xx_hal_rcc_ex.c **** }
 691              		.loc 1 475 1
 692 048e 1846     		mov	r0, r3
 693 0490 1837     		adds	r7, r7, #24
 694              	.LCFI3:
 695              		.cfi_def_cfa_offset 8
 696 0492 BD46     		mov	sp, r7
 697              	.LCFI4:
 698              		.cfi_def_cfa_register 13
 699              		@ sp needed
 700 0494 80BD     		pop	{r7, pc}
 701              	.L40:
 702 0496 00BF     		.align	2
 703              	.L39:
 704 0498 00100240 		.word	1073876992
 705              		.cfi_endproc
 706              	.LFE132:
 708              		.section	.text.HAL_RCCEx_GetPeriphCLKConfig,"ax",%progbits
 709              		.align	1
 710              		.global	HAL_RCCEx_GetPeriphCLKConfig
 711              		.syntax unified
 712              		.thumb
 713              		.thumb_func
 715              	HAL_RCCEx_GetPeriphCLKConfig:
 716              	.LFB133:
 476:Drivers/STM32G4xx_HAL_Driver/Src/stm32g4xx_hal_rcc_ex.c **** 
 477:Drivers/STM32G4xx_HAL_Driver/Src/stm32g4xx_hal_rcc_ex.c **** /**
 478:Drivers/STM32G4xx_HAL_Driver/Src/stm32g4xx_hal_rcc_ex.c ****   * @brief  Get the RCC_ClkInitStruct according to the internal RCC configuration registers.
 479:Drivers/STM32G4xx_HAL_Driver/Src/stm32g4xx_hal_rcc_ex.c ****   * @param  PeriphClkInit  pointer to an RCC_PeriphCLKInitTypeDef structure that
ARM GAS  C:\Users\AURORA~1\AppData\Local\Temp\cc3nfJXy.s 			page 22


 480:Drivers/STM32G4xx_HAL_Driver/Src/stm32g4xx_hal_rcc_ex.c ****   *         returns the configuration information for the Extended Peripherals
 481:Drivers/STM32G4xx_HAL_Driver/Src/stm32g4xx_hal_rcc_ex.c ****   *         clocks(USART1, USART2, USART3, UART4, UART5, LPUART1, I2C1, I2C2, I2C3, I2C4,
 482:Drivers/STM32G4xx_HAL_Driver/Src/stm32g4xx_hal_rcc_ex.c ****   *         LPTIM1, SAI1, I2Sx, FDCANx, USB, RNG, ADCx, RTC, QSPI).
 483:Drivers/STM32G4xx_HAL_Driver/Src/stm32g4xx_hal_rcc_ex.c ****   * @retval None
 484:Drivers/STM32G4xx_HAL_Driver/Src/stm32g4xx_hal_rcc_ex.c ****   */
 485:Drivers/STM32G4xx_HAL_Driver/Src/stm32g4xx_hal_rcc_ex.c **** void HAL_RCCEx_GetPeriphCLKConfig(RCC_PeriphCLKInitTypeDef  *PeriphClkInit)
 486:Drivers/STM32G4xx_HAL_Driver/Src/stm32g4xx_hal_rcc_ex.c **** {
 717              		.loc 1 486 1
 718              		.cfi_startproc
 719              		@ args = 0, pretend = 0, frame = 8
 720              		@ frame_needed = 1, uses_anonymous_args = 0
 721              		@ link register save eliminated.
 722 0000 80B4     		push	{r7}
 723              	.LCFI5:
 724              		.cfi_def_cfa_offset 4
 725              		.cfi_offset 7, -4
 726 0002 83B0     		sub	sp, sp, #12
 727              	.LCFI6:
 728              		.cfi_def_cfa_offset 16
 729 0004 00AF     		add	r7, sp, #0
 730              	.LCFI7:
 731              		.cfi_def_cfa_register 7
 732 0006 7860     		str	r0, [r7, #4]
 487:Drivers/STM32G4xx_HAL_Driver/Src/stm32g4xx_hal_rcc_ex.c ****   /* Set all possible values for the extended clock type parameter------------*/
 488:Drivers/STM32G4xx_HAL_Driver/Src/stm32g4xx_hal_rcc_ex.c **** 
 489:Drivers/STM32G4xx_HAL_Driver/Src/stm32g4xx_hal_rcc_ex.c **** #if defined(STM32G474xx) || defined(STM32G484xx)
 490:Drivers/STM32G4xx_HAL_Driver/Src/stm32g4xx_hal_rcc_ex.c **** 
 491:Drivers/STM32G4xx_HAL_Driver/Src/stm32g4xx_hal_rcc_ex.c ****   PeriphClkInit->PeriphClockSelection = RCC_PERIPHCLK_USART1  | RCC_PERIPHCLK_USART2 | RCC_PERIPHCL
 733              		.loc 1 491 39
 734 0008 7B68     		ldr	r3, [r7, #4]
 735 000a 4A4A     		ldr	r2, .L42
 736 000c 1A60     		str	r2, [r3]
 492:Drivers/STM32G4xx_HAL_Driver/Src/stm32g4xx_hal_rcc_ex.c ****                                         RCC_PERIPHCLK_UART5   | \
 493:Drivers/STM32G4xx_HAL_Driver/Src/stm32g4xx_hal_rcc_ex.c ****                                         RCC_PERIPHCLK_LPUART1 | RCC_PERIPHCLK_I2C1   | RCC_PERIPHCL
 494:Drivers/STM32G4xx_HAL_Driver/Src/stm32g4xx_hal_rcc_ex.c ****                                         RCC_PERIPHCLK_I2C4    | \
 495:Drivers/STM32G4xx_HAL_Driver/Src/stm32g4xx_hal_rcc_ex.c ****                                         RCC_PERIPHCLK_LPTIM1  | RCC_PERIPHCLK_SAI1   | RCC_PERIPHCL
 496:Drivers/STM32G4xx_HAL_Driver/Src/stm32g4xx_hal_rcc_ex.c ****                                         RCC_PERIPHCLK_RNG     | RCC_PERIPHCLK_USB    | RCC_PERIPHCL
 497:Drivers/STM32G4xx_HAL_Driver/Src/stm32g4xx_hal_rcc_ex.c ****                                         RCC_PERIPHCLK_QSPI    | \
 498:Drivers/STM32G4xx_HAL_Driver/Src/stm32g4xx_hal_rcc_ex.c ****                                         RCC_PERIPHCLK_RTC;
 499:Drivers/STM32G4xx_HAL_Driver/Src/stm32g4xx_hal_rcc_ex.c **** #elif defined(STM32G491xx) || defined(STM32G4A1xx)
 500:Drivers/STM32G4xx_HAL_Driver/Src/stm32g4xx_hal_rcc_ex.c **** 
 501:Drivers/STM32G4xx_HAL_Driver/Src/stm32g4xx_hal_rcc_ex.c ****   PeriphClkInit->PeriphClockSelection = RCC_PERIPHCLK_USART1  | RCC_PERIPHCLK_USART2 | RCC_PERIPHCL
 502:Drivers/STM32G4xx_HAL_Driver/Src/stm32g4xx_hal_rcc_ex.c ****                                         RCC_PERIPHCLK_UART5   | \
 503:Drivers/STM32G4xx_HAL_Driver/Src/stm32g4xx_hal_rcc_ex.c ****                                         RCC_PERIPHCLK_LPUART1 | RCC_PERIPHCLK_I2C1   | RCC_PERIPHCL
 504:Drivers/STM32G4xx_HAL_Driver/Src/stm32g4xx_hal_rcc_ex.c ****                                         RCC_PERIPHCLK_LPTIM1  | RCC_PERIPHCLK_SAI1   | RCC_PERIPHCL
 505:Drivers/STM32G4xx_HAL_Driver/Src/stm32g4xx_hal_rcc_ex.c ****                                         RCC_PERIPHCLK_RNG     | RCC_PERIPHCLK_USB    | RCC_PERIPHCL
 506:Drivers/STM32G4xx_HAL_Driver/Src/stm32g4xx_hal_rcc_ex.c ****                                         RCC_PERIPHCLK_QSPI    | \
 507:Drivers/STM32G4xx_HAL_Driver/Src/stm32g4xx_hal_rcc_ex.c ****                                         RCC_PERIPHCLK_RTC;
 508:Drivers/STM32G4xx_HAL_Driver/Src/stm32g4xx_hal_rcc_ex.c **** 
 509:Drivers/STM32G4xx_HAL_Driver/Src/stm32g4xx_hal_rcc_ex.c **** #elif defined(STM32G473xx) || defined(STM32G483xx)
 510:Drivers/STM32G4xx_HAL_Driver/Src/stm32g4xx_hal_rcc_ex.c **** 
 511:Drivers/STM32G4xx_HAL_Driver/Src/stm32g4xx_hal_rcc_ex.c ****   PeriphClkInit->PeriphClockSelection = RCC_PERIPHCLK_USART1  | RCC_PERIPHCLK_USART2 | RCC_PERIPHCL
 512:Drivers/STM32G4xx_HAL_Driver/Src/stm32g4xx_hal_rcc_ex.c ****                                         RCC_PERIPHCLK_UART5   | \
 513:Drivers/STM32G4xx_HAL_Driver/Src/stm32g4xx_hal_rcc_ex.c ****                                         RCC_PERIPHCLK_LPUART1 | RCC_PERIPHCLK_I2C1   | RCC_PERIPHCL
 514:Drivers/STM32G4xx_HAL_Driver/Src/stm32g4xx_hal_rcc_ex.c ****                                         RCC_PERIPHCLK_I2C4    | \
 515:Drivers/STM32G4xx_HAL_Driver/Src/stm32g4xx_hal_rcc_ex.c ****                                         RCC_PERIPHCLK_LPTIM1  | RCC_PERIPHCLK_SAI1   | RCC_PERIPHCL
 516:Drivers/STM32G4xx_HAL_Driver/Src/stm32g4xx_hal_rcc_ex.c ****                                         RCC_PERIPHCLK_RNG     | RCC_PERIPHCLK_USB    | RCC_PERIPHCL
ARM GAS  C:\Users\AURORA~1\AppData\Local\Temp\cc3nfJXy.s 			page 23


 517:Drivers/STM32G4xx_HAL_Driver/Src/stm32g4xx_hal_rcc_ex.c ****                                         RCC_PERIPHCLK_QSPI    | \
 518:Drivers/STM32G4xx_HAL_Driver/Src/stm32g4xx_hal_rcc_ex.c ****                                         RCC_PERIPHCLK_RTC;
 519:Drivers/STM32G4xx_HAL_Driver/Src/stm32g4xx_hal_rcc_ex.c **** 
 520:Drivers/STM32G4xx_HAL_Driver/Src/stm32g4xx_hal_rcc_ex.c **** #elif defined(STM32G471xx)
 521:Drivers/STM32G4xx_HAL_Driver/Src/stm32g4xx_hal_rcc_ex.c **** 
 522:Drivers/STM32G4xx_HAL_Driver/Src/stm32g4xx_hal_rcc_ex.c ****   PeriphClkInit->PeriphClockSelection = RCC_PERIPHCLK_USART1  | RCC_PERIPHCLK_USART2 | RCC_PERIPHCL
 523:Drivers/STM32G4xx_HAL_Driver/Src/stm32g4xx_hal_rcc_ex.c ****                                         RCC_PERIPHCLK_UART5   | \
 524:Drivers/STM32G4xx_HAL_Driver/Src/stm32g4xx_hal_rcc_ex.c ****                                         RCC_PERIPHCLK_LPUART1 | RCC_PERIPHCLK_I2C1   | RCC_PERIPHCL
 525:Drivers/STM32G4xx_HAL_Driver/Src/stm32g4xx_hal_rcc_ex.c ****                                         RCC_PERIPHCLK_I2C4    | \
 526:Drivers/STM32G4xx_HAL_Driver/Src/stm32g4xx_hal_rcc_ex.c ****                                         RCC_PERIPHCLK_LPTIM1  | RCC_PERIPHCLK_SAI1   | RCC_PERIPHCL
 527:Drivers/STM32G4xx_HAL_Driver/Src/stm32g4xx_hal_rcc_ex.c ****                                         RCC_PERIPHCLK_RNG     | RCC_PERIPHCLK_USB    | RCC_PERIPHCL
 528:Drivers/STM32G4xx_HAL_Driver/Src/stm32g4xx_hal_rcc_ex.c ****                                         RCC_PERIPHCLK_RTC;
 529:Drivers/STM32G4xx_HAL_Driver/Src/stm32g4xx_hal_rcc_ex.c **** #elif defined(STM32G431xx) || defined(STM32G441xx)
 530:Drivers/STM32G4xx_HAL_Driver/Src/stm32g4xx_hal_rcc_ex.c **** 
 531:Drivers/STM32G4xx_HAL_Driver/Src/stm32g4xx_hal_rcc_ex.c ****   PeriphClkInit->PeriphClockSelection = RCC_PERIPHCLK_USART1  | RCC_PERIPHCLK_USART2 | RCC_PERIPHCL
 532:Drivers/STM32G4xx_HAL_Driver/Src/stm32g4xx_hal_rcc_ex.c ****                                         RCC_PERIPHCLK_LPUART1 | RCC_PERIPHCLK_I2C1   | RCC_PERIPHCL
 533:Drivers/STM32G4xx_HAL_Driver/Src/stm32g4xx_hal_rcc_ex.c ****                                         RCC_PERIPHCLK_LPTIM1  | RCC_PERIPHCLK_SAI1   | RCC_PERIPHCL
 534:Drivers/STM32G4xx_HAL_Driver/Src/stm32g4xx_hal_rcc_ex.c ****                                         RCC_PERIPHCLK_RNG     | RCC_PERIPHCLK_USB    | RCC_PERIPHCL
 535:Drivers/STM32G4xx_HAL_Driver/Src/stm32g4xx_hal_rcc_ex.c ****                                         RCC_PERIPHCLK_RTC;
 536:Drivers/STM32G4xx_HAL_Driver/Src/stm32g4xx_hal_rcc_ex.c **** #elif defined(STM32GBK1CB)
 537:Drivers/STM32G4xx_HAL_Driver/Src/stm32g4xx_hal_rcc_ex.c **** 
 538:Drivers/STM32G4xx_HAL_Driver/Src/stm32g4xx_hal_rcc_ex.c ****   PeriphClkInit->PeriphClockSelection = RCC_PERIPHCLK_USART1  | RCC_PERIPHCLK_USART2 | RCC_PERIPHCL
 539:Drivers/STM32G4xx_HAL_Driver/Src/stm32g4xx_hal_rcc_ex.c ****                                         RCC_PERIPHCLK_LPUART1 | RCC_PERIPHCLK_I2C1   | RCC_PERIPHCL
 540:Drivers/STM32G4xx_HAL_Driver/Src/stm32g4xx_hal_rcc_ex.c ****                                         RCC_PERIPHCLK_LPTIM1  | RCC_PERIPHCLK_SAI1   | RCC_PERIPHCL
 541:Drivers/STM32G4xx_HAL_Driver/Src/stm32g4xx_hal_rcc_ex.c ****                                         RCC_PERIPHCLK_RNG     | RCC_PERIPHCLK_USB    | RCC_PERIPHCL
 542:Drivers/STM32G4xx_HAL_Driver/Src/stm32g4xx_hal_rcc_ex.c ****                                         RCC_PERIPHCLK_RTC;
 543:Drivers/STM32G4xx_HAL_Driver/Src/stm32g4xx_hal_rcc_ex.c **** 
 544:Drivers/STM32G4xx_HAL_Driver/Src/stm32g4xx_hal_rcc_ex.c **** #endif /* STM32G431xx */
 545:Drivers/STM32G4xx_HAL_Driver/Src/stm32g4xx_hal_rcc_ex.c **** 
 546:Drivers/STM32G4xx_HAL_Driver/Src/stm32g4xx_hal_rcc_ex.c **** 
 547:Drivers/STM32G4xx_HAL_Driver/Src/stm32g4xx_hal_rcc_ex.c ****   /* Get the USART1 clock source ---------------------------------------------*/
 548:Drivers/STM32G4xx_HAL_Driver/Src/stm32g4xx_hal_rcc_ex.c ****   PeriphClkInit->Usart1ClockSelection  = __HAL_RCC_GET_USART1_SOURCE();
 737              		.loc 1 548 42
 738 000e 4A4B     		ldr	r3, .L42+4
 739 0010 D3F88830 		ldr	r3, [r3, #136]
 740 0014 03F00302 		and	r2, r3, #3
 741              		.loc 1 548 40
 742 0018 7B68     		ldr	r3, [r7, #4]
 743 001a 5A60     		str	r2, [r3, #4]
 549:Drivers/STM32G4xx_HAL_Driver/Src/stm32g4xx_hal_rcc_ex.c ****   /* Get the USART2 clock source ---------------------------------------------*/
 550:Drivers/STM32G4xx_HAL_Driver/Src/stm32g4xx_hal_rcc_ex.c ****   PeriphClkInit->Usart2ClockSelection  = __HAL_RCC_GET_USART2_SOURCE();
 744              		.loc 1 550 42
 745 001c 464B     		ldr	r3, .L42+4
 746 001e D3F88830 		ldr	r3, [r3, #136]
 747 0022 03F00C02 		and	r2, r3, #12
 748              		.loc 1 550 40
 749 0026 7B68     		ldr	r3, [r7, #4]
 750 0028 9A60     		str	r2, [r3, #8]
 551:Drivers/STM32G4xx_HAL_Driver/Src/stm32g4xx_hal_rcc_ex.c ****   /* Get the USART3 clock source ---------------------------------------------*/
 552:Drivers/STM32G4xx_HAL_Driver/Src/stm32g4xx_hal_rcc_ex.c ****   PeriphClkInit->Usart3ClockSelection  = __HAL_RCC_GET_USART3_SOURCE();
 751              		.loc 1 552 42
 752 002a 434B     		ldr	r3, .L42+4
 753 002c D3F88830 		ldr	r3, [r3, #136]
 754 0030 03F03002 		and	r2, r3, #48
 755              		.loc 1 552 40
 756 0034 7B68     		ldr	r3, [r7, #4]
 757 0036 DA60     		str	r2, [r3, #12]
ARM GAS  C:\Users\AURORA~1\AppData\Local\Temp\cc3nfJXy.s 			page 24


 553:Drivers/STM32G4xx_HAL_Driver/Src/stm32g4xx_hal_rcc_ex.c **** 
 554:Drivers/STM32G4xx_HAL_Driver/Src/stm32g4xx_hal_rcc_ex.c **** #if defined(UART4)
 555:Drivers/STM32G4xx_HAL_Driver/Src/stm32g4xx_hal_rcc_ex.c ****   /* Get the UART4 clock source ----------------------------------------------*/
 556:Drivers/STM32G4xx_HAL_Driver/Src/stm32g4xx_hal_rcc_ex.c ****   PeriphClkInit->Uart4ClockSelection   = __HAL_RCC_GET_UART4_SOURCE();
 758              		.loc 1 556 42
 759 0038 3F4B     		ldr	r3, .L42+4
 760 003a D3F88830 		ldr	r3, [r3, #136]
 761 003e 03F0C002 		and	r2, r3, #192
 762              		.loc 1 556 40
 763 0042 7B68     		ldr	r3, [r7, #4]
 764 0044 1A61     		str	r2, [r3, #16]
 557:Drivers/STM32G4xx_HAL_Driver/Src/stm32g4xx_hal_rcc_ex.c **** #endif /* UART4 */
 558:Drivers/STM32G4xx_HAL_Driver/Src/stm32g4xx_hal_rcc_ex.c **** 
 559:Drivers/STM32G4xx_HAL_Driver/Src/stm32g4xx_hal_rcc_ex.c **** #if defined(UART5)
 560:Drivers/STM32G4xx_HAL_Driver/Src/stm32g4xx_hal_rcc_ex.c ****   /* Get the UART5 clock source ----------------------------------------------*/
 561:Drivers/STM32G4xx_HAL_Driver/Src/stm32g4xx_hal_rcc_ex.c ****   PeriphClkInit->Uart5ClockSelection   = __HAL_RCC_GET_UART5_SOURCE();
 765              		.loc 1 561 42
 766 0046 3C4B     		ldr	r3, .L42+4
 767 0048 D3F88830 		ldr	r3, [r3, #136]
 768 004c 03F44072 		and	r2, r3, #768
 769              		.loc 1 561 40
 770 0050 7B68     		ldr	r3, [r7, #4]
 771 0052 5A61     		str	r2, [r3, #20]
 562:Drivers/STM32G4xx_HAL_Driver/Src/stm32g4xx_hal_rcc_ex.c **** #endif /* UART5 */
 563:Drivers/STM32G4xx_HAL_Driver/Src/stm32g4xx_hal_rcc_ex.c ****   
 564:Drivers/STM32G4xx_HAL_Driver/Src/stm32g4xx_hal_rcc_ex.c ****   /* Get the LPUART1 clock source --------------------------------------------*/
 565:Drivers/STM32G4xx_HAL_Driver/Src/stm32g4xx_hal_rcc_ex.c ****   PeriphClkInit->Lpuart1ClockSelection = __HAL_RCC_GET_LPUART1_SOURCE();
 772              		.loc 1 565 42
 773 0054 384B     		ldr	r3, .L42+4
 774 0056 D3F88830 		ldr	r3, [r3, #136]
 775 005a 03F44062 		and	r2, r3, #3072
 776              		.loc 1 565 40
 777 005e 7B68     		ldr	r3, [r7, #4]
 778 0060 9A61     		str	r2, [r3, #24]
 566:Drivers/STM32G4xx_HAL_Driver/Src/stm32g4xx_hal_rcc_ex.c **** 
 567:Drivers/STM32G4xx_HAL_Driver/Src/stm32g4xx_hal_rcc_ex.c ****   /* Get the I2C1 clock source -----------------------------------------------*/
 568:Drivers/STM32G4xx_HAL_Driver/Src/stm32g4xx_hal_rcc_ex.c ****   PeriphClkInit->I2c1ClockSelection    = __HAL_RCC_GET_I2C1_SOURCE();
 779              		.loc 1 568 42
 780 0062 354B     		ldr	r3, .L42+4
 781 0064 D3F88830 		ldr	r3, [r3, #136]
 782 0068 03F44052 		and	r2, r3, #12288
 783              		.loc 1 568 40
 784 006c 7B68     		ldr	r3, [r7, #4]
 785 006e DA61     		str	r2, [r3, #28]
 569:Drivers/STM32G4xx_HAL_Driver/Src/stm32g4xx_hal_rcc_ex.c **** 
 570:Drivers/STM32G4xx_HAL_Driver/Src/stm32g4xx_hal_rcc_ex.c ****   /* Get the I2C2 clock source ----------------------------------------------*/
 571:Drivers/STM32G4xx_HAL_Driver/Src/stm32g4xx_hal_rcc_ex.c ****   PeriphClkInit->I2c2ClockSelection    = __HAL_RCC_GET_I2C2_SOURCE();
 786              		.loc 1 571 42
 787 0070 314B     		ldr	r3, .L42+4
 788 0072 D3F88830 		ldr	r3, [r3, #136]
 789 0076 03F44042 		and	r2, r3, #49152
 790              		.loc 1 571 40
 791 007a 7B68     		ldr	r3, [r7, #4]
 792 007c 1A62     		str	r2, [r3, #32]
 572:Drivers/STM32G4xx_HAL_Driver/Src/stm32g4xx_hal_rcc_ex.c **** 
 573:Drivers/STM32G4xx_HAL_Driver/Src/stm32g4xx_hal_rcc_ex.c ****   /* Get the I2C3 clock source -----------------------------------------------*/
 574:Drivers/STM32G4xx_HAL_Driver/Src/stm32g4xx_hal_rcc_ex.c ****   PeriphClkInit->I2c3ClockSelection    = __HAL_RCC_GET_I2C3_SOURCE();
ARM GAS  C:\Users\AURORA~1\AppData\Local\Temp\cc3nfJXy.s 			page 25


 793              		.loc 1 574 42
 794 007e 2E4B     		ldr	r3, .L42+4
 795 0080 D3F88830 		ldr	r3, [r3, #136]
 796 0084 03F44032 		and	r2, r3, #196608
 797              		.loc 1 574 40
 798 0088 7B68     		ldr	r3, [r7, #4]
 799 008a 5A62     		str	r2, [r3, #36]
 575:Drivers/STM32G4xx_HAL_Driver/Src/stm32g4xx_hal_rcc_ex.c **** 
 576:Drivers/STM32G4xx_HAL_Driver/Src/stm32g4xx_hal_rcc_ex.c **** #if defined(I2C4)
 577:Drivers/STM32G4xx_HAL_Driver/Src/stm32g4xx_hal_rcc_ex.c ****   /* Get the I2C4 clock source -----------------------------------------------*/
 578:Drivers/STM32G4xx_HAL_Driver/Src/stm32g4xx_hal_rcc_ex.c ****   PeriphClkInit->I2c4ClockSelection    = __HAL_RCC_GET_I2C4_SOURCE();
 800              		.loc 1 578 42
 801 008c 2A4B     		ldr	r3, .L42+4
 802 008e D3F89C30 		ldr	r3, [r3, #156]
 803 0092 03F00302 		and	r2, r3, #3
 804              		.loc 1 578 40
 805 0096 7B68     		ldr	r3, [r7, #4]
 806 0098 9A62     		str	r2, [r3, #40]
 579:Drivers/STM32G4xx_HAL_Driver/Src/stm32g4xx_hal_rcc_ex.c **** #endif /* I2C4 */
 580:Drivers/STM32G4xx_HAL_Driver/Src/stm32g4xx_hal_rcc_ex.c **** 
 581:Drivers/STM32G4xx_HAL_Driver/Src/stm32g4xx_hal_rcc_ex.c ****   /* Get the LPTIM1 clock source ---------------------------------------------*/
 582:Drivers/STM32G4xx_HAL_Driver/Src/stm32g4xx_hal_rcc_ex.c ****   PeriphClkInit->Lptim1ClockSelection  = __HAL_RCC_GET_LPTIM1_SOURCE();
 807              		.loc 1 582 42
 808 009a 274B     		ldr	r3, .L42+4
 809 009c D3F88830 		ldr	r3, [r3, #136]
 810 00a0 03F44022 		and	r2, r3, #786432
 811              		.loc 1 582 40
 812 00a4 7B68     		ldr	r3, [r7, #4]
 813 00a6 DA62     		str	r2, [r3, #44]
 583:Drivers/STM32G4xx_HAL_Driver/Src/stm32g4xx_hal_rcc_ex.c **** 
 584:Drivers/STM32G4xx_HAL_Driver/Src/stm32g4xx_hal_rcc_ex.c ****   /* Get the SAI1 clock source -----------------------------------------------*/
 585:Drivers/STM32G4xx_HAL_Driver/Src/stm32g4xx_hal_rcc_ex.c ****   PeriphClkInit->Sai1ClockSelection    = __HAL_RCC_GET_SAI1_SOURCE();
 814              		.loc 1 585 42
 815 00a8 234B     		ldr	r3, .L42+4
 816 00aa D3F88830 		ldr	r3, [r3, #136]
 817 00ae 03F44012 		and	r2, r3, #3145728
 818              		.loc 1 585 40
 819 00b2 7B68     		ldr	r3, [r7, #4]
 820 00b4 1A63     		str	r2, [r3, #48]
 586:Drivers/STM32G4xx_HAL_Driver/Src/stm32g4xx_hal_rcc_ex.c **** 
 587:Drivers/STM32G4xx_HAL_Driver/Src/stm32g4xx_hal_rcc_ex.c ****   /* Get the I2S clock source -----------------------------------------------*/
 588:Drivers/STM32G4xx_HAL_Driver/Src/stm32g4xx_hal_rcc_ex.c ****   PeriphClkInit->I2sClockSelection    = __HAL_RCC_GET_I2S_SOURCE();
 821              		.loc 1 588 41
 822 00b6 204B     		ldr	r3, .L42+4
 823 00b8 D3F88830 		ldr	r3, [r3, #136]
 824 00bc 03F44002 		and	r2, r3, #12582912
 825              		.loc 1 588 39
 826 00c0 7B68     		ldr	r3, [r7, #4]
 827 00c2 5A63     		str	r2, [r3, #52]
 589:Drivers/STM32G4xx_HAL_Driver/Src/stm32g4xx_hal_rcc_ex.c **** 
 590:Drivers/STM32G4xx_HAL_Driver/Src/stm32g4xx_hal_rcc_ex.c **** #if defined(FDCAN1)
 591:Drivers/STM32G4xx_HAL_Driver/Src/stm32g4xx_hal_rcc_ex.c ****   /* Get the FDCAN clock source -----------------------------------------------*/
 592:Drivers/STM32G4xx_HAL_Driver/Src/stm32g4xx_hal_rcc_ex.c ****   PeriphClkInit->FdcanClockSelection    = __HAL_RCC_GET_FDCAN_SOURCE();
 828              		.loc 1 592 43
 829 00c4 1C4B     		ldr	r3, .L42+4
 830 00c6 D3F88830 		ldr	r3, [r3, #136]
 831 00ca 03F04072 		and	r2, r3, #50331648
ARM GAS  C:\Users\AURORA~1\AppData\Local\Temp\cc3nfJXy.s 			page 26


 832              		.loc 1 592 41
 833 00ce 7B68     		ldr	r3, [r7, #4]
 834 00d0 9A63     		str	r2, [r3, #56]
 593:Drivers/STM32G4xx_HAL_Driver/Src/stm32g4xx_hal_rcc_ex.c **** #endif /* FDCAN1 */
 594:Drivers/STM32G4xx_HAL_Driver/Src/stm32g4xx_hal_rcc_ex.c **** 
 595:Drivers/STM32G4xx_HAL_Driver/Src/stm32g4xx_hal_rcc_ex.c **** #if defined(USB)
 596:Drivers/STM32G4xx_HAL_Driver/Src/stm32g4xx_hal_rcc_ex.c ****   /* Get the USB clock source ------------------------------------------------*/
 597:Drivers/STM32G4xx_HAL_Driver/Src/stm32g4xx_hal_rcc_ex.c ****   PeriphClkInit->UsbClockSelection   = __HAL_RCC_GET_USB_SOURCE();
 835              		.loc 1 597 40
 836 00d2 194B     		ldr	r3, .L42+4
 837 00d4 D3F88830 		ldr	r3, [r3, #136]
 838 00d8 03F04062 		and	r2, r3, #201326592
 839              		.loc 1 597 38
 840 00dc 7B68     		ldr	r3, [r7, #4]
 841 00de DA63     		str	r2, [r3, #60]
 598:Drivers/STM32G4xx_HAL_Driver/Src/stm32g4xx_hal_rcc_ex.c **** #endif /* USB */
 599:Drivers/STM32G4xx_HAL_Driver/Src/stm32g4xx_hal_rcc_ex.c **** 
 600:Drivers/STM32G4xx_HAL_Driver/Src/stm32g4xx_hal_rcc_ex.c ****   /* Get the RNG clock source ------------------------------------------------*/
 601:Drivers/STM32G4xx_HAL_Driver/Src/stm32g4xx_hal_rcc_ex.c ****   PeriphClkInit->RngClockSelection   = __HAL_RCC_GET_RNG_SOURCE();
 842              		.loc 1 601 40
 843 00e0 154B     		ldr	r3, .L42+4
 844 00e2 D3F88830 		ldr	r3, [r3, #136]
 845 00e6 03F04062 		and	r2, r3, #201326592
 846              		.loc 1 601 38
 847 00ea 7B68     		ldr	r3, [r7, #4]
 848 00ec 1A64     		str	r2, [r3, #64]
 602:Drivers/STM32G4xx_HAL_Driver/Src/stm32g4xx_hal_rcc_ex.c **** 
 603:Drivers/STM32G4xx_HAL_Driver/Src/stm32g4xx_hal_rcc_ex.c ****   /* Get the ADC12 clock source -----------------------------------------------*/
 604:Drivers/STM32G4xx_HAL_Driver/Src/stm32g4xx_hal_rcc_ex.c ****   PeriphClkInit->Adc12ClockSelection     = __HAL_RCC_GET_ADC12_SOURCE();
 849              		.loc 1 604 44
 850 00ee 124B     		ldr	r3, .L42+4
 851 00f0 D3F88830 		ldr	r3, [r3, #136]
 852 00f4 03F04052 		and	r2, r3, #805306368
 853              		.loc 1 604 42
 854 00f8 7B68     		ldr	r3, [r7, #4]
 855 00fa 5A64     		str	r2, [r3, #68]
 605:Drivers/STM32G4xx_HAL_Driver/Src/stm32g4xx_hal_rcc_ex.c **** 
 606:Drivers/STM32G4xx_HAL_Driver/Src/stm32g4xx_hal_rcc_ex.c **** #if defined(ADC345_COMMON)
 607:Drivers/STM32G4xx_HAL_Driver/Src/stm32g4xx_hal_rcc_ex.c ****   /* Get the ADC345 clock source ----------------------------------------------*/
 608:Drivers/STM32G4xx_HAL_Driver/Src/stm32g4xx_hal_rcc_ex.c ****   PeriphClkInit->Adc345ClockSelection     = __HAL_RCC_GET_ADC345_SOURCE();
 856              		.loc 1 608 45
 857 00fc 0E4B     		ldr	r3, .L42+4
 858 00fe D3F88830 		ldr	r3, [r3, #136]
 859 0102 03F04042 		and	r2, r3, #-1073741824
 860              		.loc 1 608 43
 861 0106 7B68     		ldr	r3, [r7, #4]
 862 0108 9A64     		str	r2, [r3, #72]
 609:Drivers/STM32G4xx_HAL_Driver/Src/stm32g4xx_hal_rcc_ex.c **** #endif /* ADC345_COMMON */
 610:Drivers/STM32G4xx_HAL_Driver/Src/stm32g4xx_hal_rcc_ex.c **** 
 611:Drivers/STM32G4xx_HAL_Driver/Src/stm32g4xx_hal_rcc_ex.c **** #if defined(QUADSPI)
 612:Drivers/STM32G4xx_HAL_Driver/Src/stm32g4xx_hal_rcc_ex.c ****   /* Get the QuadSPIclock source --------------------------------------------*/
 613:Drivers/STM32G4xx_HAL_Driver/Src/stm32g4xx_hal_rcc_ex.c ****   PeriphClkInit->QspiClockSelection = __HAL_RCC_GET_QSPI_SOURCE();
 863              		.loc 1 613 39
 864 010a 0B4B     		ldr	r3, .L42+4
 865 010c D3F89C30 		ldr	r3, [r3, #156]
 866 0110 03F44012 		and	r2, r3, #3145728
 867              		.loc 1 613 37
ARM GAS  C:\Users\AURORA~1\AppData\Local\Temp\cc3nfJXy.s 			page 27


 868 0114 7B68     		ldr	r3, [r7, #4]
 869 0116 DA64     		str	r2, [r3, #76]
 614:Drivers/STM32G4xx_HAL_Driver/Src/stm32g4xx_hal_rcc_ex.c **** #endif /* QUADSPI */
 615:Drivers/STM32G4xx_HAL_Driver/Src/stm32g4xx_hal_rcc_ex.c **** 
 616:Drivers/STM32G4xx_HAL_Driver/Src/stm32g4xx_hal_rcc_ex.c ****   /* Get the RTC clock source ------------------------------------------------*/
 617:Drivers/STM32G4xx_HAL_Driver/Src/stm32g4xx_hal_rcc_ex.c ****   PeriphClkInit->RTCClockSelection     = __HAL_RCC_GET_RTC_SOURCE();
 870              		.loc 1 617 42
 871 0118 074B     		ldr	r3, .L42+4
 872 011a D3F89030 		ldr	r3, [r3, #144]
 873 011e 03F44072 		and	r2, r3, #768
 874              		.loc 1 617 40
 875 0122 7B68     		ldr	r3, [r7, #4]
 876 0124 1A65     		str	r2, [r3, #80]
 618:Drivers/STM32G4xx_HAL_Driver/Src/stm32g4xx_hal_rcc_ex.c **** 
 619:Drivers/STM32G4xx_HAL_Driver/Src/stm32g4xx_hal_rcc_ex.c **** }
 877              		.loc 1 619 1
 878 0126 00BF     		nop
 879 0128 0C37     		adds	r7, r7, #12
 880              	.LCFI8:
 881              		.cfi_def_cfa_offset 4
 882 012a BD46     		mov	sp, r7
 883              	.LCFI9:
 884              		.cfi_def_cfa_register 13
 885              		@ sp needed
 886 012c 5DF8047B 		ldr	r7, [sp], #4
 887              	.LCFI10:
 888              		.cfi_restore 7
 889              		.cfi_def_cfa_offset 0
 890 0130 7047     		bx	lr
 891              	.L43:
 892 0132 00BF     		.align	2
 893              	.L42:
 894 0134 FFFF0F00 		.word	1048575
 895 0138 00100240 		.word	1073876992
 896              		.cfi_endproc
 897              	.LFE133:
 899              		.section	.text.HAL_RCCEx_GetPeriphCLKFreq,"ax",%progbits
 900              		.align	1
 901              		.global	HAL_RCCEx_GetPeriphCLKFreq
 902              		.syntax unified
 903              		.thumb
 904              		.thumb_func
 906              	HAL_RCCEx_GetPeriphCLKFreq:
 907              	.LFB134:
 620:Drivers/STM32G4xx_HAL_Driver/Src/stm32g4xx_hal_rcc_ex.c **** 
 621:Drivers/STM32G4xx_HAL_Driver/Src/stm32g4xx_hal_rcc_ex.c **** /**
 622:Drivers/STM32G4xx_HAL_Driver/Src/stm32g4xx_hal_rcc_ex.c ****   * @brief  Return the peripheral clock frequency for peripherals with clock source from PLL
 623:Drivers/STM32G4xx_HAL_Driver/Src/stm32g4xx_hal_rcc_ex.c ****   * @note   Return 0 if peripheral clock identifier not managed by this API
 624:Drivers/STM32G4xx_HAL_Driver/Src/stm32g4xx_hal_rcc_ex.c ****   * @param  PeriphClk  Peripheral clock identifier
 625:Drivers/STM32G4xx_HAL_Driver/Src/stm32g4xx_hal_rcc_ex.c ****   *         This parameter can be one of the following values:
 626:Drivers/STM32G4xx_HAL_Driver/Src/stm32g4xx_hal_rcc_ex.c ****   *            @arg @ref RCC_PERIPHCLK_USART1  USART1 peripheral clock
 627:Drivers/STM32G4xx_HAL_Driver/Src/stm32g4xx_hal_rcc_ex.c ****   *            @arg @ref RCC_PERIPHCLK_USART2  USART2 peripheral clock
 628:Drivers/STM32G4xx_HAL_Driver/Src/stm32g4xx_hal_rcc_ex.c ****   *            @arg @ref RCC_PERIPHCLK_USART3  USART3 peripheral clock
 629:Drivers/STM32G4xx_HAL_Driver/Src/stm32g4xx_hal_rcc_ex.c ****   *            @arg @ref RCC_PERIPHCLK_UART4  UART4 peripheral clock (only for devices with UART4)
 630:Drivers/STM32G4xx_HAL_Driver/Src/stm32g4xx_hal_rcc_ex.c ****   *            @arg @ref RCC_PERIPHCLK_UART5  UART5 peripheral clock (only for devices with UART5)
 631:Drivers/STM32G4xx_HAL_Driver/Src/stm32g4xx_hal_rcc_ex.c ****   *            @arg @ref RCC_PERIPHCLK_LPUART1  LPUART1 peripheral clock
 632:Drivers/STM32G4xx_HAL_Driver/Src/stm32g4xx_hal_rcc_ex.c ****   *            @arg @ref RCC_PERIPHCLK_I2C1  I2C1 peripheral clock
ARM GAS  C:\Users\AURORA~1\AppData\Local\Temp\cc3nfJXy.s 			page 28


 633:Drivers/STM32G4xx_HAL_Driver/Src/stm32g4xx_hal_rcc_ex.c ****   *            @arg @ref RCC_PERIPHCLK_I2C2  I2C2 peripheral clock
 634:Drivers/STM32G4xx_HAL_Driver/Src/stm32g4xx_hal_rcc_ex.c ****   *            @arg @ref RCC_PERIPHCLK_I2C3  I2C3 peripheral clock
 635:Drivers/STM32G4xx_HAL_Driver/Src/stm32g4xx_hal_rcc_ex.c ****   *            @arg @ref RCC_PERIPHCLK_I2C4  I2C4 peripheral clock (only for devices with I2C4)
 636:Drivers/STM32G4xx_HAL_Driver/Src/stm32g4xx_hal_rcc_ex.c ****   *            @arg @ref RCC_PERIPHCLK_LPTIM1  LPTIM1 peripheral clock
 637:Drivers/STM32G4xx_HAL_Driver/Src/stm32g4xx_hal_rcc_ex.c ****   *            @arg @ref RCC_PERIPHCLK_SAI1  SAI1 peripheral clock
 638:Drivers/STM32G4xx_HAL_Driver/Src/stm32g4xx_hal_rcc_ex.c ****   *            @arg @ref RCC_PERIPHCLK_I2S  SPI peripheral clock
 639:Drivers/STM32G4xx_HAL_Driver/Src/stm32g4xx_hal_rcc_ex.c ****   *            @arg @ref RCC_PERIPHCLK_FDCAN  FDCAN peripheral clock (only for devices with FDCAN)
 640:Drivers/STM32G4xx_HAL_Driver/Src/stm32g4xx_hal_rcc_ex.c ****   *            @arg @ref RCC_PERIPHCLK_RNG  RNG peripheral clock
 641:Drivers/STM32G4xx_HAL_Driver/Src/stm32g4xx_hal_rcc_ex.c ****   *            @arg @ref RCC_PERIPHCLK_USB  USB peripheral clock (only for devices with USB)
 642:Drivers/STM32G4xx_HAL_Driver/Src/stm32g4xx_hal_rcc_ex.c ****   *            @arg @ref RCC_PERIPHCLK_ADC12  ADC1 and ADC2 peripheral clock
 643:Drivers/STM32G4xx_HAL_Driver/Src/stm32g4xx_hal_rcc_ex.c ****   *            @arg @ref RCC_PERIPHCLK_ADC345  ADC3, ADC4 and ADC5 peripheral clock (only for devic
 644:Drivers/STM32G4xx_HAL_Driver/Src/stm32g4xx_hal_rcc_ex.c ****   *            @arg @ref RCC_PERIPHCLK_QSPI  QSPI peripheral clock (only for devices with QSPI)
 645:Drivers/STM32G4xx_HAL_Driver/Src/stm32g4xx_hal_rcc_ex.c ****   *            @arg @ref RCC_PERIPHCLK_RTC  RTC peripheral clock
 646:Drivers/STM32G4xx_HAL_Driver/Src/stm32g4xx_hal_rcc_ex.c ****   * @retval Frequency in Hz
 647:Drivers/STM32G4xx_HAL_Driver/Src/stm32g4xx_hal_rcc_ex.c ****   */
 648:Drivers/STM32G4xx_HAL_Driver/Src/stm32g4xx_hal_rcc_ex.c **** uint32_t HAL_RCCEx_GetPeriphCLKFreq(uint32_t PeriphClk)
 649:Drivers/STM32G4xx_HAL_Driver/Src/stm32g4xx_hal_rcc_ex.c **** {
 908              		.loc 1 649 1
 909              		.cfi_startproc
 910              		@ args = 0, pretend = 0, frame = 32
 911              		@ frame_needed = 1, uses_anonymous_args = 0
 912 0000 80B5     		push	{r7, lr}
 913              	.LCFI11:
 914              		.cfi_def_cfa_offset 8
 915              		.cfi_offset 7, -8
 916              		.cfi_offset 14, -4
 917 0002 88B0     		sub	sp, sp, #32
 918              	.LCFI12:
 919              		.cfi_def_cfa_offset 40
 920 0004 00AF     		add	r7, sp, #0
 921              	.LCFI13:
 922              		.cfi_def_cfa_register 7
 923 0006 7860     		str	r0, [r7, #4]
 650:Drivers/STM32G4xx_HAL_Driver/Src/stm32g4xx_hal_rcc_ex.c ****   uint32_t frequency = 0U;
 924              		.loc 1 650 12
 925 0008 0023     		movs	r3, #0
 926 000a FB61     		str	r3, [r7, #28]
 651:Drivers/STM32G4xx_HAL_Driver/Src/stm32g4xx_hal_rcc_ex.c ****   uint32_t srcclk;
 652:Drivers/STM32G4xx_HAL_Driver/Src/stm32g4xx_hal_rcc_ex.c ****   uint32_t pllvco, plln, pllp;
 653:Drivers/STM32G4xx_HAL_Driver/Src/stm32g4xx_hal_rcc_ex.c **** 
 654:Drivers/STM32G4xx_HAL_Driver/Src/stm32g4xx_hal_rcc_ex.c ****   /* Check the parameters */
 655:Drivers/STM32G4xx_HAL_Driver/Src/stm32g4xx_hal_rcc_ex.c ****   assert_param(IS_RCC_PERIPHCLOCK(PeriphClk));
 656:Drivers/STM32G4xx_HAL_Driver/Src/stm32g4xx_hal_rcc_ex.c **** 
 657:Drivers/STM32G4xx_HAL_Driver/Src/stm32g4xx_hal_rcc_ex.c ****   if(PeriphClk == RCC_PERIPHCLK_RTC)
 927              		.loc 1 657 5
 928 000c 7B68     		ldr	r3, [r7, #4]
 929 000e B3F5002F 		cmp	r3, #524288
 930 0012 36D1     		bne	.L45
 658:Drivers/STM32G4xx_HAL_Driver/Src/stm32g4xx_hal_rcc_ex.c ****   {
 659:Drivers/STM32G4xx_HAL_Driver/Src/stm32g4xx_hal_rcc_ex.c ****     /* Get the current RTC source */
 660:Drivers/STM32G4xx_HAL_Driver/Src/stm32g4xx_hal_rcc_ex.c ****     srcclk = __HAL_RCC_GET_RTC_SOURCE();
 931              		.loc 1 660 14
 932 0014 B14B     		ldr	r3, .L165
 933 0016 D3F89030 		ldr	r3, [r3, #144]
 934              		.loc 1 660 12
 935 001a 03F44073 		and	r3, r3, #768
 936 001e 3B61     		str	r3, [r7, #16]
ARM GAS  C:\Users\AURORA~1\AppData\Local\Temp\cc3nfJXy.s 			page 29


 661:Drivers/STM32G4xx_HAL_Driver/Src/stm32g4xx_hal_rcc_ex.c **** 
 662:Drivers/STM32G4xx_HAL_Driver/Src/stm32g4xx_hal_rcc_ex.c ****     /* Check if LSE is ready and if RTC clock selection is LSE */
 663:Drivers/STM32G4xx_HAL_Driver/Src/stm32g4xx_hal_rcc_ex.c ****     if ((HAL_IS_BIT_SET(RCC->BDCR, RCC_BDCR_LSERDY)) && (srcclk == RCC_RTCCLKSOURCE_LSE))
 937              		.loc 1 663 10
 938 0020 AE4B     		ldr	r3, .L165
 939 0022 D3F89030 		ldr	r3, [r3, #144]
 940 0026 03F00203 		and	r3, r3, #2
 941              		.loc 1 663 8
 942 002a 022B     		cmp	r3, #2
 943 002c 08D1     		bne	.L46
 944              		.loc 1 663 54 discriminator 1
 945 002e 3B69     		ldr	r3, [r7, #16]
 946 0030 B3F5807F 		cmp	r3, #256
 947 0034 04D1     		bne	.L46
 664:Drivers/STM32G4xx_HAL_Driver/Src/stm32g4xx_hal_rcc_ex.c ****     {
 665:Drivers/STM32G4xx_HAL_Driver/Src/stm32g4xx_hal_rcc_ex.c ****       frequency = LSE_VALUE;
 948              		.loc 1 665 17
 949 0036 4FF40043 		mov	r3, #32768
 950 003a FB61     		str	r3, [r7, #28]
 951 003c 00F012BD 		b	.L49
 952              	.L46:
 666:Drivers/STM32G4xx_HAL_Driver/Src/stm32g4xx_hal_rcc_ex.c ****     }
 667:Drivers/STM32G4xx_HAL_Driver/Src/stm32g4xx_hal_rcc_ex.c ****     /* Check if LSI is ready and if RTC clock selection is LSI */
 668:Drivers/STM32G4xx_HAL_Driver/Src/stm32g4xx_hal_rcc_ex.c ****     else if ((HAL_IS_BIT_SET(RCC->CSR, RCC_CSR_LSIRDY)) && (srcclk == RCC_RTCCLKSOURCE_LSI))
 953              		.loc 1 668 15
 954 0040 A64B     		ldr	r3, .L165
 955 0042 D3F89430 		ldr	r3, [r3, #148]
 956 0046 03F00203 		and	r3, r3, #2
 957              		.loc 1 668 13
 958 004a 022B     		cmp	r3, #2
 959 004c 08D1     		bne	.L48
 960              		.loc 1 668 57 discriminator 1
 961 004e 3B69     		ldr	r3, [r7, #16]
 962 0050 B3F5007F 		cmp	r3, #512
 963 0054 04D1     		bne	.L48
 669:Drivers/STM32G4xx_HAL_Driver/Src/stm32g4xx_hal_rcc_ex.c ****     {
 670:Drivers/STM32G4xx_HAL_Driver/Src/stm32g4xx_hal_rcc_ex.c ****       frequency = LSI_VALUE;
 964              		.loc 1 670 17
 965 0056 4FF4FA43 		mov	r3, #32000
 966 005a FB61     		str	r3, [r7, #28]
 967 005c 00F002BD 		b	.L49
 968              	.L48:
 671:Drivers/STM32G4xx_HAL_Driver/Src/stm32g4xx_hal_rcc_ex.c ****     }
 672:Drivers/STM32G4xx_HAL_Driver/Src/stm32g4xx_hal_rcc_ex.c ****     /* Check if HSE is ready  and if RTC clock selection is HSI_DIV32*/
 673:Drivers/STM32G4xx_HAL_Driver/Src/stm32g4xx_hal_rcc_ex.c ****     else if ((HAL_IS_BIT_SET(RCC->CR, RCC_CR_HSERDY)) && (srcclk == RCC_RTCCLKSOURCE_HSE_DIV32))
 969              		.loc 1 673 15
 970 0060 9E4B     		ldr	r3, .L165
 971 0062 1B68     		ldr	r3, [r3]
 972 0064 03F40033 		and	r3, r3, #131072
 973              		.loc 1 673 13
 974 0068 B3F5003F 		cmp	r3, #131072
 975 006c 40F0FA84 		bne	.L49
 976              		.loc 1 673 55 discriminator 1
 977 0070 3B69     		ldr	r3, [r7, #16]
 978 0072 B3F5407F 		cmp	r3, #768
 979 0076 40F0F584 		bne	.L49
 674:Drivers/STM32G4xx_HAL_Driver/Src/stm32g4xx_hal_rcc_ex.c ****     {
ARM GAS  C:\Users\AURORA~1\AppData\Local\Temp\cc3nfJXy.s 			page 30


 675:Drivers/STM32G4xx_HAL_Driver/Src/stm32g4xx_hal_rcc_ex.c ****       frequency = HSE_VALUE / 32U;
 980              		.loc 1 675 17
 981 007a 994B     		ldr	r3, .L165+4
 982 007c FB61     		str	r3, [r7, #28]
 983 007e 00F0F1BC 		b	.L49
 984              	.L45:
 676:Drivers/STM32G4xx_HAL_Driver/Src/stm32g4xx_hal_rcc_ex.c ****     }
 677:Drivers/STM32G4xx_HAL_Driver/Src/stm32g4xx_hal_rcc_ex.c ****     /* Clock not enabled for RTC*/
 678:Drivers/STM32G4xx_HAL_Driver/Src/stm32g4xx_hal_rcc_ex.c ****     else
 679:Drivers/STM32G4xx_HAL_Driver/Src/stm32g4xx_hal_rcc_ex.c ****     {
 680:Drivers/STM32G4xx_HAL_Driver/Src/stm32g4xx_hal_rcc_ex.c ****       /* nothing to do: frequency already initialized to 0 */
 681:Drivers/STM32G4xx_HAL_Driver/Src/stm32g4xx_hal_rcc_ex.c ****     }
 682:Drivers/STM32G4xx_HAL_Driver/Src/stm32g4xx_hal_rcc_ex.c ****   }
 683:Drivers/STM32G4xx_HAL_Driver/Src/stm32g4xx_hal_rcc_ex.c ****   else
 684:Drivers/STM32G4xx_HAL_Driver/Src/stm32g4xx_hal_rcc_ex.c ****   {
 685:Drivers/STM32G4xx_HAL_Driver/Src/stm32g4xx_hal_rcc_ex.c ****     /* Other external peripheral clock source than RTC */
 686:Drivers/STM32G4xx_HAL_Driver/Src/stm32g4xx_hal_rcc_ex.c **** 
 687:Drivers/STM32G4xx_HAL_Driver/Src/stm32g4xx_hal_rcc_ex.c ****     /* Compute PLL clock input */
 688:Drivers/STM32G4xx_HAL_Driver/Src/stm32g4xx_hal_rcc_ex.c ****     if(__HAL_RCC_GET_PLL_OSCSOURCE() == RCC_PLLSOURCE_HSI)   /* HSI ? */
 985              		.loc 1 688 8
 986 0082 964B     		ldr	r3, .L165
 987 0084 DB68     		ldr	r3, [r3, #12]
 988 0086 03F00303 		and	r3, r3, #3
 989              		.loc 1 688 7
 990 008a 022B     		cmp	r3, #2
 991 008c 0CD1     		bne	.L50
 689:Drivers/STM32G4xx_HAL_Driver/Src/stm32g4xx_hal_rcc_ex.c ****     {
 690:Drivers/STM32G4xx_HAL_Driver/Src/stm32g4xx_hal_rcc_ex.c ****       if(HAL_IS_BIT_SET(RCC->CR, RCC_CR_HSIRDY))
 992              		.loc 1 690 10
 993 008e 934B     		ldr	r3, .L165
 994 0090 1B68     		ldr	r3, [r3]
 995 0092 03F48063 		and	r3, r3, #1024
 996              		.loc 1 690 9
 997 0096 B3F5806F 		cmp	r3, #1024
 998 009a 02D1     		bne	.L51
 691:Drivers/STM32G4xx_HAL_Driver/Src/stm32g4xx_hal_rcc_ex.c ****       {
 692:Drivers/STM32G4xx_HAL_Driver/Src/stm32g4xx_hal_rcc_ex.c ****         pllvco = HSI_VALUE;
 999              		.loc 1 692 16
 1000 009c 914B     		ldr	r3, .L165+8
 1001 009e BB61     		str	r3, [r7, #24]
 1002 00a0 17E0     		b	.L52
 1003              	.L51:
 693:Drivers/STM32G4xx_HAL_Driver/Src/stm32g4xx_hal_rcc_ex.c ****       }
 694:Drivers/STM32G4xx_HAL_Driver/Src/stm32g4xx_hal_rcc_ex.c ****       else
 695:Drivers/STM32G4xx_HAL_Driver/Src/stm32g4xx_hal_rcc_ex.c ****       {
 696:Drivers/STM32G4xx_HAL_Driver/Src/stm32g4xx_hal_rcc_ex.c ****         pllvco = 0U;
 1004              		.loc 1 696 16
 1005 00a2 0023     		movs	r3, #0
 1006 00a4 BB61     		str	r3, [r7, #24]
 1007 00a6 14E0     		b	.L52
 1008              	.L50:
 697:Drivers/STM32G4xx_HAL_Driver/Src/stm32g4xx_hal_rcc_ex.c ****       }
 698:Drivers/STM32G4xx_HAL_Driver/Src/stm32g4xx_hal_rcc_ex.c ****     }
 699:Drivers/STM32G4xx_HAL_Driver/Src/stm32g4xx_hal_rcc_ex.c ****     else if(__HAL_RCC_GET_PLL_OSCSOURCE() == RCC_PLLSOURCE_HSE)   /* HSE ? */
 1009              		.loc 1 699 13
 1010 00a8 8C4B     		ldr	r3, .L165
 1011 00aa DB68     		ldr	r3, [r3, #12]
ARM GAS  C:\Users\AURORA~1\AppData\Local\Temp\cc3nfJXy.s 			page 31


 1012 00ac 03F00303 		and	r3, r3, #3
 1013              		.loc 1 699 12
 1014 00b0 032B     		cmp	r3, #3
 1015 00b2 0CD1     		bne	.L53
 700:Drivers/STM32G4xx_HAL_Driver/Src/stm32g4xx_hal_rcc_ex.c ****     {
 701:Drivers/STM32G4xx_HAL_Driver/Src/stm32g4xx_hal_rcc_ex.c ****       if(HAL_IS_BIT_SET(RCC->CR, RCC_CR_HSERDY))
 1016              		.loc 1 701 10
 1017 00b4 894B     		ldr	r3, .L165
 1018 00b6 1B68     		ldr	r3, [r3]
 1019 00b8 03F40033 		and	r3, r3, #131072
 1020              		.loc 1 701 9
 1021 00bc B3F5003F 		cmp	r3, #131072
 1022 00c0 02D1     		bne	.L54
 702:Drivers/STM32G4xx_HAL_Driver/Src/stm32g4xx_hal_rcc_ex.c ****       {
 703:Drivers/STM32G4xx_HAL_Driver/Src/stm32g4xx_hal_rcc_ex.c ****         pllvco = HSE_VALUE;
 1023              		.loc 1 703 16
 1024 00c2 894B     		ldr	r3, .L165+12
 1025 00c4 BB61     		str	r3, [r7, #24]
 1026 00c6 04E0     		b	.L52
 1027              	.L54:
 704:Drivers/STM32G4xx_HAL_Driver/Src/stm32g4xx_hal_rcc_ex.c ****       }
 705:Drivers/STM32G4xx_HAL_Driver/Src/stm32g4xx_hal_rcc_ex.c ****       else
 706:Drivers/STM32G4xx_HAL_Driver/Src/stm32g4xx_hal_rcc_ex.c ****       {
 707:Drivers/STM32G4xx_HAL_Driver/Src/stm32g4xx_hal_rcc_ex.c ****         pllvco = 0U;
 1028              		.loc 1 707 16
 1029 00c8 0023     		movs	r3, #0
 1030 00ca BB61     		str	r3, [r7, #24]
 1031 00cc 01E0     		b	.L52
 1032              	.L53:
 708:Drivers/STM32G4xx_HAL_Driver/Src/stm32g4xx_hal_rcc_ex.c ****       }
 709:Drivers/STM32G4xx_HAL_Driver/Src/stm32g4xx_hal_rcc_ex.c ****     }
 710:Drivers/STM32G4xx_HAL_Driver/Src/stm32g4xx_hal_rcc_ex.c ****     else /* No source */
 711:Drivers/STM32G4xx_HAL_Driver/Src/stm32g4xx_hal_rcc_ex.c ****     {
 712:Drivers/STM32G4xx_HAL_Driver/Src/stm32g4xx_hal_rcc_ex.c ****       pllvco = 0U;
 1033              		.loc 1 712 14
 1034 00ce 0023     		movs	r3, #0
 1035 00d0 BB61     		str	r3, [r7, #24]
 1036              	.L52:
 713:Drivers/STM32G4xx_HAL_Driver/Src/stm32g4xx_hal_rcc_ex.c ****     }
 714:Drivers/STM32G4xx_HAL_Driver/Src/stm32g4xx_hal_rcc_ex.c **** 
 715:Drivers/STM32G4xx_HAL_Driver/Src/stm32g4xx_hal_rcc_ex.c ****     /* f(PLL Source) / PLLM */
 716:Drivers/STM32G4xx_HAL_Driver/Src/stm32g4xx_hal_rcc_ex.c ****     pllvco = (pllvco / ((READ_BIT(RCC->PLLCFGR, RCC_PLLCFGR_PLLM) >> RCC_PLLCFGR_PLLM_Pos) + 1U));
 1037              		.loc 1 716 26
 1038 00d2 824B     		ldr	r3, .L165
 1039 00d4 DB68     		ldr	r3, [r3, #12]
 1040              		.loc 1 716 67
 1041 00d6 1B09     		lsrs	r3, r3, #4
 1042 00d8 03F00F03 		and	r3, r3, #15
 1043              		.loc 1 716 92
 1044 00dc 0133     		adds	r3, r3, #1
 1045              		.loc 1 716 12
 1046 00de BA69     		ldr	r2, [r7, #24]
 1047 00e0 B2FBF3F3 		udiv	r3, r2, r3
 1048 00e4 BB61     		str	r3, [r7, #24]
 717:Drivers/STM32G4xx_HAL_Driver/Src/stm32g4xx_hal_rcc_ex.c **** 
 718:Drivers/STM32G4xx_HAL_Driver/Src/stm32g4xx_hal_rcc_ex.c ****     switch(PeriphClk)
 1049              		.loc 1 718 5
ARM GAS  C:\Users\AURORA~1\AppData\Local\Temp\cc3nfJXy.s 			page 32


 1050 00e6 7B68     		ldr	r3, [r7, #4]
 1051 00e8 B3F5802F 		cmp	r3, #262144
 1052 00ec 00F06684 		beq	.L55
 1053 00f0 7B68     		ldr	r3, [r7, #4]
 1054 00f2 B3F5802F 		cmp	r3, #262144
 1055 00f6 00F28E84 		bhi	.L144
 1056 00fa 7B68     		ldr	r3, [r7, #4]
 1057 00fc B3F5003F 		cmp	r3, #131072
 1058 0100 00F06382 		beq	.L57
 1059 0104 7B68     		ldr	r3, [r7, #4]
 1060 0106 B3F5003F 		cmp	r3, #131072
 1061 010a 00F28484 		bhi	.L144
 1062 010e 7B68     		ldr	r3, [r7, #4]
 1063 0110 B3F5803F 		cmp	r3, #65536
 1064 0114 00F01784 		beq	.L58
 1065 0118 7B68     		ldr	r3, [r7, #4]
 1066 011a B3F5803F 		cmp	r3, #65536
 1067 011e 00F27A84 		bhi	.L144
 1068 0122 7B68     		ldr	r3, [r7, #4]
 1069 0124 B3F5004F 		cmp	r3, #32768
 1070 0128 00F0D083 		beq	.L59
 1071 012c 7B68     		ldr	r3, [r7, #4]
 1072 012e B3F5004F 		cmp	r3, #32768
 1073 0132 00F27084 		bhi	.L144
 1074 0136 7B68     		ldr	r3, [r7, #4]
 1075 0138 B3F5804F 		cmp	r3, #16384
 1076 013c 00F09883 		beq	.L60
 1077 0140 7B68     		ldr	r3, [r7, #4]
 1078 0142 B3F5804F 		cmp	r3, #16384
 1079 0146 00F26684 		bhi	.L144
 1080 014a 7B68     		ldr	r3, [r7, #4]
 1081 014c B3F5005F 		cmp	r3, #8192
 1082 0150 00F06083 		beq	.L61
 1083 0154 7B68     		ldr	r3, [r7, #4]
 1084 0156 B3F5005F 		cmp	r3, #8192
 1085 015a 00F25C84 		bhi	.L144
 1086 015e 7B68     		ldr	r3, [r7, #4]
 1087 0160 B3F5805F 		cmp	r3, #4096
 1088 0164 00F01883 		beq	.L62
 1089 0168 7B68     		ldr	r3, [r7, #4]
 1090 016a B3F5805F 		cmp	r3, #4096
 1091 016e 00F25284 		bhi	.L144
 1092 0172 7B68     		ldr	r3, [r7, #4]
 1093 0174 B3F5006F 		cmp	r3, #2048
 1094 0178 00F0CA82 		beq	.L63
 1095 017c 7B68     		ldr	r3, [r7, #4]
 1096 017e B3F5006F 		cmp	r3, #2048
 1097 0182 00F24884 		bhi	.L144
 1098 0186 7B68     		ldr	r3, [r7, #4]
 1099 0188 B3F5806F 		cmp	r3, #1024
 1100 018c 00F07C82 		beq	.L64
 1101 0190 7B68     		ldr	r3, [r7, #4]
 1102 0192 B3F5806F 		cmp	r3, #1024
 1103 0196 00F23E84 		bhi	.L144
 1104 019a 7B68     		ldr	r3, [r7, #4]
 1105 019c B3F5007F 		cmp	r3, #512
 1106 01a0 00F03682 		beq	.L65
ARM GAS  C:\Users\AURORA~1\AppData\Local\Temp\cc3nfJXy.s 			page 33


 1107 01a4 7B68     		ldr	r3, [r7, #4]
 1108 01a6 B3F5007F 		cmp	r3, #512
 1109 01aa 00F23484 		bhi	.L144
 1110 01ae 7B68     		ldr	r3, [r7, #4]
 1111 01b0 B3F5807F 		cmp	r3, #256
 1112 01b4 00F0E481 		beq	.L66
 1113 01b8 7B68     		ldr	r3, [r7, #4]
 1114 01ba B3F5807F 		cmp	r3, #256
 1115 01be 00F22A84 		bhi	.L144
 1116 01c2 7B68     		ldr	r3, [r7, #4]
 1117 01c4 802B     		cmp	r3, #128
 1118 01c6 00F0B181 		beq	.L67
 1119 01ca 7B68     		ldr	r3, [r7, #4]
 1120 01cc 802B     		cmp	r3, #128
 1121 01ce 00F22284 		bhi	.L144
 1122 01d2 7B68     		ldr	r3, [r7, #4]
 1123 01d4 202B     		cmp	r3, #32
 1124 01d6 4BD8     		bhi	.L68
 1125 01d8 7B68     		ldr	r3, [r7, #4]
 1126 01da 002B     		cmp	r3, #0
 1127 01dc 00F01B84 		beq	.L144
 1128 01e0 7B68     		ldr	r3, [r7, #4]
 1129 01e2 013B     		subs	r3, r3, #1
 1130 01e4 1F2B     		cmp	r3, #31
 1131 01e6 00F21684 		bhi	.L144
 1132 01ea 01A2     		adr	r2, .L70
 1133 01ec 52F823F0 		ldr	pc, [r2, r3, lsl #2]
 1134              		.p2align 2
 1135              	.L70:
 1136 01f0 7B020000 		.word	.L75+1
 1137 01f4 ED020000 		.word	.L74+1
 1138 01f8 170A0000 		.word	.L144+1
 1139 01fc 4F030000 		.word	.L73+1
 1140 0200 170A0000 		.word	.L144+1
 1141 0204 170A0000 		.word	.L144+1
 1142 0208 170A0000 		.word	.L144+1
 1143 020c B1030000 		.word	.L72+1
 1144 0210 170A0000 		.word	.L144+1
 1145 0214 170A0000 		.word	.L144+1
 1146 0218 170A0000 		.word	.L144+1
 1147 021c 170A0000 		.word	.L144+1
 1148 0220 170A0000 		.word	.L144+1
 1149 0224 170A0000 		.word	.L144+1
 1150 0228 170A0000 		.word	.L144+1
 1151 022c 13040000 		.word	.L71+1
 1152 0230 170A0000 		.word	.L144+1
 1153 0234 170A0000 		.word	.L144+1
 1154 0238 170A0000 		.word	.L144+1
 1155 023c 170A0000 		.word	.L144+1
 1156 0240 170A0000 		.word	.L144+1
 1157 0244 170A0000 		.word	.L144+1
 1158 0248 170A0000 		.word	.L144+1
 1159 024c 170A0000 		.word	.L144+1
 1160 0250 170A0000 		.word	.L144+1
 1161 0254 170A0000 		.word	.L144+1
 1162 0258 170A0000 		.word	.L144+1
 1163 025c 170A0000 		.word	.L144+1
ARM GAS  C:\Users\AURORA~1\AppData\Local\Temp\cc3nfJXy.s 			page 34


 1164 0260 170A0000 		.word	.L144+1
 1165 0264 170A0000 		.word	.L144+1
 1166 0268 170A0000 		.word	.L144+1
 1167 026c 7B040000 		.word	.L69+1
 1168              		.p2align 1
 1169              	.L68:
 1170 0270 7B68     		ldr	r3, [r7, #4]
 1171 0272 402B     		cmp	r3, #64
 1172 0274 00F03581 		beq	.L76
 719:Drivers/STM32G4xx_HAL_Driver/Src/stm32g4xx_hal_rcc_ex.c ****     {
 720:Drivers/STM32G4xx_HAL_Driver/Src/stm32g4xx_hal_rcc_ex.c **** 
 721:Drivers/STM32G4xx_HAL_Driver/Src/stm32g4xx_hal_rcc_ex.c ****     case RCC_PERIPHCLK_USART1:
 722:Drivers/STM32G4xx_HAL_Driver/Src/stm32g4xx_hal_rcc_ex.c ****       /* Get the current USART1 source */
 723:Drivers/STM32G4xx_HAL_Driver/Src/stm32g4xx_hal_rcc_ex.c ****       srcclk = __HAL_RCC_GET_USART1_SOURCE();
 724:Drivers/STM32G4xx_HAL_Driver/Src/stm32g4xx_hal_rcc_ex.c **** 
 725:Drivers/STM32G4xx_HAL_Driver/Src/stm32g4xx_hal_rcc_ex.c ****       if(srcclk == RCC_USART1CLKSOURCE_PCLK2)
 726:Drivers/STM32G4xx_HAL_Driver/Src/stm32g4xx_hal_rcc_ex.c ****       {
 727:Drivers/STM32G4xx_HAL_Driver/Src/stm32g4xx_hal_rcc_ex.c ****         frequency = HAL_RCC_GetPCLK2Freq();
 728:Drivers/STM32G4xx_HAL_Driver/Src/stm32g4xx_hal_rcc_ex.c ****       }
 729:Drivers/STM32G4xx_HAL_Driver/Src/stm32g4xx_hal_rcc_ex.c ****       else if(srcclk == RCC_USART1CLKSOURCE_SYSCLK)
 730:Drivers/STM32G4xx_HAL_Driver/Src/stm32g4xx_hal_rcc_ex.c ****       {
 731:Drivers/STM32G4xx_HAL_Driver/Src/stm32g4xx_hal_rcc_ex.c ****         frequency = HAL_RCC_GetSysClockFreq();
 732:Drivers/STM32G4xx_HAL_Driver/Src/stm32g4xx_hal_rcc_ex.c ****       }
 733:Drivers/STM32G4xx_HAL_Driver/Src/stm32g4xx_hal_rcc_ex.c ****       else if((HAL_IS_BIT_SET(RCC->CR, RCC_CR_HSIRDY)) && (srcclk == RCC_USART1CLKSOURCE_HSI) )
 734:Drivers/STM32G4xx_HAL_Driver/Src/stm32g4xx_hal_rcc_ex.c ****       {
 735:Drivers/STM32G4xx_HAL_Driver/Src/stm32g4xx_hal_rcc_ex.c ****         frequency = HSI_VALUE;
 736:Drivers/STM32G4xx_HAL_Driver/Src/stm32g4xx_hal_rcc_ex.c ****       }
 737:Drivers/STM32G4xx_HAL_Driver/Src/stm32g4xx_hal_rcc_ex.c ****       else if((HAL_IS_BIT_SET(RCC->BDCR, RCC_BDCR_LSERDY)) && (srcclk == RCC_USART1CLKSOURCE_LSE))
 738:Drivers/STM32G4xx_HAL_Driver/Src/stm32g4xx_hal_rcc_ex.c ****       {
 739:Drivers/STM32G4xx_HAL_Driver/Src/stm32g4xx_hal_rcc_ex.c ****         frequency = LSE_VALUE;
 740:Drivers/STM32G4xx_HAL_Driver/Src/stm32g4xx_hal_rcc_ex.c ****       }
 741:Drivers/STM32G4xx_HAL_Driver/Src/stm32g4xx_hal_rcc_ex.c ****       /* Clock not enabled for USART1 */
 742:Drivers/STM32G4xx_HAL_Driver/Src/stm32g4xx_hal_rcc_ex.c ****       else
 743:Drivers/STM32G4xx_HAL_Driver/Src/stm32g4xx_hal_rcc_ex.c ****       {
 744:Drivers/STM32G4xx_HAL_Driver/Src/stm32g4xx_hal_rcc_ex.c ****         /* nothing to do: frequency already initialized to 0 */
 745:Drivers/STM32G4xx_HAL_Driver/Src/stm32g4xx_hal_rcc_ex.c ****       }
 746:Drivers/STM32G4xx_HAL_Driver/Src/stm32g4xx_hal_rcc_ex.c ****       break;
 747:Drivers/STM32G4xx_HAL_Driver/Src/stm32g4xx_hal_rcc_ex.c **** 
 748:Drivers/STM32G4xx_HAL_Driver/Src/stm32g4xx_hal_rcc_ex.c ****     case RCC_PERIPHCLK_USART2:
 749:Drivers/STM32G4xx_HAL_Driver/Src/stm32g4xx_hal_rcc_ex.c ****       /* Get the current USART2 source */
 750:Drivers/STM32G4xx_HAL_Driver/Src/stm32g4xx_hal_rcc_ex.c ****       srcclk = __HAL_RCC_GET_USART2_SOURCE();
 751:Drivers/STM32G4xx_HAL_Driver/Src/stm32g4xx_hal_rcc_ex.c **** 
 752:Drivers/STM32G4xx_HAL_Driver/Src/stm32g4xx_hal_rcc_ex.c ****       if(srcclk == RCC_USART2CLKSOURCE_PCLK1)
 753:Drivers/STM32G4xx_HAL_Driver/Src/stm32g4xx_hal_rcc_ex.c ****       {
 754:Drivers/STM32G4xx_HAL_Driver/Src/stm32g4xx_hal_rcc_ex.c ****         frequency = HAL_RCC_GetPCLK1Freq();
 755:Drivers/STM32G4xx_HAL_Driver/Src/stm32g4xx_hal_rcc_ex.c ****       }
 756:Drivers/STM32G4xx_HAL_Driver/Src/stm32g4xx_hal_rcc_ex.c ****       else if(srcclk == RCC_USART2CLKSOURCE_SYSCLK)
 757:Drivers/STM32G4xx_HAL_Driver/Src/stm32g4xx_hal_rcc_ex.c ****       {
 758:Drivers/STM32G4xx_HAL_Driver/Src/stm32g4xx_hal_rcc_ex.c ****         frequency = HAL_RCC_GetSysClockFreq();
 759:Drivers/STM32G4xx_HAL_Driver/Src/stm32g4xx_hal_rcc_ex.c ****       }
 760:Drivers/STM32G4xx_HAL_Driver/Src/stm32g4xx_hal_rcc_ex.c ****       else if((HAL_IS_BIT_SET(RCC->CR, RCC_CR_HSIRDY)) && (srcclk == RCC_USART2CLKSOURCE_HSI))
 761:Drivers/STM32G4xx_HAL_Driver/Src/stm32g4xx_hal_rcc_ex.c ****       {
 762:Drivers/STM32G4xx_HAL_Driver/Src/stm32g4xx_hal_rcc_ex.c ****         frequency = HSI_VALUE;
 763:Drivers/STM32G4xx_HAL_Driver/Src/stm32g4xx_hal_rcc_ex.c ****       }
 764:Drivers/STM32G4xx_HAL_Driver/Src/stm32g4xx_hal_rcc_ex.c ****       else if((HAL_IS_BIT_SET(RCC->BDCR, RCC_BDCR_LSERDY))  && (srcclk == RCC_USART2CLKSOURCE_LSE))
 765:Drivers/STM32G4xx_HAL_Driver/Src/stm32g4xx_hal_rcc_ex.c ****       {
 766:Drivers/STM32G4xx_HAL_Driver/Src/stm32g4xx_hal_rcc_ex.c ****         frequency = LSE_VALUE;
ARM GAS  C:\Users\AURORA~1\AppData\Local\Temp\cc3nfJXy.s 			page 35


 767:Drivers/STM32G4xx_HAL_Driver/Src/stm32g4xx_hal_rcc_ex.c ****       }
 768:Drivers/STM32G4xx_HAL_Driver/Src/stm32g4xx_hal_rcc_ex.c ****       /* Clock not enabled for USART2 */
 769:Drivers/STM32G4xx_HAL_Driver/Src/stm32g4xx_hal_rcc_ex.c ****       else
 770:Drivers/STM32G4xx_HAL_Driver/Src/stm32g4xx_hal_rcc_ex.c ****       {
 771:Drivers/STM32G4xx_HAL_Driver/Src/stm32g4xx_hal_rcc_ex.c ****         /* nothing to do: frequency already initialized to 0 */
 772:Drivers/STM32G4xx_HAL_Driver/Src/stm32g4xx_hal_rcc_ex.c ****       }
 773:Drivers/STM32G4xx_HAL_Driver/Src/stm32g4xx_hal_rcc_ex.c ****       break;
 774:Drivers/STM32G4xx_HAL_Driver/Src/stm32g4xx_hal_rcc_ex.c **** 
 775:Drivers/STM32G4xx_HAL_Driver/Src/stm32g4xx_hal_rcc_ex.c ****     case RCC_PERIPHCLK_USART3:
 776:Drivers/STM32G4xx_HAL_Driver/Src/stm32g4xx_hal_rcc_ex.c ****       /* Get the current USART3 source */
 777:Drivers/STM32G4xx_HAL_Driver/Src/stm32g4xx_hal_rcc_ex.c ****       srcclk = __HAL_RCC_GET_USART3_SOURCE();
 778:Drivers/STM32G4xx_HAL_Driver/Src/stm32g4xx_hal_rcc_ex.c **** 
 779:Drivers/STM32G4xx_HAL_Driver/Src/stm32g4xx_hal_rcc_ex.c ****       if(srcclk == RCC_USART3CLKSOURCE_PCLK1)
 780:Drivers/STM32G4xx_HAL_Driver/Src/stm32g4xx_hal_rcc_ex.c ****       {
 781:Drivers/STM32G4xx_HAL_Driver/Src/stm32g4xx_hal_rcc_ex.c ****         frequency = HAL_RCC_GetPCLK1Freq();
 782:Drivers/STM32G4xx_HAL_Driver/Src/stm32g4xx_hal_rcc_ex.c ****       }
 783:Drivers/STM32G4xx_HAL_Driver/Src/stm32g4xx_hal_rcc_ex.c ****       else if(srcclk == RCC_USART3CLKSOURCE_SYSCLK)
 784:Drivers/STM32G4xx_HAL_Driver/Src/stm32g4xx_hal_rcc_ex.c ****       {
 785:Drivers/STM32G4xx_HAL_Driver/Src/stm32g4xx_hal_rcc_ex.c ****         frequency = HAL_RCC_GetSysClockFreq();
 786:Drivers/STM32G4xx_HAL_Driver/Src/stm32g4xx_hal_rcc_ex.c ****       }
 787:Drivers/STM32G4xx_HAL_Driver/Src/stm32g4xx_hal_rcc_ex.c ****       else if((HAL_IS_BIT_SET(RCC->CR, RCC_CR_HSIRDY)) && (srcclk == RCC_USART3CLKSOURCE_HSI))
 788:Drivers/STM32G4xx_HAL_Driver/Src/stm32g4xx_hal_rcc_ex.c ****       {
 789:Drivers/STM32G4xx_HAL_Driver/Src/stm32g4xx_hal_rcc_ex.c ****         frequency = HSI_VALUE;
 790:Drivers/STM32G4xx_HAL_Driver/Src/stm32g4xx_hal_rcc_ex.c ****       }
 791:Drivers/STM32G4xx_HAL_Driver/Src/stm32g4xx_hal_rcc_ex.c ****       else if((HAL_IS_BIT_SET(RCC->BDCR, RCC_BDCR_LSERDY)) && (srcclk == RCC_USART3CLKSOURCE_LSE))
 792:Drivers/STM32G4xx_HAL_Driver/Src/stm32g4xx_hal_rcc_ex.c ****       {
 793:Drivers/STM32G4xx_HAL_Driver/Src/stm32g4xx_hal_rcc_ex.c ****         frequency = LSE_VALUE;
 794:Drivers/STM32G4xx_HAL_Driver/Src/stm32g4xx_hal_rcc_ex.c ****       }
 795:Drivers/STM32G4xx_HAL_Driver/Src/stm32g4xx_hal_rcc_ex.c ****       /* Clock not enabled for USART3 */
 796:Drivers/STM32G4xx_HAL_Driver/Src/stm32g4xx_hal_rcc_ex.c ****       else
 797:Drivers/STM32G4xx_HAL_Driver/Src/stm32g4xx_hal_rcc_ex.c ****       {
 798:Drivers/STM32G4xx_HAL_Driver/Src/stm32g4xx_hal_rcc_ex.c ****         /* nothing to do: frequency already initialized to 0 */
 799:Drivers/STM32G4xx_HAL_Driver/Src/stm32g4xx_hal_rcc_ex.c ****       }
 800:Drivers/STM32G4xx_HAL_Driver/Src/stm32g4xx_hal_rcc_ex.c ****       break;
 801:Drivers/STM32G4xx_HAL_Driver/Src/stm32g4xx_hal_rcc_ex.c **** 
 802:Drivers/STM32G4xx_HAL_Driver/Src/stm32g4xx_hal_rcc_ex.c **** #if defined(UART4)
 803:Drivers/STM32G4xx_HAL_Driver/Src/stm32g4xx_hal_rcc_ex.c ****     case RCC_PERIPHCLK_UART4:
 804:Drivers/STM32G4xx_HAL_Driver/Src/stm32g4xx_hal_rcc_ex.c ****       /* Get the current UART4 source */
 805:Drivers/STM32G4xx_HAL_Driver/Src/stm32g4xx_hal_rcc_ex.c ****       srcclk = __HAL_RCC_GET_UART4_SOURCE();
 806:Drivers/STM32G4xx_HAL_Driver/Src/stm32g4xx_hal_rcc_ex.c **** 
 807:Drivers/STM32G4xx_HAL_Driver/Src/stm32g4xx_hal_rcc_ex.c ****       if(srcclk == RCC_UART4CLKSOURCE_PCLK1)
 808:Drivers/STM32G4xx_HAL_Driver/Src/stm32g4xx_hal_rcc_ex.c ****       {
 809:Drivers/STM32G4xx_HAL_Driver/Src/stm32g4xx_hal_rcc_ex.c ****         frequency = HAL_RCC_GetPCLK1Freq();
 810:Drivers/STM32G4xx_HAL_Driver/Src/stm32g4xx_hal_rcc_ex.c ****       }
 811:Drivers/STM32G4xx_HAL_Driver/Src/stm32g4xx_hal_rcc_ex.c ****       else if(srcclk == RCC_UART4CLKSOURCE_SYSCLK)
 812:Drivers/STM32G4xx_HAL_Driver/Src/stm32g4xx_hal_rcc_ex.c ****       {
 813:Drivers/STM32G4xx_HAL_Driver/Src/stm32g4xx_hal_rcc_ex.c ****         frequency = HAL_RCC_GetSysClockFreq();
 814:Drivers/STM32G4xx_HAL_Driver/Src/stm32g4xx_hal_rcc_ex.c ****       }
 815:Drivers/STM32G4xx_HAL_Driver/Src/stm32g4xx_hal_rcc_ex.c ****       else if((HAL_IS_BIT_SET(RCC->CR, RCC_CR_HSIRDY)) && (srcclk == RCC_UART4CLKSOURCE_HSI))
 816:Drivers/STM32G4xx_HAL_Driver/Src/stm32g4xx_hal_rcc_ex.c ****       {
 817:Drivers/STM32G4xx_HAL_Driver/Src/stm32g4xx_hal_rcc_ex.c ****         frequency = HSI_VALUE;
 818:Drivers/STM32G4xx_HAL_Driver/Src/stm32g4xx_hal_rcc_ex.c ****       }
 819:Drivers/STM32G4xx_HAL_Driver/Src/stm32g4xx_hal_rcc_ex.c ****       else if((HAL_IS_BIT_SET(RCC->BDCR, RCC_BDCR_LSERDY)) && (srcclk == RCC_UART4CLKSOURCE_LSE))
 820:Drivers/STM32G4xx_HAL_Driver/Src/stm32g4xx_hal_rcc_ex.c ****       {
 821:Drivers/STM32G4xx_HAL_Driver/Src/stm32g4xx_hal_rcc_ex.c ****         frequency = LSE_VALUE;
 822:Drivers/STM32G4xx_HAL_Driver/Src/stm32g4xx_hal_rcc_ex.c ****       }
 823:Drivers/STM32G4xx_HAL_Driver/Src/stm32g4xx_hal_rcc_ex.c ****       /* Clock not enabled for UART4 */
ARM GAS  C:\Users\AURORA~1\AppData\Local\Temp\cc3nfJXy.s 			page 36


 824:Drivers/STM32G4xx_HAL_Driver/Src/stm32g4xx_hal_rcc_ex.c ****       else
 825:Drivers/STM32G4xx_HAL_Driver/Src/stm32g4xx_hal_rcc_ex.c ****       {
 826:Drivers/STM32G4xx_HAL_Driver/Src/stm32g4xx_hal_rcc_ex.c ****         /* nothing to do: frequency already initialized to 0 */
 827:Drivers/STM32G4xx_HAL_Driver/Src/stm32g4xx_hal_rcc_ex.c ****       }
 828:Drivers/STM32G4xx_HAL_Driver/Src/stm32g4xx_hal_rcc_ex.c ****       break;
 829:Drivers/STM32G4xx_HAL_Driver/Src/stm32g4xx_hal_rcc_ex.c **** #endif /* UART4 */
 830:Drivers/STM32G4xx_HAL_Driver/Src/stm32g4xx_hal_rcc_ex.c **** 
 831:Drivers/STM32G4xx_HAL_Driver/Src/stm32g4xx_hal_rcc_ex.c **** #if defined(UART5)
 832:Drivers/STM32G4xx_HAL_Driver/Src/stm32g4xx_hal_rcc_ex.c ****     case RCC_PERIPHCLK_UART5:
 833:Drivers/STM32G4xx_HAL_Driver/Src/stm32g4xx_hal_rcc_ex.c ****       /* Get the current UART5 source */
 834:Drivers/STM32G4xx_HAL_Driver/Src/stm32g4xx_hal_rcc_ex.c ****       srcclk = __HAL_RCC_GET_UART5_SOURCE();
 835:Drivers/STM32G4xx_HAL_Driver/Src/stm32g4xx_hal_rcc_ex.c **** 
 836:Drivers/STM32G4xx_HAL_Driver/Src/stm32g4xx_hal_rcc_ex.c ****       if(srcclk == RCC_UART5CLKSOURCE_PCLK1)
 837:Drivers/STM32G4xx_HAL_Driver/Src/stm32g4xx_hal_rcc_ex.c ****       {
 838:Drivers/STM32G4xx_HAL_Driver/Src/stm32g4xx_hal_rcc_ex.c ****         frequency = HAL_RCC_GetPCLK1Freq();
 839:Drivers/STM32G4xx_HAL_Driver/Src/stm32g4xx_hal_rcc_ex.c ****       }
 840:Drivers/STM32G4xx_HAL_Driver/Src/stm32g4xx_hal_rcc_ex.c ****       else if(srcclk == RCC_UART5CLKSOURCE_SYSCLK)
 841:Drivers/STM32G4xx_HAL_Driver/Src/stm32g4xx_hal_rcc_ex.c ****       {
 842:Drivers/STM32G4xx_HAL_Driver/Src/stm32g4xx_hal_rcc_ex.c ****         frequency = HAL_RCC_GetSysClockFreq();
 843:Drivers/STM32G4xx_HAL_Driver/Src/stm32g4xx_hal_rcc_ex.c ****       }
 844:Drivers/STM32G4xx_HAL_Driver/Src/stm32g4xx_hal_rcc_ex.c ****       else if((HAL_IS_BIT_SET(RCC->CR, RCC_CR_HSIRDY)) && (srcclk == RCC_UART5CLKSOURCE_HSI))
 845:Drivers/STM32G4xx_HAL_Driver/Src/stm32g4xx_hal_rcc_ex.c ****       {
 846:Drivers/STM32G4xx_HAL_Driver/Src/stm32g4xx_hal_rcc_ex.c ****         frequency = HSI_VALUE;
 847:Drivers/STM32G4xx_HAL_Driver/Src/stm32g4xx_hal_rcc_ex.c ****       }
 848:Drivers/STM32G4xx_HAL_Driver/Src/stm32g4xx_hal_rcc_ex.c ****       else if((HAL_IS_BIT_SET(RCC->BDCR, RCC_BDCR_LSERDY)) && (srcclk == RCC_UART5CLKSOURCE_LSE))
 849:Drivers/STM32G4xx_HAL_Driver/Src/stm32g4xx_hal_rcc_ex.c ****       {
 850:Drivers/STM32G4xx_HAL_Driver/Src/stm32g4xx_hal_rcc_ex.c ****         frequency = LSE_VALUE;
 851:Drivers/STM32G4xx_HAL_Driver/Src/stm32g4xx_hal_rcc_ex.c ****       }
 852:Drivers/STM32G4xx_HAL_Driver/Src/stm32g4xx_hal_rcc_ex.c ****       /* Clock not enabled for UART5 */
 853:Drivers/STM32G4xx_HAL_Driver/Src/stm32g4xx_hal_rcc_ex.c ****       else
 854:Drivers/STM32G4xx_HAL_Driver/Src/stm32g4xx_hal_rcc_ex.c ****       {
 855:Drivers/STM32G4xx_HAL_Driver/Src/stm32g4xx_hal_rcc_ex.c ****         /* nothing to do: frequency already initialized to 0 */
 856:Drivers/STM32G4xx_HAL_Driver/Src/stm32g4xx_hal_rcc_ex.c ****       }
 857:Drivers/STM32G4xx_HAL_Driver/Src/stm32g4xx_hal_rcc_ex.c ****       break;
 858:Drivers/STM32G4xx_HAL_Driver/Src/stm32g4xx_hal_rcc_ex.c **** #endif /* UART5 */
 859:Drivers/STM32G4xx_HAL_Driver/Src/stm32g4xx_hal_rcc_ex.c **** 
 860:Drivers/STM32G4xx_HAL_Driver/Src/stm32g4xx_hal_rcc_ex.c ****     case RCC_PERIPHCLK_LPUART1:
 861:Drivers/STM32G4xx_HAL_Driver/Src/stm32g4xx_hal_rcc_ex.c ****       /* Get the current LPUART1 source */
 862:Drivers/STM32G4xx_HAL_Driver/Src/stm32g4xx_hal_rcc_ex.c ****       srcclk = __HAL_RCC_GET_LPUART1_SOURCE();
 863:Drivers/STM32G4xx_HAL_Driver/Src/stm32g4xx_hal_rcc_ex.c **** 
 864:Drivers/STM32G4xx_HAL_Driver/Src/stm32g4xx_hal_rcc_ex.c ****       if(srcclk == RCC_LPUART1CLKSOURCE_PCLK1)
 865:Drivers/STM32G4xx_HAL_Driver/Src/stm32g4xx_hal_rcc_ex.c ****       {
 866:Drivers/STM32G4xx_HAL_Driver/Src/stm32g4xx_hal_rcc_ex.c ****         frequency = HAL_RCC_GetPCLK1Freq();
 867:Drivers/STM32G4xx_HAL_Driver/Src/stm32g4xx_hal_rcc_ex.c ****       }
 868:Drivers/STM32G4xx_HAL_Driver/Src/stm32g4xx_hal_rcc_ex.c ****       else if(srcclk == RCC_LPUART1CLKSOURCE_SYSCLK)
 869:Drivers/STM32G4xx_HAL_Driver/Src/stm32g4xx_hal_rcc_ex.c ****       {
 870:Drivers/STM32G4xx_HAL_Driver/Src/stm32g4xx_hal_rcc_ex.c ****         frequency = HAL_RCC_GetSysClockFreq();
 871:Drivers/STM32G4xx_HAL_Driver/Src/stm32g4xx_hal_rcc_ex.c ****       }
 872:Drivers/STM32G4xx_HAL_Driver/Src/stm32g4xx_hal_rcc_ex.c ****       else if((HAL_IS_BIT_SET(RCC->CR, RCC_CR_HSIRDY)) && (srcclk == RCC_LPUART1CLKSOURCE_HSI))
 873:Drivers/STM32G4xx_HAL_Driver/Src/stm32g4xx_hal_rcc_ex.c ****       {
 874:Drivers/STM32G4xx_HAL_Driver/Src/stm32g4xx_hal_rcc_ex.c ****         frequency = HSI_VALUE;
 875:Drivers/STM32G4xx_HAL_Driver/Src/stm32g4xx_hal_rcc_ex.c ****       }
 876:Drivers/STM32G4xx_HAL_Driver/Src/stm32g4xx_hal_rcc_ex.c ****       else if((HAL_IS_BIT_SET(RCC->BDCR, RCC_BDCR_LSERDY)) && (srcclk == RCC_LPUART1CLKSOURCE_LSE))
 877:Drivers/STM32G4xx_HAL_Driver/Src/stm32g4xx_hal_rcc_ex.c ****       {
 878:Drivers/STM32G4xx_HAL_Driver/Src/stm32g4xx_hal_rcc_ex.c ****         frequency = LSE_VALUE;
 879:Drivers/STM32G4xx_HAL_Driver/Src/stm32g4xx_hal_rcc_ex.c ****       }
 880:Drivers/STM32G4xx_HAL_Driver/Src/stm32g4xx_hal_rcc_ex.c ****       /* Clock not enabled for LPUART1 */
ARM GAS  C:\Users\AURORA~1\AppData\Local\Temp\cc3nfJXy.s 			page 37


 881:Drivers/STM32G4xx_HAL_Driver/Src/stm32g4xx_hal_rcc_ex.c ****       else
 882:Drivers/STM32G4xx_HAL_Driver/Src/stm32g4xx_hal_rcc_ex.c ****       {
 883:Drivers/STM32G4xx_HAL_Driver/Src/stm32g4xx_hal_rcc_ex.c ****         /* nothing to do: frequency already initialized to 0 */
 884:Drivers/STM32G4xx_HAL_Driver/Src/stm32g4xx_hal_rcc_ex.c ****       }
 885:Drivers/STM32G4xx_HAL_Driver/Src/stm32g4xx_hal_rcc_ex.c ****       break;
 886:Drivers/STM32G4xx_HAL_Driver/Src/stm32g4xx_hal_rcc_ex.c **** 
 887:Drivers/STM32G4xx_HAL_Driver/Src/stm32g4xx_hal_rcc_ex.c ****     case RCC_PERIPHCLK_I2C1:
 888:Drivers/STM32G4xx_HAL_Driver/Src/stm32g4xx_hal_rcc_ex.c ****       /* Get the current I2C1 source */
 889:Drivers/STM32G4xx_HAL_Driver/Src/stm32g4xx_hal_rcc_ex.c ****       srcclk = __HAL_RCC_GET_I2C1_SOURCE();
 890:Drivers/STM32G4xx_HAL_Driver/Src/stm32g4xx_hal_rcc_ex.c **** 
 891:Drivers/STM32G4xx_HAL_Driver/Src/stm32g4xx_hal_rcc_ex.c ****       if(srcclk == RCC_I2C1CLKSOURCE_PCLK1)
 892:Drivers/STM32G4xx_HAL_Driver/Src/stm32g4xx_hal_rcc_ex.c ****       {
 893:Drivers/STM32G4xx_HAL_Driver/Src/stm32g4xx_hal_rcc_ex.c ****         frequency = HAL_RCC_GetPCLK1Freq();
 894:Drivers/STM32G4xx_HAL_Driver/Src/stm32g4xx_hal_rcc_ex.c ****       }
 895:Drivers/STM32G4xx_HAL_Driver/Src/stm32g4xx_hal_rcc_ex.c ****       else if(srcclk == RCC_I2C1CLKSOURCE_SYSCLK)
 896:Drivers/STM32G4xx_HAL_Driver/Src/stm32g4xx_hal_rcc_ex.c ****       {
 897:Drivers/STM32G4xx_HAL_Driver/Src/stm32g4xx_hal_rcc_ex.c ****         frequency = HAL_RCC_GetSysClockFreq();
 898:Drivers/STM32G4xx_HAL_Driver/Src/stm32g4xx_hal_rcc_ex.c ****       }
 899:Drivers/STM32G4xx_HAL_Driver/Src/stm32g4xx_hal_rcc_ex.c ****       else if((HAL_IS_BIT_SET(RCC->CR, RCC_CR_HSIRDY)) && (srcclk == RCC_I2C1CLKSOURCE_HSI))
 900:Drivers/STM32G4xx_HAL_Driver/Src/stm32g4xx_hal_rcc_ex.c ****       {
 901:Drivers/STM32G4xx_HAL_Driver/Src/stm32g4xx_hal_rcc_ex.c ****         frequency = HSI_VALUE;
 902:Drivers/STM32G4xx_HAL_Driver/Src/stm32g4xx_hal_rcc_ex.c ****       }
 903:Drivers/STM32G4xx_HAL_Driver/Src/stm32g4xx_hal_rcc_ex.c ****       /* Clock not enabled for I2C1 */
 904:Drivers/STM32G4xx_HAL_Driver/Src/stm32g4xx_hal_rcc_ex.c ****       else
 905:Drivers/STM32G4xx_HAL_Driver/Src/stm32g4xx_hal_rcc_ex.c ****       {
 906:Drivers/STM32G4xx_HAL_Driver/Src/stm32g4xx_hal_rcc_ex.c ****         /* nothing to do: frequency already initialized to 0 */
 907:Drivers/STM32G4xx_HAL_Driver/Src/stm32g4xx_hal_rcc_ex.c ****       }
 908:Drivers/STM32G4xx_HAL_Driver/Src/stm32g4xx_hal_rcc_ex.c ****       break;
 909:Drivers/STM32G4xx_HAL_Driver/Src/stm32g4xx_hal_rcc_ex.c **** 
 910:Drivers/STM32G4xx_HAL_Driver/Src/stm32g4xx_hal_rcc_ex.c ****     case RCC_PERIPHCLK_I2C2:
 911:Drivers/STM32G4xx_HAL_Driver/Src/stm32g4xx_hal_rcc_ex.c ****       /* Get the current I2C2 source */
 912:Drivers/STM32G4xx_HAL_Driver/Src/stm32g4xx_hal_rcc_ex.c ****       srcclk = __HAL_RCC_GET_I2C2_SOURCE();
 913:Drivers/STM32G4xx_HAL_Driver/Src/stm32g4xx_hal_rcc_ex.c **** 
 914:Drivers/STM32G4xx_HAL_Driver/Src/stm32g4xx_hal_rcc_ex.c ****       if(srcclk == RCC_I2C2CLKSOURCE_PCLK1)
 915:Drivers/STM32G4xx_HAL_Driver/Src/stm32g4xx_hal_rcc_ex.c ****       {
 916:Drivers/STM32G4xx_HAL_Driver/Src/stm32g4xx_hal_rcc_ex.c ****         frequency = HAL_RCC_GetPCLK1Freq();
 917:Drivers/STM32G4xx_HAL_Driver/Src/stm32g4xx_hal_rcc_ex.c ****       }
 918:Drivers/STM32G4xx_HAL_Driver/Src/stm32g4xx_hal_rcc_ex.c ****       else if(srcclk == RCC_I2C2CLKSOURCE_SYSCLK)
 919:Drivers/STM32G4xx_HAL_Driver/Src/stm32g4xx_hal_rcc_ex.c ****       {
 920:Drivers/STM32G4xx_HAL_Driver/Src/stm32g4xx_hal_rcc_ex.c ****         frequency = HAL_RCC_GetSysClockFreq();
 921:Drivers/STM32G4xx_HAL_Driver/Src/stm32g4xx_hal_rcc_ex.c ****       }
 922:Drivers/STM32G4xx_HAL_Driver/Src/stm32g4xx_hal_rcc_ex.c ****       else if((HAL_IS_BIT_SET(RCC->CR, RCC_CR_HSIRDY)) && (srcclk == RCC_I2C2CLKSOURCE_HSI))
 923:Drivers/STM32G4xx_HAL_Driver/Src/stm32g4xx_hal_rcc_ex.c ****       {
 924:Drivers/STM32G4xx_HAL_Driver/Src/stm32g4xx_hal_rcc_ex.c ****         frequency = HSI_VALUE;
 925:Drivers/STM32G4xx_HAL_Driver/Src/stm32g4xx_hal_rcc_ex.c ****       }
 926:Drivers/STM32G4xx_HAL_Driver/Src/stm32g4xx_hal_rcc_ex.c ****       /* Clock not enabled for I2C2 */
 927:Drivers/STM32G4xx_HAL_Driver/Src/stm32g4xx_hal_rcc_ex.c ****       else
 928:Drivers/STM32G4xx_HAL_Driver/Src/stm32g4xx_hal_rcc_ex.c ****       {
 929:Drivers/STM32G4xx_HAL_Driver/Src/stm32g4xx_hal_rcc_ex.c ****         /* nothing to do: frequency already initialized to 0 */
 930:Drivers/STM32G4xx_HAL_Driver/Src/stm32g4xx_hal_rcc_ex.c ****       }
 931:Drivers/STM32G4xx_HAL_Driver/Src/stm32g4xx_hal_rcc_ex.c ****       break;
 932:Drivers/STM32G4xx_HAL_Driver/Src/stm32g4xx_hal_rcc_ex.c **** 
 933:Drivers/STM32G4xx_HAL_Driver/Src/stm32g4xx_hal_rcc_ex.c ****     case RCC_PERIPHCLK_I2C3:
 934:Drivers/STM32G4xx_HAL_Driver/Src/stm32g4xx_hal_rcc_ex.c ****       /* Get the current I2C3 source */
 935:Drivers/STM32G4xx_HAL_Driver/Src/stm32g4xx_hal_rcc_ex.c ****       srcclk = __HAL_RCC_GET_I2C3_SOURCE();
 936:Drivers/STM32G4xx_HAL_Driver/Src/stm32g4xx_hal_rcc_ex.c **** 
 937:Drivers/STM32G4xx_HAL_Driver/Src/stm32g4xx_hal_rcc_ex.c ****       if(srcclk == RCC_I2C3CLKSOURCE_PCLK1)
ARM GAS  C:\Users\AURORA~1\AppData\Local\Temp\cc3nfJXy.s 			page 38


 938:Drivers/STM32G4xx_HAL_Driver/Src/stm32g4xx_hal_rcc_ex.c ****       {
 939:Drivers/STM32G4xx_HAL_Driver/Src/stm32g4xx_hal_rcc_ex.c ****         frequency = HAL_RCC_GetPCLK1Freq();
 940:Drivers/STM32G4xx_HAL_Driver/Src/stm32g4xx_hal_rcc_ex.c ****       }
 941:Drivers/STM32G4xx_HAL_Driver/Src/stm32g4xx_hal_rcc_ex.c ****       else if(srcclk == RCC_I2C3CLKSOURCE_SYSCLK)
 942:Drivers/STM32G4xx_HAL_Driver/Src/stm32g4xx_hal_rcc_ex.c ****       {
 943:Drivers/STM32G4xx_HAL_Driver/Src/stm32g4xx_hal_rcc_ex.c ****         frequency = HAL_RCC_GetSysClockFreq();
 944:Drivers/STM32G4xx_HAL_Driver/Src/stm32g4xx_hal_rcc_ex.c ****       }
 945:Drivers/STM32G4xx_HAL_Driver/Src/stm32g4xx_hal_rcc_ex.c ****       else if((HAL_IS_BIT_SET(RCC->CR, RCC_CR_HSIRDY)) && (srcclk == RCC_I2C3CLKSOURCE_HSI))
 946:Drivers/STM32G4xx_HAL_Driver/Src/stm32g4xx_hal_rcc_ex.c ****       {
 947:Drivers/STM32G4xx_HAL_Driver/Src/stm32g4xx_hal_rcc_ex.c ****         frequency = HSI_VALUE;
 948:Drivers/STM32G4xx_HAL_Driver/Src/stm32g4xx_hal_rcc_ex.c ****       }
 949:Drivers/STM32G4xx_HAL_Driver/Src/stm32g4xx_hal_rcc_ex.c ****       /* Clock not enabled for I2C3 */
 950:Drivers/STM32G4xx_HAL_Driver/Src/stm32g4xx_hal_rcc_ex.c ****       else
 951:Drivers/STM32G4xx_HAL_Driver/Src/stm32g4xx_hal_rcc_ex.c ****       {
 952:Drivers/STM32G4xx_HAL_Driver/Src/stm32g4xx_hal_rcc_ex.c ****         /* nothing to do: frequency already initialized to 0 */
 953:Drivers/STM32G4xx_HAL_Driver/Src/stm32g4xx_hal_rcc_ex.c ****       }
 954:Drivers/STM32G4xx_HAL_Driver/Src/stm32g4xx_hal_rcc_ex.c ****       break;
 955:Drivers/STM32G4xx_HAL_Driver/Src/stm32g4xx_hal_rcc_ex.c **** 
 956:Drivers/STM32G4xx_HAL_Driver/Src/stm32g4xx_hal_rcc_ex.c **** #if defined(I2C4)
 957:Drivers/STM32G4xx_HAL_Driver/Src/stm32g4xx_hal_rcc_ex.c **** 
 958:Drivers/STM32G4xx_HAL_Driver/Src/stm32g4xx_hal_rcc_ex.c ****     case RCC_PERIPHCLK_I2C4:
 959:Drivers/STM32G4xx_HAL_Driver/Src/stm32g4xx_hal_rcc_ex.c ****       /* Get the current I2C4 source */
 960:Drivers/STM32G4xx_HAL_Driver/Src/stm32g4xx_hal_rcc_ex.c ****       srcclk = __HAL_RCC_GET_I2C4_SOURCE();
 961:Drivers/STM32G4xx_HAL_Driver/Src/stm32g4xx_hal_rcc_ex.c **** 
 962:Drivers/STM32G4xx_HAL_Driver/Src/stm32g4xx_hal_rcc_ex.c ****       if(srcclk == RCC_I2C4CLKSOURCE_PCLK1)
 963:Drivers/STM32G4xx_HAL_Driver/Src/stm32g4xx_hal_rcc_ex.c ****       {
 964:Drivers/STM32G4xx_HAL_Driver/Src/stm32g4xx_hal_rcc_ex.c ****         frequency = HAL_RCC_GetPCLK1Freq();
 965:Drivers/STM32G4xx_HAL_Driver/Src/stm32g4xx_hal_rcc_ex.c ****       }
 966:Drivers/STM32G4xx_HAL_Driver/Src/stm32g4xx_hal_rcc_ex.c ****       else if(srcclk == RCC_I2C4CLKSOURCE_SYSCLK)
 967:Drivers/STM32G4xx_HAL_Driver/Src/stm32g4xx_hal_rcc_ex.c ****       {
 968:Drivers/STM32G4xx_HAL_Driver/Src/stm32g4xx_hal_rcc_ex.c ****         frequency = HAL_RCC_GetSysClockFreq();
 969:Drivers/STM32G4xx_HAL_Driver/Src/stm32g4xx_hal_rcc_ex.c ****       }
 970:Drivers/STM32G4xx_HAL_Driver/Src/stm32g4xx_hal_rcc_ex.c ****       else if((HAL_IS_BIT_SET(RCC->CR, RCC_CR_HSIRDY)) && (srcclk == RCC_I2C4CLKSOURCE_HSI))
 971:Drivers/STM32G4xx_HAL_Driver/Src/stm32g4xx_hal_rcc_ex.c ****       {
 972:Drivers/STM32G4xx_HAL_Driver/Src/stm32g4xx_hal_rcc_ex.c ****         frequency = HSI_VALUE;
 973:Drivers/STM32G4xx_HAL_Driver/Src/stm32g4xx_hal_rcc_ex.c ****       }
 974:Drivers/STM32G4xx_HAL_Driver/Src/stm32g4xx_hal_rcc_ex.c ****       /* Clock not enabled for I2C4 */
 975:Drivers/STM32G4xx_HAL_Driver/Src/stm32g4xx_hal_rcc_ex.c ****       else
 976:Drivers/STM32G4xx_HAL_Driver/Src/stm32g4xx_hal_rcc_ex.c ****       {
 977:Drivers/STM32G4xx_HAL_Driver/Src/stm32g4xx_hal_rcc_ex.c ****         /* nothing to do: frequency already initialized to 0 */
 978:Drivers/STM32G4xx_HAL_Driver/Src/stm32g4xx_hal_rcc_ex.c ****       }
 979:Drivers/STM32G4xx_HAL_Driver/Src/stm32g4xx_hal_rcc_ex.c ****       break;
 980:Drivers/STM32G4xx_HAL_Driver/Src/stm32g4xx_hal_rcc_ex.c **** 
 981:Drivers/STM32G4xx_HAL_Driver/Src/stm32g4xx_hal_rcc_ex.c **** #endif /* I2C4 */
 982:Drivers/STM32G4xx_HAL_Driver/Src/stm32g4xx_hal_rcc_ex.c **** 
 983:Drivers/STM32G4xx_HAL_Driver/Src/stm32g4xx_hal_rcc_ex.c ****     case RCC_PERIPHCLK_LPTIM1:
 984:Drivers/STM32G4xx_HAL_Driver/Src/stm32g4xx_hal_rcc_ex.c ****       /* Get the current LPTIM1 source */
 985:Drivers/STM32G4xx_HAL_Driver/Src/stm32g4xx_hal_rcc_ex.c ****       srcclk = __HAL_RCC_GET_LPTIM1_SOURCE();
 986:Drivers/STM32G4xx_HAL_Driver/Src/stm32g4xx_hal_rcc_ex.c **** 
 987:Drivers/STM32G4xx_HAL_Driver/Src/stm32g4xx_hal_rcc_ex.c ****       if(srcclk == RCC_LPTIM1CLKSOURCE_PCLK1)
 988:Drivers/STM32G4xx_HAL_Driver/Src/stm32g4xx_hal_rcc_ex.c ****       {
 989:Drivers/STM32G4xx_HAL_Driver/Src/stm32g4xx_hal_rcc_ex.c ****         frequency = HAL_RCC_GetPCLK1Freq();
 990:Drivers/STM32G4xx_HAL_Driver/Src/stm32g4xx_hal_rcc_ex.c ****       }
 991:Drivers/STM32G4xx_HAL_Driver/Src/stm32g4xx_hal_rcc_ex.c ****       else if((HAL_IS_BIT_SET(RCC->CSR, RCC_CSR_LSIRDY)) && (srcclk == RCC_LPTIM1CLKSOURCE_LSI))
 992:Drivers/STM32G4xx_HAL_Driver/Src/stm32g4xx_hal_rcc_ex.c ****       {
 993:Drivers/STM32G4xx_HAL_Driver/Src/stm32g4xx_hal_rcc_ex.c ****         frequency = LSI_VALUE;
 994:Drivers/STM32G4xx_HAL_Driver/Src/stm32g4xx_hal_rcc_ex.c ****       }
ARM GAS  C:\Users\AURORA~1\AppData\Local\Temp\cc3nfJXy.s 			page 39


 995:Drivers/STM32G4xx_HAL_Driver/Src/stm32g4xx_hal_rcc_ex.c ****       else if((HAL_IS_BIT_SET(RCC->CR, RCC_CR_HSIRDY)) && (srcclk == RCC_LPTIM1CLKSOURCE_HSI))
 996:Drivers/STM32G4xx_HAL_Driver/Src/stm32g4xx_hal_rcc_ex.c ****       {
 997:Drivers/STM32G4xx_HAL_Driver/Src/stm32g4xx_hal_rcc_ex.c ****         frequency = HSI_VALUE;
 998:Drivers/STM32G4xx_HAL_Driver/Src/stm32g4xx_hal_rcc_ex.c ****       }
 999:Drivers/STM32G4xx_HAL_Driver/Src/stm32g4xx_hal_rcc_ex.c ****       else if ((HAL_IS_BIT_SET(RCC->BDCR, RCC_BDCR_LSERDY)) && (srcclk == RCC_LPTIM1CLKSOURCE_LSE))
1000:Drivers/STM32G4xx_HAL_Driver/Src/stm32g4xx_hal_rcc_ex.c ****       {
1001:Drivers/STM32G4xx_HAL_Driver/Src/stm32g4xx_hal_rcc_ex.c ****         frequency = LSE_VALUE;
1002:Drivers/STM32G4xx_HAL_Driver/Src/stm32g4xx_hal_rcc_ex.c ****       }
1003:Drivers/STM32G4xx_HAL_Driver/Src/stm32g4xx_hal_rcc_ex.c ****       /* Clock not enabled for LPTIM1 */
1004:Drivers/STM32G4xx_HAL_Driver/Src/stm32g4xx_hal_rcc_ex.c ****       else
1005:Drivers/STM32G4xx_HAL_Driver/Src/stm32g4xx_hal_rcc_ex.c ****       {
1006:Drivers/STM32G4xx_HAL_Driver/Src/stm32g4xx_hal_rcc_ex.c ****         /* nothing to do: frequency already initialized to 0 */
1007:Drivers/STM32G4xx_HAL_Driver/Src/stm32g4xx_hal_rcc_ex.c ****       }
1008:Drivers/STM32G4xx_HAL_Driver/Src/stm32g4xx_hal_rcc_ex.c ****       break;
1009:Drivers/STM32G4xx_HAL_Driver/Src/stm32g4xx_hal_rcc_ex.c **** 
1010:Drivers/STM32G4xx_HAL_Driver/Src/stm32g4xx_hal_rcc_ex.c ****     case RCC_PERIPHCLK_SAI1:
1011:Drivers/STM32G4xx_HAL_Driver/Src/stm32g4xx_hal_rcc_ex.c ****       /* Get the current SAI1 source */
1012:Drivers/STM32G4xx_HAL_Driver/Src/stm32g4xx_hal_rcc_ex.c ****       srcclk = __HAL_RCC_GET_SAI1_SOURCE();
1013:Drivers/STM32G4xx_HAL_Driver/Src/stm32g4xx_hal_rcc_ex.c **** 
1014:Drivers/STM32G4xx_HAL_Driver/Src/stm32g4xx_hal_rcc_ex.c ****       if(srcclk == RCC_SAI1CLKSOURCE_SYSCLK)
1015:Drivers/STM32G4xx_HAL_Driver/Src/stm32g4xx_hal_rcc_ex.c ****       {
1016:Drivers/STM32G4xx_HAL_Driver/Src/stm32g4xx_hal_rcc_ex.c ****         frequency = HAL_RCC_GetSysClockFreq();
1017:Drivers/STM32G4xx_HAL_Driver/Src/stm32g4xx_hal_rcc_ex.c ****       }
1018:Drivers/STM32G4xx_HAL_Driver/Src/stm32g4xx_hal_rcc_ex.c ****       else if(srcclk == RCC_SAI1CLKSOURCE_PLL)
1019:Drivers/STM32G4xx_HAL_Driver/Src/stm32g4xx_hal_rcc_ex.c ****       {
1020:Drivers/STM32G4xx_HAL_Driver/Src/stm32g4xx_hal_rcc_ex.c ****         if(__HAL_RCC_GET_PLLCLKOUT_CONFIG(RCC_PLL_48M1CLK) != 0U)
1021:Drivers/STM32G4xx_HAL_Driver/Src/stm32g4xx_hal_rcc_ex.c ****         {
1022:Drivers/STM32G4xx_HAL_Driver/Src/stm32g4xx_hal_rcc_ex.c ****           /* f(PLLQ) = f(VCO input) * PLLN / PLLQ */
1023:Drivers/STM32G4xx_HAL_Driver/Src/stm32g4xx_hal_rcc_ex.c ****           plln = READ_BIT(RCC->PLLCFGR, RCC_PLLCFGR_PLLN) >> RCC_PLLCFGR_PLLN_Pos;
1024:Drivers/STM32G4xx_HAL_Driver/Src/stm32g4xx_hal_rcc_ex.c ****           frequency = (pllvco * plln) / (((READ_BIT(RCC->PLLCFGR, RCC_PLLCFGR_PLLQ) >> RCC_PLLCFGR_
1025:Drivers/STM32G4xx_HAL_Driver/Src/stm32g4xx_hal_rcc_ex.c ****         }
1026:Drivers/STM32G4xx_HAL_Driver/Src/stm32g4xx_hal_rcc_ex.c ****       }
1027:Drivers/STM32G4xx_HAL_Driver/Src/stm32g4xx_hal_rcc_ex.c ****       else if(srcclk == RCC_SAI1CLKSOURCE_EXT)
1028:Drivers/STM32G4xx_HAL_Driver/Src/stm32g4xx_hal_rcc_ex.c ****       {
1029:Drivers/STM32G4xx_HAL_Driver/Src/stm32g4xx_hal_rcc_ex.c ****         /* External clock used.*/
1030:Drivers/STM32G4xx_HAL_Driver/Src/stm32g4xx_hal_rcc_ex.c ****         frequency = EXTERNAL_CLOCK_VALUE;
1031:Drivers/STM32G4xx_HAL_Driver/Src/stm32g4xx_hal_rcc_ex.c ****       }
1032:Drivers/STM32G4xx_HAL_Driver/Src/stm32g4xx_hal_rcc_ex.c ****       else if((HAL_IS_BIT_SET(RCC->CR, RCC_CR_HSIRDY)) && (srcclk == RCC_SAI1CLKSOURCE_HSI))
1033:Drivers/STM32G4xx_HAL_Driver/Src/stm32g4xx_hal_rcc_ex.c ****       {
1034:Drivers/STM32G4xx_HAL_Driver/Src/stm32g4xx_hal_rcc_ex.c ****         frequency = HSI_VALUE;
1035:Drivers/STM32G4xx_HAL_Driver/Src/stm32g4xx_hal_rcc_ex.c ****       }
1036:Drivers/STM32G4xx_HAL_Driver/Src/stm32g4xx_hal_rcc_ex.c ****       /* Clock not enabled for SAI1 */
1037:Drivers/STM32G4xx_HAL_Driver/Src/stm32g4xx_hal_rcc_ex.c ****       else
1038:Drivers/STM32G4xx_HAL_Driver/Src/stm32g4xx_hal_rcc_ex.c ****       {
1039:Drivers/STM32G4xx_HAL_Driver/Src/stm32g4xx_hal_rcc_ex.c ****         /* nothing to do: frequency already initialized to 0 */
1040:Drivers/STM32G4xx_HAL_Driver/Src/stm32g4xx_hal_rcc_ex.c ****       }
1041:Drivers/STM32G4xx_HAL_Driver/Src/stm32g4xx_hal_rcc_ex.c ****       break;
1042:Drivers/STM32G4xx_HAL_Driver/Src/stm32g4xx_hal_rcc_ex.c **** 
1043:Drivers/STM32G4xx_HAL_Driver/Src/stm32g4xx_hal_rcc_ex.c ****     case RCC_PERIPHCLK_I2S:
1044:Drivers/STM32G4xx_HAL_Driver/Src/stm32g4xx_hal_rcc_ex.c ****       /* Get the current I2Sx source */
1045:Drivers/STM32G4xx_HAL_Driver/Src/stm32g4xx_hal_rcc_ex.c ****       srcclk = __HAL_RCC_GET_I2S_SOURCE();
1046:Drivers/STM32G4xx_HAL_Driver/Src/stm32g4xx_hal_rcc_ex.c **** 
1047:Drivers/STM32G4xx_HAL_Driver/Src/stm32g4xx_hal_rcc_ex.c ****       if(srcclk == RCC_I2SCLKSOURCE_SYSCLK)
1048:Drivers/STM32G4xx_HAL_Driver/Src/stm32g4xx_hal_rcc_ex.c ****       {
1049:Drivers/STM32G4xx_HAL_Driver/Src/stm32g4xx_hal_rcc_ex.c ****         frequency = HAL_RCC_GetSysClockFreq();
1050:Drivers/STM32G4xx_HAL_Driver/Src/stm32g4xx_hal_rcc_ex.c ****       }
1051:Drivers/STM32G4xx_HAL_Driver/Src/stm32g4xx_hal_rcc_ex.c ****       else if(srcclk == RCC_I2SCLKSOURCE_PLL)
ARM GAS  C:\Users\AURORA~1\AppData\Local\Temp\cc3nfJXy.s 			page 40


1052:Drivers/STM32G4xx_HAL_Driver/Src/stm32g4xx_hal_rcc_ex.c ****       {
1053:Drivers/STM32G4xx_HAL_Driver/Src/stm32g4xx_hal_rcc_ex.c ****         if(__HAL_RCC_GET_PLLCLKOUT_CONFIG(RCC_PLL_48M1CLK) != 0U)
1054:Drivers/STM32G4xx_HAL_Driver/Src/stm32g4xx_hal_rcc_ex.c ****         {
1055:Drivers/STM32G4xx_HAL_Driver/Src/stm32g4xx_hal_rcc_ex.c ****           /* f(PLLQ) = f(VCO input) * PLLN / PLLQ */
1056:Drivers/STM32G4xx_HAL_Driver/Src/stm32g4xx_hal_rcc_ex.c ****           plln = READ_BIT(RCC->PLLCFGR, RCC_PLLCFGR_PLLN) >> RCC_PLLCFGR_PLLN_Pos;
1057:Drivers/STM32G4xx_HAL_Driver/Src/stm32g4xx_hal_rcc_ex.c ****           frequency = (pllvco * plln) / (((READ_BIT(RCC->PLLCFGR, RCC_PLLCFGR_PLLQ) >> RCC_PLLCFGR_
1058:Drivers/STM32G4xx_HAL_Driver/Src/stm32g4xx_hal_rcc_ex.c ****         }
1059:Drivers/STM32G4xx_HAL_Driver/Src/stm32g4xx_hal_rcc_ex.c ****       }
1060:Drivers/STM32G4xx_HAL_Driver/Src/stm32g4xx_hal_rcc_ex.c ****       else if(srcclk == RCC_I2SCLKSOURCE_EXT)
1061:Drivers/STM32G4xx_HAL_Driver/Src/stm32g4xx_hal_rcc_ex.c ****       {
1062:Drivers/STM32G4xx_HAL_Driver/Src/stm32g4xx_hal_rcc_ex.c ****         /* External clock used.*/
1063:Drivers/STM32G4xx_HAL_Driver/Src/stm32g4xx_hal_rcc_ex.c ****         frequency = EXTERNAL_CLOCK_VALUE;
1064:Drivers/STM32G4xx_HAL_Driver/Src/stm32g4xx_hal_rcc_ex.c ****       }      
1065:Drivers/STM32G4xx_HAL_Driver/Src/stm32g4xx_hal_rcc_ex.c ****       else if((HAL_IS_BIT_SET(RCC->CR, RCC_CR_HSIRDY)) && (srcclk == RCC_I2SCLKSOURCE_HSI))
1066:Drivers/STM32G4xx_HAL_Driver/Src/stm32g4xx_hal_rcc_ex.c ****       {
1067:Drivers/STM32G4xx_HAL_Driver/Src/stm32g4xx_hal_rcc_ex.c ****         frequency = HSI_VALUE;
1068:Drivers/STM32G4xx_HAL_Driver/Src/stm32g4xx_hal_rcc_ex.c ****       }
1069:Drivers/STM32G4xx_HAL_Driver/Src/stm32g4xx_hal_rcc_ex.c ****       /* Clock not enabled for I2S */
1070:Drivers/STM32G4xx_HAL_Driver/Src/stm32g4xx_hal_rcc_ex.c ****       else
1071:Drivers/STM32G4xx_HAL_Driver/Src/stm32g4xx_hal_rcc_ex.c ****       {
1072:Drivers/STM32G4xx_HAL_Driver/Src/stm32g4xx_hal_rcc_ex.c ****         /* nothing to do: frequency already initialized to 0 */
1073:Drivers/STM32G4xx_HAL_Driver/Src/stm32g4xx_hal_rcc_ex.c ****       }
1074:Drivers/STM32G4xx_HAL_Driver/Src/stm32g4xx_hal_rcc_ex.c ****       break;
1075:Drivers/STM32G4xx_HAL_Driver/Src/stm32g4xx_hal_rcc_ex.c **** 
1076:Drivers/STM32G4xx_HAL_Driver/Src/stm32g4xx_hal_rcc_ex.c **** #if defined(FDCAN1)
1077:Drivers/STM32G4xx_HAL_Driver/Src/stm32g4xx_hal_rcc_ex.c ****     case RCC_PERIPHCLK_FDCAN:
1078:Drivers/STM32G4xx_HAL_Driver/Src/stm32g4xx_hal_rcc_ex.c ****       /* Get the current FDCANx source */
1079:Drivers/STM32G4xx_HAL_Driver/Src/stm32g4xx_hal_rcc_ex.c ****       srcclk = __HAL_RCC_GET_FDCAN_SOURCE();
1080:Drivers/STM32G4xx_HAL_Driver/Src/stm32g4xx_hal_rcc_ex.c **** 
1081:Drivers/STM32G4xx_HAL_Driver/Src/stm32g4xx_hal_rcc_ex.c ****       if(srcclk == RCC_FDCANCLKSOURCE_PCLK1)
1082:Drivers/STM32G4xx_HAL_Driver/Src/stm32g4xx_hal_rcc_ex.c ****       {
1083:Drivers/STM32G4xx_HAL_Driver/Src/stm32g4xx_hal_rcc_ex.c ****         frequency = HAL_RCC_GetPCLK1Freq();
1084:Drivers/STM32G4xx_HAL_Driver/Src/stm32g4xx_hal_rcc_ex.c ****       }
1085:Drivers/STM32G4xx_HAL_Driver/Src/stm32g4xx_hal_rcc_ex.c ****       else if(srcclk == RCC_FDCANCLKSOURCE_HSE)
1086:Drivers/STM32G4xx_HAL_Driver/Src/stm32g4xx_hal_rcc_ex.c ****       {
1087:Drivers/STM32G4xx_HAL_Driver/Src/stm32g4xx_hal_rcc_ex.c ****         frequency = HSE_VALUE;
1088:Drivers/STM32G4xx_HAL_Driver/Src/stm32g4xx_hal_rcc_ex.c ****       }
1089:Drivers/STM32G4xx_HAL_Driver/Src/stm32g4xx_hal_rcc_ex.c ****       else if(srcclk == RCC_FDCANCLKSOURCE_PLL)
1090:Drivers/STM32G4xx_HAL_Driver/Src/stm32g4xx_hal_rcc_ex.c ****       {
1091:Drivers/STM32G4xx_HAL_Driver/Src/stm32g4xx_hal_rcc_ex.c ****         if(__HAL_RCC_GET_PLLCLKOUT_CONFIG(RCC_PLL_48M1CLK) != 0U)
1092:Drivers/STM32G4xx_HAL_Driver/Src/stm32g4xx_hal_rcc_ex.c ****         {
1093:Drivers/STM32G4xx_HAL_Driver/Src/stm32g4xx_hal_rcc_ex.c ****           /* f(PLLQ) = f(VCO input) * PLLN / PLLQ */
1094:Drivers/STM32G4xx_HAL_Driver/Src/stm32g4xx_hal_rcc_ex.c ****           plln = READ_BIT(RCC->PLLCFGR, RCC_PLLCFGR_PLLN) >> RCC_PLLCFGR_PLLN_Pos;
1095:Drivers/STM32G4xx_HAL_Driver/Src/stm32g4xx_hal_rcc_ex.c ****           frequency = (pllvco * plln) / (((READ_BIT(RCC->PLLCFGR, RCC_PLLCFGR_PLLQ) >> RCC_PLLCFGR_
1096:Drivers/STM32G4xx_HAL_Driver/Src/stm32g4xx_hal_rcc_ex.c ****         }
1097:Drivers/STM32G4xx_HAL_Driver/Src/stm32g4xx_hal_rcc_ex.c ****       }
1098:Drivers/STM32G4xx_HAL_Driver/Src/stm32g4xx_hal_rcc_ex.c ****       /* Clock not enabled for FDCAN */
1099:Drivers/STM32G4xx_HAL_Driver/Src/stm32g4xx_hal_rcc_ex.c ****       else
1100:Drivers/STM32G4xx_HAL_Driver/Src/stm32g4xx_hal_rcc_ex.c ****       {
1101:Drivers/STM32G4xx_HAL_Driver/Src/stm32g4xx_hal_rcc_ex.c ****         /* nothing to do: frequency already initialized to 0 */
1102:Drivers/STM32G4xx_HAL_Driver/Src/stm32g4xx_hal_rcc_ex.c ****       }
1103:Drivers/STM32G4xx_HAL_Driver/Src/stm32g4xx_hal_rcc_ex.c ****       break;
1104:Drivers/STM32G4xx_HAL_Driver/Src/stm32g4xx_hal_rcc_ex.c **** #endif /* FDCAN1 */
1105:Drivers/STM32G4xx_HAL_Driver/Src/stm32g4xx_hal_rcc_ex.c ****     
1106:Drivers/STM32G4xx_HAL_Driver/Src/stm32g4xx_hal_rcc_ex.c **** #if defined(USB)
1107:Drivers/STM32G4xx_HAL_Driver/Src/stm32g4xx_hal_rcc_ex.c ****     
1108:Drivers/STM32G4xx_HAL_Driver/Src/stm32g4xx_hal_rcc_ex.c ****     case RCC_PERIPHCLK_USB:
ARM GAS  C:\Users\AURORA~1\AppData\Local\Temp\cc3nfJXy.s 			page 41


1109:Drivers/STM32G4xx_HAL_Driver/Src/stm32g4xx_hal_rcc_ex.c ****       /* Get the current USB source */
1110:Drivers/STM32G4xx_HAL_Driver/Src/stm32g4xx_hal_rcc_ex.c ****       srcclk = __HAL_RCC_GET_USB_SOURCE();
1111:Drivers/STM32G4xx_HAL_Driver/Src/stm32g4xx_hal_rcc_ex.c ****       
1112:Drivers/STM32G4xx_HAL_Driver/Src/stm32g4xx_hal_rcc_ex.c ****       if(srcclk == RCC_USBCLKSOURCE_PLL)  /* PLL ? */
1113:Drivers/STM32G4xx_HAL_Driver/Src/stm32g4xx_hal_rcc_ex.c ****       {
1114:Drivers/STM32G4xx_HAL_Driver/Src/stm32g4xx_hal_rcc_ex.c ****         /* f(PLLQ) = f(VCO input) * PLLN / PLLQ */
1115:Drivers/STM32G4xx_HAL_Driver/Src/stm32g4xx_hal_rcc_ex.c ****         plln = READ_BIT(RCC->PLLCFGR, RCC_PLLCFGR_PLLN) >> RCC_PLLCFGR_PLLN_Pos;
1116:Drivers/STM32G4xx_HAL_Driver/Src/stm32g4xx_hal_rcc_ex.c ****         frequency = (pllvco * plln) / (((READ_BIT(RCC->PLLCFGR, RCC_PLLCFGR_PLLQ) >> RCC_PLLCFGR_PL
1117:Drivers/STM32G4xx_HAL_Driver/Src/stm32g4xx_hal_rcc_ex.c ****       }
1118:Drivers/STM32G4xx_HAL_Driver/Src/stm32g4xx_hal_rcc_ex.c ****       else if((HAL_IS_BIT_SET(RCC->CRRCR, RCC_CRRCR_HSI48RDY)) && (srcclk == RCC_USBCLKSOURCE_HSI48
1119:Drivers/STM32G4xx_HAL_Driver/Src/stm32g4xx_hal_rcc_ex.c ****       {
1120:Drivers/STM32G4xx_HAL_Driver/Src/stm32g4xx_hal_rcc_ex.c ****         frequency = HSI48_VALUE;
1121:Drivers/STM32G4xx_HAL_Driver/Src/stm32g4xx_hal_rcc_ex.c ****       }
1122:Drivers/STM32G4xx_HAL_Driver/Src/stm32g4xx_hal_rcc_ex.c ****       else /* No clock source */
1123:Drivers/STM32G4xx_HAL_Driver/Src/stm32g4xx_hal_rcc_ex.c ****       {
1124:Drivers/STM32G4xx_HAL_Driver/Src/stm32g4xx_hal_rcc_ex.c ****         /* nothing to do: frequency already initialized to 0 */
1125:Drivers/STM32G4xx_HAL_Driver/Src/stm32g4xx_hal_rcc_ex.c ****       }
1126:Drivers/STM32G4xx_HAL_Driver/Src/stm32g4xx_hal_rcc_ex.c ****       break;
1127:Drivers/STM32G4xx_HAL_Driver/Src/stm32g4xx_hal_rcc_ex.c ****       
1128:Drivers/STM32G4xx_HAL_Driver/Src/stm32g4xx_hal_rcc_ex.c **** #endif /* USB */
1129:Drivers/STM32G4xx_HAL_Driver/Src/stm32g4xx_hal_rcc_ex.c **** 
1130:Drivers/STM32G4xx_HAL_Driver/Src/stm32g4xx_hal_rcc_ex.c ****     case RCC_PERIPHCLK_RNG:
1131:Drivers/STM32G4xx_HAL_Driver/Src/stm32g4xx_hal_rcc_ex.c ****       /* Get the current RNG source */
1132:Drivers/STM32G4xx_HAL_Driver/Src/stm32g4xx_hal_rcc_ex.c ****       srcclk = __HAL_RCC_GET_RNG_SOURCE();
1133:Drivers/STM32G4xx_HAL_Driver/Src/stm32g4xx_hal_rcc_ex.c **** 
1134:Drivers/STM32G4xx_HAL_Driver/Src/stm32g4xx_hal_rcc_ex.c ****       if(srcclk == RCC_RNGCLKSOURCE_PLL)  /* PLL ? */
1135:Drivers/STM32G4xx_HAL_Driver/Src/stm32g4xx_hal_rcc_ex.c ****       {
1136:Drivers/STM32G4xx_HAL_Driver/Src/stm32g4xx_hal_rcc_ex.c ****         /* f(PLLQ) = f(VCO input) * PLLN / PLLQ */
1137:Drivers/STM32G4xx_HAL_Driver/Src/stm32g4xx_hal_rcc_ex.c ****         plln = READ_BIT(RCC->PLLCFGR, RCC_PLLCFGR_PLLN) >> RCC_PLLCFGR_PLLN_Pos;
1138:Drivers/STM32G4xx_HAL_Driver/Src/stm32g4xx_hal_rcc_ex.c ****         frequency = (pllvco * plln) / (((READ_BIT(RCC->PLLCFGR, RCC_PLLCFGR_PLLQ) >> RCC_PLLCFGR_PL
1139:Drivers/STM32G4xx_HAL_Driver/Src/stm32g4xx_hal_rcc_ex.c ****       }
1140:Drivers/STM32G4xx_HAL_Driver/Src/stm32g4xx_hal_rcc_ex.c ****       else if( (HAL_IS_BIT_SET(RCC->CRRCR, RCC_CRRCR_HSI48RDY)) && (srcclk == RCC_RNGCLKSOURCE_HSI4
1141:Drivers/STM32G4xx_HAL_Driver/Src/stm32g4xx_hal_rcc_ex.c ****       {
1142:Drivers/STM32G4xx_HAL_Driver/Src/stm32g4xx_hal_rcc_ex.c ****         frequency = HSI48_VALUE;
1143:Drivers/STM32G4xx_HAL_Driver/Src/stm32g4xx_hal_rcc_ex.c ****       }
1144:Drivers/STM32G4xx_HAL_Driver/Src/stm32g4xx_hal_rcc_ex.c ****       else /* No clock source */
1145:Drivers/STM32G4xx_HAL_Driver/Src/stm32g4xx_hal_rcc_ex.c ****       {
1146:Drivers/STM32G4xx_HAL_Driver/Src/stm32g4xx_hal_rcc_ex.c ****         /* nothing to do: frequency already initialized to 0 */
1147:Drivers/STM32G4xx_HAL_Driver/Src/stm32g4xx_hal_rcc_ex.c ****       }
1148:Drivers/STM32G4xx_HAL_Driver/Src/stm32g4xx_hal_rcc_ex.c ****       break;
1149:Drivers/STM32G4xx_HAL_Driver/Src/stm32g4xx_hal_rcc_ex.c **** 
1150:Drivers/STM32G4xx_HAL_Driver/Src/stm32g4xx_hal_rcc_ex.c ****     case RCC_PERIPHCLK_ADC12:
1151:Drivers/STM32G4xx_HAL_Driver/Src/stm32g4xx_hal_rcc_ex.c ****       /* Get the current ADC12 source */
1152:Drivers/STM32G4xx_HAL_Driver/Src/stm32g4xx_hal_rcc_ex.c ****       srcclk = __HAL_RCC_GET_ADC12_SOURCE();
1153:Drivers/STM32G4xx_HAL_Driver/Src/stm32g4xx_hal_rcc_ex.c ****       
1154:Drivers/STM32G4xx_HAL_Driver/Src/stm32g4xx_hal_rcc_ex.c ****       if(srcclk == RCC_ADC12CLKSOURCE_PLL)
1155:Drivers/STM32G4xx_HAL_Driver/Src/stm32g4xx_hal_rcc_ex.c ****       {
1156:Drivers/STM32G4xx_HAL_Driver/Src/stm32g4xx_hal_rcc_ex.c ****         if(__HAL_RCC_GET_PLLCLKOUT_CONFIG(RCC_PLL_ADCCLK) != 0U)
1157:Drivers/STM32G4xx_HAL_Driver/Src/stm32g4xx_hal_rcc_ex.c ****         {
1158:Drivers/STM32G4xx_HAL_Driver/Src/stm32g4xx_hal_rcc_ex.c ****           /* f(PLLP) = f(VCO input) * PLLN / PLLP */
1159:Drivers/STM32G4xx_HAL_Driver/Src/stm32g4xx_hal_rcc_ex.c ****           plln = READ_BIT(RCC->PLLCFGR, RCC_PLLCFGR_PLLN) >> RCC_PLLCFGR_PLLN_Pos;
1160:Drivers/STM32G4xx_HAL_Driver/Src/stm32g4xx_hal_rcc_ex.c ****           pllp = READ_BIT(RCC->PLLCFGR, RCC_PLLCFGR_PLLPDIV) >> RCC_PLLCFGR_PLLPDIV_Pos;
1161:Drivers/STM32G4xx_HAL_Driver/Src/stm32g4xx_hal_rcc_ex.c ****           if(pllp == 0U)
1162:Drivers/STM32G4xx_HAL_Driver/Src/stm32g4xx_hal_rcc_ex.c ****           {
1163:Drivers/STM32G4xx_HAL_Driver/Src/stm32g4xx_hal_rcc_ex.c ****             if(READ_BIT(RCC->PLLCFGR, RCC_PLLCFGR_PLLP) != 0U)
1164:Drivers/STM32G4xx_HAL_Driver/Src/stm32g4xx_hal_rcc_ex.c ****             {
1165:Drivers/STM32G4xx_HAL_Driver/Src/stm32g4xx_hal_rcc_ex.c ****               pllp = 17U;
ARM GAS  C:\Users\AURORA~1\AppData\Local\Temp\cc3nfJXy.s 			page 42


1166:Drivers/STM32G4xx_HAL_Driver/Src/stm32g4xx_hal_rcc_ex.c ****             }
1167:Drivers/STM32G4xx_HAL_Driver/Src/stm32g4xx_hal_rcc_ex.c ****             else
1168:Drivers/STM32G4xx_HAL_Driver/Src/stm32g4xx_hal_rcc_ex.c ****             {
1169:Drivers/STM32G4xx_HAL_Driver/Src/stm32g4xx_hal_rcc_ex.c ****               pllp = 7U;
1170:Drivers/STM32G4xx_HAL_Driver/Src/stm32g4xx_hal_rcc_ex.c ****             }
1171:Drivers/STM32G4xx_HAL_Driver/Src/stm32g4xx_hal_rcc_ex.c ****           }
1172:Drivers/STM32G4xx_HAL_Driver/Src/stm32g4xx_hal_rcc_ex.c ****           frequency = (pllvco * plln) / pllp;
1173:Drivers/STM32G4xx_HAL_Driver/Src/stm32g4xx_hal_rcc_ex.c ****         }
1174:Drivers/STM32G4xx_HAL_Driver/Src/stm32g4xx_hal_rcc_ex.c ****       }
1175:Drivers/STM32G4xx_HAL_Driver/Src/stm32g4xx_hal_rcc_ex.c ****       else if(srcclk == RCC_ADC12CLKSOURCE_SYSCLK)
1176:Drivers/STM32G4xx_HAL_Driver/Src/stm32g4xx_hal_rcc_ex.c ****       {
1177:Drivers/STM32G4xx_HAL_Driver/Src/stm32g4xx_hal_rcc_ex.c ****         frequency = HAL_RCC_GetSysClockFreq();
1178:Drivers/STM32G4xx_HAL_Driver/Src/stm32g4xx_hal_rcc_ex.c ****       }
1179:Drivers/STM32G4xx_HAL_Driver/Src/stm32g4xx_hal_rcc_ex.c ****       /* Clock not enabled for ADC12 */
1180:Drivers/STM32G4xx_HAL_Driver/Src/stm32g4xx_hal_rcc_ex.c ****       else
1181:Drivers/STM32G4xx_HAL_Driver/Src/stm32g4xx_hal_rcc_ex.c ****       {
1182:Drivers/STM32G4xx_HAL_Driver/Src/stm32g4xx_hal_rcc_ex.c ****         /* nothing to do: frequency already initialized to 0 */
1183:Drivers/STM32G4xx_HAL_Driver/Src/stm32g4xx_hal_rcc_ex.c ****       }
1184:Drivers/STM32G4xx_HAL_Driver/Src/stm32g4xx_hal_rcc_ex.c ****       break;
1185:Drivers/STM32G4xx_HAL_Driver/Src/stm32g4xx_hal_rcc_ex.c **** 
1186:Drivers/STM32G4xx_HAL_Driver/Src/stm32g4xx_hal_rcc_ex.c **** #if defined(ADC345_COMMON)
1187:Drivers/STM32G4xx_HAL_Driver/Src/stm32g4xx_hal_rcc_ex.c ****     case RCC_PERIPHCLK_ADC345:
1188:Drivers/STM32G4xx_HAL_Driver/Src/stm32g4xx_hal_rcc_ex.c ****       /* Get the current ADC345 source */
1189:Drivers/STM32G4xx_HAL_Driver/Src/stm32g4xx_hal_rcc_ex.c ****       srcclk = __HAL_RCC_GET_ADC345_SOURCE();
1190:Drivers/STM32G4xx_HAL_Driver/Src/stm32g4xx_hal_rcc_ex.c ****       
1191:Drivers/STM32G4xx_HAL_Driver/Src/stm32g4xx_hal_rcc_ex.c ****       if(srcclk == RCC_ADC345CLKSOURCE_PLL)
1192:Drivers/STM32G4xx_HAL_Driver/Src/stm32g4xx_hal_rcc_ex.c ****       {
1193:Drivers/STM32G4xx_HAL_Driver/Src/stm32g4xx_hal_rcc_ex.c ****         if(__HAL_RCC_GET_PLLCLKOUT_CONFIG(RCC_PLL_ADCCLK) != 0U)
1194:Drivers/STM32G4xx_HAL_Driver/Src/stm32g4xx_hal_rcc_ex.c ****         {
1195:Drivers/STM32G4xx_HAL_Driver/Src/stm32g4xx_hal_rcc_ex.c ****           /* f(PLLP) = f(VCO input) * PLLN / PLLP */
1196:Drivers/STM32G4xx_HAL_Driver/Src/stm32g4xx_hal_rcc_ex.c ****           plln = READ_BIT(RCC->PLLCFGR, RCC_PLLCFGR_PLLN) >> RCC_PLLCFGR_PLLN_Pos;
1197:Drivers/STM32G4xx_HAL_Driver/Src/stm32g4xx_hal_rcc_ex.c ****           pllp = READ_BIT(RCC->PLLCFGR, RCC_PLLCFGR_PLLPDIV) >> RCC_PLLCFGR_PLLPDIV_Pos;
1198:Drivers/STM32G4xx_HAL_Driver/Src/stm32g4xx_hal_rcc_ex.c ****           if(pllp == 0U)
1199:Drivers/STM32G4xx_HAL_Driver/Src/stm32g4xx_hal_rcc_ex.c ****           {
1200:Drivers/STM32G4xx_HAL_Driver/Src/stm32g4xx_hal_rcc_ex.c ****             if(READ_BIT(RCC->PLLCFGR, RCC_PLLCFGR_PLLP) != 0U)
1201:Drivers/STM32G4xx_HAL_Driver/Src/stm32g4xx_hal_rcc_ex.c ****             {
1202:Drivers/STM32G4xx_HAL_Driver/Src/stm32g4xx_hal_rcc_ex.c ****               pllp = 17U;
1203:Drivers/STM32G4xx_HAL_Driver/Src/stm32g4xx_hal_rcc_ex.c ****             }
1204:Drivers/STM32G4xx_HAL_Driver/Src/stm32g4xx_hal_rcc_ex.c ****             else
1205:Drivers/STM32G4xx_HAL_Driver/Src/stm32g4xx_hal_rcc_ex.c ****             {
1206:Drivers/STM32G4xx_HAL_Driver/Src/stm32g4xx_hal_rcc_ex.c ****               pllp = 7U;
1207:Drivers/STM32G4xx_HAL_Driver/Src/stm32g4xx_hal_rcc_ex.c ****             }
1208:Drivers/STM32G4xx_HAL_Driver/Src/stm32g4xx_hal_rcc_ex.c ****           }
1209:Drivers/STM32G4xx_HAL_Driver/Src/stm32g4xx_hal_rcc_ex.c ****           frequency = (pllvco * plln) / pllp;
1210:Drivers/STM32G4xx_HAL_Driver/Src/stm32g4xx_hal_rcc_ex.c ****         }
1211:Drivers/STM32G4xx_HAL_Driver/Src/stm32g4xx_hal_rcc_ex.c ****       }
1212:Drivers/STM32G4xx_HAL_Driver/Src/stm32g4xx_hal_rcc_ex.c ****       else if(srcclk == RCC_ADC345CLKSOURCE_SYSCLK)
1213:Drivers/STM32G4xx_HAL_Driver/Src/stm32g4xx_hal_rcc_ex.c ****       {
1214:Drivers/STM32G4xx_HAL_Driver/Src/stm32g4xx_hal_rcc_ex.c ****         frequency = HAL_RCC_GetSysClockFreq();
1215:Drivers/STM32G4xx_HAL_Driver/Src/stm32g4xx_hal_rcc_ex.c ****       }
1216:Drivers/STM32G4xx_HAL_Driver/Src/stm32g4xx_hal_rcc_ex.c ****       /* Clock not enabled for ADC345 */
1217:Drivers/STM32G4xx_HAL_Driver/Src/stm32g4xx_hal_rcc_ex.c ****       else
1218:Drivers/STM32G4xx_HAL_Driver/Src/stm32g4xx_hal_rcc_ex.c ****       {
1219:Drivers/STM32G4xx_HAL_Driver/Src/stm32g4xx_hal_rcc_ex.c ****         /* nothing to do: frequency already initialized to 0 */
1220:Drivers/STM32G4xx_HAL_Driver/Src/stm32g4xx_hal_rcc_ex.c ****       }
1221:Drivers/STM32G4xx_HAL_Driver/Src/stm32g4xx_hal_rcc_ex.c ****       break;
1222:Drivers/STM32G4xx_HAL_Driver/Src/stm32g4xx_hal_rcc_ex.c **** #endif /* ADC345_COMMON */
ARM GAS  C:\Users\AURORA~1\AppData\Local\Temp\cc3nfJXy.s 			page 43


1223:Drivers/STM32G4xx_HAL_Driver/Src/stm32g4xx_hal_rcc_ex.c **** 
1224:Drivers/STM32G4xx_HAL_Driver/Src/stm32g4xx_hal_rcc_ex.c **** #if defined(QUADSPI)
1225:Drivers/STM32G4xx_HAL_Driver/Src/stm32g4xx_hal_rcc_ex.c **** 
1226:Drivers/STM32G4xx_HAL_Driver/Src/stm32g4xx_hal_rcc_ex.c ****     case RCC_PERIPHCLK_QSPI:
1227:Drivers/STM32G4xx_HAL_Driver/Src/stm32g4xx_hal_rcc_ex.c ****       /* Get the current QSPI source */
1228:Drivers/STM32G4xx_HAL_Driver/Src/stm32g4xx_hal_rcc_ex.c ****       srcclk = __HAL_RCC_GET_QSPI_SOURCE();
1229:Drivers/STM32G4xx_HAL_Driver/Src/stm32g4xx_hal_rcc_ex.c ****       
1230:Drivers/STM32G4xx_HAL_Driver/Src/stm32g4xx_hal_rcc_ex.c ****       if(srcclk == RCC_QSPICLKSOURCE_PLL)  /* PLL ? */
1231:Drivers/STM32G4xx_HAL_Driver/Src/stm32g4xx_hal_rcc_ex.c ****       {
1232:Drivers/STM32G4xx_HAL_Driver/Src/stm32g4xx_hal_rcc_ex.c ****         /* f(PLLQ) = f(VCO input) * PLLN / PLLQ */
1233:Drivers/STM32G4xx_HAL_Driver/Src/stm32g4xx_hal_rcc_ex.c ****         plln = READ_BIT(RCC->PLLCFGR, RCC_PLLCFGR_PLLN) >> RCC_PLLCFGR_PLLN_Pos;
1234:Drivers/STM32G4xx_HAL_Driver/Src/stm32g4xx_hal_rcc_ex.c ****         frequency = (pllvco * plln) / (((READ_BIT(RCC->PLLCFGR, RCC_PLLCFGR_PLLQ) >> RCC_PLLCFGR_PL
1235:Drivers/STM32G4xx_HAL_Driver/Src/stm32g4xx_hal_rcc_ex.c ****       }
1236:Drivers/STM32G4xx_HAL_Driver/Src/stm32g4xx_hal_rcc_ex.c ****       else if(srcclk == RCC_QSPICLKSOURCE_HSI)
1237:Drivers/STM32G4xx_HAL_Driver/Src/stm32g4xx_hal_rcc_ex.c ****       {
1238:Drivers/STM32G4xx_HAL_Driver/Src/stm32g4xx_hal_rcc_ex.c ****         frequency = HSI_VALUE;
1239:Drivers/STM32G4xx_HAL_Driver/Src/stm32g4xx_hal_rcc_ex.c ****       }      
1240:Drivers/STM32G4xx_HAL_Driver/Src/stm32g4xx_hal_rcc_ex.c ****       else if(srcclk == RCC_QSPICLKSOURCE_SYSCLK)
1241:Drivers/STM32G4xx_HAL_Driver/Src/stm32g4xx_hal_rcc_ex.c ****       {
1242:Drivers/STM32G4xx_HAL_Driver/Src/stm32g4xx_hal_rcc_ex.c ****         frequency = HAL_RCC_GetSysClockFreq();
1243:Drivers/STM32G4xx_HAL_Driver/Src/stm32g4xx_hal_rcc_ex.c ****       }
1244:Drivers/STM32G4xx_HAL_Driver/Src/stm32g4xx_hal_rcc_ex.c ****       else /* No clock source */
1245:Drivers/STM32G4xx_HAL_Driver/Src/stm32g4xx_hal_rcc_ex.c ****       {
1246:Drivers/STM32G4xx_HAL_Driver/Src/stm32g4xx_hal_rcc_ex.c ****         /* nothing to do: frequency already initialized to 0 */
1247:Drivers/STM32G4xx_HAL_Driver/Src/stm32g4xx_hal_rcc_ex.c ****       }
1248:Drivers/STM32G4xx_HAL_Driver/Src/stm32g4xx_hal_rcc_ex.c ****       break;
1249:Drivers/STM32G4xx_HAL_Driver/Src/stm32g4xx_hal_rcc_ex.c **** 
1250:Drivers/STM32G4xx_HAL_Driver/Src/stm32g4xx_hal_rcc_ex.c **** #endif /* QUADSPI */
1251:Drivers/STM32G4xx_HAL_Driver/Src/stm32g4xx_hal_rcc_ex.c **** 
1252:Drivers/STM32G4xx_HAL_Driver/Src/stm32g4xx_hal_rcc_ex.c ****     default:
1253:Drivers/STM32G4xx_HAL_Driver/Src/stm32g4xx_hal_rcc_ex.c ****       break;
 1173              		.loc 1 1253 7
 1174 0278 CDE3     		b	.L144
 1175              	.L75:
 723:Drivers/STM32G4xx_HAL_Driver/Src/stm32g4xx_hal_rcc_ex.c **** 
 1176              		.loc 1 723 16
 1177 027a 184B     		ldr	r3, .L165
 1178 027c D3F88830 		ldr	r3, [r3, #136]
 723:Drivers/STM32G4xx_HAL_Driver/Src/stm32g4xx_hal_rcc_ex.c **** 
 1179              		.loc 1 723 14
 1180 0280 03F00303 		and	r3, r3, #3
 1181 0284 3B61     		str	r3, [r7, #16]
 725:Drivers/STM32G4xx_HAL_Driver/Src/stm32g4xx_hal_rcc_ex.c ****       {
 1182              		.loc 1 725 9
 1183 0286 3B69     		ldr	r3, [r7, #16]
 1184 0288 002B     		cmp	r3, #0
 1185 028a 03D1     		bne	.L77
 727:Drivers/STM32G4xx_HAL_Driver/Src/stm32g4xx_hal_rcc_ex.c ****       }
 1186              		.loc 1 727 21
 1187 028c FFF7FEFF 		bl	HAL_RCC_GetPCLK2Freq
 1188 0290 F861     		str	r0, [r7, #28]
 746:Drivers/STM32G4xx_HAL_Driver/Src/stm32g4xx_hal_rcc_ex.c **** 
 1189              		.loc 1 746 7
 1190 0292 C2E3     		b	.L145
 1191              	.L77:
 729:Drivers/STM32G4xx_HAL_Driver/Src/stm32g4xx_hal_rcc_ex.c ****       {
 1192              		.loc 1 729 14
ARM GAS  C:\Users\AURORA~1\AppData\Local\Temp\cc3nfJXy.s 			page 44


 1193 0294 3B69     		ldr	r3, [r7, #16]
 1194 0296 012B     		cmp	r3, #1
 1195 0298 03D1     		bne	.L79
 731:Drivers/STM32G4xx_HAL_Driver/Src/stm32g4xx_hal_rcc_ex.c ****       }
 1196              		.loc 1 731 21
 1197 029a FFF7FEFF 		bl	HAL_RCC_GetSysClockFreq
 1198 029e F861     		str	r0, [r7, #28]
 746:Drivers/STM32G4xx_HAL_Driver/Src/stm32g4xx_hal_rcc_ex.c **** 
 1199              		.loc 1 746 7
 1200 02a0 BBE3     		b	.L145
 1201              	.L79:
 733:Drivers/STM32G4xx_HAL_Driver/Src/stm32g4xx_hal_rcc_ex.c ****       {
 1202              		.loc 1 733 16
 1203 02a2 0E4B     		ldr	r3, .L165
 1204 02a4 1B68     		ldr	r3, [r3]
 1205 02a6 03F48063 		and	r3, r3, #1024
 733:Drivers/STM32G4xx_HAL_Driver/Src/stm32g4xx_hal_rcc_ex.c ****       {
 1206              		.loc 1 733 14
 1207 02aa B3F5806F 		cmp	r3, #1024
 1208 02ae 05D1     		bne	.L80
 733:Drivers/STM32G4xx_HAL_Driver/Src/stm32g4xx_hal_rcc_ex.c ****       {
 1209              		.loc 1 733 56 discriminator 1
 1210 02b0 3B69     		ldr	r3, [r7, #16]
 1211 02b2 022B     		cmp	r3, #2
 1212 02b4 02D1     		bne	.L80
 735:Drivers/STM32G4xx_HAL_Driver/Src/stm32g4xx_hal_rcc_ex.c ****       }
 1213              		.loc 1 735 19
 1214 02b6 0B4B     		ldr	r3, .L165+8
 1215 02b8 FB61     		str	r3, [r7, #28]
 746:Drivers/STM32G4xx_HAL_Driver/Src/stm32g4xx_hal_rcc_ex.c **** 
 1216              		.loc 1 746 7
 1217 02ba AEE3     		b	.L145
 1218              	.L80:
 737:Drivers/STM32G4xx_HAL_Driver/Src/stm32g4xx_hal_rcc_ex.c ****       {
 1219              		.loc 1 737 16
 1220 02bc 074B     		ldr	r3, .L165
 1221 02be D3F89030 		ldr	r3, [r3, #144]
 1222 02c2 03F00203 		and	r3, r3, #2
 737:Drivers/STM32G4xx_HAL_Driver/Src/stm32g4xx_hal_rcc_ex.c ****       {
 1223              		.loc 1 737 14
 1224 02c6 022B     		cmp	r3, #2
 1225 02c8 40F0A783 		bne	.L145
 737:Drivers/STM32G4xx_HAL_Driver/Src/stm32g4xx_hal_rcc_ex.c ****       {
 1226              		.loc 1 737 60 discriminator 1
 1227 02cc 3B69     		ldr	r3, [r7, #16]
 1228 02ce 032B     		cmp	r3, #3
 1229 02d0 40F0A383 		bne	.L145
 739:Drivers/STM32G4xx_HAL_Driver/Src/stm32g4xx_hal_rcc_ex.c ****       }
 1230              		.loc 1 739 19
 1231 02d4 4FF40043 		mov	r3, #32768
 1232 02d8 FB61     		str	r3, [r7, #28]
 746:Drivers/STM32G4xx_HAL_Driver/Src/stm32g4xx_hal_rcc_ex.c **** 
 1233              		.loc 1 746 7
 1234 02da 9EE3     		b	.L145
 1235              	.L166:
 1236              		.align	2
 1237              	.L165:
ARM GAS  C:\Users\AURORA~1\AppData\Local\Temp\cc3nfJXy.s 			page 45


 1238 02dc 00100240 		.word	1073876992
 1239 02e0 90D00300 		.word	250000
 1240 02e4 0024F400 		.word	16000000
 1241 02e8 00127A00 		.word	8000000
 1242              	.L74:
 750:Drivers/STM32G4xx_HAL_Driver/Src/stm32g4xx_hal_rcc_ex.c **** 
 1243              		.loc 1 750 16
 1244 02ec A24B     		ldr	r3, .L167
 1245 02ee D3F88830 		ldr	r3, [r3, #136]
 750:Drivers/STM32G4xx_HAL_Driver/Src/stm32g4xx_hal_rcc_ex.c **** 
 1246              		.loc 1 750 14
 1247 02f2 03F00C03 		and	r3, r3, #12
 1248 02f6 3B61     		str	r3, [r7, #16]
 752:Drivers/STM32G4xx_HAL_Driver/Src/stm32g4xx_hal_rcc_ex.c ****       {
 1249              		.loc 1 752 9
 1250 02f8 3B69     		ldr	r3, [r7, #16]
 1251 02fa 002B     		cmp	r3, #0
 1252 02fc 03D1     		bne	.L81
 754:Drivers/STM32G4xx_HAL_Driver/Src/stm32g4xx_hal_rcc_ex.c ****       }
 1253              		.loc 1 754 21
 1254 02fe FFF7FEFF 		bl	HAL_RCC_GetPCLK1Freq
 1255 0302 F861     		str	r0, [r7, #28]
 773:Drivers/STM32G4xx_HAL_Driver/Src/stm32g4xx_hal_rcc_ex.c **** 
 1256              		.loc 1 773 7
 1257 0304 8BE3     		b	.L146
 1258              	.L81:
 756:Drivers/STM32G4xx_HAL_Driver/Src/stm32g4xx_hal_rcc_ex.c ****       {
 1259              		.loc 1 756 14
 1260 0306 3B69     		ldr	r3, [r7, #16]
 1261 0308 042B     		cmp	r3, #4
 1262 030a 03D1     		bne	.L83
 758:Drivers/STM32G4xx_HAL_Driver/Src/stm32g4xx_hal_rcc_ex.c ****       }
 1263              		.loc 1 758 21
 1264 030c FFF7FEFF 		bl	HAL_RCC_GetSysClockFreq
 1265 0310 F861     		str	r0, [r7, #28]
 773:Drivers/STM32G4xx_HAL_Driver/Src/stm32g4xx_hal_rcc_ex.c **** 
 1266              		.loc 1 773 7
 1267 0312 84E3     		b	.L146
 1268              	.L83:
 760:Drivers/STM32G4xx_HAL_Driver/Src/stm32g4xx_hal_rcc_ex.c ****       {
 1269              		.loc 1 760 16
 1270 0314 984B     		ldr	r3, .L167
 1271 0316 1B68     		ldr	r3, [r3]
 1272 0318 03F48063 		and	r3, r3, #1024
 760:Drivers/STM32G4xx_HAL_Driver/Src/stm32g4xx_hal_rcc_ex.c ****       {
 1273              		.loc 1 760 14
 1274 031c B3F5806F 		cmp	r3, #1024
 1275 0320 05D1     		bne	.L84
 760:Drivers/STM32G4xx_HAL_Driver/Src/stm32g4xx_hal_rcc_ex.c ****       {
 1276              		.loc 1 760 56 discriminator 1
 1277 0322 3B69     		ldr	r3, [r7, #16]
 1278 0324 082B     		cmp	r3, #8
 1279 0326 02D1     		bne	.L84
 762:Drivers/STM32G4xx_HAL_Driver/Src/stm32g4xx_hal_rcc_ex.c ****       }
 1280              		.loc 1 762 19
 1281 0328 944B     		ldr	r3, .L167+4
 1282 032a FB61     		str	r3, [r7, #28]
ARM GAS  C:\Users\AURORA~1\AppData\Local\Temp\cc3nfJXy.s 			page 46


 773:Drivers/STM32G4xx_HAL_Driver/Src/stm32g4xx_hal_rcc_ex.c **** 
 1283              		.loc 1 773 7
 1284 032c 77E3     		b	.L146
 1285              	.L84:
 764:Drivers/STM32G4xx_HAL_Driver/Src/stm32g4xx_hal_rcc_ex.c ****       {
 1286              		.loc 1 764 16
 1287 032e 924B     		ldr	r3, .L167
 1288 0330 D3F89030 		ldr	r3, [r3, #144]
 1289 0334 03F00203 		and	r3, r3, #2
 764:Drivers/STM32G4xx_HAL_Driver/Src/stm32g4xx_hal_rcc_ex.c ****       {
 1290              		.loc 1 764 14
 1291 0338 022B     		cmp	r3, #2
 1292 033a 40F07083 		bne	.L146
 764:Drivers/STM32G4xx_HAL_Driver/Src/stm32g4xx_hal_rcc_ex.c ****       {
 1293              		.loc 1 764 61 discriminator 1
 1294 033e 3B69     		ldr	r3, [r7, #16]
 1295 0340 0C2B     		cmp	r3, #12
 1296 0342 40F06C83 		bne	.L146
 766:Drivers/STM32G4xx_HAL_Driver/Src/stm32g4xx_hal_rcc_ex.c ****       }
 1297              		.loc 1 766 19
 1298 0346 4FF40043 		mov	r3, #32768
 1299 034a FB61     		str	r3, [r7, #28]
 773:Drivers/STM32G4xx_HAL_Driver/Src/stm32g4xx_hal_rcc_ex.c **** 
 1300              		.loc 1 773 7
 1301 034c 67E3     		b	.L146
 1302              	.L73:
 777:Drivers/STM32G4xx_HAL_Driver/Src/stm32g4xx_hal_rcc_ex.c **** 
 1303              		.loc 1 777 16
 1304 034e 8A4B     		ldr	r3, .L167
 1305 0350 D3F88830 		ldr	r3, [r3, #136]
 777:Drivers/STM32G4xx_HAL_Driver/Src/stm32g4xx_hal_rcc_ex.c **** 
 1306              		.loc 1 777 14
 1307 0354 03F03003 		and	r3, r3, #48
 1308 0358 3B61     		str	r3, [r7, #16]
 779:Drivers/STM32G4xx_HAL_Driver/Src/stm32g4xx_hal_rcc_ex.c ****       {
 1309              		.loc 1 779 9
 1310 035a 3B69     		ldr	r3, [r7, #16]
 1311 035c 002B     		cmp	r3, #0
 1312 035e 03D1     		bne	.L85
 781:Drivers/STM32G4xx_HAL_Driver/Src/stm32g4xx_hal_rcc_ex.c ****       }
 1313              		.loc 1 781 21
 1314 0360 FFF7FEFF 		bl	HAL_RCC_GetPCLK1Freq
 1315 0364 F861     		str	r0, [r7, #28]
 800:Drivers/STM32G4xx_HAL_Driver/Src/stm32g4xx_hal_rcc_ex.c **** 
 1316              		.loc 1 800 7
 1317 0366 5CE3     		b	.L147
 1318              	.L85:
 783:Drivers/STM32G4xx_HAL_Driver/Src/stm32g4xx_hal_rcc_ex.c ****       {
 1319              		.loc 1 783 14
 1320 0368 3B69     		ldr	r3, [r7, #16]
 1321 036a 102B     		cmp	r3, #16
 1322 036c 03D1     		bne	.L87
 785:Drivers/STM32G4xx_HAL_Driver/Src/stm32g4xx_hal_rcc_ex.c ****       }
 1323              		.loc 1 785 21
 1324 036e FFF7FEFF 		bl	HAL_RCC_GetSysClockFreq
 1325 0372 F861     		str	r0, [r7, #28]
 800:Drivers/STM32G4xx_HAL_Driver/Src/stm32g4xx_hal_rcc_ex.c **** 
ARM GAS  C:\Users\AURORA~1\AppData\Local\Temp\cc3nfJXy.s 			page 47


 1326              		.loc 1 800 7
 1327 0374 55E3     		b	.L147
 1328              	.L87:
 787:Drivers/STM32G4xx_HAL_Driver/Src/stm32g4xx_hal_rcc_ex.c ****       {
 1329              		.loc 1 787 16
 1330 0376 804B     		ldr	r3, .L167
 1331 0378 1B68     		ldr	r3, [r3]
 1332 037a 03F48063 		and	r3, r3, #1024
 787:Drivers/STM32G4xx_HAL_Driver/Src/stm32g4xx_hal_rcc_ex.c ****       {
 1333              		.loc 1 787 14
 1334 037e B3F5806F 		cmp	r3, #1024
 1335 0382 05D1     		bne	.L88
 787:Drivers/STM32G4xx_HAL_Driver/Src/stm32g4xx_hal_rcc_ex.c ****       {
 1336              		.loc 1 787 56 discriminator 1
 1337 0384 3B69     		ldr	r3, [r7, #16]
 1338 0386 202B     		cmp	r3, #32
 1339 0388 02D1     		bne	.L88
 789:Drivers/STM32G4xx_HAL_Driver/Src/stm32g4xx_hal_rcc_ex.c ****       }
 1340              		.loc 1 789 19
 1341 038a 7C4B     		ldr	r3, .L167+4
 1342 038c FB61     		str	r3, [r7, #28]
 800:Drivers/STM32G4xx_HAL_Driver/Src/stm32g4xx_hal_rcc_ex.c **** 
 1343              		.loc 1 800 7
 1344 038e 48E3     		b	.L147
 1345              	.L88:
 791:Drivers/STM32G4xx_HAL_Driver/Src/stm32g4xx_hal_rcc_ex.c ****       {
 1346              		.loc 1 791 16
 1347 0390 794B     		ldr	r3, .L167
 1348 0392 D3F89030 		ldr	r3, [r3, #144]
 1349 0396 03F00203 		and	r3, r3, #2
 791:Drivers/STM32G4xx_HAL_Driver/Src/stm32g4xx_hal_rcc_ex.c ****       {
 1350              		.loc 1 791 14
 1351 039a 022B     		cmp	r3, #2
 1352 039c 40F04183 		bne	.L147
 791:Drivers/STM32G4xx_HAL_Driver/Src/stm32g4xx_hal_rcc_ex.c ****       {
 1353              		.loc 1 791 60 discriminator 1
 1354 03a0 3B69     		ldr	r3, [r7, #16]
 1355 03a2 302B     		cmp	r3, #48
 1356 03a4 40F03D83 		bne	.L147
 793:Drivers/STM32G4xx_HAL_Driver/Src/stm32g4xx_hal_rcc_ex.c ****       }
 1357              		.loc 1 793 19
 1358 03a8 4FF40043 		mov	r3, #32768
 1359 03ac FB61     		str	r3, [r7, #28]
 800:Drivers/STM32G4xx_HAL_Driver/Src/stm32g4xx_hal_rcc_ex.c **** 
 1360              		.loc 1 800 7
 1361 03ae 38E3     		b	.L147
 1362              	.L72:
 805:Drivers/STM32G4xx_HAL_Driver/Src/stm32g4xx_hal_rcc_ex.c **** 
 1363              		.loc 1 805 16
 1364 03b0 714B     		ldr	r3, .L167
 1365 03b2 D3F88830 		ldr	r3, [r3, #136]
 805:Drivers/STM32G4xx_HAL_Driver/Src/stm32g4xx_hal_rcc_ex.c **** 
 1366              		.loc 1 805 14
 1367 03b6 03F0C003 		and	r3, r3, #192
 1368 03ba 3B61     		str	r3, [r7, #16]
 807:Drivers/STM32G4xx_HAL_Driver/Src/stm32g4xx_hal_rcc_ex.c ****       {
 1369              		.loc 1 807 9
ARM GAS  C:\Users\AURORA~1\AppData\Local\Temp\cc3nfJXy.s 			page 48


 1370 03bc 3B69     		ldr	r3, [r7, #16]
 1371 03be 002B     		cmp	r3, #0
 1372 03c0 03D1     		bne	.L89
 809:Drivers/STM32G4xx_HAL_Driver/Src/stm32g4xx_hal_rcc_ex.c ****       }
 1373              		.loc 1 809 21
 1374 03c2 FFF7FEFF 		bl	HAL_RCC_GetPCLK1Freq
 1375 03c6 F861     		str	r0, [r7, #28]
 828:Drivers/STM32G4xx_HAL_Driver/Src/stm32g4xx_hal_rcc_ex.c **** #endif /* UART4 */
 1376              		.loc 1 828 7
 1377 03c8 2DE3     		b	.L148
 1378              	.L89:
 811:Drivers/STM32G4xx_HAL_Driver/Src/stm32g4xx_hal_rcc_ex.c ****       {
 1379              		.loc 1 811 14
 1380 03ca 3B69     		ldr	r3, [r7, #16]
 1381 03cc 402B     		cmp	r3, #64
 1382 03ce 03D1     		bne	.L91
 813:Drivers/STM32G4xx_HAL_Driver/Src/stm32g4xx_hal_rcc_ex.c ****       }
 1383              		.loc 1 813 21
 1384 03d0 FFF7FEFF 		bl	HAL_RCC_GetSysClockFreq
 1385 03d4 F861     		str	r0, [r7, #28]
 828:Drivers/STM32G4xx_HAL_Driver/Src/stm32g4xx_hal_rcc_ex.c **** #endif /* UART4 */
 1386              		.loc 1 828 7
 1387 03d6 26E3     		b	.L148
 1388              	.L91:
 815:Drivers/STM32G4xx_HAL_Driver/Src/stm32g4xx_hal_rcc_ex.c ****       {
 1389              		.loc 1 815 16
 1390 03d8 674B     		ldr	r3, .L167
 1391 03da 1B68     		ldr	r3, [r3]
 1392 03dc 03F48063 		and	r3, r3, #1024
 815:Drivers/STM32G4xx_HAL_Driver/Src/stm32g4xx_hal_rcc_ex.c ****       {
 1393              		.loc 1 815 14
 1394 03e0 B3F5806F 		cmp	r3, #1024
 1395 03e4 05D1     		bne	.L92
 815:Drivers/STM32G4xx_HAL_Driver/Src/stm32g4xx_hal_rcc_ex.c ****       {
 1396              		.loc 1 815 56 discriminator 1
 1397 03e6 3B69     		ldr	r3, [r7, #16]
 1398 03e8 802B     		cmp	r3, #128
 1399 03ea 02D1     		bne	.L92
 817:Drivers/STM32G4xx_HAL_Driver/Src/stm32g4xx_hal_rcc_ex.c ****       }
 1400              		.loc 1 817 19
 1401 03ec 634B     		ldr	r3, .L167+4
 1402 03ee FB61     		str	r3, [r7, #28]
 828:Drivers/STM32G4xx_HAL_Driver/Src/stm32g4xx_hal_rcc_ex.c **** #endif /* UART4 */
 1403              		.loc 1 828 7
 1404 03f0 19E3     		b	.L148
 1405              	.L92:
 819:Drivers/STM32G4xx_HAL_Driver/Src/stm32g4xx_hal_rcc_ex.c ****       {
 1406              		.loc 1 819 16
 1407 03f2 614B     		ldr	r3, .L167
 1408 03f4 D3F89030 		ldr	r3, [r3, #144]
 1409 03f8 03F00203 		and	r3, r3, #2
 819:Drivers/STM32G4xx_HAL_Driver/Src/stm32g4xx_hal_rcc_ex.c ****       {
 1410              		.loc 1 819 14
 1411 03fc 022B     		cmp	r3, #2
 1412 03fe 40F01283 		bne	.L148
 819:Drivers/STM32G4xx_HAL_Driver/Src/stm32g4xx_hal_rcc_ex.c ****       {
 1413              		.loc 1 819 60 discriminator 1
ARM GAS  C:\Users\AURORA~1\AppData\Local\Temp\cc3nfJXy.s 			page 49


 1414 0402 3B69     		ldr	r3, [r7, #16]
 1415 0404 C02B     		cmp	r3, #192
 1416 0406 40F00E83 		bne	.L148
 821:Drivers/STM32G4xx_HAL_Driver/Src/stm32g4xx_hal_rcc_ex.c ****       }
 1417              		.loc 1 821 19
 1418 040a 4FF40043 		mov	r3, #32768
 1419 040e FB61     		str	r3, [r7, #28]
 828:Drivers/STM32G4xx_HAL_Driver/Src/stm32g4xx_hal_rcc_ex.c **** #endif /* UART4 */
 1420              		.loc 1 828 7
 1421 0410 09E3     		b	.L148
 1422              	.L71:
 834:Drivers/STM32G4xx_HAL_Driver/Src/stm32g4xx_hal_rcc_ex.c **** 
 1423              		.loc 1 834 16
 1424 0412 594B     		ldr	r3, .L167
 1425 0414 D3F88830 		ldr	r3, [r3, #136]
 834:Drivers/STM32G4xx_HAL_Driver/Src/stm32g4xx_hal_rcc_ex.c **** 
 1426              		.loc 1 834 14
 1427 0418 03F44073 		and	r3, r3, #768
 1428 041c 3B61     		str	r3, [r7, #16]
 836:Drivers/STM32G4xx_HAL_Driver/Src/stm32g4xx_hal_rcc_ex.c ****       {
 1429              		.loc 1 836 9
 1430 041e 3B69     		ldr	r3, [r7, #16]
 1431 0420 002B     		cmp	r3, #0
 1432 0422 03D1     		bne	.L93
 838:Drivers/STM32G4xx_HAL_Driver/Src/stm32g4xx_hal_rcc_ex.c ****       }
 1433              		.loc 1 838 21
 1434 0424 FFF7FEFF 		bl	HAL_RCC_GetPCLK1Freq
 1435 0428 F861     		str	r0, [r7, #28]
 857:Drivers/STM32G4xx_HAL_Driver/Src/stm32g4xx_hal_rcc_ex.c **** #endif /* UART5 */
 1436              		.loc 1 857 7
 1437 042a FEE2     		b	.L149
 1438              	.L93:
 840:Drivers/STM32G4xx_HAL_Driver/Src/stm32g4xx_hal_rcc_ex.c ****       {
 1439              		.loc 1 840 14
 1440 042c 3B69     		ldr	r3, [r7, #16]
 1441 042e B3F5807F 		cmp	r3, #256
 1442 0432 03D1     		bne	.L95
 842:Drivers/STM32G4xx_HAL_Driver/Src/stm32g4xx_hal_rcc_ex.c ****       }
 1443              		.loc 1 842 21
 1444 0434 FFF7FEFF 		bl	HAL_RCC_GetSysClockFreq
 1445 0438 F861     		str	r0, [r7, #28]
 857:Drivers/STM32G4xx_HAL_Driver/Src/stm32g4xx_hal_rcc_ex.c **** #endif /* UART5 */
 1446              		.loc 1 857 7
 1447 043a F6E2     		b	.L149
 1448              	.L95:
 844:Drivers/STM32G4xx_HAL_Driver/Src/stm32g4xx_hal_rcc_ex.c ****       {
 1449              		.loc 1 844 16
 1450 043c 4E4B     		ldr	r3, .L167
 1451 043e 1B68     		ldr	r3, [r3]
 1452 0440 03F48063 		and	r3, r3, #1024
 844:Drivers/STM32G4xx_HAL_Driver/Src/stm32g4xx_hal_rcc_ex.c ****       {
 1453              		.loc 1 844 14
 1454 0444 B3F5806F 		cmp	r3, #1024
 1455 0448 06D1     		bne	.L96
 844:Drivers/STM32G4xx_HAL_Driver/Src/stm32g4xx_hal_rcc_ex.c ****       {
 1456              		.loc 1 844 56 discriminator 1
 1457 044a 3B69     		ldr	r3, [r7, #16]
ARM GAS  C:\Users\AURORA~1\AppData\Local\Temp\cc3nfJXy.s 			page 50


 1458 044c B3F5007F 		cmp	r3, #512
 1459 0450 02D1     		bne	.L96
 846:Drivers/STM32G4xx_HAL_Driver/Src/stm32g4xx_hal_rcc_ex.c ****       }
 1460              		.loc 1 846 19
 1461 0452 4A4B     		ldr	r3, .L167+4
 1462 0454 FB61     		str	r3, [r7, #28]
 857:Drivers/STM32G4xx_HAL_Driver/Src/stm32g4xx_hal_rcc_ex.c **** #endif /* UART5 */
 1463              		.loc 1 857 7
 1464 0456 E8E2     		b	.L149
 1465              	.L96:
 848:Drivers/STM32G4xx_HAL_Driver/Src/stm32g4xx_hal_rcc_ex.c ****       {
 1466              		.loc 1 848 16
 1467 0458 474B     		ldr	r3, .L167
 1468 045a D3F89030 		ldr	r3, [r3, #144]
 1469 045e 03F00203 		and	r3, r3, #2
 848:Drivers/STM32G4xx_HAL_Driver/Src/stm32g4xx_hal_rcc_ex.c ****       {
 1470              		.loc 1 848 14
 1471 0462 022B     		cmp	r3, #2
 1472 0464 40F0E182 		bne	.L149
 848:Drivers/STM32G4xx_HAL_Driver/Src/stm32g4xx_hal_rcc_ex.c ****       {
 1473              		.loc 1 848 60 discriminator 1
 1474 0468 3B69     		ldr	r3, [r7, #16]
 1475 046a B3F5407F 		cmp	r3, #768
 1476 046e 40F0DC82 		bne	.L149
 850:Drivers/STM32G4xx_HAL_Driver/Src/stm32g4xx_hal_rcc_ex.c ****       }
 1477              		.loc 1 850 19
 1478 0472 4FF40043 		mov	r3, #32768
 1479 0476 FB61     		str	r3, [r7, #28]
 857:Drivers/STM32G4xx_HAL_Driver/Src/stm32g4xx_hal_rcc_ex.c **** #endif /* UART5 */
 1480              		.loc 1 857 7
 1481 0478 D7E2     		b	.L149
 1482              	.L69:
 862:Drivers/STM32G4xx_HAL_Driver/Src/stm32g4xx_hal_rcc_ex.c **** 
 1483              		.loc 1 862 16
 1484 047a 3F4B     		ldr	r3, .L167
 1485 047c D3F88830 		ldr	r3, [r3, #136]
 862:Drivers/STM32G4xx_HAL_Driver/Src/stm32g4xx_hal_rcc_ex.c **** 
 1486              		.loc 1 862 14
 1487 0480 03F44063 		and	r3, r3, #3072
 1488 0484 3B61     		str	r3, [r7, #16]
 864:Drivers/STM32G4xx_HAL_Driver/Src/stm32g4xx_hal_rcc_ex.c ****       {
 1489              		.loc 1 864 9
 1490 0486 3B69     		ldr	r3, [r7, #16]
 1491 0488 002B     		cmp	r3, #0
 1492 048a 03D1     		bne	.L97
 866:Drivers/STM32G4xx_HAL_Driver/Src/stm32g4xx_hal_rcc_ex.c ****       }
 1493              		.loc 1 866 21
 1494 048c FFF7FEFF 		bl	HAL_RCC_GetPCLK1Freq
 1495 0490 F861     		str	r0, [r7, #28]
 885:Drivers/STM32G4xx_HAL_Driver/Src/stm32g4xx_hal_rcc_ex.c **** 
 1496              		.loc 1 885 7
 1497 0492 CCE2     		b	.L150
 1498              	.L97:
 868:Drivers/STM32G4xx_HAL_Driver/Src/stm32g4xx_hal_rcc_ex.c ****       {
 1499              		.loc 1 868 14
 1500 0494 3B69     		ldr	r3, [r7, #16]
 1501 0496 B3F5806F 		cmp	r3, #1024
ARM GAS  C:\Users\AURORA~1\AppData\Local\Temp\cc3nfJXy.s 			page 51


 1502 049a 03D1     		bne	.L99
 870:Drivers/STM32G4xx_HAL_Driver/Src/stm32g4xx_hal_rcc_ex.c ****       }
 1503              		.loc 1 870 21
 1504 049c FFF7FEFF 		bl	HAL_RCC_GetSysClockFreq
 1505 04a0 F861     		str	r0, [r7, #28]
 885:Drivers/STM32G4xx_HAL_Driver/Src/stm32g4xx_hal_rcc_ex.c **** 
 1506              		.loc 1 885 7
 1507 04a2 C4E2     		b	.L150
 1508              	.L99:
 872:Drivers/STM32G4xx_HAL_Driver/Src/stm32g4xx_hal_rcc_ex.c ****       {
 1509              		.loc 1 872 16
 1510 04a4 344B     		ldr	r3, .L167
 1511 04a6 1B68     		ldr	r3, [r3]
 1512 04a8 03F48063 		and	r3, r3, #1024
 872:Drivers/STM32G4xx_HAL_Driver/Src/stm32g4xx_hal_rcc_ex.c ****       {
 1513              		.loc 1 872 14
 1514 04ac B3F5806F 		cmp	r3, #1024
 1515 04b0 06D1     		bne	.L100
 872:Drivers/STM32G4xx_HAL_Driver/Src/stm32g4xx_hal_rcc_ex.c ****       {
 1516              		.loc 1 872 56 discriminator 1
 1517 04b2 3B69     		ldr	r3, [r7, #16]
 1518 04b4 B3F5006F 		cmp	r3, #2048
 1519 04b8 02D1     		bne	.L100
 874:Drivers/STM32G4xx_HAL_Driver/Src/stm32g4xx_hal_rcc_ex.c ****       }
 1520              		.loc 1 874 19
 1521 04ba 304B     		ldr	r3, .L167+4
 1522 04bc FB61     		str	r3, [r7, #28]
 885:Drivers/STM32G4xx_HAL_Driver/Src/stm32g4xx_hal_rcc_ex.c **** 
 1523              		.loc 1 885 7
 1524 04be B6E2     		b	.L150
 1525              	.L100:
 876:Drivers/STM32G4xx_HAL_Driver/Src/stm32g4xx_hal_rcc_ex.c ****       {
 1526              		.loc 1 876 16
 1527 04c0 2D4B     		ldr	r3, .L167
 1528 04c2 D3F89030 		ldr	r3, [r3, #144]
 1529 04c6 03F00203 		and	r3, r3, #2
 876:Drivers/STM32G4xx_HAL_Driver/Src/stm32g4xx_hal_rcc_ex.c ****       {
 1530              		.loc 1 876 14
 1531 04ca 022B     		cmp	r3, #2
 1532 04cc 40F0AF82 		bne	.L150
 876:Drivers/STM32G4xx_HAL_Driver/Src/stm32g4xx_hal_rcc_ex.c ****       {
 1533              		.loc 1 876 60 discriminator 1
 1534 04d0 3B69     		ldr	r3, [r7, #16]
 1535 04d2 B3F5406F 		cmp	r3, #3072
 1536 04d6 40F0AA82 		bne	.L150
 878:Drivers/STM32G4xx_HAL_Driver/Src/stm32g4xx_hal_rcc_ex.c ****       }
 1537              		.loc 1 878 19
 1538 04da 4FF40043 		mov	r3, #32768
 1539 04de FB61     		str	r3, [r7, #28]
 885:Drivers/STM32G4xx_HAL_Driver/Src/stm32g4xx_hal_rcc_ex.c **** 
 1540              		.loc 1 885 7
 1541 04e0 A5E2     		b	.L150
 1542              	.L76:
 889:Drivers/STM32G4xx_HAL_Driver/Src/stm32g4xx_hal_rcc_ex.c **** 
 1543              		.loc 1 889 16
 1544 04e2 254B     		ldr	r3, .L167
 1545 04e4 D3F88830 		ldr	r3, [r3, #136]
ARM GAS  C:\Users\AURORA~1\AppData\Local\Temp\cc3nfJXy.s 			page 52


 889:Drivers/STM32G4xx_HAL_Driver/Src/stm32g4xx_hal_rcc_ex.c **** 
 1546              		.loc 1 889 14
 1547 04e8 03F44053 		and	r3, r3, #12288
 1548 04ec 3B61     		str	r3, [r7, #16]
 891:Drivers/STM32G4xx_HAL_Driver/Src/stm32g4xx_hal_rcc_ex.c ****       {
 1549              		.loc 1 891 9
 1550 04ee 3B69     		ldr	r3, [r7, #16]
 1551 04f0 002B     		cmp	r3, #0
 1552 04f2 03D1     		bne	.L101
 893:Drivers/STM32G4xx_HAL_Driver/Src/stm32g4xx_hal_rcc_ex.c ****       }
 1553              		.loc 1 893 21
 1554 04f4 FFF7FEFF 		bl	HAL_RCC_GetPCLK1Freq
 1555 04f8 F861     		str	r0, [r7, #28]
 908:Drivers/STM32G4xx_HAL_Driver/Src/stm32g4xx_hal_rcc_ex.c **** 
 1556              		.loc 1 908 7
 1557 04fa 9AE2     		b	.L151
 1558              	.L101:
 895:Drivers/STM32G4xx_HAL_Driver/Src/stm32g4xx_hal_rcc_ex.c ****       {
 1559              		.loc 1 895 14
 1560 04fc 3B69     		ldr	r3, [r7, #16]
 1561 04fe B3F5805F 		cmp	r3, #4096
 1562 0502 03D1     		bne	.L103
 897:Drivers/STM32G4xx_HAL_Driver/Src/stm32g4xx_hal_rcc_ex.c ****       }
 1563              		.loc 1 897 21
 1564 0504 FFF7FEFF 		bl	HAL_RCC_GetSysClockFreq
 1565 0508 F861     		str	r0, [r7, #28]
 908:Drivers/STM32G4xx_HAL_Driver/Src/stm32g4xx_hal_rcc_ex.c **** 
 1566              		.loc 1 908 7
 1567 050a 92E2     		b	.L151
 1568              	.L103:
 899:Drivers/STM32G4xx_HAL_Driver/Src/stm32g4xx_hal_rcc_ex.c ****       {
 1569              		.loc 1 899 16
 1570 050c 1A4B     		ldr	r3, .L167
 1571 050e 1B68     		ldr	r3, [r3]
 1572 0510 03F48063 		and	r3, r3, #1024
 899:Drivers/STM32G4xx_HAL_Driver/Src/stm32g4xx_hal_rcc_ex.c ****       {
 1573              		.loc 1 899 14
 1574 0514 B3F5806F 		cmp	r3, #1024
 1575 0518 40F08B82 		bne	.L151
 899:Drivers/STM32G4xx_HAL_Driver/Src/stm32g4xx_hal_rcc_ex.c ****       {
 1576              		.loc 1 899 56 discriminator 1
 1577 051c 3B69     		ldr	r3, [r7, #16]
 1578 051e B3F5005F 		cmp	r3, #8192
 1579 0522 40F08682 		bne	.L151
 901:Drivers/STM32G4xx_HAL_Driver/Src/stm32g4xx_hal_rcc_ex.c ****       }
 1580              		.loc 1 901 19
 1581 0526 154B     		ldr	r3, .L167+4
 1582 0528 FB61     		str	r3, [r7, #28]
 908:Drivers/STM32G4xx_HAL_Driver/Src/stm32g4xx_hal_rcc_ex.c **** 
 1583              		.loc 1 908 7
 1584 052a 82E2     		b	.L151
 1585              	.L67:
 912:Drivers/STM32G4xx_HAL_Driver/Src/stm32g4xx_hal_rcc_ex.c **** 
 1586              		.loc 1 912 16
 1587 052c 124B     		ldr	r3, .L167
 1588 052e D3F88830 		ldr	r3, [r3, #136]
 912:Drivers/STM32G4xx_HAL_Driver/Src/stm32g4xx_hal_rcc_ex.c **** 
ARM GAS  C:\Users\AURORA~1\AppData\Local\Temp\cc3nfJXy.s 			page 53


 1589              		.loc 1 912 14
 1590 0532 03F44043 		and	r3, r3, #49152
 1591 0536 3B61     		str	r3, [r7, #16]
 914:Drivers/STM32G4xx_HAL_Driver/Src/stm32g4xx_hal_rcc_ex.c ****       {
 1592              		.loc 1 914 9
 1593 0538 3B69     		ldr	r3, [r7, #16]
 1594 053a 002B     		cmp	r3, #0
 1595 053c 03D1     		bne	.L104
 916:Drivers/STM32G4xx_HAL_Driver/Src/stm32g4xx_hal_rcc_ex.c ****       }
 1596              		.loc 1 916 21
 1597 053e FFF7FEFF 		bl	HAL_RCC_GetPCLK1Freq
 1598 0542 F861     		str	r0, [r7, #28]
 931:Drivers/STM32G4xx_HAL_Driver/Src/stm32g4xx_hal_rcc_ex.c **** 
 1599              		.loc 1 931 7
 1600 0544 77E2     		b	.L152
 1601              	.L104:
 918:Drivers/STM32G4xx_HAL_Driver/Src/stm32g4xx_hal_rcc_ex.c ****       {
 1602              		.loc 1 918 14
 1603 0546 3B69     		ldr	r3, [r7, #16]
 1604 0548 B3F5804F 		cmp	r3, #16384
 1605 054c 03D1     		bne	.L106
 920:Drivers/STM32G4xx_HAL_Driver/Src/stm32g4xx_hal_rcc_ex.c ****       }
 1606              		.loc 1 920 21
 1607 054e FFF7FEFF 		bl	HAL_RCC_GetSysClockFreq
 1608 0552 F861     		str	r0, [r7, #28]
 931:Drivers/STM32G4xx_HAL_Driver/Src/stm32g4xx_hal_rcc_ex.c **** 
 1609              		.loc 1 931 7
 1610 0554 6FE2     		b	.L152
 1611              	.L106:
 922:Drivers/STM32G4xx_HAL_Driver/Src/stm32g4xx_hal_rcc_ex.c ****       {
 1612              		.loc 1 922 16
 1613 0556 084B     		ldr	r3, .L167
 1614 0558 1B68     		ldr	r3, [r3]
 1615 055a 03F48063 		and	r3, r3, #1024
 922:Drivers/STM32G4xx_HAL_Driver/Src/stm32g4xx_hal_rcc_ex.c ****       {
 1616              		.loc 1 922 14
 1617 055e B3F5806F 		cmp	r3, #1024
 1618 0562 40F06882 		bne	.L152
 922:Drivers/STM32G4xx_HAL_Driver/Src/stm32g4xx_hal_rcc_ex.c ****       {
 1619              		.loc 1 922 56 discriminator 1
 1620 0566 3B69     		ldr	r3, [r7, #16]
 1621 0568 B3F5004F 		cmp	r3, #32768
 1622 056c 40F06382 		bne	.L152
 924:Drivers/STM32G4xx_HAL_Driver/Src/stm32g4xx_hal_rcc_ex.c ****       }
 1623              		.loc 1 924 19
 1624 0570 024B     		ldr	r3, .L167+4
 1625 0572 FB61     		str	r3, [r7, #28]
 931:Drivers/STM32G4xx_HAL_Driver/Src/stm32g4xx_hal_rcc_ex.c **** 
 1626              		.loc 1 931 7
 1627 0574 5FE2     		b	.L152
 1628              	.L168:
 1629 0576 00BF     		.align	2
 1630              	.L167:
 1631 0578 00100240 		.word	1073876992
 1632 057c 0024F400 		.word	16000000
 1633              	.L66:
 935:Drivers/STM32G4xx_HAL_Driver/Src/stm32g4xx_hal_rcc_ex.c **** 
ARM GAS  C:\Users\AURORA~1\AppData\Local\Temp\cc3nfJXy.s 			page 54


 1634              		.loc 1 935 16
 1635 0580 A04B     		ldr	r3, .L169
 1636 0582 D3F88830 		ldr	r3, [r3, #136]
 935:Drivers/STM32G4xx_HAL_Driver/Src/stm32g4xx_hal_rcc_ex.c **** 
 1637              		.loc 1 935 14
 1638 0586 03F44033 		and	r3, r3, #196608
 1639 058a 3B61     		str	r3, [r7, #16]
 937:Drivers/STM32G4xx_HAL_Driver/Src/stm32g4xx_hal_rcc_ex.c ****       {
 1640              		.loc 1 937 9
 1641 058c 3B69     		ldr	r3, [r7, #16]
 1642 058e 002B     		cmp	r3, #0
 1643 0590 03D1     		bne	.L107
 939:Drivers/STM32G4xx_HAL_Driver/Src/stm32g4xx_hal_rcc_ex.c ****       }
 1644              		.loc 1 939 21
 1645 0592 FFF7FEFF 		bl	HAL_RCC_GetPCLK1Freq
 1646 0596 F861     		str	r0, [r7, #28]
 954:Drivers/STM32G4xx_HAL_Driver/Src/stm32g4xx_hal_rcc_ex.c **** 
 1647              		.loc 1 954 7
 1648 0598 4FE2     		b	.L153
 1649              	.L107:
 941:Drivers/STM32G4xx_HAL_Driver/Src/stm32g4xx_hal_rcc_ex.c ****       {
 1650              		.loc 1 941 14
 1651 059a 3B69     		ldr	r3, [r7, #16]
 1652 059c B3F5803F 		cmp	r3, #65536
 1653 05a0 03D1     		bne	.L109
 943:Drivers/STM32G4xx_HAL_Driver/Src/stm32g4xx_hal_rcc_ex.c ****       }
 1654              		.loc 1 943 21
 1655 05a2 FFF7FEFF 		bl	HAL_RCC_GetSysClockFreq
 1656 05a6 F861     		str	r0, [r7, #28]
 954:Drivers/STM32G4xx_HAL_Driver/Src/stm32g4xx_hal_rcc_ex.c **** 
 1657              		.loc 1 954 7
 1658 05a8 47E2     		b	.L153
 1659              	.L109:
 945:Drivers/STM32G4xx_HAL_Driver/Src/stm32g4xx_hal_rcc_ex.c ****       {
 1660              		.loc 1 945 16
 1661 05aa 964B     		ldr	r3, .L169
 1662 05ac 1B68     		ldr	r3, [r3]
 1663 05ae 03F48063 		and	r3, r3, #1024
 945:Drivers/STM32G4xx_HAL_Driver/Src/stm32g4xx_hal_rcc_ex.c ****       {
 1664              		.loc 1 945 14
 1665 05b2 B3F5806F 		cmp	r3, #1024
 1666 05b6 40F04082 		bne	.L153
 945:Drivers/STM32G4xx_HAL_Driver/Src/stm32g4xx_hal_rcc_ex.c ****       {
 1667              		.loc 1 945 56 discriminator 1
 1668 05ba 3B69     		ldr	r3, [r7, #16]
 1669 05bc B3F5003F 		cmp	r3, #131072
 1670 05c0 40F03B82 		bne	.L153
 947:Drivers/STM32G4xx_HAL_Driver/Src/stm32g4xx_hal_rcc_ex.c ****       }
 1671              		.loc 1 947 19
 1672 05c4 904B     		ldr	r3, .L169+4
 1673 05c6 FB61     		str	r3, [r7, #28]
 954:Drivers/STM32G4xx_HAL_Driver/Src/stm32g4xx_hal_rcc_ex.c **** 
 1674              		.loc 1 954 7
 1675 05c8 37E2     		b	.L153
 1676              	.L57:
 960:Drivers/STM32G4xx_HAL_Driver/Src/stm32g4xx_hal_rcc_ex.c **** 
 1677              		.loc 1 960 16
ARM GAS  C:\Users\AURORA~1\AppData\Local\Temp\cc3nfJXy.s 			page 55


 1678 05ca 8E4B     		ldr	r3, .L169
 1679 05cc D3F89C30 		ldr	r3, [r3, #156]
 960:Drivers/STM32G4xx_HAL_Driver/Src/stm32g4xx_hal_rcc_ex.c **** 
 1680              		.loc 1 960 14
 1681 05d0 03F00303 		and	r3, r3, #3
 1682 05d4 3B61     		str	r3, [r7, #16]
 962:Drivers/STM32G4xx_HAL_Driver/Src/stm32g4xx_hal_rcc_ex.c ****       {
 1683              		.loc 1 962 9
 1684 05d6 3B69     		ldr	r3, [r7, #16]
 1685 05d8 002B     		cmp	r3, #0
 1686 05da 03D1     		bne	.L110
 964:Drivers/STM32G4xx_HAL_Driver/Src/stm32g4xx_hal_rcc_ex.c ****       }
 1687              		.loc 1 964 21
 1688 05dc FFF7FEFF 		bl	HAL_RCC_GetPCLK1Freq
 1689 05e0 F861     		str	r0, [r7, #28]
 979:Drivers/STM32G4xx_HAL_Driver/Src/stm32g4xx_hal_rcc_ex.c **** 
 1690              		.loc 1 979 7
 1691 05e2 2CE2     		b	.L154
 1692              	.L110:
 966:Drivers/STM32G4xx_HAL_Driver/Src/stm32g4xx_hal_rcc_ex.c ****       {
 1693              		.loc 1 966 14
 1694 05e4 3B69     		ldr	r3, [r7, #16]
 1695 05e6 012B     		cmp	r3, #1
 1696 05e8 03D1     		bne	.L112
 968:Drivers/STM32G4xx_HAL_Driver/Src/stm32g4xx_hal_rcc_ex.c ****       }
 1697              		.loc 1 968 21
 1698 05ea FFF7FEFF 		bl	HAL_RCC_GetSysClockFreq
 1699 05ee F861     		str	r0, [r7, #28]
 979:Drivers/STM32G4xx_HAL_Driver/Src/stm32g4xx_hal_rcc_ex.c **** 
 1700              		.loc 1 979 7
 1701 05f0 25E2     		b	.L154
 1702              	.L112:
 970:Drivers/STM32G4xx_HAL_Driver/Src/stm32g4xx_hal_rcc_ex.c ****       {
 1703              		.loc 1 970 16
 1704 05f2 844B     		ldr	r3, .L169
 1705 05f4 1B68     		ldr	r3, [r3]
 1706 05f6 03F48063 		and	r3, r3, #1024
 970:Drivers/STM32G4xx_HAL_Driver/Src/stm32g4xx_hal_rcc_ex.c ****       {
 1707              		.loc 1 970 14
 1708 05fa B3F5806F 		cmp	r3, #1024
 1709 05fe 40F01E82 		bne	.L154
 970:Drivers/STM32G4xx_HAL_Driver/Src/stm32g4xx_hal_rcc_ex.c ****       {
 1710              		.loc 1 970 56 discriminator 1
 1711 0602 3B69     		ldr	r3, [r7, #16]
 1712 0604 022B     		cmp	r3, #2
 1713 0606 40F01A82 		bne	.L154
 972:Drivers/STM32G4xx_HAL_Driver/Src/stm32g4xx_hal_rcc_ex.c ****       }
 1714              		.loc 1 972 19
 1715 060a 7F4B     		ldr	r3, .L169+4
 1716 060c FB61     		str	r3, [r7, #28]
 979:Drivers/STM32G4xx_HAL_Driver/Src/stm32g4xx_hal_rcc_ex.c **** 
 1717              		.loc 1 979 7
 1718 060e 16E2     		b	.L154
 1719              	.L65:
 985:Drivers/STM32G4xx_HAL_Driver/Src/stm32g4xx_hal_rcc_ex.c **** 
 1720              		.loc 1 985 16
 1721 0610 7C4B     		ldr	r3, .L169
ARM GAS  C:\Users\AURORA~1\AppData\Local\Temp\cc3nfJXy.s 			page 56


 1722 0612 D3F88830 		ldr	r3, [r3, #136]
 985:Drivers/STM32G4xx_HAL_Driver/Src/stm32g4xx_hal_rcc_ex.c **** 
 1723              		.loc 1 985 14
 1724 0616 03F44023 		and	r3, r3, #786432
 1725 061a 3B61     		str	r3, [r7, #16]
 987:Drivers/STM32G4xx_HAL_Driver/Src/stm32g4xx_hal_rcc_ex.c ****       {
 1726              		.loc 1 987 9
 1727 061c 3B69     		ldr	r3, [r7, #16]
 1728 061e 002B     		cmp	r3, #0
 1729 0620 03D1     		bne	.L113
 989:Drivers/STM32G4xx_HAL_Driver/Src/stm32g4xx_hal_rcc_ex.c ****       }
 1730              		.loc 1 989 21
 1731 0622 FFF7FEFF 		bl	HAL_RCC_GetPCLK1Freq
 1732 0626 F861     		str	r0, [r7, #28]
1008:Drivers/STM32G4xx_HAL_Driver/Src/stm32g4xx_hal_rcc_ex.c **** 
 1733              		.loc 1 1008 7
 1734 0628 0BE2     		b	.L155
 1735              	.L113:
 991:Drivers/STM32G4xx_HAL_Driver/Src/stm32g4xx_hal_rcc_ex.c ****       {
 1736              		.loc 1 991 16
 1737 062a 764B     		ldr	r3, .L169
 1738 062c D3F89430 		ldr	r3, [r3, #148]
 1739 0630 03F00203 		and	r3, r3, #2
 991:Drivers/STM32G4xx_HAL_Driver/Src/stm32g4xx_hal_rcc_ex.c ****       {
 1740              		.loc 1 991 14
 1741 0634 022B     		cmp	r3, #2
 1742 0636 07D1     		bne	.L115
 991:Drivers/STM32G4xx_HAL_Driver/Src/stm32g4xx_hal_rcc_ex.c ****       {
 1743              		.loc 1 991 58 discriminator 1
 1744 0638 3B69     		ldr	r3, [r7, #16]
 1745 063a B3F5802F 		cmp	r3, #262144
 1746 063e 03D1     		bne	.L115
 993:Drivers/STM32G4xx_HAL_Driver/Src/stm32g4xx_hal_rcc_ex.c ****       }
 1747              		.loc 1 993 19
 1748 0640 4FF4FA43 		mov	r3, #32000
 1749 0644 FB61     		str	r3, [r7, #28]
 1750 0646 1EE0     		b	.L114
 1751              	.L115:
 995:Drivers/STM32G4xx_HAL_Driver/Src/stm32g4xx_hal_rcc_ex.c ****       {
 1752              		.loc 1 995 16
 1753 0648 6E4B     		ldr	r3, .L169
 1754 064a 1B68     		ldr	r3, [r3]
 1755 064c 03F48063 		and	r3, r3, #1024
 995:Drivers/STM32G4xx_HAL_Driver/Src/stm32g4xx_hal_rcc_ex.c ****       {
 1756              		.loc 1 995 14
 1757 0650 B3F5806F 		cmp	r3, #1024
 1758 0654 06D1     		bne	.L116
 995:Drivers/STM32G4xx_HAL_Driver/Src/stm32g4xx_hal_rcc_ex.c ****       {
 1759              		.loc 1 995 56 discriminator 1
 1760 0656 3B69     		ldr	r3, [r7, #16]
 1761 0658 B3F5002F 		cmp	r3, #524288
 1762 065c 02D1     		bne	.L116
 997:Drivers/STM32G4xx_HAL_Driver/Src/stm32g4xx_hal_rcc_ex.c ****       }
 1763              		.loc 1 997 19
 1764 065e 6A4B     		ldr	r3, .L169+4
 1765 0660 FB61     		str	r3, [r7, #28]
 1766 0662 10E0     		b	.L114
ARM GAS  C:\Users\AURORA~1\AppData\Local\Temp\cc3nfJXy.s 			page 57


 1767              	.L116:
 999:Drivers/STM32G4xx_HAL_Driver/Src/stm32g4xx_hal_rcc_ex.c ****       {
 1768              		.loc 1 999 17
 1769 0664 674B     		ldr	r3, .L169
 1770 0666 D3F89030 		ldr	r3, [r3, #144]
 1771 066a 03F00203 		and	r3, r3, #2
 999:Drivers/STM32G4xx_HAL_Driver/Src/stm32g4xx_hal_rcc_ex.c ****       {
 1772              		.loc 1 999 15
 1773 066e 022B     		cmp	r3, #2
 1774 0670 40F0E781 		bne	.L155
 999:Drivers/STM32G4xx_HAL_Driver/Src/stm32g4xx_hal_rcc_ex.c ****       {
 1775              		.loc 1 999 61 discriminator 1
 1776 0674 3B69     		ldr	r3, [r7, #16]
 1777 0676 B3F5402F 		cmp	r3, #786432
 1778 067a 40F0E281 		bne	.L155
1001:Drivers/STM32G4xx_HAL_Driver/Src/stm32g4xx_hal_rcc_ex.c ****       }
 1779              		.loc 1 1001 19
 1780 067e 4FF40043 		mov	r3, #32768
 1781 0682 FB61     		str	r3, [r7, #28]
1008:Drivers/STM32G4xx_HAL_Driver/Src/stm32g4xx_hal_rcc_ex.c **** 
 1782              		.loc 1 1008 7
 1783 0684 DDE1     		b	.L155
 1784              	.L114:
 1785 0686 DCE1     		b	.L155
 1786              	.L64:
1012:Drivers/STM32G4xx_HAL_Driver/Src/stm32g4xx_hal_rcc_ex.c **** 
 1787              		.loc 1 1012 16
 1788 0688 5E4B     		ldr	r3, .L169
 1789 068a D3F88830 		ldr	r3, [r3, #136]
1012:Drivers/STM32G4xx_HAL_Driver/Src/stm32g4xx_hal_rcc_ex.c **** 
 1790              		.loc 1 1012 14
 1791 068e 03F44013 		and	r3, r3, #3145728
 1792 0692 3B61     		str	r3, [r7, #16]
1014:Drivers/STM32G4xx_HAL_Driver/Src/stm32g4xx_hal_rcc_ex.c ****       {
 1793              		.loc 1 1014 9
 1794 0694 3B69     		ldr	r3, [r7, #16]
 1795 0696 002B     		cmp	r3, #0
 1796 0698 03D1     		bne	.L117
1016:Drivers/STM32G4xx_HAL_Driver/Src/stm32g4xx_hal_rcc_ex.c ****       }
 1797              		.loc 1 1016 21
 1798 069a FFF7FEFF 		bl	HAL_RCC_GetSysClockFreq
 1799 069e F861     		str	r0, [r7, #28]
1041:Drivers/STM32G4xx_HAL_Driver/Src/stm32g4xx_hal_rcc_ex.c **** 
 1800              		.loc 1 1041 7
 1801 06a0 D1E1     		b	.L156
 1802              	.L117:
1018:Drivers/STM32G4xx_HAL_Driver/Src/stm32g4xx_hal_rcc_ex.c ****       {
 1803              		.loc 1 1018 14
 1804 06a2 3B69     		ldr	r3, [r7, #16]
 1805 06a4 B3F5801F 		cmp	r3, #1048576
 1806 06a8 1BD1     		bne	.L119
1020:Drivers/STM32G4xx_HAL_Driver/Src/stm32g4xx_hal_rcc_ex.c ****         {
 1807              		.loc 1 1020 12
 1808 06aa 564B     		ldr	r3, .L169
 1809 06ac DB68     		ldr	r3, [r3, #12]
 1810 06ae 03F48013 		and	r3, r3, #1048576
1020:Drivers/STM32G4xx_HAL_Driver/Src/stm32g4xx_hal_rcc_ex.c ****         {
ARM GAS  C:\Users\AURORA~1\AppData\Local\Temp\cc3nfJXy.s 			page 58


 1811              		.loc 1 1020 11
 1812 06b2 002B     		cmp	r3, #0
 1813 06b4 00F0C781 		beq	.L156
1023:Drivers/STM32G4xx_HAL_Driver/Src/stm32g4xx_hal_rcc_ex.c ****           frequency = (pllvco * plln) / (((READ_BIT(RCC->PLLCFGR, RCC_PLLCFGR_PLLQ) >> RCC_PLLCFGR_
 1814              		.loc 1 1023 18
 1815 06b8 524B     		ldr	r3, .L169
 1816 06ba DB68     		ldr	r3, [r3, #12]
1023:Drivers/STM32G4xx_HAL_Driver/Src/stm32g4xx_hal_rcc_ex.c ****           frequency = (pllvco * plln) / (((READ_BIT(RCC->PLLCFGR, RCC_PLLCFGR_PLLQ) >> RCC_PLLCFGR_
 1817              		.loc 1 1023 59
 1818 06bc 1B0A     		lsrs	r3, r3, #8
1023:Drivers/STM32G4xx_HAL_Driver/Src/stm32g4xx_hal_rcc_ex.c ****           frequency = (pllvco * plln) / (((READ_BIT(RCC->PLLCFGR, RCC_PLLCFGR_PLLQ) >> RCC_PLLCFGR_
 1819              		.loc 1 1023 16
 1820 06be 03F07F03 		and	r3, r3, #127
 1821 06c2 FB60     		str	r3, [r7, #12]
1024:Drivers/STM32G4xx_HAL_Driver/Src/stm32g4xx_hal_rcc_ex.c ****         }
 1822              		.loc 1 1024 31
 1823 06c4 BB69     		ldr	r3, [r7, #24]
 1824 06c6 FA68     		ldr	r2, [r7, #12]
 1825 06c8 03FB02F2 		mul	r2, r3, r2
1024:Drivers/STM32G4xx_HAL_Driver/Src/stm32g4xx_hal_rcc_ex.c ****         }
 1826              		.loc 1 1024 44
 1827 06cc 4D4B     		ldr	r3, .L169
 1828 06ce DB68     		ldr	r3, [r3, #12]
1024:Drivers/STM32G4xx_HAL_Driver/Src/stm32g4xx_hal_rcc_ex.c ****         }
 1829              		.loc 1 1024 85
 1830 06d0 5B0D     		lsrs	r3, r3, #21
 1831 06d2 03F00303 		and	r3, r3, #3
1024:Drivers/STM32G4xx_HAL_Driver/Src/stm32g4xx_hal_rcc_ex.c ****         }
 1832              		.loc 1 1024 110
 1833 06d6 0133     		adds	r3, r3, #1
1024:Drivers/STM32G4xx_HAL_Driver/Src/stm32g4xx_hal_rcc_ex.c ****         }
 1834              		.loc 1 1024 116
 1835 06d8 5B00     		lsls	r3, r3, #1
1024:Drivers/STM32G4xx_HAL_Driver/Src/stm32g4xx_hal_rcc_ex.c ****         }
 1836              		.loc 1 1024 21
 1837 06da B2FBF3F3 		udiv	r3, r2, r3
 1838 06de FB61     		str	r3, [r7, #28]
1041:Drivers/STM32G4xx_HAL_Driver/Src/stm32g4xx_hal_rcc_ex.c **** 
 1839              		.loc 1 1041 7
 1840 06e0 B1E1     		b	.L156
 1841              	.L119:
1027:Drivers/STM32G4xx_HAL_Driver/Src/stm32g4xx_hal_rcc_ex.c ****       {
 1842              		.loc 1 1027 14
 1843 06e2 3B69     		ldr	r3, [r7, #16]
 1844 06e4 B3F5001F 		cmp	r3, #2097152
 1845 06e8 02D1     		bne	.L120
1030:Drivers/STM32G4xx_HAL_Driver/Src/stm32g4xx_hal_rcc_ex.c ****       }
 1846              		.loc 1 1030 19
 1847 06ea 484B     		ldr	r3, .L169+8
 1848 06ec FB61     		str	r3, [r7, #28]
1041:Drivers/STM32G4xx_HAL_Driver/Src/stm32g4xx_hal_rcc_ex.c **** 
 1849              		.loc 1 1041 7
 1850 06ee AAE1     		b	.L156
 1851              	.L120:
1032:Drivers/STM32G4xx_HAL_Driver/Src/stm32g4xx_hal_rcc_ex.c ****       {
 1852              		.loc 1 1032 16
 1853 06f0 444B     		ldr	r3, .L169
ARM GAS  C:\Users\AURORA~1\AppData\Local\Temp\cc3nfJXy.s 			page 59


 1854 06f2 1B68     		ldr	r3, [r3]
 1855 06f4 03F48063 		and	r3, r3, #1024
1032:Drivers/STM32G4xx_HAL_Driver/Src/stm32g4xx_hal_rcc_ex.c ****       {
 1856              		.loc 1 1032 14
 1857 06f8 B3F5806F 		cmp	r3, #1024
 1858 06fc 40F0A381 		bne	.L156
1032:Drivers/STM32G4xx_HAL_Driver/Src/stm32g4xx_hal_rcc_ex.c ****       {
 1859              		.loc 1 1032 56 discriminator 1
 1860 0700 3B69     		ldr	r3, [r7, #16]
 1861 0702 B3F5401F 		cmp	r3, #3145728
 1862 0706 40F09E81 		bne	.L156
1034:Drivers/STM32G4xx_HAL_Driver/Src/stm32g4xx_hal_rcc_ex.c ****       }
 1863              		.loc 1 1034 19
 1864 070a 3F4B     		ldr	r3, .L169+4
 1865 070c FB61     		str	r3, [r7, #28]
1041:Drivers/STM32G4xx_HAL_Driver/Src/stm32g4xx_hal_rcc_ex.c **** 
 1866              		.loc 1 1041 7
 1867 070e 9AE1     		b	.L156
 1868              	.L63:
1045:Drivers/STM32G4xx_HAL_Driver/Src/stm32g4xx_hal_rcc_ex.c **** 
 1869              		.loc 1 1045 16
 1870 0710 3C4B     		ldr	r3, .L169
 1871 0712 D3F88830 		ldr	r3, [r3, #136]
1045:Drivers/STM32G4xx_HAL_Driver/Src/stm32g4xx_hal_rcc_ex.c **** 
 1872              		.loc 1 1045 14
 1873 0716 03F44003 		and	r3, r3, #12582912
 1874 071a 3B61     		str	r3, [r7, #16]
1047:Drivers/STM32G4xx_HAL_Driver/Src/stm32g4xx_hal_rcc_ex.c ****       {
 1875              		.loc 1 1047 9
 1876 071c 3B69     		ldr	r3, [r7, #16]
 1877 071e 002B     		cmp	r3, #0
 1878 0720 03D1     		bne	.L121
1049:Drivers/STM32G4xx_HAL_Driver/Src/stm32g4xx_hal_rcc_ex.c ****       }
 1879              		.loc 1 1049 21
 1880 0722 FFF7FEFF 		bl	HAL_RCC_GetSysClockFreq
 1881 0726 F861     		str	r0, [r7, #28]
1074:Drivers/STM32G4xx_HAL_Driver/Src/stm32g4xx_hal_rcc_ex.c **** 
 1882              		.loc 1 1074 7
 1883 0728 8FE1     		b	.L157
 1884              	.L121:
1051:Drivers/STM32G4xx_HAL_Driver/Src/stm32g4xx_hal_rcc_ex.c ****       {
 1885              		.loc 1 1051 14
 1886 072a 3B69     		ldr	r3, [r7, #16]
 1887 072c B3F5800F 		cmp	r3, #4194304
 1888 0730 1BD1     		bne	.L123
1053:Drivers/STM32G4xx_HAL_Driver/Src/stm32g4xx_hal_rcc_ex.c ****         {
 1889              		.loc 1 1053 12
 1890 0732 344B     		ldr	r3, .L169
 1891 0734 DB68     		ldr	r3, [r3, #12]
 1892 0736 03F48013 		and	r3, r3, #1048576
1053:Drivers/STM32G4xx_HAL_Driver/Src/stm32g4xx_hal_rcc_ex.c ****         {
 1893              		.loc 1 1053 11
 1894 073a 002B     		cmp	r3, #0
 1895 073c 00F08581 		beq	.L157
1056:Drivers/STM32G4xx_HAL_Driver/Src/stm32g4xx_hal_rcc_ex.c ****           frequency = (pllvco * plln) / (((READ_BIT(RCC->PLLCFGR, RCC_PLLCFGR_PLLQ) >> RCC_PLLCFGR_
 1896              		.loc 1 1056 18
 1897 0740 304B     		ldr	r3, .L169
ARM GAS  C:\Users\AURORA~1\AppData\Local\Temp\cc3nfJXy.s 			page 60


 1898 0742 DB68     		ldr	r3, [r3, #12]
1056:Drivers/STM32G4xx_HAL_Driver/Src/stm32g4xx_hal_rcc_ex.c ****           frequency = (pllvco * plln) / (((READ_BIT(RCC->PLLCFGR, RCC_PLLCFGR_PLLQ) >> RCC_PLLCFGR_
 1899              		.loc 1 1056 59
 1900 0744 1B0A     		lsrs	r3, r3, #8
1056:Drivers/STM32G4xx_HAL_Driver/Src/stm32g4xx_hal_rcc_ex.c ****           frequency = (pllvco * plln) / (((READ_BIT(RCC->PLLCFGR, RCC_PLLCFGR_PLLQ) >> RCC_PLLCFGR_
 1901              		.loc 1 1056 16
 1902 0746 03F07F03 		and	r3, r3, #127
 1903 074a FB60     		str	r3, [r7, #12]
1057:Drivers/STM32G4xx_HAL_Driver/Src/stm32g4xx_hal_rcc_ex.c ****         }
 1904              		.loc 1 1057 31
 1905 074c BB69     		ldr	r3, [r7, #24]
 1906 074e FA68     		ldr	r2, [r7, #12]
 1907 0750 03FB02F2 		mul	r2, r3, r2
1057:Drivers/STM32G4xx_HAL_Driver/Src/stm32g4xx_hal_rcc_ex.c ****         }
 1908              		.loc 1 1057 44
 1909 0754 2B4B     		ldr	r3, .L169
 1910 0756 DB68     		ldr	r3, [r3, #12]
1057:Drivers/STM32G4xx_HAL_Driver/Src/stm32g4xx_hal_rcc_ex.c ****         }
 1911              		.loc 1 1057 85
 1912 0758 5B0D     		lsrs	r3, r3, #21
 1913 075a 03F00303 		and	r3, r3, #3
1057:Drivers/STM32G4xx_HAL_Driver/Src/stm32g4xx_hal_rcc_ex.c ****         }
 1914              		.loc 1 1057 110
 1915 075e 0133     		adds	r3, r3, #1
1057:Drivers/STM32G4xx_HAL_Driver/Src/stm32g4xx_hal_rcc_ex.c ****         }
 1916              		.loc 1 1057 116
 1917 0760 5B00     		lsls	r3, r3, #1
1057:Drivers/STM32G4xx_HAL_Driver/Src/stm32g4xx_hal_rcc_ex.c ****         }
 1918              		.loc 1 1057 21
 1919 0762 B2FBF3F3 		udiv	r3, r2, r3
 1920 0766 FB61     		str	r3, [r7, #28]
1074:Drivers/STM32G4xx_HAL_Driver/Src/stm32g4xx_hal_rcc_ex.c **** 
 1921              		.loc 1 1074 7
 1922 0768 6FE1     		b	.L157
 1923              	.L123:
1060:Drivers/STM32G4xx_HAL_Driver/Src/stm32g4xx_hal_rcc_ex.c ****       {
 1924              		.loc 1 1060 14
 1925 076a 3B69     		ldr	r3, [r7, #16]
 1926 076c B3F5000F 		cmp	r3, #8388608
 1927 0770 02D1     		bne	.L124
1063:Drivers/STM32G4xx_HAL_Driver/Src/stm32g4xx_hal_rcc_ex.c ****       }      
 1928              		.loc 1 1063 19
 1929 0772 264B     		ldr	r3, .L169+8
 1930 0774 FB61     		str	r3, [r7, #28]
1074:Drivers/STM32G4xx_HAL_Driver/Src/stm32g4xx_hal_rcc_ex.c **** 
 1931              		.loc 1 1074 7
 1932 0776 68E1     		b	.L157
 1933              	.L124:
1065:Drivers/STM32G4xx_HAL_Driver/Src/stm32g4xx_hal_rcc_ex.c ****       {
 1934              		.loc 1 1065 16
 1935 0778 224B     		ldr	r3, .L169
 1936 077a 1B68     		ldr	r3, [r3]
 1937 077c 03F48063 		and	r3, r3, #1024
1065:Drivers/STM32G4xx_HAL_Driver/Src/stm32g4xx_hal_rcc_ex.c ****       {
 1938              		.loc 1 1065 14
 1939 0780 B3F5806F 		cmp	r3, #1024
 1940 0784 40F06181 		bne	.L157
ARM GAS  C:\Users\AURORA~1\AppData\Local\Temp\cc3nfJXy.s 			page 61


1065:Drivers/STM32G4xx_HAL_Driver/Src/stm32g4xx_hal_rcc_ex.c ****       {
 1941              		.loc 1 1065 56 discriminator 1
 1942 0788 3B69     		ldr	r3, [r7, #16]
 1943 078a B3F5400F 		cmp	r3, #12582912
 1944 078e 40F05C81 		bne	.L157
1067:Drivers/STM32G4xx_HAL_Driver/Src/stm32g4xx_hal_rcc_ex.c ****       }
 1945              		.loc 1 1067 19
 1946 0792 1D4B     		ldr	r3, .L169+4
 1947 0794 FB61     		str	r3, [r7, #28]
1074:Drivers/STM32G4xx_HAL_Driver/Src/stm32g4xx_hal_rcc_ex.c **** 
 1948              		.loc 1 1074 7
 1949 0796 58E1     		b	.L157
 1950              	.L62:
1079:Drivers/STM32G4xx_HAL_Driver/Src/stm32g4xx_hal_rcc_ex.c **** 
 1951              		.loc 1 1079 16
 1952 0798 1A4B     		ldr	r3, .L169
 1953 079a D3F88830 		ldr	r3, [r3, #136]
1079:Drivers/STM32G4xx_HAL_Driver/Src/stm32g4xx_hal_rcc_ex.c **** 
 1954              		.loc 1 1079 14
 1955 079e 03F04073 		and	r3, r3, #50331648
 1956 07a2 3B61     		str	r3, [r7, #16]
1081:Drivers/STM32G4xx_HAL_Driver/Src/stm32g4xx_hal_rcc_ex.c ****       {
 1957              		.loc 1 1081 9
 1958 07a4 3B69     		ldr	r3, [r7, #16]
 1959 07a6 B3F1007F 		cmp	r3, #33554432
 1960 07aa 03D1     		bne	.L125
1083:Drivers/STM32G4xx_HAL_Driver/Src/stm32g4xx_hal_rcc_ex.c ****       }
 1961              		.loc 1 1083 21
 1962 07ac FFF7FEFF 		bl	HAL_RCC_GetPCLK1Freq
 1963 07b0 F861     		str	r0, [r7, #28]
1103:Drivers/STM32G4xx_HAL_Driver/Src/stm32g4xx_hal_rcc_ex.c **** #endif /* FDCAN1 */
 1964              		.loc 1 1103 7
 1965 07b2 4CE1     		b	.L158
 1966              	.L125:
1085:Drivers/STM32G4xx_HAL_Driver/Src/stm32g4xx_hal_rcc_ex.c ****       {
 1967              		.loc 1 1085 14
 1968 07b4 3B69     		ldr	r3, [r7, #16]
 1969 07b6 002B     		cmp	r3, #0
 1970 07b8 02D1     		bne	.L127
1087:Drivers/STM32G4xx_HAL_Driver/Src/stm32g4xx_hal_rcc_ex.c ****       }
 1971              		.loc 1 1087 19
 1972 07ba 154B     		ldr	r3, .L169+12
 1973 07bc FB61     		str	r3, [r7, #28]
1103:Drivers/STM32G4xx_HAL_Driver/Src/stm32g4xx_hal_rcc_ex.c **** #endif /* FDCAN1 */
 1974              		.loc 1 1103 7
 1975 07be 46E1     		b	.L158
 1976              	.L127:
1089:Drivers/STM32G4xx_HAL_Driver/Src/stm32g4xx_hal_rcc_ex.c ****       {
 1977              		.loc 1 1089 14
 1978 07c0 3B69     		ldr	r3, [r7, #16]
 1979 07c2 B3F1807F 		cmp	r3, #16777216
 1980 07c6 40F04281 		bne	.L158
1091:Drivers/STM32G4xx_HAL_Driver/Src/stm32g4xx_hal_rcc_ex.c ****         {
 1981              		.loc 1 1091 12
 1982 07ca 0E4B     		ldr	r3, .L169
 1983 07cc DB68     		ldr	r3, [r3, #12]
 1984 07ce 03F48013 		and	r3, r3, #1048576
ARM GAS  C:\Users\AURORA~1\AppData\Local\Temp\cc3nfJXy.s 			page 62


1091:Drivers/STM32G4xx_HAL_Driver/Src/stm32g4xx_hal_rcc_ex.c ****         {
 1985              		.loc 1 1091 11
 1986 07d2 002B     		cmp	r3, #0
 1987 07d4 00F03B81 		beq	.L158
1094:Drivers/STM32G4xx_HAL_Driver/Src/stm32g4xx_hal_rcc_ex.c ****           frequency = (pllvco * plln) / (((READ_BIT(RCC->PLLCFGR, RCC_PLLCFGR_PLLQ) >> RCC_PLLCFGR_
 1988              		.loc 1 1094 18
 1989 07d8 0A4B     		ldr	r3, .L169
 1990 07da DB68     		ldr	r3, [r3, #12]
1094:Drivers/STM32G4xx_HAL_Driver/Src/stm32g4xx_hal_rcc_ex.c ****           frequency = (pllvco * plln) / (((READ_BIT(RCC->PLLCFGR, RCC_PLLCFGR_PLLQ) >> RCC_PLLCFGR_
 1991              		.loc 1 1094 59
 1992 07dc 1B0A     		lsrs	r3, r3, #8
1094:Drivers/STM32G4xx_HAL_Driver/Src/stm32g4xx_hal_rcc_ex.c ****           frequency = (pllvco * plln) / (((READ_BIT(RCC->PLLCFGR, RCC_PLLCFGR_PLLQ) >> RCC_PLLCFGR_
 1993              		.loc 1 1094 16
 1994 07de 03F07F03 		and	r3, r3, #127
 1995 07e2 FB60     		str	r3, [r7, #12]
1095:Drivers/STM32G4xx_HAL_Driver/Src/stm32g4xx_hal_rcc_ex.c ****         }
 1996              		.loc 1 1095 31
 1997 07e4 BB69     		ldr	r3, [r7, #24]
 1998 07e6 FA68     		ldr	r2, [r7, #12]
 1999 07e8 03FB02F2 		mul	r2, r3, r2
1095:Drivers/STM32G4xx_HAL_Driver/Src/stm32g4xx_hal_rcc_ex.c ****         }
 2000              		.loc 1 1095 44
 2001 07ec 054B     		ldr	r3, .L169
 2002 07ee DB68     		ldr	r3, [r3, #12]
1095:Drivers/STM32G4xx_HAL_Driver/Src/stm32g4xx_hal_rcc_ex.c ****         }
 2003              		.loc 1 1095 85
 2004 07f0 5B0D     		lsrs	r3, r3, #21
 2005 07f2 03F00303 		and	r3, r3, #3
1095:Drivers/STM32G4xx_HAL_Driver/Src/stm32g4xx_hal_rcc_ex.c ****         }
 2006              		.loc 1 1095 110
 2007 07f6 0133     		adds	r3, r3, #1
1095:Drivers/STM32G4xx_HAL_Driver/Src/stm32g4xx_hal_rcc_ex.c ****         }
 2008              		.loc 1 1095 116
 2009 07f8 5B00     		lsls	r3, r3, #1
1095:Drivers/STM32G4xx_HAL_Driver/Src/stm32g4xx_hal_rcc_ex.c ****         }
 2010              		.loc 1 1095 21
 2011 07fa B2FBF3F3 		udiv	r3, r2, r3
 2012 07fe FB61     		str	r3, [r7, #28]
1103:Drivers/STM32G4xx_HAL_Driver/Src/stm32g4xx_hal_rcc_ex.c **** #endif /* FDCAN1 */
 2013              		.loc 1 1103 7
 2014 0800 25E1     		b	.L158
 2015              	.L170:
 2016 0802 00BF     		.align	2
 2017              	.L169:
 2018 0804 00100240 		.word	1073876992
 2019 0808 0024F400 		.word	16000000
 2020 080c 0080BB00 		.word	12288000
 2021 0810 00127A00 		.word	8000000
 2022              	.L61:
1110:Drivers/STM32G4xx_HAL_Driver/Src/stm32g4xx_hal_rcc_ex.c ****       
 2023              		.loc 1 1110 16
 2024 0814 964B     		ldr	r3, .L171
 2025 0816 D3F88830 		ldr	r3, [r3, #136]
1110:Drivers/STM32G4xx_HAL_Driver/Src/stm32g4xx_hal_rcc_ex.c ****       
 2026              		.loc 1 1110 14
 2027 081a 03F04063 		and	r3, r3, #201326592
 2028 081e 3B61     		str	r3, [r7, #16]
ARM GAS  C:\Users\AURORA~1\AppData\Local\Temp\cc3nfJXy.s 			page 63


1112:Drivers/STM32G4xx_HAL_Driver/Src/stm32g4xx_hal_rcc_ex.c ****       {
 2029              		.loc 1 1112 9
 2030 0820 3B69     		ldr	r3, [r7, #16]
 2031 0822 B3F1006F 		cmp	r3, #134217728
 2032 0826 14D1     		bne	.L128
1115:Drivers/STM32G4xx_HAL_Driver/Src/stm32g4xx_hal_rcc_ex.c ****         frequency = (pllvco * plln) / (((READ_BIT(RCC->PLLCFGR, RCC_PLLCFGR_PLLQ) >> RCC_PLLCFGR_PL
 2033              		.loc 1 1115 16
 2034 0828 914B     		ldr	r3, .L171
 2035 082a DB68     		ldr	r3, [r3, #12]
1115:Drivers/STM32G4xx_HAL_Driver/Src/stm32g4xx_hal_rcc_ex.c ****         frequency = (pllvco * plln) / (((READ_BIT(RCC->PLLCFGR, RCC_PLLCFGR_PLLQ) >> RCC_PLLCFGR_PL
 2036              		.loc 1 1115 57
 2037 082c 1B0A     		lsrs	r3, r3, #8
1115:Drivers/STM32G4xx_HAL_Driver/Src/stm32g4xx_hal_rcc_ex.c ****         frequency = (pllvco * plln) / (((READ_BIT(RCC->PLLCFGR, RCC_PLLCFGR_PLLQ) >> RCC_PLLCFGR_PL
 2038              		.loc 1 1115 14
 2039 082e 03F07F03 		and	r3, r3, #127
 2040 0832 FB60     		str	r3, [r7, #12]
1116:Drivers/STM32G4xx_HAL_Driver/Src/stm32g4xx_hal_rcc_ex.c ****       }
 2041              		.loc 1 1116 29
 2042 0834 BB69     		ldr	r3, [r7, #24]
 2043 0836 FA68     		ldr	r2, [r7, #12]
 2044 0838 03FB02F2 		mul	r2, r3, r2
1116:Drivers/STM32G4xx_HAL_Driver/Src/stm32g4xx_hal_rcc_ex.c ****       }
 2045              		.loc 1 1116 42
 2046 083c 8C4B     		ldr	r3, .L171
 2047 083e DB68     		ldr	r3, [r3, #12]
1116:Drivers/STM32G4xx_HAL_Driver/Src/stm32g4xx_hal_rcc_ex.c ****       }
 2048              		.loc 1 1116 83
 2049 0840 5B0D     		lsrs	r3, r3, #21
 2050 0842 03F00303 		and	r3, r3, #3
1116:Drivers/STM32G4xx_HAL_Driver/Src/stm32g4xx_hal_rcc_ex.c ****       }
 2051              		.loc 1 1116 108
 2052 0846 0133     		adds	r3, r3, #1
1116:Drivers/STM32G4xx_HAL_Driver/Src/stm32g4xx_hal_rcc_ex.c ****       }
 2053              		.loc 1 1116 114
 2054 0848 5B00     		lsls	r3, r3, #1
1116:Drivers/STM32G4xx_HAL_Driver/Src/stm32g4xx_hal_rcc_ex.c ****       }
 2055              		.loc 1 1116 19
 2056 084a B2FBF3F3 		udiv	r3, r2, r3
 2057 084e FB61     		str	r3, [r7, #28]
1126:Drivers/STM32G4xx_HAL_Driver/Src/stm32g4xx_hal_rcc_ex.c ****       
 2058              		.loc 1 1126 7
 2059 0850 FFE0     		b	.L159
 2060              	.L128:
1118:Drivers/STM32G4xx_HAL_Driver/Src/stm32g4xx_hal_rcc_ex.c ****       {
 2061              		.loc 1 1118 16
 2062 0852 874B     		ldr	r3, .L171
 2063 0854 D3F89830 		ldr	r3, [r3, #152]
 2064 0858 03F00203 		and	r3, r3, #2
1118:Drivers/STM32G4xx_HAL_Driver/Src/stm32g4xx_hal_rcc_ex.c ****       {
 2065              		.loc 1 1118 14
 2066 085c 022B     		cmp	r3, #2
 2067 085e 40F0F880 		bne	.L159
1118:Drivers/STM32G4xx_HAL_Driver/Src/stm32g4xx_hal_rcc_ex.c ****       {
 2068              		.loc 1 1118 64 discriminator 1
 2069 0862 3B69     		ldr	r3, [r7, #16]
 2070 0864 002B     		cmp	r3, #0
 2071 0866 40F0F480 		bne	.L159
ARM GAS  C:\Users\AURORA~1\AppData\Local\Temp\cc3nfJXy.s 			page 64


1120:Drivers/STM32G4xx_HAL_Driver/Src/stm32g4xx_hal_rcc_ex.c ****       }
 2072              		.loc 1 1120 19
 2073 086a 824B     		ldr	r3, .L171+4
 2074 086c FB61     		str	r3, [r7, #28]
1126:Drivers/STM32G4xx_HAL_Driver/Src/stm32g4xx_hal_rcc_ex.c ****       
 2075              		.loc 1 1126 7
 2076 086e F0E0     		b	.L159
 2077              	.L60:
1132:Drivers/STM32G4xx_HAL_Driver/Src/stm32g4xx_hal_rcc_ex.c **** 
 2078              		.loc 1 1132 16
 2079 0870 7F4B     		ldr	r3, .L171
 2080 0872 D3F88830 		ldr	r3, [r3, #136]
1132:Drivers/STM32G4xx_HAL_Driver/Src/stm32g4xx_hal_rcc_ex.c **** 
 2081              		.loc 1 1132 14
 2082 0876 03F04063 		and	r3, r3, #201326592
 2083 087a 3B61     		str	r3, [r7, #16]
1134:Drivers/STM32G4xx_HAL_Driver/Src/stm32g4xx_hal_rcc_ex.c ****       {
 2084              		.loc 1 1134 9
 2085 087c 3B69     		ldr	r3, [r7, #16]
 2086 087e B3F1006F 		cmp	r3, #134217728
 2087 0882 14D1     		bne	.L130
1137:Drivers/STM32G4xx_HAL_Driver/Src/stm32g4xx_hal_rcc_ex.c ****         frequency = (pllvco * plln) / (((READ_BIT(RCC->PLLCFGR, RCC_PLLCFGR_PLLQ) >> RCC_PLLCFGR_PL
 2088              		.loc 1 1137 16
 2089 0884 7A4B     		ldr	r3, .L171
 2090 0886 DB68     		ldr	r3, [r3, #12]
1137:Drivers/STM32G4xx_HAL_Driver/Src/stm32g4xx_hal_rcc_ex.c ****         frequency = (pllvco * plln) / (((READ_BIT(RCC->PLLCFGR, RCC_PLLCFGR_PLLQ) >> RCC_PLLCFGR_PL
 2091              		.loc 1 1137 57
 2092 0888 1B0A     		lsrs	r3, r3, #8
1137:Drivers/STM32G4xx_HAL_Driver/Src/stm32g4xx_hal_rcc_ex.c ****         frequency = (pllvco * plln) / (((READ_BIT(RCC->PLLCFGR, RCC_PLLCFGR_PLLQ) >> RCC_PLLCFGR_PL
 2093              		.loc 1 1137 14
 2094 088a 03F07F03 		and	r3, r3, #127
 2095 088e FB60     		str	r3, [r7, #12]
1138:Drivers/STM32G4xx_HAL_Driver/Src/stm32g4xx_hal_rcc_ex.c ****       }
 2096              		.loc 1 1138 29
 2097 0890 BB69     		ldr	r3, [r7, #24]
 2098 0892 FA68     		ldr	r2, [r7, #12]
 2099 0894 03FB02F2 		mul	r2, r3, r2
1138:Drivers/STM32G4xx_HAL_Driver/Src/stm32g4xx_hal_rcc_ex.c ****       }
 2100              		.loc 1 1138 42
 2101 0898 754B     		ldr	r3, .L171
 2102 089a DB68     		ldr	r3, [r3, #12]
1138:Drivers/STM32G4xx_HAL_Driver/Src/stm32g4xx_hal_rcc_ex.c ****       }
 2103              		.loc 1 1138 83
 2104 089c 5B0D     		lsrs	r3, r3, #21
 2105 089e 03F00303 		and	r3, r3, #3
1138:Drivers/STM32G4xx_HAL_Driver/Src/stm32g4xx_hal_rcc_ex.c ****       }
 2106              		.loc 1 1138 108
 2107 08a2 0133     		adds	r3, r3, #1
1138:Drivers/STM32G4xx_HAL_Driver/Src/stm32g4xx_hal_rcc_ex.c ****       }
 2108              		.loc 1 1138 114
 2109 08a4 5B00     		lsls	r3, r3, #1
1138:Drivers/STM32G4xx_HAL_Driver/Src/stm32g4xx_hal_rcc_ex.c ****       }
 2110              		.loc 1 1138 19
 2111 08a6 B2FBF3F3 		udiv	r3, r2, r3
 2112 08aa FB61     		str	r3, [r7, #28]
1148:Drivers/STM32G4xx_HAL_Driver/Src/stm32g4xx_hal_rcc_ex.c **** 
 2113              		.loc 1 1148 7
ARM GAS  C:\Users\AURORA~1\AppData\Local\Temp\cc3nfJXy.s 			page 65


 2114 08ac D3E0     		b	.L160
 2115              	.L130:
1140:Drivers/STM32G4xx_HAL_Driver/Src/stm32g4xx_hal_rcc_ex.c ****       {
 2116              		.loc 1 1140 17
 2117 08ae 704B     		ldr	r3, .L171
 2118 08b0 D3F89830 		ldr	r3, [r3, #152]
 2119 08b4 03F00203 		and	r3, r3, #2
1140:Drivers/STM32G4xx_HAL_Driver/Src/stm32g4xx_hal_rcc_ex.c ****       {
 2120              		.loc 1 1140 14
 2121 08b8 022B     		cmp	r3, #2
 2122 08ba 40F0CC80 		bne	.L160
1140:Drivers/STM32G4xx_HAL_Driver/Src/stm32g4xx_hal_rcc_ex.c ****       {
 2123              		.loc 1 1140 65 discriminator 1
 2124 08be 3B69     		ldr	r3, [r7, #16]
 2125 08c0 002B     		cmp	r3, #0
 2126 08c2 40F0C880 		bne	.L160
1142:Drivers/STM32G4xx_HAL_Driver/Src/stm32g4xx_hal_rcc_ex.c ****       }
 2127              		.loc 1 1142 19
 2128 08c6 6B4B     		ldr	r3, .L171+4
 2129 08c8 FB61     		str	r3, [r7, #28]
1148:Drivers/STM32G4xx_HAL_Driver/Src/stm32g4xx_hal_rcc_ex.c **** 
 2130              		.loc 1 1148 7
 2131 08ca C4E0     		b	.L160
 2132              	.L59:
1152:Drivers/STM32G4xx_HAL_Driver/Src/stm32g4xx_hal_rcc_ex.c ****       
 2133              		.loc 1 1152 16
 2134 08cc 684B     		ldr	r3, .L171
 2135 08ce D3F88830 		ldr	r3, [r3, #136]
1152:Drivers/STM32G4xx_HAL_Driver/Src/stm32g4xx_hal_rcc_ex.c ****       
 2136              		.loc 1 1152 14
 2137 08d2 03F04053 		and	r3, r3, #805306368
 2138 08d6 3B61     		str	r3, [r7, #16]
1154:Drivers/STM32G4xx_HAL_Driver/Src/stm32g4xx_hal_rcc_ex.c ****       {
 2139              		.loc 1 1154 9
 2140 08d8 3B69     		ldr	r3, [r7, #16]
 2141 08da B3F1805F 		cmp	r3, #268435456
 2142 08de 29D1     		bne	.L132
1156:Drivers/STM32G4xx_HAL_Driver/Src/stm32g4xx_hal_rcc_ex.c ****         {
 2143              		.loc 1 1156 12
 2144 08e0 634B     		ldr	r3, .L171
 2145 08e2 DB68     		ldr	r3, [r3, #12]
 2146 08e4 03F48033 		and	r3, r3, #65536
1156:Drivers/STM32G4xx_HAL_Driver/Src/stm32g4xx_hal_rcc_ex.c ****         {
 2147              		.loc 1 1156 11
 2148 08e8 002B     		cmp	r3, #0
 2149 08ea 00F0B680 		beq	.L161
1159:Drivers/STM32G4xx_HAL_Driver/Src/stm32g4xx_hal_rcc_ex.c ****           pllp = READ_BIT(RCC->PLLCFGR, RCC_PLLCFGR_PLLPDIV) >> RCC_PLLCFGR_PLLPDIV_Pos;
 2150              		.loc 1 1159 18
 2151 08ee 604B     		ldr	r3, .L171
 2152 08f0 DB68     		ldr	r3, [r3, #12]
1159:Drivers/STM32G4xx_HAL_Driver/Src/stm32g4xx_hal_rcc_ex.c ****           pllp = READ_BIT(RCC->PLLCFGR, RCC_PLLCFGR_PLLPDIV) >> RCC_PLLCFGR_PLLPDIV_Pos;
 2153              		.loc 1 1159 59
 2154 08f2 1B0A     		lsrs	r3, r3, #8
1159:Drivers/STM32G4xx_HAL_Driver/Src/stm32g4xx_hal_rcc_ex.c ****           pllp = READ_BIT(RCC->PLLCFGR, RCC_PLLCFGR_PLLPDIV) >> RCC_PLLCFGR_PLLPDIV_Pos;
 2155              		.loc 1 1159 16
 2156 08f4 03F07F03 		and	r3, r3, #127
 2157 08f8 FB60     		str	r3, [r7, #12]
ARM GAS  C:\Users\AURORA~1\AppData\Local\Temp\cc3nfJXy.s 			page 66


1160:Drivers/STM32G4xx_HAL_Driver/Src/stm32g4xx_hal_rcc_ex.c ****           if(pllp == 0U)
 2158              		.loc 1 1160 18
 2159 08fa 5D4B     		ldr	r3, .L171
 2160 08fc DB68     		ldr	r3, [r3, #12]
1160:Drivers/STM32G4xx_HAL_Driver/Src/stm32g4xx_hal_rcc_ex.c ****           if(pllp == 0U)
 2161              		.loc 1 1160 62
 2162 08fe DB0E     		lsrs	r3, r3, #27
1160:Drivers/STM32G4xx_HAL_Driver/Src/stm32g4xx_hal_rcc_ex.c ****           if(pllp == 0U)
 2163              		.loc 1 1160 16
 2164 0900 03F01F03 		and	r3, r3, #31
 2165 0904 7B61     		str	r3, [r7, #20]
1161:Drivers/STM32G4xx_HAL_Driver/Src/stm32g4xx_hal_rcc_ex.c ****           {
 2166              		.loc 1 1161 13
 2167 0906 7B69     		ldr	r3, [r7, #20]
 2168 0908 002B     		cmp	r3, #0
 2169 090a 0AD1     		bne	.L134
1163:Drivers/STM32G4xx_HAL_Driver/Src/stm32g4xx_hal_rcc_ex.c ****             {
 2170              		.loc 1 1163 16
 2171 090c 584B     		ldr	r3, .L171
 2172 090e DB68     		ldr	r3, [r3, #12]
 2173 0910 03F40033 		and	r3, r3, #131072
1163:Drivers/STM32G4xx_HAL_Driver/Src/stm32g4xx_hal_rcc_ex.c ****             {
 2174              		.loc 1 1163 15
 2175 0914 002B     		cmp	r3, #0
 2176 0916 02D0     		beq	.L135
1165:Drivers/STM32G4xx_HAL_Driver/Src/stm32g4xx_hal_rcc_ex.c ****             }
 2177              		.loc 1 1165 20
 2178 0918 1123     		movs	r3, #17
 2179 091a 7B61     		str	r3, [r7, #20]
 2180 091c 01E0     		b	.L134
 2181              	.L135:
1169:Drivers/STM32G4xx_HAL_Driver/Src/stm32g4xx_hal_rcc_ex.c ****             }
 2182              		.loc 1 1169 20
 2183 091e 0723     		movs	r3, #7
 2184 0920 7B61     		str	r3, [r7, #20]
 2185              	.L134:
1172:Drivers/STM32G4xx_HAL_Driver/Src/stm32g4xx_hal_rcc_ex.c ****         }
 2186              		.loc 1 1172 31
 2187 0922 BB69     		ldr	r3, [r7, #24]
 2188 0924 FA68     		ldr	r2, [r7, #12]
 2189 0926 03FB02F2 		mul	r2, r3, r2
1172:Drivers/STM32G4xx_HAL_Driver/Src/stm32g4xx_hal_rcc_ex.c ****         }
 2190              		.loc 1 1172 21
 2191 092a 7B69     		ldr	r3, [r7, #20]
 2192 092c B2FBF3F3 		udiv	r3, r2, r3
 2193 0930 FB61     		str	r3, [r7, #28]
1184:Drivers/STM32G4xx_HAL_Driver/Src/stm32g4xx_hal_rcc_ex.c **** 
 2194              		.loc 1 1184 7
 2195 0932 92E0     		b	.L161
 2196              	.L132:
1175:Drivers/STM32G4xx_HAL_Driver/Src/stm32g4xx_hal_rcc_ex.c ****       {
 2197              		.loc 1 1175 14
 2198 0934 3B69     		ldr	r3, [r7, #16]
 2199 0936 B3F1005F 		cmp	r3, #536870912
 2200 093a 40F08E80 		bne	.L161
1177:Drivers/STM32G4xx_HAL_Driver/Src/stm32g4xx_hal_rcc_ex.c ****       }
 2201              		.loc 1 1177 21
ARM GAS  C:\Users\AURORA~1\AppData\Local\Temp\cc3nfJXy.s 			page 67


 2202 093e FFF7FEFF 		bl	HAL_RCC_GetSysClockFreq
 2203 0942 F861     		str	r0, [r7, #28]
1184:Drivers/STM32G4xx_HAL_Driver/Src/stm32g4xx_hal_rcc_ex.c **** 
 2204              		.loc 1 1184 7
 2205 0944 89E0     		b	.L161
 2206              	.L58:
1189:Drivers/STM32G4xx_HAL_Driver/Src/stm32g4xx_hal_rcc_ex.c ****       
 2207              		.loc 1 1189 16
 2208 0946 4A4B     		ldr	r3, .L171
 2209 0948 D3F88830 		ldr	r3, [r3, #136]
1189:Drivers/STM32G4xx_HAL_Driver/Src/stm32g4xx_hal_rcc_ex.c ****       
 2210              		.loc 1 1189 14
 2211 094c 03F04043 		and	r3, r3, #-1073741824
 2212 0950 3B61     		str	r3, [r7, #16]
1191:Drivers/STM32G4xx_HAL_Driver/Src/stm32g4xx_hal_rcc_ex.c ****       {
 2213              		.loc 1 1191 9
 2214 0952 3B69     		ldr	r3, [r7, #16]
 2215 0954 B3F1804F 		cmp	r3, #1073741824
 2216 0958 28D1     		bne	.L136
1193:Drivers/STM32G4xx_HAL_Driver/Src/stm32g4xx_hal_rcc_ex.c ****         {
 2217              		.loc 1 1193 12
 2218 095a 454B     		ldr	r3, .L171
 2219 095c DB68     		ldr	r3, [r3, #12]
 2220 095e 03F48033 		and	r3, r3, #65536
1193:Drivers/STM32G4xx_HAL_Driver/Src/stm32g4xx_hal_rcc_ex.c ****         {
 2221              		.loc 1 1193 11
 2222 0962 002B     		cmp	r3, #0
 2223 0964 7BD0     		beq	.L162
1196:Drivers/STM32G4xx_HAL_Driver/Src/stm32g4xx_hal_rcc_ex.c ****           pllp = READ_BIT(RCC->PLLCFGR, RCC_PLLCFGR_PLLPDIV) >> RCC_PLLCFGR_PLLPDIV_Pos;
 2224              		.loc 1 1196 18
 2225 0966 424B     		ldr	r3, .L171
 2226 0968 DB68     		ldr	r3, [r3, #12]
1196:Drivers/STM32G4xx_HAL_Driver/Src/stm32g4xx_hal_rcc_ex.c ****           pllp = READ_BIT(RCC->PLLCFGR, RCC_PLLCFGR_PLLPDIV) >> RCC_PLLCFGR_PLLPDIV_Pos;
 2227              		.loc 1 1196 59
 2228 096a 1B0A     		lsrs	r3, r3, #8
1196:Drivers/STM32G4xx_HAL_Driver/Src/stm32g4xx_hal_rcc_ex.c ****           pllp = READ_BIT(RCC->PLLCFGR, RCC_PLLCFGR_PLLPDIV) >> RCC_PLLCFGR_PLLPDIV_Pos;
 2229              		.loc 1 1196 16
 2230 096c 03F07F03 		and	r3, r3, #127
 2231 0970 FB60     		str	r3, [r7, #12]
1197:Drivers/STM32G4xx_HAL_Driver/Src/stm32g4xx_hal_rcc_ex.c ****           if(pllp == 0U)
 2232              		.loc 1 1197 18
 2233 0972 3F4B     		ldr	r3, .L171
 2234 0974 DB68     		ldr	r3, [r3, #12]
1197:Drivers/STM32G4xx_HAL_Driver/Src/stm32g4xx_hal_rcc_ex.c ****           if(pllp == 0U)
 2235              		.loc 1 1197 62
 2236 0976 DB0E     		lsrs	r3, r3, #27
1197:Drivers/STM32G4xx_HAL_Driver/Src/stm32g4xx_hal_rcc_ex.c ****           if(pllp == 0U)
 2237              		.loc 1 1197 16
 2238 0978 03F01F03 		and	r3, r3, #31
 2239 097c 7B61     		str	r3, [r7, #20]
1198:Drivers/STM32G4xx_HAL_Driver/Src/stm32g4xx_hal_rcc_ex.c ****           {
 2240              		.loc 1 1198 13
 2241 097e 7B69     		ldr	r3, [r7, #20]
 2242 0980 002B     		cmp	r3, #0
 2243 0982 0AD1     		bne	.L138
1200:Drivers/STM32G4xx_HAL_Driver/Src/stm32g4xx_hal_rcc_ex.c ****             {
 2244              		.loc 1 1200 16
ARM GAS  C:\Users\AURORA~1\AppData\Local\Temp\cc3nfJXy.s 			page 68


 2245 0984 3A4B     		ldr	r3, .L171
 2246 0986 DB68     		ldr	r3, [r3, #12]
 2247 0988 03F40033 		and	r3, r3, #131072
1200:Drivers/STM32G4xx_HAL_Driver/Src/stm32g4xx_hal_rcc_ex.c ****             {
 2248              		.loc 1 1200 15
 2249 098c 002B     		cmp	r3, #0
 2250 098e 02D0     		beq	.L139
1202:Drivers/STM32G4xx_HAL_Driver/Src/stm32g4xx_hal_rcc_ex.c ****             }
 2251              		.loc 1 1202 20
 2252 0990 1123     		movs	r3, #17
 2253 0992 7B61     		str	r3, [r7, #20]
 2254 0994 01E0     		b	.L138
 2255              	.L139:
1206:Drivers/STM32G4xx_HAL_Driver/Src/stm32g4xx_hal_rcc_ex.c ****             }
 2256              		.loc 1 1206 20
 2257 0996 0723     		movs	r3, #7
 2258 0998 7B61     		str	r3, [r7, #20]
 2259              	.L138:
1209:Drivers/STM32G4xx_HAL_Driver/Src/stm32g4xx_hal_rcc_ex.c ****         }
 2260              		.loc 1 1209 31
 2261 099a BB69     		ldr	r3, [r7, #24]
 2262 099c FA68     		ldr	r2, [r7, #12]
 2263 099e 03FB02F2 		mul	r2, r3, r2
1209:Drivers/STM32G4xx_HAL_Driver/Src/stm32g4xx_hal_rcc_ex.c ****         }
 2264              		.loc 1 1209 21
 2265 09a2 7B69     		ldr	r3, [r7, #20]
 2266 09a4 B2FBF3F3 		udiv	r3, r2, r3
 2267 09a8 FB61     		str	r3, [r7, #28]
1221:Drivers/STM32G4xx_HAL_Driver/Src/stm32g4xx_hal_rcc_ex.c **** #endif /* ADC345_COMMON */
 2268              		.loc 1 1221 7
 2269 09aa 58E0     		b	.L162
 2270              	.L136:
1212:Drivers/STM32G4xx_HAL_Driver/Src/stm32g4xx_hal_rcc_ex.c ****       {
 2271              		.loc 1 1212 14
 2272 09ac 3B69     		ldr	r3, [r7, #16]
 2273 09ae B3F1004F 		cmp	r3, #-2147483648
 2274 09b2 54D1     		bne	.L162
1214:Drivers/STM32G4xx_HAL_Driver/Src/stm32g4xx_hal_rcc_ex.c ****       }
 2275              		.loc 1 1214 21
 2276 09b4 FFF7FEFF 		bl	HAL_RCC_GetSysClockFreq
 2277 09b8 F861     		str	r0, [r7, #28]
1221:Drivers/STM32G4xx_HAL_Driver/Src/stm32g4xx_hal_rcc_ex.c **** #endif /* ADC345_COMMON */
 2278              		.loc 1 1221 7
 2279 09ba 50E0     		b	.L162
 2280              	.L55:
1228:Drivers/STM32G4xx_HAL_Driver/Src/stm32g4xx_hal_rcc_ex.c ****       
 2281              		.loc 1 1228 16
 2282 09bc 2C4B     		ldr	r3, .L171
 2283 09be D3F89C30 		ldr	r3, [r3, #156]
1228:Drivers/STM32G4xx_HAL_Driver/Src/stm32g4xx_hal_rcc_ex.c ****       
 2284              		.loc 1 1228 14
 2285 09c2 03F44013 		and	r3, r3, #3145728
 2286 09c6 3B61     		str	r3, [r7, #16]
1230:Drivers/STM32G4xx_HAL_Driver/Src/stm32g4xx_hal_rcc_ex.c ****       {
 2287              		.loc 1 1230 9
 2288 09c8 3B69     		ldr	r3, [r7, #16]
 2289 09ca B3F5001F 		cmp	r3, #2097152
ARM GAS  C:\Users\AURORA~1\AppData\Local\Temp\cc3nfJXy.s 			page 69


 2290 09ce 14D1     		bne	.L140
1233:Drivers/STM32G4xx_HAL_Driver/Src/stm32g4xx_hal_rcc_ex.c ****         frequency = (pllvco * plln) / (((READ_BIT(RCC->PLLCFGR, RCC_PLLCFGR_PLLQ) >> RCC_PLLCFGR_PL
 2291              		.loc 1 1233 16
 2292 09d0 274B     		ldr	r3, .L171
 2293 09d2 DB68     		ldr	r3, [r3, #12]
1233:Drivers/STM32G4xx_HAL_Driver/Src/stm32g4xx_hal_rcc_ex.c ****         frequency = (pllvco * plln) / (((READ_BIT(RCC->PLLCFGR, RCC_PLLCFGR_PLLQ) >> RCC_PLLCFGR_PL
 2294              		.loc 1 1233 57
 2295 09d4 1B0A     		lsrs	r3, r3, #8
1233:Drivers/STM32G4xx_HAL_Driver/Src/stm32g4xx_hal_rcc_ex.c ****         frequency = (pllvco * plln) / (((READ_BIT(RCC->PLLCFGR, RCC_PLLCFGR_PLLQ) >> RCC_PLLCFGR_PL
 2296              		.loc 1 1233 14
 2297 09d6 03F07F03 		and	r3, r3, #127
 2298 09da FB60     		str	r3, [r7, #12]
1234:Drivers/STM32G4xx_HAL_Driver/Src/stm32g4xx_hal_rcc_ex.c ****       }
 2299              		.loc 1 1234 29
 2300 09dc BB69     		ldr	r3, [r7, #24]
 2301 09de FA68     		ldr	r2, [r7, #12]
 2302 09e0 03FB02F2 		mul	r2, r3, r2
1234:Drivers/STM32G4xx_HAL_Driver/Src/stm32g4xx_hal_rcc_ex.c ****       }
 2303              		.loc 1 1234 42
 2304 09e4 224B     		ldr	r3, .L171
 2305 09e6 DB68     		ldr	r3, [r3, #12]
1234:Drivers/STM32G4xx_HAL_Driver/Src/stm32g4xx_hal_rcc_ex.c ****       }
 2306              		.loc 1 1234 83
 2307 09e8 5B0D     		lsrs	r3, r3, #21
 2308 09ea 03F00303 		and	r3, r3, #3
1234:Drivers/STM32G4xx_HAL_Driver/Src/stm32g4xx_hal_rcc_ex.c ****       }
 2309              		.loc 1 1234 108
 2310 09ee 0133     		adds	r3, r3, #1
1234:Drivers/STM32G4xx_HAL_Driver/Src/stm32g4xx_hal_rcc_ex.c ****       }
 2311              		.loc 1 1234 114
 2312 09f0 5B00     		lsls	r3, r3, #1
1234:Drivers/STM32G4xx_HAL_Driver/Src/stm32g4xx_hal_rcc_ex.c ****       }
 2313              		.loc 1 1234 19
 2314 09f2 B2FBF3F3 		udiv	r3, r2, r3
 2315 09f6 FB61     		str	r3, [r7, #28]
1248:Drivers/STM32G4xx_HAL_Driver/Src/stm32g4xx_hal_rcc_ex.c **** 
 2316              		.loc 1 1248 7
 2317 09f8 33E0     		b	.L163
 2318              	.L140:
1236:Drivers/STM32G4xx_HAL_Driver/Src/stm32g4xx_hal_rcc_ex.c ****       {
 2319              		.loc 1 1236 14
 2320 09fa 3B69     		ldr	r3, [r7, #16]
 2321 09fc B3F5801F 		cmp	r3, #1048576
 2322 0a00 02D1     		bne	.L142
1238:Drivers/STM32G4xx_HAL_Driver/Src/stm32g4xx_hal_rcc_ex.c ****       }      
 2323              		.loc 1 1238 19
 2324 0a02 1D4B     		ldr	r3, .L171+8
 2325 0a04 FB61     		str	r3, [r7, #28]
1248:Drivers/STM32G4xx_HAL_Driver/Src/stm32g4xx_hal_rcc_ex.c **** 
 2326              		.loc 1 1248 7
 2327 0a06 2CE0     		b	.L163
 2328              	.L142:
1240:Drivers/STM32G4xx_HAL_Driver/Src/stm32g4xx_hal_rcc_ex.c ****       {
 2329              		.loc 1 1240 14
 2330 0a08 3B69     		ldr	r3, [r7, #16]
 2331 0a0a 002B     		cmp	r3, #0
 2332 0a0c 29D1     		bne	.L163
ARM GAS  C:\Users\AURORA~1\AppData\Local\Temp\cc3nfJXy.s 			page 70


1242:Drivers/STM32G4xx_HAL_Driver/Src/stm32g4xx_hal_rcc_ex.c ****       }
 2333              		.loc 1 1242 21
 2334 0a0e FFF7FEFF 		bl	HAL_RCC_GetSysClockFreq
 2335 0a12 F861     		str	r0, [r7, #28]
1248:Drivers/STM32G4xx_HAL_Driver/Src/stm32g4xx_hal_rcc_ex.c **** 
 2336              		.loc 1 1248 7
 2337 0a14 25E0     		b	.L163
 2338              	.L144:
 2339              		.loc 1 1253 7
 2340 0a16 00BF     		nop
 2341 0a18 24E0     		b	.L49
 2342              	.L145:
 746:Drivers/STM32G4xx_HAL_Driver/Src/stm32g4xx_hal_rcc_ex.c **** 
 2343              		.loc 1 746 7
 2344 0a1a 00BF     		nop
 2345 0a1c 22E0     		b	.L49
 2346              	.L146:
 773:Drivers/STM32G4xx_HAL_Driver/Src/stm32g4xx_hal_rcc_ex.c **** 
 2347              		.loc 1 773 7
 2348 0a1e 00BF     		nop
 2349 0a20 20E0     		b	.L49
 2350              	.L147:
 800:Drivers/STM32G4xx_HAL_Driver/Src/stm32g4xx_hal_rcc_ex.c **** 
 2351              		.loc 1 800 7
 2352 0a22 00BF     		nop
 2353 0a24 1EE0     		b	.L49
 2354              	.L148:
 828:Drivers/STM32G4xx_HAL_Driver/Src/stm32g4xx_hal_rcc_ex.c **** #endif /* UART4 */
 2355              		.loc 1 828 7
 2356 0a26 00BF     		nop
 2357 0a28 1CE0     		b	.L49
 2358              	.L149:
 857:Drivers/STM32G4xx_HAL_Driver/Src/stm32g4xx_hal_rcc_ex.c **** #endif /* UART5 */
 2359              		.loc 1 857 7
 2360 0a2a 00BF     		nop
 2361 0a2c 1AE0     		b	.L49
 2362              	.L150:
 885:Drivers/STM32G4xx_HAL_Driver/Src/stm32g4xx_hal_rcc_ex.c **** 
 2363              		.loc 1 885 7
 2364 0a2e 00BF     		nop
 2365 0a30 18E0     		b	.L49
 2366              	.L151:
 908:Drivers/STM32G4xx_HAL_Driver/Src/stm32g4xx_hal_rcc_ex.c **** 
 2367              		.loc 1 908 7
 2368 0a32 00BF     		nop
 2369 0a34 16E0     		b	.L49
 2370              	.L152:
 931:Drivers/STM32G4xx_HAL_Driver/Src/stm32g4xx_hal_rcc_ex.c **** 
 2371              		.loc 1 931 7
 2372 0a36 00BF     		nop
 2373 0a38 14E0     		b	.L49
 2374              	.L153:
 954:Drivers/STM32G4xx_HAL_Driver/Src/stm32g4xx_hal_rcc_ex.c **** 
 2375              		.loc 1 954 7
 2376 0a3a 00BF     		nop
 2377 0a3c 12E0     		b	.L49
 2378              	.L154:
ARM GAS  C:\Users\AURORA~1\AppData\Local\Temp\cc3nfJXy.s 			page 71


 979:Drivers/STM32G4xx_HAL_Driver/Src/stm32g4xx_hal_rcc_ex.c **** 
 2379              		.loc 1 979 7
 2380 0a3e 00BF     		nop
 2381 0a40 10E0     		b	.L49
 2382              	.L155:
1008:Drivers/STM32G4xx_HAL_Driver/Src/stm32g4xx_hal_rcc_ex.c **** 
 2383              		.loc 1 1008 7
 2384 0a42 00BF     		nop
 2385 0a44 0EE0     		b	.L49
 2386              	.L156:
1041:Drivers/STM32G4xx_HAL_Driver/Src/stm32g4xx_hal_rcc_ex.c **** 
 2387              		.loc 1 1041 7
 2388 0a46 00BF     		nop
 2389 0a48 0CE0     		b	.L49
 2390              	.L157:
1074:Drivers/STM32G4xx_HAL_Driver/Src/stm32g4xx_hal_rcc_ex.c **** 
 2391              		.loc 1 1074 7
 2392 0a4a 00BF     		nop
 2393 0a4c 0AE0     		b	.L49
 2394              	.L158:
1103:Drivers/STM32G4xx_HAL_Driver/Src/stm32g4xx_hal_rcc_ex.c **** #endif /* FDCAN1 */
 2395              		.loc 1 1103 7
 2396 0a4e 00BF     		nop
 2397 0a50 08E0     		b	.L49
 2398              	.L159:
1126:Drivers/STM32G4xx_HAL_Driver/Src/stm32g4xx_hal_rcc_ex.c ****       
 2399              		.loc 1 1126 7
 2400 0a52 00BF     		nop
 2401 0a54 06E0     		b	.L49
 2402              	.L160:
1148:Drivers/STM32G4xx_HAL_Driver/Src/stm32g4xx_hal_rcc_ex.c **** 
 2403              		.loc 1 1148 7
 2404 0a56 00BF     		nop
 2405 0a58 04E0     		b	.L49
 2406              	.L161:
1184:Drivers/STM32G4xx_HAL_Driver/Src/stm32g4xx_hal_rcc_ex.c **** 
 2407              		.loc 1 1184 7
 2408 0a5a 00BF     		nop
 2409 0a5c 02E0     		b	.L49
 2410              	.L162:
1221:Drivers/STM32G4xx_HAL_Driver/Src/stm32g4xx_hal_rcc_ex.c **** #endif /* ADC345_COMMON */
 2411              		.loc 1 1221 7
 2412 0a5e 00BF     		nop
 2413 0a60 00E0     		b	.L49
 2414              	.L163:
1248:Drivers/STM32G4xx_HAL_Driver/Src/stm32g4xx_hal_rcc_ex.c **** 
 2415              		.loc 1 1248 7
 2416 0a62 00BF     		nop
 2417              	.L49:
1254:Drivers/STM32G4xx_HAL_Driver/Src/stm32g4xx_hal_rcc_ex.c ****     }
1255:Drivers/STM32G4xx_HAL_Driver/Src/stm32g4xx_hal_rcc_ex.c ****   }
1256:Drivers/STM32G4xx_HAL_Driver/Src/stm32g4xx_hal_rcc_ex.c **** 
1257:Drivers/STM32G4xx_HAL_Driver/Src/stm32g4xx_hal_rcc_ex.c ****   return(frequency);
 2418              		.loc 1 1257 9
 2419 0a64 FB69     		ldr	r3, [r7, #28]
1258:Drivers/STM32G4xx_HAL_Driver/Src/stm32g4xx_hal_rcc_ex.c **** }
 2420              		.loc 1 1258 1
ARM GAS  C:\Users\AURORA~1\AppData\Local\Temp\cc3nfJXy.s 			page 72


 2421 0a66 1846     		mov	r0, r3
 2422 0a68 2037     		adds	r7, r7, #32
 2423              	.LCFI14:
 2424              		.cfi_def_cfa_offset 8
 2425 0a6a BD46     		mov	sp, r7
 2426              	.LCFI15:
 2427              		.cfi_def_cfa_register 13
 2428              		@ sp needed
 2429 0a6c 80BD     		pop	{r7, pc}
 2430              	.L172:
 2431 0a6e 00BF     		.align	2
 2432              	.L171:
 2433 0a70 00100240 		.word	1073876992
 2434 0a74 006CDC02 		.word	48000000
 2435 0a78 0024F400 		.word	16000000
 2436              		.cfi_endproc
 2437              	.LFE134:
 2439              		.section	.text.HAL_RCCEx_EnableLSECSS,"ax",%progbits
 2440              		.align	1
 2441              		.global	HAL_RCCEx_EnableLSECSS
 2442              		.syntax unified
 2443              		.thumb
 2444              		.thumb_func
 2446              	HAL_RCCEx_EnableLSECSS:
 2447              	.LFB135:
1259:Drivers/STM32G4xx_HAL_Driver/Src/stm32g4xx_hal_rcc_ex.c **** 
1260:Drivers/STM32G4xx_HAL_Driver/Src/stm32g4xx_hal_rcc_ex.c **** /**
1261:Drivers/STM32G4xx_HAL_Driver/Src/stm32g4xx_hal_rcc_ex.c ****   * @}
1262:Drivers/STM32G4xx_HAL_Driver/Src/stm32g4xx_hal_rcc_ex.c ****   */
1263:Drivers/STM32G4xx_HAL_Driver/Src/stm32g4xx_hal_rcc_ex.c **** 
1264:Drivers/STM32G4xx_HAL_Driver/Src/stm32g4xx_hal_rcc_ex.c **** /** @defgroup RCCEx_Exported_Functions_Group2 Extended Clock management functions
1265:Drivers/STM32G4xx_HAL_Driver/Src/stm32g4xx_hal_rcc_ex.c ****  *  @brief  Extended Clock management functions
1266:Drivers/STM32G4xx_HAL_Driver/Src/stm32g4xx_hal_rcc_ex.c ****  *
1267:Drivers/STM32G4xx_HAL_Driver/Src/stm32g4xx_hal_rcc_ex.c **** @verbatim
1268:Drivers/STM32G4xx_HAL_Driver/Src/stm32g4xx_hal_rcc_ex.c ****  ===============================================================================
1269:Drivers/STM32G4xx_HAL_Driver/Src/stm32g4xx_hal_rcc_ex.c ****                 ##### Extended clock management functions  #####
1270:Drivers/STM32G4xx_HAL_Driver/Src/stm32g4xx_hal_rcc_ex.c ****  ===============================================================================
1271:Drivers/STM32G4xx_HAL_Driver/Src/stm32g4xx_hal_rcc_ex.c ****     [..]
1272:Drivers/STM32G4xx_HAL_Driver/Src/stm32g4xx_hal_rcc_ex.c ****     This subsection provides a set of functions allowing to control the
1273:Drivers/STM32G4xx_HAL_Driver/Src/stm32g4xx_hal_rcc_ex.c ****     activation or deactivation of LSE CSS,
1274:Drivers/STM32G4xx_HAL_Driver/Src/stm32g4xx_hal_rcc_ex.c ****     Low speed clock output and clock after wake-up from STOP mode.
1275:Drivers/STM32G4xx_HAL_Driver/Src/stm32g4xx_hal_rcc_ex.c **** @endverbatim
1276:Drivers/STM32G4xx_HAL_Driver/Src/stm32g4xx_hal_rcc_ex.c ****   * @{
1277:Drivers/STM32G4xx_HAL_Driver/Src/stm32g4xx_hal_rcc_ex.c ****   */
1278:Drivers/STM32G4xx_HAL_Driver/Src/stm32g4xx_hal_rcc_ex.c **** 
1279:Drivers/STM32G4xx_HAL_Driver/Src/stm32g4xx_hal_rcc_ex.c **** /**
1280:Drivers/STM32G4xx_HAL_Driver/Src/stm32g4xx_hal_rcc_ex.c ****   * @brief  Enable the LSE Clock Security System.
1281:Drivers/STM32G4xx_HAL_Driver/Src/stm32g4xx_hal_rcc_ex.c ****   * @note   Prior to enable the LSE Clock Security System, LSE oscillator is to be enabled
1282:Drivers/STM32G4xx_HAL_Driver/Src/stm32g4xx_hal_rcc_ex.c ****   *         with HAL_RCC_OscConfig() and the LSE oscillator clock is to be selected as RTC
1283:Drivers/STM32G4xx_HAL_Driver/Src/stm32g4xx_hal_rcc_ex.c ****   *         clock with HAL_RCCEx_PeriphCLKConfig().
1284:Drivers/STM32G4xx_HAL_Driver/Src/stm32g4xx_hal_rcc_ex.c ****   * @retval None
1285:Drivers/STM32G4xx_HAL_Driver/Src/stm32g4xx_hal_rcc_ex.c ****   */
1286:Drivers/STM32G4xx_HAL_Driver/Src/stm32g4xx_hal_rcc_ex.c **** void HAL_RCCEx_EnableLSECSS(void)
1287:Drivers/STM32G4xx_HAL_Driver/Src/stm32g4xx_hal_rcc_ex.c **** {
 2448              		.loc 1 1287 1
 2449              		.cfi_startproc
 2450              		@ args = 0, pretend = 0, frame = 0
ARM GAS  C:\Users\AURORA~1\AppData\Local\Temp\cc3nfJXy.s 			page 73


 2451              		@ frame_needed = 1, uses_anonymous_args = 0
 2452              		@ link register save eliminated.
 2453 0000 80B4     		push	{r7}
 2454              	.LCFI16:
 2455              		.cfi_def_cfa_offset 4
 2456              		.cfi_offset 7, -4
 2457 0002 00AF     		add	r7, sp, #0
 2458              	.LCFI17:
 2459              		.cfi_def_cfa_register 7
1288:Drivers/STM32G4xx_HAL_Driver/Src/stm32g4xx_hal_rcc_ex.c ****   SET_BIT(RCC->BDCR, RCC_BDCR_LSECSSON) ;
 2460              		.loc 1 1288 3
 2461 0004 064B     		ldr	r3, .L174
 2462 0006 D3F89030 		ldr	r3, [r3, #144]
 2463 000a 054A     		ldr	r2, .L174
 2464 000c 43F02003 		orr	r3, r3, #32
 2465 0010 C2F89030 		str	r3, [r2, #144]
1289:Drivers/STM32G4xx_HAL_Driver/Src/stm32g4xx_hal_rcc_ex.c **** }
 2466              		.loc 1 1289 1
 2467 0014 00BF     		nop
 2468 0016 BD46     		mov	sp, r7
 2469              	.LCFI18:
 2470              		.cfi_def_cfa_register 13
 2471              		@ sp needed
 2472 0018 5DF8047B 		ldr	r7, [sp], #4
 2473              	.LCFI19:
 2474              		.cfi_restore 7
 2475              		.cfi_def_cfa_offset 0
 2476 001c 7047     		bx	lr
 2477              	.L175:
 2478 001e 00BF     		.align	2
 2479              	.L174:
 2480 0020 00100240 		.word	1073876992
 2481              		.cfi_endproc
 2482              	.LFE135:
 2484              		.section	.text.HAL_RCCEx_DisableLSECSS,"ax",%progbits
 2485              		.align	1
 2486              		.global	HAL_RCCEx_DisableLSECSS
 2487              		.syntax unified
 2488              		.thumb
 2489              		.thumb_func
 2491              	HAL_RCCEx_DisableLSECSS:
 2492              	.LFB136:
1290:Drivers/STM32G4xx_HAL_Driver/Src/stm32g4xx_hal_rcc_ex.c **** 
1291:Drivers/STM32G4xx_HAL_Driver/Src/stm32g4xx_hal_rcc_ex.c **** /**
1292:Drivers/STM32G4xx_HAL_Driver/Src/stm32g4xx_hal_rcc_ex.c ****   * @brief  Disable the LSE Clock Security System.
1293:Drivers/STM32G4xx_HAL_Driver/Src/stm32g4xx_hal_rcc_ex.c ****   * @note   LSE Clock Security System can only be disabled after a LSE failure detection.
1294:Drivers/STM32G4xx_HAL_Driver/Src/stm32g4xx_hal_rcc_ex.c ****   * @retval None
1295:Drivers/STM32G4xx_HAL_Driver/Src/stm32g4xx_hal_rcc_ex.c ****   */
1296:Drivers/STM32G4xx_HAL_Driver/Src/stm32g4xx_hal_rcc_ex.c **** void HAL_RCCEx_DisableLSECSS(void)
1297:Drivers/STM32G4xx_HAL_Driver/Src/stm32g4xx_hal_rcc_ex.c **** {
 2493              		.loc 1 1297 1
 2494              		.cfi_startproc
 2495              		@ args = 0, pretend = 0, frame = 0
 2496              		@ frame_needed = 1, uses_anonymous_args = 0
 2497              		@ link register save eliminated.
 2498 0000 80B4     		push	{r7}
 2499              	.LCFI20:
ARM GAS  C:\Users\AURORA~1\AppData\Local\Temp\cc3nfJXy.s 			page 74


 2500              		.cfi_def_cfa_offset 4
 2501              		.cfi_offset 7, -4
 2502 0002 00AF     		add	r7, sp, #0
 2503              	.LCFI21:
 2504              		.cfi_def_cfa_register 7
1298:Drivers/STM32G4xx_HAL_Driver/Src/stm32g4xx_hal_rcc_ex.c ****   CLEAR_BIT(RCC->BDCR, RCC_BDCR_LSECSSON) ;
 2505              		.loc 1 1298 3
 2506 0004 094B     		ldr	r3, .L177
 2507 0006 D3F89030 		ldr	r3, [r3, #144]
 2508 000a 084A     		ldr	r2, .L177
 2509 000c 23F02003 		bic	r3, r3, #32
 2510 0010 C2F89030 		str	r3, [r2, #144]
1299:Drivers/STM32G4xx_HAL_Driver/Src/stm32g4xx_hal_rcc_ex.c **** 
1300:Drivers/STM32G4xx_HAL_Driver/Src/stm32g4xx_hal_rcc_ex.c ****   /* Disable LSE CSS IT if any */
1301:Drivers/STM32G4xx_HAL_Driver/Src/stm32g4xx_hal_rcc_ex.c ****   __HAL_RCC_DISABLE_IT(RCC_IT_LSECSS);
 2511              		.loc 1 1301 3
 2512 0014 054B     		ldr	r3, .L177
 2513 0016 9B69     		ldr	r3, [r3, #24]
 2514 0018 044A     		ldr	r2, .L177
 2515 001a 23F40073 		bic	r3, r3, #512
 2516 001e 9361     		str	r3, [r2, #24]
1302:Drivers/STM32G4xx_HAL_Driver/Src/stm32g4xx_hal_rcc_ex.c **** }
 2517              		.loc 1 1302 1
 2518 0020 00BF     		nop
 2519 0022 BD46     		mov	sp, r7
 2520              	.LCFI22:
 2521              		.cfi_def_cfa_register 13
 2522              		@ sp needed
 2523 0024 5DF8047B 		ldr	r7, [sp], #4
 2524              	.LCFI23:
 2525              		.cfi_restore 7
 2526              		.cfi_def_cfa_offset 0
 2527 0028 7047     		bx	lr
 2528              	.L178:
 2529 002a 00BF     		.align	2
 2530              	.L177:
 2531 002c 00100240 		.word	1073876992
 2532              		.cfi_endproc
 2533              	.LFE136:
 2535              		.section	.text.HAL_RCCEx_EnableLSECSS_IT,"ax",%progbits
 2536              		.align	1
 2537              		.global	HAL_RCCEx_EnableLSECSS_IT
 2538              		.syntax unified
 2539              		.thumb
 2540              		.thumb_func
 2542              	HAL_RCCEx_EnableLSECSS_IT:
 2543              	.LFB137:
1303:Drivers/STM32G4xx_HAL_Driver/Src/stm32g4xx_hal_rcc_ex.c **** 
1304:Drivers/STM32G4xx_HAL_Driver/Src/stm32g4xx_hal_rcc_ex.c **** /**
1305:Drivers/STM32G4xx_HAL_Driver/Src/stm32g4xx_hal_rcc_ex.c ****   * @brief  Enable the LSE Clock Security System Interrupt & corresponding EXTI line.
1306:Drivers/STM32G4xx_HAL_Driver/Src/stm32g4xx_hal_rcc_ex.c ****   * @note   LSE Clock Security System Interrupt is mapped on RTC EXTI line 19
1307:Drivers/STM32G4xx_HAL_Driver/Src/stm32g4xx_hal_rcc_ex.c ****   * @retval None
1308:Drivers/STM32G4xx_HAL_Driver/Src/stm32g4xx_hal_rcc_ex.c ****   */
1309:Drivers/STM32G4xx_HAL_Driver/Src/stm32g4xx_hal_rcc_ex.c **** void HAL_RCCEx_EnableLSECSS_IT(void)
1310:Drivers/STM32G4xx_HAL_Driver/Src/stm32g4xx_hal_rcc_ex.c **** {
 2544              		.loc 1 1310 1
 2545              		.cfi_startproc
ARM GAS  C:\Users\AURORA~1\AppData\Local\Temp\cc3nfJXy.s 			page 75


 2546              		@ args = 0, pretend = 0, frame = 0
 2547              		@ frame_needed = 1, uses_anonymous_args = 0
 2548              		@ link register save eliminated.
 2549 0000 80B4     		push	{r7}
 2550              	.LCFI24:
 2551              		.cfi_def_cfa_offset 4
 2552              		.cfi_offset 7, -4
 2553 0002 00AF     		add	r7, sp, #0
 2554              	.LCFI25:
 2555              		.cfi_def_cfa_register 7
1311:Drivers/STM32G4xx_HAL_Driver/Src/stm32g4xx_hal_rcc_ex.c ****   /* Enable LSE CSS */
1312:Drivers/STM32G4xx_HAL_Driver/Src/stm32g4xx_hal_rcc_ex.c ****   SET_BIT(RCC->BDCR, RCC_BDCR_LSECSSON) ;
 2556              		.loc 1 1312 3
 2557 0004 0F4B     		ldr	r3, .L180
 2558 0006 D3F89030 		ldr	r3, [r3, #144]
 2559 000a 0E4A     		ldr	r2, .L180
 2560 000c 43F02003 		orr	r3, r3, #32
 2561 0010 C2F89030 		str	r3, [r2, #144]
1313:Drivers/STM32G4xx_HAL_Driver/Src/stm32g4xx_hal_rcc_ex.c **** 
1314:Drivers/STM32G4xx_HAL_Driver/Src/stm32g4xx_hal_rcc_ex.c ****   /* Enable LSE CSS IT */
1315:Drivers/STM32G4xx_HAL_Driver/Src/stm32g4xx_hal_rcc_ex.c ****   __HAL_RCC_ENABLE_IT(RCC_IT_LSECSS);
 2562              		.loc 1 1315 3
 2563 0014 0B4B     		ldr	r3, .L180
 2564 0016 9B69     		ldr	r3, [r3, #24]
 2565 0018 0A4A     		ldr	r2, .L180
 2566 001a 43F40073 		orr	r3, r3, #512
 2567 001e 9361     		str	r3, [r2, #24]
1316:Drivers/STM32G4xx_HAL_Driver/Src/stm32g4xx_hal_rcc_ex.c **** 
1317:Drivers/STM32G4xx_HAL_Driver/Src/stm32g4xx_hal_rcc_ex.c ****   /* Enable IT on EXTI Line 19 */
1318:Drivers/STM32G4xx_HAL_Driver/Src/stm32g4xx_hal_rcc_ex.c ****   __HAL_RCC_LSECSS_EXTI_ENABLE_IT();
 2568              		.loc 1 1318 3
 2569 0020 094B     		ldr	r3, .L180+4
 2570 0022 1B68     		ldr	r3, [r3]
 2571 0024 084A     		ldr	r2, .L180+4
 2572 0026 43F40023 		orr	r3, r3, #524288
 2573 002a 1360     		str	r3, [r2]
1319:Drivers/STM32G4xx_HAL_Driver/Src/stm32g4xx_hal_rcc_ex.c ****   __HAL_RCC_LSECSS_EXTI_ENABLE_RISING_EDGE();
 2574              		.loc 1 1319 3
 2575 002c 064B     		ldr	r3, .L180+4
 2576 002e 9B68     		ldr	r3, [r3, #8]
 2577 0030 054A     		ldr	r2, .L180+4
 2578 0032 43F40023 		orr	r3, r3, #524288
 2579 0036 9360     		str	r3, [r2, #8]
1320:Drivers/STM32G4xx_HAL_Driver/Src/stm32g4xx_hal_rcc_ex.c **** }
 2580              		.loc 1 1320 1
 2581 0038 00BF     		nop
 2582 003a BD46     		mov	sp, r7
 2583              	.LCFI26:
 2584              		.cfi_def_cfa_register 13
 2585              		@ sp needed
 2586 003c 5DF8047B 		ldr	r7, [sp], #4
 2587              	.LCFI27:
 2588              		.cfi_restore 7
 2589              		.cfi_def_cfa_offset 0
 2590 0040 7047     		bx	lr
 2591              	.L181:
 2592 0042 00BF     		.align	2
ARM GAS  C:\Users\AURORA~1\AppData\Local\Temp\cc3nfJXy.s 			page 76


 2593              	.L180:
 2594 0044 00100240 		.word	1073876992
 2595 0048 00040140 		.word	1073808384
 2596              		.cfi_endproc
 2597              	.LFE137:
 2599              		.section	.text.HAL_RCCEx_LSECSS_IRQHandler,"ax",%progbits
 2600              		.align	1
 2601              		.global	HAL_RCCEx_LSECSS_IRQHandler
 2602              		.syntax unified
 2603              		.thumb
 2604              		.thumb_func
 2606              	HAL_RCCEx_LSECSS_IRQHandler:
 2607              	.LFB138:
1321:Drivers/STM32G4xx_HAL_Driver/Src/stm32g4xx_hal_rcc_ex.c **** 
1322:Drivers/STM32G4xx_HAL_Driver/Src/stm32g4xx_hal_rcc_ex.c **** /**
1323:Drivers/STM32G4xx_HAL_Driver/Src/stm32g4xx_hal_rcc_ex.c ****   * @brief Handle the RCC LSE Clock Security System interrupt request.
1324:Drivers/STM32G4xx_HAL_Driver/Src/stm32g4xx_hal_rcc_ex.c ****   * @retval None
1325:Drivers/STM32G4xx_HAL_Driver/Src/stm32g4xx_hal_rcc_ex.c ****   */
1326:Drivers/STM32G4xx_HAL_Driver/Src/stm32g4xx_hal_rcc_ex.c **** void HAL_RCCEx_LSECSS_IRQHandler(void)
1327:Drivers/STM32G4xx_HAL_Driver/Src/stm32g4xx_hal_rcc_ex.c **** {
 2608              		.loc 1 1327 1
 2609              		.cfi_startproc
 2610              		@ args = 0, pretend = 0, frame = 0
 2611              		@ frame_needed = 1, uses_anonymous_args = 0
 2612 0000 80B5     		push	{r7, lr}
 2613              	.LCFI28:
 2614              		.cfi_def_cfa_offset 8
 2615              		.cfi_offset 7, -8
 2616              		.cfi_offset 14, -4
 2617 0002 00AF     		add	r7, sp, #0
 2618              	.LCFI29:
 2619              		.cfi_def_cfa_register 7
1328:Drivers/STM32G4xx_HAL_Driver/Src/stm32g4xx_hal_rcc_ex.c ****   /* Check RCC LSE CSSF flag  */
1329:Drivers/STM32G4xx_HAL_Driver/Src/stm32g4xx_hal_rcc_ex.c ****   if(__HAL_RCC_GET_IT(RCC_IT_LSECSS))
 2620              		.loc 1 1329 6
 2621 0004 074B     		ldr	r3, .L185
 2622 0006 DB69     		ldr	r3, [r3, #28]
 2623 0008 03F40073 		and	r3, r3, #512
 2624              		.loc 1 1329 5
 2625 000c B3F5007F 		cmp	r3, #512
 2626 0010 05D1     		bne	.L184
1330:Drivers/STM32G4xx_HAL_Driver/Src/stm32g4xx_hal_rcc_ex.c ****   {
1331:Drivers/STM32G4xx_HAL_Driver/Src/stm32g4xx_hal_rcc_ex.c ****     /* RCC LSE Clock Security System interrupt user callback */
1332:Drivers/STM32G4xx_HAL_Driver/Src/stm32g4xx_hal_rcc_ex.c ****     HAL_RCCEx_LSECSS_Callback();
 2627              		.loc 1 1332 5
 2628 0012 FFF7FEFF 		bl	HAL_RCCEx_LSECSS_Callback
1333:Drivers/STM32G4xx_HAL_Driver/Src/stm32g4xx_hal_rcc_ex.c **** 
1334:Drivers/STM32G4xx_HAL_Driver/Src/stm32g4xx_hal_rcc_ex.c ****     /* Clear RCC LSE CSS pending bit */
1335:Drivers/STM32G4xx_HAL_Driver/Src/stm32g4xx_hal_rcc_ex.c ****     __HAL_RCC_CLEAR_IT(RCC_IT_LSECSS);
 2629              		.loc 1 1335 5
 2630 0016 034B     		ldr	r3, .L185
 2631 0018 4FF40072 		mov	r2, #512
 2632 001c 1A62     		str	r2, [r3, #32]
 2633              	.L184:
1336:Drivers/STM32G4xx_HAL_Driver/Src/stm32g4xx_hal_rcc_ex.c ****   }
1337:Drivers/STM32G4xx_HAL_Driver/Src/stm32g4xx_hal_rcc_ex.c **** }
 2634              		.loc 1 1337 1
ARM GAS  C:\Users\AURORA~1\AppData\Local\Temp\cc3nfJXy.s 			page 77


 2635 001e 00BF     		nop
 2636 0020 80BD     		pop	{r7, pc}
 2637              	.L186:
 2638 0022 00BF     		.align	2
 2639              	.L185:
 2640 0024 00100240 		.word	1073876992
 2641              		.cfi_endproc
 2642              	.LFE138:
 2644              		.section	.text.HAL_RCCEx_LSECSS_Callback,"ax",%progbits
 2645              		.align	1
 2646              		.weak	HAL_RCCEx_LSECSS_Callback
 2647              		.syntax unified
 2648              		.thumb
 2649              		.thumb_func
 2651              	HAL_RCCEx_LSECSS_Callback:
 2652              	.LFB139:
1338:Drivers/STM32G4xx_HAL_Driver/Src/stm32g4xx_hal_rcc_ex.c **** 
1339:Drivers/STM32G4xx_HAL_Driver/Src/stm32g4xx_hal_rcc_ex.c **** /**
1340:Drivers/STM32G4xx_HAL_Driver/Src/stm32g4xx_hal_rcc_ex.c ****   * @brief  RCCEx LSE Clock Security System interrupt callback.
1341:Drivers/STM32G4xx_HAL_Driver/Src/stm32g4xx_hal_rcc_ex.c ****   * @retval none
1342:Drivers/STM32G4xx_HAL_Driver/Src/stm32g4xx_hal_rcc_ex.c ****   */
1343:Drivers/STM32G4xx_HAL_Driver/Src/stm32g4xx_hal_rcc_ex.c **** __weak void HAL_RCCEx_LSECSS_Callback(void)
1344:Drivers/STM32G4xx_HAL_Driver/Src/stm32g4xx_hal_rcc_ex.c **** {
 2653              		.loc 1 1344 1
 2654              		.cfi_startproc
 2655              		@ args = 0, pretend = 0, frame = 0
 2656              		@ frame_needed = 1, uses_anonymous_args = 0
 2657              		@ link register save eliminated.
 2658 0000 80B4     		push	{r7}
 2659              	.LCFI30:
 2660              		.cfi_def_cfa_offset 4
 2661              		.cfi_offset 7, -4
 2662 0002 00AF     		add	r7, sp, #0
 2663              	.LCFI31:
 2664              		.cfi_def_cfa_register 7
1345:Drivers/STM32G4xx_HAL_Driver/Src/stm32g4xx_hal_rcc_ex.c ****   /* NOTE : This function should not be modified, when the callback is needed,
1346:Drivers/STM32G4xx_HAL_Driver/Src/stm32g4xx_hal_rcc_ex.c ****             the @ref HAL_RCCEx_LSECSS_Callback should be implemented in the user file
1347:Drivers/STM32G4xx_HAL_Driver/Src/stm32g4xx_hal_rcc_ex.c ****    */
1348:Drivers/STM32G4xx_HAL_Driver/Src/stm32g4xx_hal_rcc_ex.c **** }
 2665              		.loc 1 1348 1
 2666 0004 00BF     		nop
 2667 0006 BD46     		mov	sp, r7
 2668              	.LCFI32:
 2669              		.cfi_def_cfa_register 13
 2670              		@ sp needed
 2671 0008 5DF8047B 		ldr	r7, [sp], #4
 2672              	.LCFI33:
 2673              		.cfi_restore 7
 2674              		.cfi_def_cfa_offset 0
 2675 000c 7047     		bx	lr
 2676              		.cfi_endproc
 2677              	.LFE139:
 2679              		.section	.text.HAL_RCCEx_EnableLSCO,"ax",%progbits
 2680              		.align	1
 2681              		.global	HAL_RCCEx_EnableLSCO
 2682              		.syntax unified
 2683              		.thumb
ARM GAS  C:\Users\AURORA~1\AppData\Local\Temp\cc3nfJXy.s 			page 78


 2684              		.thumb_func
 2686              	HAL_RCCEx_EnableLSCO:
 2687              	.LFB140:
1349:Drivers/STM32G4xx_HAL_Driver/Src/stm32g4xx_hal_rcc_ex.c **** 
1350:Drivers/STM32G4xx_HAL_Driver/Src/stm32g4xx_hal_rcc_ex.c **** /**
1351:Drivers/STM32G4xx_HAL_Driver/Src/stm32g4xx_hal_rcc_ex.c ****   * @brief  Select the Low Speed clock source to output on LSCO pin (PA2).
1352:Drivers/STM32G4xx_HAL_Driver/Src/stm32g4xx_hal_rcc_ex.c ****   * @param  LSCOSource  specifies the Low Speed clock source to output.
1353:Drivers/STM32G4xx_HAL_Driver/Src/stm32g4xx_hal_rcc_ex.c ****   *          This parameter can be one of the following values:
1354:Drivers/STM32G4xx_HAL_Driver/Src/stm32g4xx_hal_rcc_ex.c ****   *            @arg @ref RCC_LSCOSOURCE_LSI  LSI clock selected as LSCO source
1355:Drivers/STM32G4xx_HAL_Driver/Src/stm32g4xx_hal_rcc_ex.c ****   *            @arg @ref RCC_LSCOSOURCE_LSE  LSE clock selected as LSCO source
1356:Drivers/STM32G4xx_HAL_Driver/Src/stm32g4xx_hal_rcc_ex.c ****   * @retval None
1357:Drivers/STM32G4xx_HAL_Driver/Src/stm32g4xx_hal_rcc_ex.c ****   */
1358:Drivers/STM32G4xx_HAL_Driver/Src/stm32g4xx_hal_rcc_ex.c **** void HAL_RCCEx_EnableLSCO(uint32_t LSCOSource)
1359:Drivers/STM32G4xx_HAL_Driver/Src/stm32g4xx_hal_rcc_ex.c **** {
 2688              		.loc 1 1359 1
 2689              		.cfi_startproc
 2690              		@ args = 0, pretend = 0, frame = 40
 2691              		@ frame_needed = 1, uses_anonymous_args = 0
 2692 0000 80B5     		push	{r7, lr}
 2693              	.LCFI34:
 2694              		.cfi_def_cfa_offset 8
 2695              		.cfi_offset 7, -8
 2696              		.cfi_offset 14, -4
 2697 0002 8AB0     		sub	sp, sp, #40
 2698              	.LCFI35:
 2699              		.cfi_def_cfa_offset 48
 2700 0004 00AF     		add	r7, sp, #0
 2701              	.LCFI36:
 2702              		.cfi_def_cfa_register 7
 2703 0006 7860     		str	r0, [r7, #4]
1360:Drivers/STM32G4xx_HAL_Driver/Src/stm32g4xx_hal_rcc_ex.c ****   GPIO_InitTypeDef GPIO_InitStruct;
1361:Drivers/STM32G4xx_HAL_Driver/Src/stm32g4xx_hal_rcc_ex.c ****   FlagStatus       pwrclkchanged = RESET;
 2704              		.loc 1 1361 20
 2705 0008 0023     		movs	r3, #0
 2706 000a 87F82730 		strb	r3, [r7, #39]
1362:Drivers/STM32G4xx_HAL_Driver/Src/stm32g4xx_hal_rcc_ex.c ****   FlagStatus       backupchanged = RESET;
 2707              		.loc 1 1362 20
 2708 000e 0023     		movs	r3, #0
 2709 0010 87F82630 		strb	r3, [r7, #38]
 2710              	.LBB4:
1363:Drivers/STM32G4xx_HAL_Driver/Src/stm32g4xx_hal_rcc_ex.c **** 
1364:Drivers/STM32G4xx_HAL_Driver/Src/stm32g4xx_hal_rcc_ex.c ****   /* Check the parameters */
1365:Drivers/STM32G4xx_HAL_Driver/Src/stm32g4xx_hal_rcc_ex.c ****   assert_param(IS_RCC_LSCOSOURCE(LSCOSource));
1366:Drivers/STM32G4xx_HAL_Driver/Src/stm32g4xx_hal_rcc_ex.c **** 
1367:Drivers/STM32G4xx_HAL_Driver/Src/stm32g4xx_hal_rcc_ex.c ****   /* LSCO Pin Clock Enable */
1368:Drivers/STM32G4xx_HAL_Driver/Src/stm32g4xx_hal_rcc_ex.c ****   __LSCO_CLK_ENABLE();
 2711              		.loc 1 1368 3
 2712 0014 2D4B     		ldr	r3, .L194
 2713 0016 DB6C     		ldr	r3, [r3, #76]
 2714 0018 2C4A     		ldr	r2, .L194
 2715 001a 43F00103 		orr	r3, r3, #1
 2716 001e D364     		str	r3, [r2, #76]
 2717 0020 2A4B     		ldr	r3, .L194
 2718 0022 DB6C     		ldr	r3, [r3, #76]
 2719 0024 03F00103 		and	r3, r3, #1
 2720 0028 FB60     		str	r3, [r7, #12]
 2721 002a FB68     		ldr	r3, [r7, #12]
ARM GAS  C:\Users\AURORA~1\AppData\Local\Temp\cc3nfJXy.s 			page 79


 2722              	.LBE4:
1369:Drivers/STM32G4xx_HAL_Driver/Src/stm32g4xx_hal_rcc_ex.c **** 
1370:Drivers/STM32G4xx_HAL_Driver/Src/stm32g4xx_hal_rcc_ex.c ****   /* Configure the LSCO pin in analog mode */
1371:Drivers/STM32G4xx_HAL_Driver/Src/stm32g4xx_hal_rcc_ex.c ****   GPIO_InitStruct.Pin = LSCO_PIN;
 2723              		.loc 1 1371 23
 2724 002c 0423     		movs	r3, #4
 2725 002e 3B61     		str	r3, [r7, #16]
1372:Drivers/STM32G4xx_HAL_Driver/Src/stm32g4xx_hal_rcc_ex.c ****   GPIO_InitStruct.Mode = GPIO_MODE_ANALOG;
 2726              		.loc 1 1372 24
 2727 0030 0323     		movs	r3, #3
 2728 0032 7B61     		str	r3, [r7, #20]
1373:Drivers/STM32G4xx_HAL_Driver/Src/stm32g4xx_hal_rcc_ex.c ****   GPIO_InitStruct.Speed = GPIO_SPEED_FREQ_HIGH;
 2729              		.loc 1 1373 25
 2730 0034 0223     		movs	r3, #2
 2731 0036 FB61     		str	r3, [r7, #28]
1374:Drivers/STM32G4xx_HAL_Driver/Src/stm32g4xx_hal_rcc_ex.c ****   GPIO_InitStruct.Pull = GPIO_NOPULL;
 2732              		.loc 1 1374 24
 2733 0038 0023     		movs	r3, #0
 2734 003a BB61     		str	r3, [r7, #24]
1375:Drivers/STM32G4xx_HAL_Driver/Src/stm32g4xx_hal_rcc_ex.c ****   HAL_GPIO_Init(LSCO_GPIO_PORT, &GPIO_InitStruct);
 2735              		.loc 1 1375 3
 2736 003c 07F11003 		add	r3, r7, #16
 2737 0040 1946     		mov	r1, r3
 2738 0042 4FF09040 		mov	r0, #1207959552
 2739 0046 FFF7FEFF 		bl	HAL_GPIO_Init
1376:Drivers/STM32G4xx_HAL_Driver/Src/stm32g4xx_hal_rcc_ex.c **** 
1377:Drivers/STM32G4xx_HAL_Driver/Src/stm32g4xx_hal_rcc_ex.c ****   /* Update LSCOSEL clock source in Backup Domain control register */
1378:Drivers/STM32G4xx_HAL_Driver/Src/stm32g4xx_hal_rcc_ex.c ****   if(__HAL_RCC_PWR_IS_CLK_DISABLED())
 2740              		.loc 1 1378 6
 2741 004a 204B     		ldr	r3, .L194
 2742 004c 9B6D     		ldr	r3, [r3, #88]
 2743 004e 03F08053 		and	r3, r3, #268435456
 2744              		.loc 1 1378 5
 2745 0052 002B     		cmp	r3, #0
 2746 0054 0ED1     		bne	.L189
 2747              	.LBB5:
1379:Drivers/STM32G4xx_HAL_Driver/Src/stm32g4xx_hal_rcc_ex.c ****   {
1380:Drivers/STM32G4xx_HAL_Driver/Src/stm32g4xx_hal_rcc_ex.c ****     __HAL_RCC_PWR_CLK_ENABLE();
 2748              		.loc 1 1380 5
 2749 0056 1D4B     		ldr	r3, .L194
 2750 0058 9B6D     		ldr	r3, [r3, #88]
 2751 005a 1C4A     		ldr	r2, .L194
 2752 005c 43F08053 		orr	r3, r3, #268435456
 2753 0060 9365     		str	r3, [r2, #88]
 2754 0062 1A4B     		ldr	r3, .L194
 2755 0064 9B6D     		ldr	r3, [r3, #88]
 2756 0066 03F08053 		and	r3, r3, #268435456
 2757 006a BB60     		str	r3, [r7, #8]
 2758 006c BB68     		ldr	r3, [r7, #8]
 2759              	.LBE5:
1381:Drivers/STM32G4xx_HAL_Driver/Src/stm32g4xx_hal_rcc_ex.c ****     pwrclkchanged = SET;
 2760              		.loc 1 1381 19
 2761 006e 0123     		movs	r3, #1
 2762 0070 87F82730 		strb	r3, [r7, #39]
 2763              	.L189:
1382:Drivers/STM32G4xx_HAL_Driver/Src/stm32g4xx_hal_rcc_ex.c ****   }
1383:Drivers/STM32G4xx_HAL_Driver/Src/stm32g4xx_hal_rcc_ex.c ****   if(HAL_IS_BIT_CLR(PWR->CR1, PWR_CR1_DBP))
ARM GAS  C:\Users\AURORA~1\AppData\Local\Temp\cc3nfJXy.s 			page 80


 2764              		.loc 1 1383 6
 2765 0074 164B     		ldr	r3, .L194+4
 2766 0076 1B68     		ldr	r3, [r3]
 2767 0078 03F48073 		and	r3, r3, #256
 2768              		.loc 1 1383 5
 2769 007c 002B     		cmp	r3, #0
 2770 007e 04D1     		bne	.L190
1384:Drivers/STM32G4xx_HAL_Driver/Src/stm32g4xx_hal_rcc_ex.c ****   {
1385:Drivers/STM32G4xx_HAL_Driver/Src/stm32g4xx_hal_rcc_ex.c ****     HAL_PWR_EnableBkUpAccess();
 2771              		.loc 1 1385 5
 2772 0080 FFF7FEFF 		bl	HAL_PWR_EnableBkUpAccess
1386:Drivers/STM32G4xx_HAL_Driver/Src/stm32g4xx_hal_rcc_ex.c ****     backupchanged = SET;
 2773              		.loc 1 1386 19
 2774 0084 0123     		movs	r3, #1
 2775 0086 87F82630 		strb	r3, [r7, #38]
 2776              	.L190:
1387:Drivers/STM32G4xx_HAL_Driver/Src/stm32g4xx_hal_rcc_ex.c ****   }
1388:Drivers/STM32G4xx_HAL_Driver/Src/stm32g4xx_hal_rcc_ex.c **** 
1389:Drivers/STM32G4xx_HAL_Driver/Src/stm32g4xx_hal_rcc_ex.c ****   MODIFY_REG(RCC->BDCR, RCC_BDCR_LSCOSEL | RCC_BDCR_LSCOEN, LSCOSource | RCC_BDCR_LSCOEN);
 2777              		.loc 1 1389 3
 2778 008a 104B     		ldr	r3, .L194
 2779 008c D3F89030 		ldr	r3, [r3, #144]
 2780 0090 23F04072 		bic	r2, r3, #50331648
 2781 0094 7B68     		ldr	r3, [r7, #4]
 2782 0096 1343     		orrs	r3, r3, r2
 2783 0098 0C4A     		ldr	r2, .L194
 2784 009a 43F08073 		orr	r3, r3, #16777216
 2785 009e C2F89030 		str	r3, [r2, #144]
1390:Drivers/STM32G4xx_HAL_Driver/Src/stm32g4xx_hal_rcc_ex.c **** 
1391:Drivers/STM32G4xx_HAL_Driver/Src/stm32g4xx_hal_rcc_ex.c ****   if(backupchanged == SET)
 2786              		.loc 1 1391 5
 2787 00a2 97F82630 		ldrb	r3, [r7, #38]	@ zero_extendqisi2
 2788 00a6 012B     		cmp	r3, #1
 2789 00a8 01D1     		bne	.L191
1392:Drivers/STM32G4xx_HAL_Driver/Src/stm32g4xx_hal_rcc_ex.c ****   {
1393:Drivers/STM32G4xx_HAL_Driver/Src/stm32g4xx_hal_rcc_ex.c ****     HAL_PWR_DisableBkUpAccess();
 2790              		.loc 1 1393 5
 2791 00aa FFF7FEFF 		bl	HAL_PWR_DisableBkUpAccess
 2792              	.L191:
1394:Drivers/STM32G4xx_HAL_Driver/Src/stm32g4xx_hal_rcc_ex.c ****   }
1395:Drivers/STM32G4xx_HAL_Driver/Src/stm32g4xx_hal_rcc_ex.c ****   if(pwrclkchanged == SET)
 2793              		.loc 1 1395 5
 2794 00ae 97F82730 		ldrb	r3, [r7, #39]	@ zero_extendqisi2
 2795 00b2 012B     		cmp	r3, #1
 2796 00b4 05D1     		bne	.L193
1396:Drivers/STM32G4xx_HAL_Driver/Src/stm32g4xx_hal_rcc_ex.c ****   {
1397:Drivers/STM32G4xx_HAL_Driver/Src/stm32g4xx_hal_rcc_ex.c ****     __HAL_RCC_PWR_CLK_DISABLE();
 2797              		.loc 1 1397 5
 2798 00b6 054B     		ldr	r3, .L194
 2799 00b8 9B6D     		ldr	r3, [r3, #88]
 2800 00ba 044A     		ldr	r2, .L194
 2801 00bc 23F08053 		bic	r3, r3, #268435456
 2802 00c0 9365     		str	r3, [r2, #88]
 2803              	.L193:
1398:Drivers/STM32G4xx_HAL_Driver/Src/stm32g4xx_hal_rcc_ex.c ****   }
1399:Drivers/STM32G4xx_HAL_Driver/Src/stm32g4xx_hal_rcc_ex.c **** }
 2804              		.loc 1 1399 1
ARM GAS  C:\Users\AURORA~1\AppData\Local\Temp\cc3nfJXy.s 			page 81


 2805 00c2 00BF     		nop
 2806 00c4 2837     		adds	r7, r7, #40
 2807              	.LCFI37:
 2808              		.cfi_def_cfa_offset 8
 2809 00c6 BD46     		mov	sp, r7
 2810              	.LCFI38:
 2811              		.cfi_def_cfa_register 13
 2812              		@ sp needed
 2813 00c8 80BD     		pop	{r7, pc}
 2814              	.L195:
 2815 00ca 00BF     		.align	2
 2816              	.L194:
 2817 00cc 00100240 		.word	1073876992
 2818 00d0 00700040 		.word	1073770496
 2819              		.cfi_endproc
 2820              	.LFE140:
 2822              		.section	.text.HAL_RCCEx_DisableLSCO,"ax",%progbits
 2823              		.align	1
 2824              		.global	HAL_RCCEx_DisableLSCO
 2825              		.syntax unified
 2826              		.thumb
 2827              		.thumb_func
 2829              	HAL_RCCEx_DisableLSCO:
 2830              	.LFB141:
1400:Drivers/STM32G4xx_HAL_Driver/Src/stm32g4xx_hal_rcc_ex.c **** 
1401:Drivers/STM32G4xx_HAL_Driver/Src/stm32g4xx_hal_rcc_ex.c **** /**
1402:Drivers/STM32G4xx_HAL_Driver/Src/stm32g4xx_hal_rcc_ex.c ****   * @brief  Disable the Low Speed clock output.
1403:Drivers/STM32G4xx_HAL_Driver/Src/stm32g4xx_hal_rcc_ex.c ****   * @retval None
1404:Drivers/STM32G4xx_HAL_Driver/Src/stm32g4xx_hal_rcc_ex.c ****   */
1405:Drivers/STM32G4xx_HAL_Driver/Src/stm32g4xx_hal_rcc_ex.c **** void HAL_RCCEx_DisableLSCO(void)
1406:Drivers/STM32G4xx_HAL_Driver/Src/stm32g4xx_hal_rcc_ex.c **** {
 2831              		.loc 1 1406 1
 2832              		.cfi_startproc
 2833              		@ args = 0, pretend = 0, frame = 8
 2834              		@ frame_needed = 1, uses_anonymous_args = 0
 2835 0000 80B5     		push	{r7, lr}
 2836              	.LCFI39:
 2837              		.cfi_def_cfa_offset 8
 2838              		.cfi_offset 7, -8
 2839              		.cfi_offset 14, -4
 2840 0002 82B0     		sub	sp, sp, #8
 2841              	.LCFI40:
 2842              		.cfi_def_cfa_offset 16
 2843 0004 00AF     		add	r7, sp, #0
 2844              	.LCFI41:
 2845              		.cfi_def_cfa_register 7
1407:Drivers/STM32G4xx_HAL_Driver/Src/stm32g4xx_hal_rcc_ex.c ****   FlagStatus       pwrclkchanged = RESET;
 2846              		.loc 1 1407 20
 2847 0006 0023     		movs	r3, #0
 2848 0008 FB71     		strb	r3, [r7, #7]
1408:Drivers/STM32G4xx_HAL_Driver/Src/stm32g4xx_hal_rcc_ex.c ****   FlagStatus       backupchanged = RESET;
 2849              		.loc 1 1408 20
 2850 000a 0023     		movs	r3, #0
 2851 000c BB71     		strb	r3, [r7, #6]
1409:Drivers/STM32G4xx_HAL_Driver/Src/stm32g4xx_hal_rcc_ex.c **** 
1410:Drivers/STM32G4xx_HAL_Driver/Src/stm32g4xx_hal_rcc_ex.c ****   /* Update LSCOEN bit in Backup Domain control register */
1411:Drivers/STM32G4xx_HAL_Driver/Src/stm32g4xx_hal_rcc_ex.c ****   if(__HAL_RCC_PWR_IS_CLK_DISABLED())
ARM GAS  C:\Users\AURORA~1\AppData\Local\Temp\cc3nfJXy.s 			page 82


 2852              		.loc 1 1411 6
 2853 000e 1C4B     		ldr	r3, .L202
 2854 0010 9B6D     		ldr	r3, [r3, #88]
 2855 0012 03F08053 		and	r3, r3, #268435456
 2856              		.loc 1 1411 5
 2857 0016 002B     		cmp	r3, #0
 2858 0018 0DD1     		bne	.L197
 2859              	.LBB6:
1412:Drivers/STM32G4xx_HAL_Driver/Src/stm32g4xx_hal_rcc_ex.c ****   {
1413:Drivers/STM32G4xx_HAL_Driver/Src/stm32g4xx_hal_rcc_ex.c ****     __HAL_RCC_PWR_CLK_ENABLE();
 2860              		.loc 1 1413 5
 2861 001a 194B     		ldr	r3, .L202
 2862 001c 9B6D     		ldr	r3, [r3, #88]
 2863 001e 184A     		ldr	r2, .L202
 2864 0020 43F08053 		orr	r3, r3, #268435456
 2865 0024 9365     		str	r3, [r2, #88]
 2866 0026 164B     		ldr	r3, .L202
 2867 0028 9B6D     		ldr	r3, [r3, #88]
 2868 002a 03F08053 		and	r3, r3, #268435456
 2869 002e 3B60     		str	r3, [r7]
 2870 0030 3B68     		ldr	r3, [r7]
 2871              	.LBE6:
1414:Drivers/STM32G4xx_HAL_Driver/Src/stm32g4xx_hal_rcc_ex.c ****     pwrclkchanged = SET;
 2872              		.loc 1 1414 19
 2873 0032 0123     		movs	r3, #1
 2874 0034 FB71     		strb	r3, [r7, #7]
 2875              	.L197:
1415:Drivers/STM32G4xx_HAL_Driver/Src/stm32g4xx_hal_rcc_ex.c ****   }
1416:Drivers/STM32G4xx_HAL_Driver/Src/stm32g4xx_hal_rcc_ex.c ****   if(HAL_IS_BIT_CLR(PWR->CR1, PWR_CR1_DBP))
 2876              		.loc 1 1416 6
 2877 0036 134B     		ldr	r3, .L202+4
 2878 0038 1B68     		ldr	r3, [r3]
 2879 003a 03F48073 		and	r3, r3, #256
 2880              		.loc 1 1416 5
 2881 003e 002B     		cmp	r3, #0
 2882 0040 03D1     		bne	.L198
1417:Drivers/STM32G4xx_HAL_Driver/Src/stm32g4xx_hal_rcc_ex.c ****   {
1418:Drivers/STM32G4xx_HAL_Driver/Src/stm32g4xx_hal_rcc_ex.c ****     /* Enable access to the backup domain */
1419:Drivers/STM32G4xx_HAL_Driver/Src/stm32g4xx_hal_rcc_ex.c ****     HAL_PWR_EnableBkUpAccess();
 2883              		.loc 1 1419 5
 2884 0042 FFF7FEFF 		bl	HAL_PWR_EnableBkUpAccess
1420:Drivers/STM32G4xx_HAL_Driver/Src/stm32g4xx_hal_rcc_ex.c ****     backupchanged = SET;
 2885              		.loc 1 1420 19
 2886 0046 0123     		movs	r3, #1
 2887 0048 BB71     		strb	r3, [r7, #6]
 2888              	.L198:
1421:Drivers/STM32G4xx_HAL_Driver/Src/stm32g4xx_hal_rcc_ex.c ****   }
1422:Drivers/STM32G4xx_HAL_Driver/Src/stm32g4xx_hal_rcc_ex.c **** 
1423:Drivers/STM32G4xx_HAL_Driver/Src/stm32g4xx_hal_rcc_ex.c ****   CLEAR_BIT(RCC->BDCR, RCC_BDCR_LSCOEN);
 2889              		.loc 1 1423 3
 2890 004a 0D4B     		ldr	r3, .L202
 2891 004c D3F89030 		ldr	r3, [r3, #144]
 2892 0050 0B4A     		ldr	r2, .L202
 2893 0052 23F08073 		bic	r3, r3, #16777216
 2894 0056 C2F89030 		str	r3, [r2, #144]
1424:Drivers/STM32G4xx_HAL_Driver/Src/stm32g4xx_hal_rcc_ex.c **** 
1425:Drivers/STM32G4xx_HAL_Driver/Src/stm32g4xx_hal_rcc_ex.c ****   /* Restore previous configuration */
ARM GAS  C:\Users\AURORA~1\AppData\Local\Temp\cc3nfJXy.s 			page 83


1426:Drivers/STM32G4xx_HAL_Driver/Src/stm32g4xx_hal_rcc_ex.c ****   if(backupchanged == SET)
 2895              		.loc 1 1426 5
 2896 005a BB79     		ldrb	r3, [r7, #6]	@ zero_extendqisi2
 2897 005c 012B     		cmp	r3, #1
 2898 005e 01D1     		bne	.L199
1427:Drivers/STM32G4xx_HAL_Driver/Src/stm32g4xx_hal_rcc_ex.c ****   {
1428:Drivers/STM32G4xx_HAL_Driver/Src/stm32g4xx_hal_rcc_ex.c ****     /* Disable access to the backup domain */
1429:Drivers/STM32G4xx_HAL_Driver/Src/stm32g4xx_hal_rcc_ex.c ****     HAL_PWR_DisableBkUpAccess();
 2899              		.loc 1 1429 5
 2900 0060 FFF7FEFF 		bl	HAL_PWR_DisableBkUpAccess
 2901              	.L199:
1430:Drivers/STM32G4xx_HAL_Driver/Src/stm32g4xx_hal_rcc_ex.c ****   }
1431:Drivers/STM32G4xx_HAL_Driver/Src/stm32g4xx_hal_rcc_ex.c ****   if(pwrclkchanged == SET)
 2902              		.loc 1 1431 5
 2903 0064 FB79     		ldrb	r3, [r7, #7]	@ zero_extendqisi2
 2904 0066 012B     		cmp	r3, #1
 2905 0068 05D1     		bne	.L201
1432:Drivers/STM32G4xx_HAL_Driver/Src/stm32g4xx_hal_rcc_ex.c ****   {
1433:Drivers/STM32G4xx_HAL_Driver/Src/stm32g4xx_hal_rcc_ex.c ****     __HAL_RCC_PWR_CLK_DISABLE();
 2906              		.loc 1 1433 5
 2907 006a 054B     		ldr	r3, .L202
 2908 006c 9B6D     		ldr	r3, [r3, #88]
 2909 006e 044A     		ldr	r2, .L202
 2910 0070 23F08053 		bic	r3, r3, #268435456
 2911 0074 9365     		str	r3, [r2, #88]
 2912              	.L201:
1434:Drivers/STM32G4xx_HAL_Driver/Src/stm32g4xx_hal_rcc_ex.c ****   }
1435:Drivers/STM32G4xx_HAL_Driver/Src/stm32g4xx_hal_rcc_ex.c **** }
 2913              		.loc 1 1435 1
 2914 0076 00BF     		nop
 2915 0078 0837     		adds	r7, r7, #8
 2916              	.LCFI42:
 2917              		.cfi_def_cfa_offset 8
 2918 007a BD46     		mov	sp, r7
 2919              	.LCFI43:
 2920              		.cfi_def_cfa_register 13
 2921              		@ sp needed
 2922 007c 80BD     		pop	{r7, pc}
 2923              	.L203:
 2924 007e 00BF     		.align	2
 2925              	.L202:
 2926 0080 00100240 		.word	1073876992
 2927 0084 00700040 		.word	1073770496
 2928              		.cfi_endproc
 2929              	.LFE141:
 2931              		.section	.text.HAL_RCCEx_CRSConfig,"ax",%progbits
 2932              		.align	1
 2933              		.global	HAL_RCCEx_CRSConfig
 2934              		.syntax unified
 2935              		.thumb
 2936              		.thumb_func
 2938              	HAL_RCCEx_CRSConfig:
 2939              	.LFB142:
1436:Drivers/STM32G4xx_HAL_Driver/Src/stm32g4xx_hal_rcc_ex.c **** 
1437:Drivers/STM32G4xx_HAL_Driver/Src/stm32g4xx_hal_rcc_ex.c **** 
1438:Drivers/STM32G4xx_HAL_Driver/Src/stm32g4xx_hal_rcc_ex.c **** /**
1439:Drivers/STM32G4xx_HAL_Driver/Src/stm32g4xx_hal_rcc_ex.c ****   * @}
ARM GAS  C:\Users\AURORA~1\AppData\Local\Temp\cc3nfJXy.s 			page 84


1440:Drivers/STM32G4xx_HAL_Driver/Src/stm32g4xx_hal_rcc_ex.c ****   */
1441:Drivers/STM32G4xx_HAL_Driver/Src/stm32g4xx_hal_rcc_ex.c **** 
1442:Drivers/STM32G4xx_HAL_Driver/Src/stm32g4xx_hal_rcc_ex.c **** #if defined(CRS)
1443:Drivers/STM32G4xx_HAL_Driver/Src/stm32g4xx_hal_rcc_ex.c **** 
1444:Drivers/STM32G4xx_HAL_Driver/Src/stm32g4xx_hal_rcc_ex.c **** /** @defgroup RCCEx_Exported_Functions_Group3 Extended Clock Recovery System Control functions
1445:Drivers/STM32G4xx_HAL_Driver/Src/stm32g4xx_hal_rcc_ex.c ****  *  @brief  Extended Clock Recovery System Control functions
1446:Drivers/STM32G4xx_HAL_Driver/Src/stm32g4xx_hal_rcc_ex.c ****  *
1447:Drivers/STM32G4xx_HAL_Driver/Src/stm32g4xx_hal_rcc_ex.c **** @verbatim
1448:Drivers/STM32G4xx_HAL_Driver/Src/stm32g4xx_hal_rcc_ex.c ****  ===============================================================================
1449:Drivers/STM32G4xx_HAL_Driver/Src/stm32g4xx_hal_rcc_ex.c ****                 ##### Extended Clock Recovery System Control functions  #####
1450:Drivers/STM32G4xx_HAL_Driver/Src/stm32g4xx_hal_rcc_ex.c ****  ===============================================================================
1451:Drivers/STM32G4xx_HAL_Driver/Src/stm32g4xx_hal_rcc_ex.c ****     [..]
1452:Drivers/STM32G4xx_HAL_Driver/Src/stm32g4xx_hal_rcc_ex.c ****       For devices with Clock Recovery System feature (CRS), RCC Extension HAL driver can be used as
1453:Drivers/STM32G4xx_HAL_Driver/Src/stm32g4xx_hal_rcc_ex.c **** 
1454:Drivers/STM32G4xx_HAL_Driver/Src/stm32g4xx_hal_rcc_ex.c ****       (#) In System clock config, HSI48 needs to be enabled
1455:Drivers/STM32G4xx_HAL_Driver/Src/stm32g4xx_hal_rcc_ex.c **** 
1456:Drivers/STM32G4xx_HAL_Driver/Src/stm32g4xx_hal_rcc_ex.c ****       (#) Enable CRS clock in IP MSP init which will use CRS functions
1457:Drivers/STM32G4xx_HAL_Driver/Src/stm32g4xx_hal_rcc_ex.c **** 
1458:Drivers/STM32G4xx_HAL_Driver/Src/stm32g4xx_hal_rcc_ex.c ****       (#) Call CRS functions as follows:
1459:Drivers/STM32G4xx_HAL_Driver/Src/stm32g4xx_hal_rcc_ex.c ****           (##) Prepare synchronization configuration necessary for HSI48 calibration
1460:Drivers/STM32G4xx_HAL_Driver/Src/stm32g4xx_hal_rcc_ex.c ****               (+++) Default values can be set for frequency Error Measurement (reload and error lim
1461:Drivers/STM32G4xx_HAL_Driver/Src/stm32g4xx_hal_rcc_ex.c ****                         and also HSI48 oscillator smooth trimming.
1462:Drivers/STM32G4xx_HAL_Driver/Src/stm32g4xx_hal_rcc_ex.c ****               (+++) Macro __HAL_RCC_CRS_RELOADVALUE_CALCULATE can be also used to calculate
1463:Drivers/STM32G4xx_HAL_Driver/Src/stm32g4xx_hal_rcc_ex.c ****                         directly reload value with target and sychronization frequencies values
1464:Drivers/STM32G4xx_HAL_Driver/Src/stm32g4xx_hal_rcc_ex.c ****           (##) Call function HAL_RCCEx_CRSConfig which
1465:Drivers/STM32G4xx_HAL_Driver/Src/stm32g4xx_hal_rcc_ex.c ****               (+++) Resets CRS registers to their default values.
1466:Drivers/STM32G4xx_HAL_Driver/Src/stm32g4xx_hal_rcc_ex.c ****               (+++) Configures CRS registers with synchronization configuration
1467:Drivers/STM32G4xx_HAL_Driver/Src/stm32g4xx_hal_rcc_ex.c ****               (+++) Enables automatic calibration and frequency error counter feature
1468:Drivers/STM32G4xx_HAL_Driver/Src/stm32g4xx_hal_rcc_ex.c ****            Note: When using USB LPM (Link Power Management) and the device is in Sleep mode, the
1469:Drivers/STM32G4xx_HAL_Driver/Src/stm32g4xx_hal_rcc_ex.c ****            periodic USB SOF will not be generated by the host. No SYNC signal will therefore be
1470:Drivers/STM32G4xx_HAL_Driver/Src/stm32g4xx_hal_rcc_ex.c ****            provided to the CRS to calibrate the HSI48 on the run. To guarantee the required clock
1471:Drivers/STM32G4xx_HAL_Driver/Src/stm32g4xx_hal_rcc_ex.c ****            precision after waking up from Sleep mode, the LSE or reference clock on the GPIOs
1472:Drivers/STM32G4xx_HAL_Driver/Src/stm32g4xx_hal_rcc_ex.c ****            should be used as SYNC signal.
1473:Drivers/STM32G4xx_HAL_Driver/Src/stm32g4xx_hal_rcc_ex.c **** 
1474:Drivers/STM32G4xx_HAL_Driver/Src/stm32g4xx_hal_rcc_ex.c ****           (##) A polling function is provided to wait for complete synchronization
1475:Drivers/STM32G4xx_HAL_Driver/Src/stm32g4xx_hal_rcc_ex.c ****               (+++) Call function HAL_RCCEx_CRSWaitSynchronization()
1476:Drivers/STM32G4xx_HAL_Driver/Src/stm32g4xx_hal_rcc_ex.c ****               (+++) According to CRS status, user can decide to adjust again the calibration or con
1477:Drivers/STM32G4xx_HAL_Driver/Src/stm32g4xx_hal_rcc_ex.c ****                         application if synchronization is OK
1478:Drivers/STM32G4xx_HAL_Driver/Src/stm32g4xx_hal_rcc_ex.c **** 
1479:Drivers/STM32G4xx_HAL_Driver/Src/stm32g4xx_hal_rcc_ex.c ****       (#) User can retrieve information related to synchronization in calling function
1480:Drivers/STM32G4xx_HAL_Driver/Src/stm32g4xx_hal_rcc_ex.c ****             HAL_RCCEx_CRSGetSynchronizationInfo()
1481:Drivers/STM32G4xx_HAL_Driver/Src/stm32g4xx_hal_rcc_ex.c **** 
1482:Drivers/STM32G4xx_HAL_Driver/Src/stm32g4xx_hal_rcc_ex.c ****       (#) Regarding synchronization status and synchronization information, user can try a new cali
1483:Drivers/STM32G4xx_HAL_Driver/Src/stm32g4xx_hal_rcc_ex.c ****            in changing synchronization configuration and call again HAL_RCCEx_CRSConfig.
1484:Drivers/STM32G4xx_HAL_Driver/Src/stm32g4xx_hal_rcc_ex.c ****            Note: When the SYNC event is detected during the downcounting phase (before reaching the
1485:Drivers/STM32G4xx_HAL_Driver/Src/stm32g4xx_hal_rcc_ex.c ****            it means that the actual frequency is lower than the target (and so, that the TRIM value
1486:Drivers/STM32G4xx_HAL_Driver/Src/stm32g4xx_hal_rcc_ex.c ****            incremented), while when it is detected during the upcounting phase it means that the ac
1487:Drivers/STM32G4xx_HAL_Driver/Src/stm32g4xx_hal_rcc_ex.c ****            is higher (and that the TRIM value should be decremented).
1488:Drivers/STM32G4xx_HAL_Driver/Src/stm32g4xx_hal_rcc_ex.c **** 
1489:Drivers/STM32G4xx_HAL_Driver/Src/stm32g4xx_hal_rcc_ex.c ****       (#) In interrupt mode, user can resort to the available macros (__HAL_RCC_CRS_XXX_IT). Interr
1490:Drivers/STM32G4xx_HAL_Driver/Src/stm32g4xx_hal_rcc_ex.c ****           through CRS Handler (CRS_IRQn/CRS_IRQHandler)
1491:Drivers/STM32G4xx_HAL_Driver/Src/stm32g4xx_hal_rcc_ex.c ****               (++) Call function HAL_RCCEx_CRSConfig()
1492:Drivers/STM32G4xx_HAL_Driver/Src/stm32g4xx_hal_rcc_ex.c ****               (++) Enable CRS_IRQn (thanks to NVIC functions)
1493:Drivers/STM32G4xx_HAL_Driver/Src/stm32g4xx_hal_rcc_ex.c ****               (++) Enable CRS interrupt (__HAL_RCC_CRS_ENABLE_IT)
1494:Drivers/STM32G4xx_HAL_Driver/Src/stm32g4xx_hal_rcc_ex.c ****               (++) Implement CRS status management in the following user callbacks called from
1495:Drivers/STM32G4xx_HAL_Driver/Src/stm32g4xx_hal_rcc_ex.c ****                    HAL_RCCEx_CRS_IRQHandler():
1496:Drivers/STM32G4xx_HAL_Driver/Src/stm32g4xx_hal_rcc_ex.c ****                    (+++) HAL_RCCEx_CRS_SyncOkCallback()
ARM GAS  C:\Users\AURORA~1\AppData\Local\Temp\cc3nfJXy.s 			page 85


1497:Drivers/STM32G4xx_HAL_Driver/Src/stm32g4xx_hal_rcc_ex.c ****                    (+++) HAL_RCCEx_CRS_SyncWarnCallback()
1498:Drivers/STM32G4xx_HAL_Driver/Src/stm32g4xx_hal_rcc_ex.c ****                    (+++) HAL_RCCEx_CRS_ExpectedSyncCallback()
1499:Drivers/STM32G4xx_HAL_Driver/Src/stm32g4xx_hal_rcc_ex.c ****                    (+++) HAL_RCCEx_CRS_ErrorCallback()
1500:Drivers/STM32G4xx_HAL_Driver/Src/stm32g4xx_hal_rcc_ex.c **** 
1501:Drivers/STM32G4xx_HAL_Driver/Src/stm32g4xx_hal_rcc_ex.c ****       (#) To force a SYNC EVENT, user can use the function HAL_RCCEx_CRSSoftwareSynchronizationGene
1502:Drivers/STM32G4xx_HAL_Driver/Src/stm32g4xx_hal_rcc_ex.c ****           This function can be called before calling HAL_RCCEx_CRSConfig (for instance in Systick h
1503:Drivers/STM32G4xx_HAL_Driver/Src/stm32g4xx_hal_rcc_ex.c **** 
1504:Drivers/STM32G4xx_HAL_Driver/Src/stm32g4xx_hal_rcc_ex.c **** @endverbatim
1505:Drivers/STM32G4xx_HAL_Driver/Src/stm32g4xx_hal_rcc_ex.c ****  * @{
1506:Drivers/STM32G4xx_HAL_Driver/Src/stm32g4xx_hal_rcc_ex.c ****  */
1507:Drivers/STM32G4xx_HAL_Driver/Src/stm32g4xx_hal_rcc_ex.c **** 
1508:Drivers/STM32G4xx_HAL_Driver/Src/stm32g4xx_hal_rcc_ex.c **** /**
1509:Drivers/STM32G4xx_HAL_Driver/Src/stm32g4xx_hal_rcc_ex.c ****   * @brief  Start automatic synchronization for polling mode
1510:Drivers/STM32G4xx_HAL_Driver/Src/stm32g4xx_hal_rcc_ex.c ****   * @param  pInit Pointer on RCC_CRSInitTypeDef structure
1511:Drivers/STM32G4xx_HAL_Driver/Src/stm32g4xx_hal_rcc_ex.c ****   * @retval None
1512:Drivers/STM32G4xx_HAL_Driver/Src/stm32g4xx_hal_rcc_ex.c ****   */
1513:Drivers/STM32G4xx_HAL_Driver/Src/stm32g4xx_hal_rcc_ex.c **** void HAL_RCCEx_CRSConfig(RCC_CRSInitTypeDef *pInit)
1514:Drivers/STM32G4xx_HAL_Driver/Src/stm32g4xx_hal_rcc_ex.c **** {
 2940              		.loc 1 1514 1
 2941              		.cfi_startproc
 2942              		@ args = 0, pretend = 0, frame = 16
 2943              		@ frame_needed = 1, uses_anonymous_args = 0
 2944              		@ link register save eliminated.
 2945 0000 80B4     		push	{r7}
 2946              	.LCFI44:
 2947              		.cfi_def_cfa_offset 4
 2948              		.cfi_offset 7, -4
 2949 0002 85B0     		sub	sp, sp, #20
 2950              	.LCFI45:
 2951              		.cfi_def_cfa_offset 24
 2952 0004 00AF     		add	r7, sp, #0
 2953              	.LCFI46:
 2954              		.cfi_def_cfa_register 7
 2955 0006 7860     		str	r0, [r7, #4]
1515:Drivers/STM32G4xx_HAL_Driver/Src/stm32g4xx_hal_rcc_ex.c ****   uint32_t value;
1516:Drivers/STM32G4xx_HAL_Driver/Src/stm32g4xx_hal_rcc_ex.c **** 
1517:Drivers/STM32G4xx_HAL_Driver/Src/stm32g4xx_hal_rcc_ex.c ****   /* Check the parameters */
1518:Drivers/STM32G4xx_HAL_Driver/Src/stm32g4xx_hal_rcc_ex.c ****   assert_param(IS_RCC_CRS_SYNC_DIV(pInit->Prescaler));
1519:Drivers/STM32G4xx_HAL_Driver/Src/stm32g4xx_hal_rcc_ex.c ****   assert_param(IS_RCC_CRS_SYNC_SOURCE(pInit->Source));
1520:Drivers/STM32G4xx_HAL_Driver/Src/stm32g4xx_hal_rcc_ex.c ****   assert_param(IS_RCC_CRS_SYNC_POLARITY(pInit->Polarity));
1521:Drivers/STM32G4xx_HAL_Driver/Src/stm32g4xx_hal_rcc_ex.c ****   assert_param(IS_RCC_CRS_RELOADVALUE(pInit->ReloadValue));
1522:Drivers/STM32G4xx_HAL_Driver/Src/stm32g4xx_hal_rcc_ex.c ****   assert_param(IS_RCC_CRS_ERRORLIMIT(pInit->ErrorLimitValue));
1523:Drivers/STM32G4xx_HAL_Driver/Src/stm32g4xx_hal_rcc_ex.c ****   assert_param(IS_RCC_CRS_HSI48CALIBRATION(pInit->HSI48CalibrationValue));
1524:Drivers/STM32G4xx_HAL_Driver/Src/stm32g4xx_hal_rcc_ex.c **** 
1525:Drivers/STM32G4xx_HAL_Driver/Src/stm32g4xx_hal_rcc_ex.c ****   /* CONFIGURATION */
1526:Drivers/STM32G4xx_HAL_Driver/Src/stm32g4xx_hal_rcc_ex.c **** 
1527:Drivers/STM32G4xx_HAL_Driver/Src/stm32g4xx_hal_rcc_ex.c ****   /* Before configuration, reset CRS registers to their default values*/
1528:Drivers/STM32G4xx_HAL_Driver/Src/stm32g4xx_hal_rcc_ex.c ****   __HAL_RCC_CRS_FORCE_RESET();
 2956              		.loc 1 1528 3
 2957 0008 1C4B     		ldr	r3, .L205
 2958 000a 9B6B     		ldr	r3, [r3, #56]
 2959 000c 1B4A     		ldr	r2, .L205
 2960 000e 43F48073 		orr	r3, r3, #256
 2961 0012 9363     		str	r3, [r2, #56]
1529:Drivers/STM32G4xx_HAL_Driver/Src/stm32g4xx_hal_rcc_ex.c ****   __HAL_RCC_CRS_RELEASE_RESET();
 2962              		.loc 1 1529 3
 2963 0014 194B     		ldr	r3, .L205
ARM GAS  C:\Users\AURORA~1\AppData\Local\Temp\cc3nfJXy.s 			page 86


 2964 0016 9B6B     		ldr	r3, [r3, #56]
 2965 0018 184A     		ldr	r2, .L205
 2966 001a 23F48073 		bic	r3, r3, #256
 2967 001e 9363     		str	r3, [r2, #56]
1530:Drivers/STM32G4xx_HAL_Driver/Src/stm32g4xx_hal_rcc_ex.c **** 
1531:Drivers/STM32G4xx_HAL_Driver/Src/stm32g4xx_hal_rcc_ex.c ****   /* Set the SYNCDIV[2:0] bits according to Prescaler value */
1532:Drivers/STM32G4xx_HAL_Driver/Src/stm32g4xx_hal_rcc_ex.c ****   /* Set the SYNCSRC[1:0] bits according to Source value */
1533:Drivers/STM32G4xx_HAL_Driver/Src/stm32g4xx_hal_rcc_ex.c ****   /* Set the SYNCSPOL bit according to Polarity value */
1534:Drivers/STM32G4xx_HAL_Driver/Src/stm32g4xx_hal_rcc_ex.c ****   value = (pInit->Prescaler | pInit->Source | pInit->Polarity);
 2968              		.loc 1 1534 17
 2969 0020 7B68     		ldr	r3, [r7, #4]
 2970 0022 1A68     		ldr	r2, [r3]
 2971              		.loc 1 1534 36
 2972 0024 7B68     		ldr	r3, [r7, #4]
 2973 0026 5B68     		ldr	r3, [r3, #4]
 2974              		.loc 1 1534 29
 2975 0028 1A43     		orrs	r2, r2, r3
 2976              		.loc 1 1534 52
 2977 002a 7B68     		ldr	r3, [r7, #4]
 2978 002c 9B68     		ldr	r3, [r3, #8]
 2979              		.loc 1 1534 9
 2980 002e 1343     		orrs	r3, r3, r2
 2981 0030 FB60     		str	r3, [r7, #12]
1535:Drivers/STM32G4xx_HAL_Driver/Src/stm32g4xx_hal_rcc_ex.c ****   /* Set the RELOAD[15:0] bits according to ReloadValue value */
1536:Drivers/STM32G4xx_HAL_Driver/Src/stm32g4xx_hal_rcc_ex.c ****   value |= pInit->ReloadValue;
 2982              		.loc 1 1536 17
 2983 0032 7B68     		ldr	r3, [r7, #4]
 2984 0034 DB68     		ldr	r3, [r3, #12]
 2985              		.loc 1 1536 9
 2986 0036 FA68     		ldr	r2, [r7, #12]
 2987 0038 1343     		orrs	r3, r3, r2
 2988 003a FB60     		str	r3, [r7, #12]
1537:Drivers/STM32G4xx_HAL_Driver/Src/stm32g4xx_hal_rcc_ex.c ****   /* Set the FELIM[7:0] bits according to ErrorLimitValue value */
1538:Drivers/STM32G4xx_HAL_Driver/Src/stm32g4xx_hal_rcc_ex.c ****   value |= (pInit->ErrorLimitValue << CRS_CFGR_FELIM_Pos);
 2989              		.loc 1 1538 18
 2990 003c 7B68     		ldr	r3, [r7, #4]
 2991 003e 1B69     		ldr	r3, [r3, #16]
 2992              		.loc 1 1538 36
 2993 0040 1B04     		lsls	r3, r3, #16
 2994              		.loc 1 1538 9
 2995 0042 FA68     		ldr	r2, [r7, #12]
 2996 0044 1343     		orrs	r3, r3, r2
 2997 0046 FB60     		str	r3, [r7, #12]
1539:Drivers/STM32G4xx_HAL_Driver/Src/stm32g4xx_hal_rcc_ex.c ****   WRITE_REG(CRS->CFGR, value);
 2998              		.loc 1 1539 3
 2999 0048 0D4A     		ldr	r2, .L205+4
 3000 004a FB68     		ldr	r3, [r7, #12]
 3001 004c 5360     		str	r3, [r2, #4]
1540:Drivers/STM32G4xx_HAL_Driver/Src/stm32g4xx_hal_rcc_ex.c **** 
1541:Drivers/STM32G4xx_HAL_Driver/Src/stm32g4xx_hal_rcc_ex.c ****   /* Adjust HSI48 oscillator smooth trimming */
1542:Drivers/STM32G4xx_HAL_Driver/Src/stm32g4xx_hal_rcc_ex.c ****   /* Set the TRIM[6:0] bits according to RCC_CRS_HSI48CalibrationValue value */
1543:Drivers/STM32G4xx_HAL_Driver/Src/stm32g4xx_hal_rcc_ex.c ****   MODIFY_REG(CRS->CR, CRS_CR_TRIM, (pInit->HSI48CalibrationValue << CRS_CR_TRIM_Pos));
 3002              		.loc 1 1543 3
 3003 004e 0C4B     		ldr	r3, .L205+4
 3004 0050 1B68     		ldr	r3, [r3]
 3005 0052 23F4FE42 		bic	r2, r3, #32512
 3006 0056 7B68     		ldr	r3, [r7, #4]
ARM GAS  C:\Users\AURORA~1\AppData\Local\Temp\cc3nfJXy.s 			page 87


 3007 0058 5B69     		ldr	r3, [r3, #20]
 3008 005a 1B02     		lsls	r3, r3, #8
 3009 005c 0849     		ldr	r1, .L205+4
 3010 005e 1343     		orrs	r3, r3, r2
 3011 0060 0B60     		str	r3, [r1]
1544:Drivers/STM32G4xx_HAL_Driver/Src/stm32g4xx_hal_rcc_ex.c **** 
1545:Drivers/STM32G4xx_HAL_Driver/Src/stm32g4xx_hal_rcc_ex.c ****   /* START AUTOMATIC SYNCHRONIZATION*/
1546:Drivers/STM32G4xx_HAL_Driver/Src/stm32g4xx_hal_rcc_ex.c **** 
1547:Drivers/STM32G4xx_HAL_Driver/Src/stm32g4xx_hal_rcc_ex.c ****   /* Enable Automatic trimming & Frequency error counter */
1548:Drivers/STM32G4xx_HAL_Driver/Src/stm32g4xx_hal_rcc_ex.c ****   SET_BIT(CRS->CR, CRS_CR_AUTOTRIMEN | CRS_CR_CEN);
 3012              		.loc 1 1548 3
 3013 0062 074B     		ldr	r3, .L205+4
 3014 0064 1B68     		ldr	r3, [r3]
 3015 0066 064A     		ldr	r2, .L205+4
 3016 0068 43F06003 		orr	r3, r3, #96
 3017 006c 1360     		str	r3, [r2]
1549:Drivers/STM32G4xx_HAL_Driver/Src/stm32g4xx_hal_rcc_ex.c **** }
 3018              		.loc 1 1549 1
 3019 006e 00BF     		nop
 3020 0070 1437     		adds	r7, r7, #20
 3021              	.LCFI47:
 3022              		.cfi_def_cfa_offset 4
 3023 0072 BD46     		mov	sp, r7
 3024              	.LCFI48:
 3025              		.cfi_def_cfa_register 13
 3026              		@ sp needed
 3027 0074 5DF8047B 		ldr	r7, [sp], #4
 3028              	.LCFI49:
 3029              		.cfi_restore 7
 3030              		.cfi_def_cfa_offset 0
 3031 0078 7047     		bx	lr
 3032              	.L206:
 3033 007a 00BF     		.align	2
 3034              	.L205:
 3035 007c 00100240 		.word	1073876992
 3036 0080 00200040 		.word	1073750016
 3037              		.cfi_endproc
 3038              	.LFE142:
 3040              		.section	.text.HAL_RCCEx_CRSSoftwareSynchronizationGenerate,"ax",%progbits
 3041              		.align	1
 3042              		.global	HAL_RCCEx_CRSSoftwareSynchronizationGenerate
 3043              		.syntax unified
 3044              		.thumb
 3045              		.thumb_func
 3047              	HAL_RCCEx_CRSSoftwareSynchronizationGenerate:
 3048              	.LFB143:
1550:Drivers/STM32G4xx_HAL_Driver/Src/stm32g4xx_hal_rcc_ex.c **** 
1551:Drivers/STM32G4xx_HAL_Driver/Src/stm32g4xx_hal_rcc_ex.c **** /**
1552:Drivers/STM32G4xx_HAL_Driver/Src/stm32g4xx_hal_rcc_ex.c ****   * @brief  Generate the software synchronization event
1553:Drivers/STM32G4xx_HAL_Driver/Src/stm32g4xx_hal_rcc_ex.c ****   * @retval None
1554:Drivers/STM32G4xx_HAL_Driver/Src/stm32g4xx_hal_rcc_ex.c ****   */
1555:Drivers/STM32G4xx_HAL_Driver/Src/stm32g4xx_hal_rcc_ex.c **** void HAL_RCCEx_CRSSoftwareSynchronizationGenerate(void)
1556:Drivers/STM32G4xx_HAL_Driver/Src/stm32g4xx_hal_rcc_ex.c **** {
 3049              		.loc 1 1556 1
 3050              		.cfi_startproc
 3051              		@ args = 0, pretend = 0, frame = 0
 3052              		@ frame_needed = 1, uses_anonymous_args = 0
ARM GAS  C:\Users\AURORA~1\AppData\Local\Temp\cc3nfJXy.s 			page 88


 3053              		@ link register save eliminated.
 3054 0000 80B4     		push	{r7}
 3055              	.LCFI50:
 3056              		.cfi_def_cfa_offset 4
 3057              		.cfi_offset 7, -4
 3058 0002 00AF     		add	r7, sp, #0
 3059              	.LCFI51:
 3060              		.cfi_def_cfa_register 7
1557:Drivers/STM32G4xx_HAL_Driver/Src/stm32g4xx_hal_rcc_ex.c ****   SET_BIT(CRS->CR, CRS_CR_SWSYNC);
 3061              		.loc 1 1557 3
 3062 0004 054B     		ldr	r3, .L208
 3063 0006 1B68     		ldr	r3, [r3]
 3064 0008 044A     		ldr	r2, .L208
 3065 000a 43F08003 		orr	r3, r3, #128
 3066 000e 1360     		str	r3, [r2]
1558:Drivers/STM32G4xx_HAL_Driver/Src/stm32g4xx_hal_rcc_ex.c **** }
 3067              		.loc 1 1558 1
 3068 0010 00BF     		nop
 3069 0012 BD46     		mov	sp, r7
 3070              	.LCFI52:
 3071              		.cfi_def_cfa_register 13
 3072              		@ sp needed
 3073 0014 5DF8047B 		ldr	r7, [sp], #4
 3074              	.LCFI53:
 3075              		.cfi_restore 7
 3076              		.cfi_def_cfa_offset 0
 3077 0018 7047     		bx	lr
 3078              	.L209:
 3079 001a 00BF     		.align	2
 3080              	.L208:
 3081 001c 00200040 		.word	1073750016
 3082              		.cfi_endproc
 3083              	.LFE143:
 3085              		.section	.text.HAL_RCCEx_CRSGetSynchronizationInfo,"ax",%progbits
 3086              		.align	1
 3087              		.global	HAL_RCCEx_CRSGetSynchronizationInfo
 3088              		.syntax unified
 3089              		.thumb
 3090              		.thumb_func
 3092              	HAL_RCCEx_CRSGetSynchronizationInfo:
 3093              	.LFB144:
1559:Drivers/STM32G4xx_HAL_Driver/Src/stm32g4xx_hal_rcc_ex.c **** 
1560:Drivers/STM32G4xx_HAL_Driver/Src/stm32g4xx_hal_rcc_ex.c **** /**
1561:Drivers/STM32G4xx_HAL_Driver/Src/stm32g4xx_hal_rcc_ex.c ****   * @brief  Return synchronization info
1562:Drivers/STM32G4xx_HAL_Driver/Src/stm32g4xx_hal_rcc_ex.c ****   * @param  pSynchroInfo Pointer on RCC_CRSSynchroInfoTypeDef structure
1563:Drivers/STM32G4xx_HAL_Driver/Src/stm32g4xx_hal_rcc_ex.c ****   * @retval None
1564:Drivers/STM32G4xx_HAL_Driver/Src/stm32g4xx_hal_rcc_ex.c ****   */
1565:Drivers/STM32G4xx_HAL_Driver/Src/stm32g4xx_hal_rcc_ex.c **** void HAL_RCCEx_CRSGetSynchronizationInfo(RCC_CRSSynchroInfoTypeDef *pSynchroInfo)
1566:Drivers/STM32G4xx_HAL_Driver/Src/stm32g4xx_hal_rcc_ex.c **** {
 3094              		.loc 1 1566 1
 3095              		.cfi_startproc
 3096              		@ args = 0, pretend = 0, frame = 8
 3097              		@ frame_needed = 1, uses_anonymous_args = 0
 3098              		@ link register save eliminated.
 3099 0000 80B4     		push	{r7}
 3100              	.LCFI54:
 3101              		.cfi_def_cfa_offset 4
ARM GAS  C:\Users\AURORA~1\AppData\Local\Temp\cc3nfJXy.s 			page 89


 3102              		.cfi_offset 7, -4
 3103 0002 83B0     		sub	sp, sp, #12
 3104              	.LCFI55:
 3105              		.cfi_def_cfa_offset 16
 3106 0004 00AF     		add	r7, sp, #0
 3107              	.LCFI56:
 3108              		.cfi_def_cfa_register 7
 3109 0006 7860     		str	r0, [r7, #4]
1567:Drivers/STM32G4xx_HAL_Driver/Src/stm32g4xx_hal_rcc_ex.c ****   /* Check the parameter */
1568:Drivers/STM32G4xx_HAL_Driver/Src/stm32g4xx_hal_rcc_ex.c ****   assert_param(pSynchroInfo != (void *)NULL);
1569:Drivers/STM32G4xx_HAL_Driver/Src/stm32g4xx_hal_rcc_ex.c **** 
1570:Drivers/STM32G4xx_HAL_Driver/Src/stm32g4xx_hal_rcc_ex.c ****   /* Get the reload value */
1571:Drivers/STM32G4xx_HAL_Driver/Src/stm32g4xx_hal_rcc_ex.c ****   pSynchroInfo->ReloadValue = (READ_BIT(CRS->CFGR, CRS_CFGR_RELOAD));
 3110              		.loc 1 1571 32
 3111 0008 0E4B     		ldr	r3, .L211
 3112 000a 5B68     		ldr	r3, [r3, #4]
 3113 000c 9AB2     		uxth	r2, r3
 3114              		.loc 1 1571 29
 3115 000e 7B68     		ldr	r3, [r7, #4]
 3116 0010 1A60     		str	r2, [r3]
1572:Drivers/STM32G4xx_HAL_Driver/Src/stm32g4xx_hal_rcc_ex.c **** 
1573:Drivers/STM32G4xx_HAL_Driver/Src/stm32g4xx_hal_rcc_ex.c ****   /* Get HSI48 oscillator smooth trimming */
1574:Drivers/STM32G4xx_HAL_Driver/Src/stm32g4xx_hal_rcc_ex.c ****   pSynchroInfo->HSI48CalibrationValue = (READ_BIT(CRS->CR, CRS_CR_TRIM) >> CRS_CR_TRIM_Pos);
 3117              		.loc 1 1574 42
 3118 0012 0C4B     		ldr	r3, .L211
 3119 0014 1B68     		ldr	r3, [r3]
 3120              		.loc 1 1574 73
 3121 0016 1B0A     		lsrs	r3, r3, #8
 3122 0018 03F07F02 		and	r2, r3, #127
 3123              		.loc 1 1574 39
 3124 001c 7B68     		ldr	r3, [r7, #4]
 3125 001e 5A60     		str	r2, [r3, #4]
1575:Drivers/STM32G4xx_HAL_Driver/Src/stm32g4xx_hal_rcc_ex.c **** 
1576:Drivers/STM32G4xx_HAL_Driver/Src/stm32g4xx_hal_rcc_ex.c ****   /* Get Frequency error capture */
1577:Drivers/STM32G4xx_HAL_Driver/Src/stm32g4xx_hal_rcc_ex.c ****   pSynchroInfo->FreqErrorCapture = (READ_BIT(CRS->ISR, CRS_ISR_FECAP) >> CRS_ISR_FECAP_Pos);
 3126              		.loc 1 1577 37
 3127 0020 084B     		ldr	r3, .L211
 3128 0022 9B68     		ldr	r3, [r3, #8]
 3129              		.loc 1 1577 71
 3130 0024 1B0C     		lsrs	r3, r3, #16
 3131 0026 9AB2     		uxth	r2, r3
 3132              		.loc 1 1577 34
 3133 0028 7B68     		ldr	r3, [r7, #4]
 3134 002a 9A60     		str	r2, [r3, #8]
1578:Drivers/STM32G4xx_HAL_Driver/Src/stm32g4xx_hal_rcc_ex.c **** 
1579:Drivers/STM32G4xx_HAL_Driver/Src/stm32g4xx_hal_rcc_ex.c ****   /* Get Frequency error direction */
1580:Drivers/STM32G4xx_HAL_Driver/Src/stm32g4xx_hal_rcc_ex.c ****   pSynchroInfo->FreqErrorDirection = (READ_BIT(CRS->ISR, CRS_ISR_FEDIR));
 3135              		.loc 1 1580 39
 3136 002c 054B     		ldr	r3, .L211
 3137 002e 9B68     		ldr	r3, [r3, #8]
 3138 0030 03F40042 		and	r2, r3, #32768
 3139              		.loc 1 1580 36
 3140 0034 7B68     		ldr	r3, [r7, #4]
 3141 0036 DA60     		str	r2, [r3, #12]
1581:Drivers/STM32G4xx_HAL_Driver/Src/stm32g4xx_hal_rcc_ex.c **** }
 3142              		.loc 1 1581 1
 3143 0038 00BF     		nop
ARM GAS  C:\Users\AURORA~1\AppData\Local\Temp\cc3nfJXy.s 			page 90


 3144 003a 0C37     		adds	r7, r7, #12
 3145              	.LCFI57:
 3146              		.cfi_def_cfa_offset 4
 3147 003c BD46     		mov	sp, r7
 3148              	.LCFI58:
 3149              		.cfi_def_cfa_register 13
 3150              		@ sp needed
 3151 003e 5DF8047B 		ldr	r7, [sp], #4
 3152              	.LCFI59:
 3153              		.cfi_restore 7
 3154              		.cfi_def_cfa_offset 0
 3155 0042 7047     		bx	lr
 3156              	.L212:
 3157              		.align	2
 3158              	.L211:
 3159 0044 00200040 		.word	1073750016
 3160              		.cfi_endproc
 3161              	.LFE144:
 3163              		.section	.text.HAL_RCCEx_CRSWaitSynchronization,"ax",%progbits
 3164              		.align	1
 3165              		.global	HAL_RCCEx_CRSWaitSynchronization
 3166              		.syntax unified
 3167              		.thumb
 3168              		.thumb_func
 3170              	HAL_RCCEx_CRSWaitSynchronization:
 3171              	.LFB145:
1582:Drivers/STM32G4xx_HAL_Driver/Src/stm32g4xx_hal_rcc_ex.c **** 
1583:Drivers/STM32G4xx_HAL_Driver/Src/stm32g4xx_hal_rcc_ex.c **** /**
1584:Drivers/STM32G4xx_HAL_Driver/Src/stm32g4xx_hal_rcc_ex.c **** * @brief Wait for CRS Synchronization status.
1585:Drivers/STM32G4xx_HAL_Driver/Src/stm32g4xx_hal_rcc_ex.c **** * @param Timeout  Duration of the timeout
1586:Drivers/STM32G4xx_HAL_Driver/Src/stm32g4xx_hal_rcc_ex.c **** * @note  Timeout is based on the maximum time to receive a SYNC event based on synchronization
1587:Drivers/STM32G4xx_HAL_Driver/Src/stm32g4xx_hal_rcc_ex.c **** *        frequency.
1588:Drivers/STM32G4xx_HAL_Driver/Src/stm32g4xx_hal_rcc_ex.c **** * @note    If Timeout set to HAL_MAX_DELAY, HAL_TIMEOUT will be never returned.
1589:Drivers/STM32G4xx_HAL_Driver/Src/stm32g4xx_hal_rcc_ex.c **** * @retval Combination of Synchronization status
1590:Drivers/STM32G4xx_HAL_Driver/Src/stm32g4xx_hal_rcc_ex.c **** *          This parameter can be a combination of the following values:
1591:Drivers/STM32G4xx_HAL_Driver/Src/stm32g4xx_hal_rcc_ex.c **** *            @arg @ref RCC_CRS_TIMEOUT
1592:Drivers/STM32G4xx_HAL_Driver/Src/stm32g4xx_hal_rcc_ex.c **** *            @arg @ref RCC_CRS_SYNCOK
1593:Drivers/STM32G4xx_HAL_Driver/Src/stm32g4xx_hal_rcc_ex.c **** *            @arg @ref RCC_CRS_SYNCWARN
1594:Drivers/STM32G4xx_HAL_Driver/Src/stm32g4xx_hal_rcc_ex.c **** *            @arg @ref RCC_CRS_SYNCERR
1595:Drivers/STM32G4xx_HAL_Driver/Src/stm32g4xx_hal_rcc_ex.c **** *            @arg @ref RCC_CRS_SYNCMISS
1596:Drivers/STM32G4xx_HAL_Driver/Src/stm32g4xx_hal_rcc_ex.c **** *            @arg @ref RCC_CRS_TRIMOVF
1597:Drivers/STM32G4xx_HAL_Driver/Src/stm32g4xx_hal_rcc_ex.c **** */
1598:Drivers/STM32G4xx_HAL_Driver/Src/stm32g4xx_hal_rcc_ex.c **** uint32_t HAL_RCCEx_CRSWaitSynchronization(uint32_t Timeout)
1599:Drivers/STM32G4xx_HAL_Driver/Src/stm32g4xx_hal_rcc_ex.c **** {
 3172              		.loc 1 1599 1
 3173              		.cfi_startproc
 3174              		@ args = 0, pretend = 0, frame = 16
 3175              		@ frame_needed = 1, uses_anonymous_args = 0
 3176 0000 80B5     		push	{r7, lr}
 3177              	.LCFI60:
 3178              		.cfi_def_cfa_offset 8
 3179              		.cfi_offset 7, -8
 3180              		.cfi_offset 14, -4
 3181 0002 84B0     		sub	sp, sp, #16
 3182              	.LCFI61:
 3183              		.cfi_def_cfa_offset 24
 3184 0004 00AF     		add	r7, sp, #0
ARM GAS  C:\Users\AURORA~1\AppData\Local\Temp\cc3nfJXy.s 			page 91


 3185              	.LCFI62:
 3186              		.cfi_def_cfa_register 7
 3187 0006 7860     		str	r0, [r7, #4]
1600:Drivers/STM32G4xx_HAL_Driver/Src/stm32g4xx_hal_rcc_ex.c ****   uint32_t crsstatus = RCC_CRS_NONE;
 3188              		.loc 1 1600 12
 3189 0008 0023     		movs	r3, #0
 3190 000a FB60     		str	r3, [r7, #12]
1601:Drivers/STM32G4xx_HAL_Driver/Src/stm32g4xx_hal_rcc_ex.c ****   uint32_t tickstart;
1602:Drivers/STM32G4xx_HAL_Driver/Src/stm32g4xx_hal_rcc_ex.c **** 
1603:Drivers/STM32G4xx_HAL_Driver/Src/stm32g4xx_hal_rcc_ex.c ****   /* Get timeout */
1604:Drivers/STM32G4xx_HAL_Driver/Src/stm32g4xx_hal_rcc_ex.c ****   tickstart = HAL_GetTick();
 3191              		.loc 1 1604 15
 3192 000c FFF7FEFF 		bl	HAL_GetTick
 3193 0010 B860     		str	r0, [r7, #8]
 3194              	.L222:
1605:Drivers/STM32G4xx_HAL_Driver/Src/stm32g4xx_hal_rcc_ex.c **** 
1606:Drivers/STM32G4xx_HAL_Driver/Src/stm32g4xx_hal_rcc_ex.c ****   /* Wait for CRS flag or timeout detection */
1607:Drivers/STM32G4xx_HAL_Driver/Src/stm32g4xx_hal_rcc_ex.c ****   do
1608:Drivers/STM32G4xx_HAL_Driver/Src/stm32g4xx_hal_rcc_ex.c ****   {
1609:Drivers/STM32G4xx_HAL_Driver/Src/stm32g4xx_hal_rcc_ex.c ****     if(Timeout != HAL_MAX_DELAY)
 3195              		.loc 1 1609 7
 3196 0012 7B68     		ldr	r3, [r7, #4]
 3197 0014 B3F1FF3F 		cmp	r3, #-1
 3198 0018 0CD0     		beq	.L214
1610:Drivers/STM32G4xx_HAL_Driver/Src/stm32g4xx_hal_rcc_ex.c ****     {
1611:Drivers/STM32G4xx_HAL_Driver/Src/stm32g4xx_hal_rcc_ex.c ****       if(((HAL_GetTick() - tickstart) > Timeout) || (Timeout == 0U))
 3199              		.loc 1 1611 12
 3200 001a FFF7FEFF 		bl	HAL_GetTick
 3201 001e 0246     		mov	r2, r0
 3202              		.loc 1 1611 26 discriminator 1
 3203 0020 BB68     		ldr	r3, [r7, #8]
 3204 0022 D31A     		subs	r3, r2, r3
 3205              		.loc 1 1611 9 discriminator 1
 3206 0024 7A68     		ldr	r2, [r7, #4]
 3207 0026 9A42     		cmp	r2, r3
 3208 0028 02D3     		bcc	.L215
 3209              		.loc 1 1611 50 discriminator 1
 3210 002a 7B68     		ldr	r3, [r7, #4]
 3211 002c 002B     		cmp	r3, #0
 3212 002e 01D1     		bne	.L214
 3213              	.L215:
1612:Drivers/STM32G4xx_HAL_Driver/Src/stm32g4xx_hal_rcc_ex.c ****       {
1613:Drivers/STM32G4xx_HAL_Driver/Src/stm32g4xx_hal_rcc_ex.c ****         crsstatus = RCC_CRS_TIMEOUT;
 3214              		.loc 1 1613 19
 3215 0030 0123     		movs	r3, #1
 3216 0032 FB60     		str	r3, [r7, #12]
 3217              	.L214:
1614:Drivers/STM32G4xx_HAL_Driver/Src/stm32g4xx_hal_rcc_ex.c ****       }
1615:Drivers/STM32G4xx_HAL_Driver/Src/stm32g4xx_hal_rcc_ex.c ****     }
1616:Drivers/STM32G4xx_HAL_Driver/Src/stm32g4xx_hal_rcc_ex.c ****     /* Check CRS SYNCOK flag  */
1617:Drivers/STM32G4xx_HAL_Driver/Src/stm32g4xx_hal_rcc_ex.c ****     if(__HAL_RCC_CRS_GET_FLAG(RCC_CRS_FLAG_SYNCOK))
 3218              		.loc 1 1617 8
 3219 0034 2A4B     		ldr	r3, .L224
 3220 0036 9B68     		ldr	r3, [r3, #8]
 3221 0038 03F00103 		and	r3, r3, #1
 3222              		.loc 1 1617 7
 3223 003c 012B     		cmp	r3, #1
ARM GAS  C:\Users\AURORA~1\AppData\Local\Temp\cc3nfJXy.s 			page 92


 3224 003e 06D1     		bne	.L216
1618:Drivers/STM32G4xx_HAL_Driver/Src/stm32g4xx_hal_rcc_ex.c ****     {
1619:Drivers/STM32G4xx_HAL_Driver/Src/stm32g4xx_hal_rcc_ex.c ****       /* CRS SYNC event OK */
1620:Drivers/STM32G4xx_HAL_Driver/Src/stm32g4xx_hal_rcc_ex.c ****       crsstatus |= RCC_CRS_SYNCOK;
 3225              		.loc 1 1620 17
 3226 0040 FB68     		ldr	r3, [r7, #12]
 3227 0042 43F00203 		orr	r3, r3, #2
 3228 0046 FB60     		str	r3, [r7, #12]
1621:Drivers/STM32G4xx_HAL_Driver/Src/stm32g4xx_hal_rcc_ex.c **** 
1622:Drivers/STM32G4xx_HAL_Driver/Src/stm32g4xx_hal_rcc_ex.c ****       /* Clear CRS SYNC event OK bit */
1623:Drivers/STM32G4xx_HAL_Driver/Src/stm32g4xx_hal_rcc_ex.c ****       __HAL_RCC_CRS_CLEAR_FLAG(RCC_CRS_FLAG_SYNCOK);
 3229              		.loc 1 1623 7 discriminator 2
 3230 0048 254B     		ldr	r3, .L224
 3231 004a 0122     		movs	r2, #1
 3232 004c DA60     		str	r2, [r3, #12]
 3233              	.L216:
1624:Drivers/STM32G4xx_HAL_Driver/Src/stm32g4xx_hal_rcc_ex.c ****     }
1625:Drivers/STM32G4xx_HAL_Driver/Src/stm32g4xx_hal_rcc_ex.c **** 
1626:Drivers/STM32G4xx_HAL_Driver/Src/stm32g4xx_hal_rcc_ex.c ****     /* Check CRS SYNCWARN flag  */
1627:Drivers/STM32G4xx_HAL_Driver/Src/stm32g4xx_hal_rcc_ex.c ****     if(__HAL_RCC_CRS_GET_FLAG(RCC_CRS_FLAG_SYNCWARN))
 3234              		.loc 1 1627 8
 3235 004e 244B     		ldr	r3, .L224
 3236 0050 9B68     		ldr	r3, [r3, #8]
 3237 0052 03F00203 		and	r3, r3, #2
 3238              		.loc 1 1627 7
 3239 0056 022B     		cmp	r3, #2
 3240 0058 06D1     		bne	.L217
1628:Drivers/STM32G4xx_HAL_Driver/Src/stm32g4xx_hal_rcc_ex.c ****     {
1629:Drivers/STM32G4xx_HAL_Driver/Src/stm32g4xx_hal_rcc_ex.c ****       /* CRS SYNC warning */
1630:Drivers/STM32G4xx_HAL_Driver/Src/stm32g4xx_hal_rcc_ex.c ****       crsstatus |= RCC_CRS_SYNCWARN;
 3241              		.loc 1 1630 17
 3242 005a FB68     		ldr	r3, [r7, #12]
 3243 005c 43F00403 		orr	r3, r3, #4
 3244 0060 FB60     		str	r3, [r7, #12]
1631:Drivers/STM32G4xx_HAL_Driver/Src/stm32g4xx_hal_rcc_ex.c **** 
1632:Drivers/STM32G4xx_HAL_Driver/Src/stm32g4xx_hal_rcc_ex.c ****       /* Clear CRS SYNCWARN bit */
1633:Drivers/STM32G4xx_HAL_Driver/Src/stm32g4xx_hal_rcc_ex.c ****       __HAL_RCC_CRS_CLEAR_FLAG(RCC_CRS_FLAG_SYNCWARN);
 3245              		.loc 1 1633 7 discriminator 2
 3246 0062 1F4B     		ldr	r3, .L224
 3247 0064 0222     		movs	r2, #2
 3248 0066 DA60     		str	r2, [r3, #12]
 3249              	.L217:
1634:Drivers/STM32G4xx_HAL_Driver/Src/stm32g4xx_hal_rcc_ex.c ****     }
1635:Drivers/STM32G4xx_HAL_Driver/Src/stm32g4xx_hal_rcc_ex.c **** 
1636:Drivers/STM32G4xx_HAL_Driver/Src/stm32g4xx_hal_rcc_ex.c ****     /* Check CRS TRIM overflow flag  */
1637:Drivers/STM32G4xx_HAL_Driver/Src/stm32g4xx_hal_rcc_ex.c ****     if(__HAL_RCC_CRS_GET_FLAG(RCC_CRS_FLAG_TRIMOVF))
 3250              		.loc 1 1637 8
 3251 0068 1D4B     		ldr	r3, .L224
 3252 006a 9B68     		ldr	r3, [r3, #8]
 3253 006c 03F48063 		and	r3, r3, #1024
 3254              		.loc 1 1637 7
 3255 0070 B3F5806F 		cmp	r3, #1024
 3256 0074 06D1     		bne	.L218
1638:Drivers/STM32G4xx_HAL_Driver/Src/stm32g4xx_hal_rcc_ex.c ****     {
1639:Drivers/STM32G4xx_HAL_Driver/Src/stm32g4xx_hal_rcc_ex.c ****       /* CRS SYNC Error */
1640:Drivers/STM32G4xx_HAL_Driver/Src/stm32g4xx_hal_rcc_ex.c ****       crsstatus |= RCC_CRS_TRIMOVF;
 3257              		.loc 1 1640 17
ARM GAS  C:\Users\AURORA~1\AppData\Local\Temp\cc3nfJXy.s 			page 93


 3258 0076 FB68     		ldr	r3, [r7, #12]
 3259 0078 43F02003 		orr	r3, r3, #32
 3260 007c FB60     		str	r3, [r7, #12]
1641:Drivers/STM32G4xx_HAL_Driver/Src/stm32g4xx_hal_rcc_ex.c **** 
1642:Drivers/STM32G4xx_HAL_Driver/Src/stm32g4xx_hal_rcc_ex.c ****       /* Clear CRS Error bit */
1643:Drivers/STM32G4xx_HAL_Driver/Src/stm32g4xx_hal_rcc_ex.c ****       __HAL_RCC_CRS_CLEAR_FLAG(RCC_CRS_FLAG_TRIMOVF);
 3261              		.loc 1 1643 7 discriminator 1
 3262 007e 184B     		ldr	r3, .L224
 3263 0080 0422     		movs	r2, #4
 3264 0082 DA60     		str	r2, [r3, #12]
 3265              	.L218:
1644:Drivers/STM32G4xx_HAL_Driver/Src/stm32g4xx_hal_rcc_ex.c ****     }
1645:Drivers/STM32G4xx_HAL_Driver/Src/stm32g4xx_hal_rcc_ex.c **** 
1646:Drivers/STM32G4xx_HAL_Driver/Src/stm32g4xx_hal_rcc_ex.c ****     /* Check CRS Error flag  */
1647:Drivers/STM32G4xx_HAL_Driver/Src/stm32g4xx_hal_rcc_ex.c ****     if(__HAL_RCC_CRS_GET_FLAG(RCC_CRS_FLAG_SYNCERR))
 3266              		.loc 1 1647 8
 3267 0084 164B     		ldr	r3, .L224
 3268 0086 9B68     		ldr	r3, [r3, #8]
 3269 0088 03F48073 		and	r3, r3, #256
 3270              		.loc 1 1647 7
 3271 008c B3F5807F 		cmp	r3, #256
 3272 0090 06D1     		bne	.L219
1648:Drivers/STM32G4xx_HAL_Driver/Src/stm32g4xx_hal_rcc_ex.c ****     {
1649:Drivers/STM32G4xx_HAL_Driver/Src/stm32g4xx_hal_rcc_ex.c ****       /* CRS SYNC Error */
1650:Drivers/STM32G4xx_HAL_Driver/Src/stm32g4xx_hal_rcc_ex.c ****       crsstatus |= RCC_CRS_SYNCERR;
 3273              		.loc 1 1650 17
 3274 0092 FB68     		ldr	r3, [r7, #12]
 3275 0094 43F00803 		orr	r3, r3, #8
 3276 0098 FB60     		str	r3, [r7, #12]
1651:Drivers/STM32G4xx_HAL_Driver/Src/stm32g4xx_hal_rcc_ex.c **** 
1652:Drivers/STM32G4xx_HAL_Driver/Src/stm32g4xx_hal_rcc_ex.c ****       /* Clear CRS Error bit */
1653:Drivers/STM32G4xx_HAL_Driver/Src/stm32g4xx_hal_rcc_ex.c ****       __HAL_RCC_CRS_CLEAR_FLAG(RCC_CRS_FLAG_SYNCERR);
 3277              		.loc 1 1653 7 discriminator 1
 3278 009a 114B     		ldr	r3, .L224
 3279 009c 0422     		movs	r2, #4
 3280 009e DA60     		str	r2, [r3, #12]
 3281              	.L219:
1654:Drivers/STM32G4xx_HAL_Driver/Src/stm32g4xx_hal_rcc_ex.c ****     }
1655:Drivers/STM32G4xx_HAL_Driver/Src/stm32g4xx_hal_rcc_ex.c **** 
1656:Drivers/STM32G4xx_HAL_Driver/Src/stm32g4xx_hal_rcc_ex.c ****     /* Check CRS SYNC Missed flag  */
1657:Drivers/STM32G4xx_HAL_Driver/Src/stm32g4xx_hal_rcc_ex.c ****     if(__HAL_RCC_CRS_GET_FLAG(RCC_CRS_FLAG_SYNCMISS))
 3282              		.loc 1 1657 8
 3283 00a0 0F4B     		ldr	r3, .L224
 3284 00a2 9B68     		ldr	r3, [r3, #8]
 3285 00a4 03F40073 		and	r3, r3, #512
 3286              		.loc 1 1657 7
 3287 00a8 B3F5007F 		cmp	r3, #512
 3288 00ac 06D1     		bne	.L220
1658:Drivers/STM32G4xx_HAL_Driver/Src/stm32g4xx_hal_rcc_ex.c ****     {
1659:Drivers/STM32G4xx_HAL_Driver/Src/stm32g4xx_hal_rcc_ex.c ****       /* CRS SYNC Missed */
1660:Drivers/STM32G4xx_HAL_Driver/Src/stm32g4xx_hal_rcc_ex.c ****       crsstatus |= RCC_CRS_SYNCMISS;
 3289              		.loc 1 1660 17
 3290 00ae FB68     		ldr	r3, [r7, #12]
 3291 00b0 43F01003 		orr	r3, r3, #16
 3292 00b4 FB60     		str	r3, [r7, #12]
1661:Drivers/STM32G4xx_HAL_Driver/Src/stm32g4xx_hal_rcc_ex.c **** 
1662:Drivers/STM32G4xx_HAL_Driver/Src/stm32g4xx_hal_rcc_ex.c ****       /* Clear CRS SYNC Missed bit */
ARM GAS  C:\Users\AURORA~1\AppData\Local\Temp\cc3nfJXy.s 			page 94


1663:Drivers/STM32G4xx_HAL_Driver/Src/stm32g4xx_hal_rcc_ex.c ****       __HAL_RCC_CRS_CLEAR_FLAG(RCC_CRS_FLAG_SYNCMISS);
 3293              		.loc 1 1663 7 discriminator 1
 3294 00b6 0A4B     		ldr	r3, .L224
 3295 00b8 0422     		movs	r2, #4
 3296 00ba DA60     		str	r2, [r3, #12]
 3297              	.L220:
1664:Drivers/STM32G4xx_HAL_Driver/Src/stm32g4xx_hal_rcc_ex.c ****     }
1665:Drivers/STM32G4xx_HAL_Driver/Src/stm32g4xx_hal_rcc_ex.c **** 
1666:Drivers/STM32G4xx_HAL_Driver/Src/stm32g4xx_hal_rcc_ex.c ****     /* Check CRS Expected SYNC flag  */
1667:Drivers/STM32G4xx_HAL_Driver/Src/stm32g4xx_hal_rcc_ex.c ****     if(__HAL_RCC_CRS_GET_FLAG(RCC_CRS_FLAG_ESYNC))
 3298              		.loc 1 1667 8
 3299 00bc 084B     		ldr	r3, .L224
 3300 00be 9B68     		ldr	r3, [r3, #8]
 3301 00c0 03F00803 		and	r3, r3, #8
 3302              		.loc 1 1667 7
 3303 00c4 082B     		cmp	r3, #8
 3304 00c6 02D1     		bne	.L221
1668:Drivers/STM32G4xx_HAL_Driver/Src/stm32g4xx_hal_rcc_ex.c ****     {
1669:Drivers/STM32G4xx_HAL_Driver/Src/stm32g4xx_hal_rcc_ex.c ****       /* frequency error counter reached a zero value */
1670:Drivers/STM32G4xx_HAL_Driver/Src/stm32g4xx_hal_rcc_ex.c ****       __HAL_RCC_CRS_CLEAR_FLAG(RCC_CRS_FLAG_ESYNC);
 3305              		.loc 1 1670 7 discriminator 2
 3306 00c8 054B     		ldr	r3, .L224
 3307 00ca 0822     		movs	r2, #8
 3308 00cc DA60     		str	r2, [r3, #12]
 3309              	.L221:
1671:Drivers/STM32G4xx_HAL_Driver/Src/stm32g4xx_hal_rcc_ex.c ****     }
1672:Drivers/STM32G4xx_HAL_Driver/Src/stm32g4xx_hal_rcc_ex.c ****   } while(RCC_CRS_NONE == crsstatus);
 3310              		.loc 1 1672 24
 3311 00ce FB68     		ldr	r3, [r7, #12]
 3312 00d0 002B     		cmp	r3, #0
 3313 00d2 9ED0     		beq	.L222
1673:Drivers/STM32G4xx_HAL_Driver/Src/stm32g4xx_hal_rcc_ex.c **** 
1674:Drivers/STM32G4xx_HAL_Driver/Src/stm32g4xx_hal_rcc_ex.c ****   return crsstatus;
 3314              		.loc 1 1674 10
 3315 00d4 FB68     		ldr	r3, [r7, #12]
1675:Drivers/STM32G4xx_HAL_Driver/Src/stm32g4xx_hal_rcc_ex.c **** }
 3316              		.loc 1 1675 1
 3317 00d6 1846     		mov	r0, r3
 3318 00d8 1037     		adds	r7, r7, #16
 3319              	.LCFI63:
 3320              		.cfi_def_cfa_offset 8
 3321 00da BD46     		mov	sp, r7
 3322              	.LCFI64:
 3323              		.cfi_def_cfa_register 13
 3324              		@ sp needed
 3325 00dc 80BD     		pop	{r7, pc}
 3326              	.L225:
 3327 00de 00BF     		.align	2
 3328              	.L224:
 3329 00e0 00200040 		.word	1073750016
 3330              		.cfi_endproc
 3331              	.LFE145:
 3333              		.section	.text.HAL_RCCEx_CRS_IRQHandler,"ax",%progbits
 3334              		.align	1
 3335              		.global	HAL_RCCEx_CRS_IRQHandler
 3336              		.syntax unified
 3337              		.thumb
ARM GAS  C:\Users\AURORA~1\AppData\Local\Temp\cc3nfJXy.s 			page 95


 3338              		.thumb_func
 3340              	HAL_RCCEx_CRS_IRQHandler:
 3341              	.LFB146:
1676:Drivers/STM32G4xx_HAL_Driver/Src/stm32g4xx_hal_rcc_ex.c **** 
1677:Drivers/STM32G4xx_HAL_Driver/Src/stm32g4xx_hal_rcc_ex.c **** /**
1678:Drivers/STM32G4xx_HAL_Driver/Src/stm32g4xx_hal_rcc_ex.c ****   * @brief Handle the Clock Recovery System interrupt request.
1679:Drivers/STM32G4xx_HAL_Driver/Src/stm32g4xx_hal_rcc_ex.c ****   * @retval None
1680:Drivers/STM32G4xx_HAL_Driver/Src/stm32g4xx_hal_rcc_ex.c ****   */
1681:Drivers/STM32G4xx_HAL_Driver/Src/stm32g4xx_hal_rcc_ex.c **** void HAL_RCCEx_CRS_IRQHandler(void)
1682:Drivers/STM32G4xx_HAL_Driver/Src/stm32g4xx_hal_rcc_ex.c **** {
 3342              		.loc 1 1682 1
 3343              		.cfi_startproc
 3344              		@ args = 0, pretend = 0, frame = 16
 3345              		@ frame_needed = 1, uses_anonymous_args = 0
 3346 0000 80B5     		push	{r7, lr}
 3347              	.LCFI65:
 3348              		.cfi_def_cfa_offset 8
 3349              		.cfi_offset 7, -8
 3350              		.cfi_offset 14, -4
 3351 0002 84B0     		sub	sp, sp, #16
 3352              	.LCFI66:
 3353              		.cfi_def_cfa_offset 24
 3354 0004 00AF     		add	r7, sp, #0
 3355              	.LCFI67:
 3356              		.cfi_def_cfa_register 7
1683:Drivers/STM32G4xx_HAL_Driver/Src/stm32g4xx_hal_rcc_ex.c ****   uint32_t crserror = RCC_CRS_NONE;
 3357              		.loc 1 1683 12
 3358 0006 0023     		movs	r3, #0
 3359 0008 FB60     		str	r3, [r7, #12]
1684:Drivers/STM32G4xx_HAL_Driver/Src/stm32g4xx_hal_rcc_ex.c ****   /* Get current IT flags and IT sources values */
1685:Drivers/STM32G4xx_HAL_Driver/Src/stm32g4xx_hal_rcc_ex.c ****   uint32_t itflags = READ_REG(CRS->ISR);
 3360              		.loc 1 1685 22
 3361 000a 334B     		ldr	r3, .L235
 3362              		.loc 1 1685 12
 3363 000c 9B68     		ldr	r3, [r3, #8]
 3364 000e BB60     		str	r3, [r7, #8]
1686:Drivers/STM32G4xx_HAL_Driver/Src/stm32g4xx_hal_rcc_ex.c ****   uint32_t itsources = READ_REG(CRS->CR);
 3365              		.loc 1 1686 24
 3366 0010 314B     		ldr	r3, .L235
 3367              		.loc 1 1686 12
 3368 0012 1B68     		ldr	r3, [r3]
 3369 0014 7B60     		str	r3, [r7, #4]
1687:Drivers/STM32G4xx_HAL_Driver/Src/stm32g4xx_hal_rcc_ex.c **** 
1688:Drivers/STM32G4xx_HAL_Driver/Src/stm32g4xx_hal_rcc_ex.c ****   /* Check CRS SYNCOK flag  */
1689:Drivers/STM32G4xx_HAL_Driver/Src/stm32g4xx_hal_rcc_ex.c ****   if(((itflags & RCC_CRS_FLAG_SYNCOK) != 0U) && ((itsources & RCC_CRS_IT_SYNCOK) != 0U))
 3370              		.loc 1 1689 16
 3371 0016 BB68     		ldr	r3, [r7, #8]
 3372 0018 03F00103 		and	r3, r3, #1
 3373              		.loc 1 1689 5
 3374 001c 002B     		cmp	r3, #0
 3375 001e 0AD0     		beq	.L227
 3376              		.loc 1 1689 61 discriminator 1
 3377 0020 7B68     		ldr	r3, [r7, #4]
 3378 0022 03F00103 		and	r3, r3, #1
 3379              		.loc 1 1689 46 discriminator 1
 3380 0026 002B     		cmp	r3, #0
 3381 0028 05D0     		beq	.L227
ARM GAS  C:\Users\AURORA~1\AppData\Local\Temp\cc3nfJXy.s 			page 96


1690:Drivers/STM32G4xx_HAL_Driver/Src/stm32g4xx_hal_rcc_ex.c ****   {
1691:Drivers/STM32G4xx_HAL_Driver/Src/stm32g4xx_hal_rcc_ex.c ****     /* Clear CRS SYNC event OK flag */
1692:Drivers/STM32G4xx_HAL_Driver/Src/stm32g4xx_hal_rcc_ex.c ****     WRITE_REG(CRS->ICR, CRS_ICR_SYNCOKC);
 3382              		.loc 1 1692 5
 3383 002a 2B4B     		ldr	r3, .L235
 3384 002c 0122     		movs	r2, #1
 3385 002e DA60     		str	r2, [r3, #12]
1693:Drivers/STM32G4xx_HAL_Driver/Src/stm32g4xx_hal_rcc_ex.c **** 
1694:Drivers/STM32G4xx_HAL_Driver/Src/stm32g4xx_hal_rcc_ex.c ****     /* user callback */
1695:Drivers/STM32G4xx_HAL_Driver/Src/stm32g4xx_hal_rcc_ex.c ****     HAL_RCCEx_CRS_SyncOkCallback();
 3386              		.loc 1 1695 5
 3387 0030 FFF7FEFF 		bl	HAL_RCCEx_CRS_SyncOkCallback
 3388 0034 4BE0     		b	.L228
 3389              	.L227:
1696:Drivers/STM32G4xx_HAL_Driver/Src/stm32g4xx_hal_rcc_ex.c ****   }
1697:Drivers/STM32G4xx_HAL_Driver/Src/stm32g4xx_hal_rcc_ex.c ****   /* Check CRS SYNCWARN flag  */
1698:Drivers/STM32G4xx_HAL_Driver/Src/stm32g4xx_hal_rcc_ex.c ****   else if(((itflags & RCC_CRS_FLAG_SYNCWARN) != 0U) && ((itsources & RCC_CRS_IT_SYNCWARN) != 0U))
 3390              		.loc 1 1698 21
 3391 0036 BB68     		ldr	r3, [r7, #8]
 3392 0038 03F00203 		and	r3, r3, #2
 3393              		.loc 1 1698 10
 3394 003c 002B     		cmp	r3, #0
 3395 003e 0AD0     		beq	.L229
 3396              		.loc 1 1698 68 discriminator 1
 3397 0040 7B68     		ldr	r3, [r7, #4]
 3398 0042 03F00203 		and	r3, r3, #2
 3399              		.loc 1 1698 53 discriminator 1
 3400 0046 002B     		cmp	r3, #0
 3401 0048 05D0     		beq	.L229
1699:Drivers/STM32G4xx_HAL_Driver/Src/stm32g4xx_hal_rcc_ex.c ****   {
1700:Drivers/STM32G4xx_HAL_Driver/Src/stm32g4xx_hal_rcc_ex.c ****     /* Clear CRS SYNCWARN flag */
1701:Drivers/STM32G4xx_HAL_Driver/Src/stm32g4xx_hal_rcc_ex.c ****     WRITE_REG(CRS->ICR, CRS_ICR_SYNCWARNC);
 3402              		.loc 1 1701 5
 3403 004a 234B     		ldr	r3, .L235
 3404 004c 0222     		movs	r2, #2
 3405 004e DA60     		str	r2, [r3, #12]
1702:Drivers/STM32G4xx_HAL_Driver/Src/stm32g4xx_hal_rcc_ex.c **** 
1703:Drivers/STM32G4xx_HAL_Driver/Src/stm32g4xx_hal_rcc_ex.c ****     /* user callback */
1704:Drivers/STM32G4xx_HAL_Driver/Src/stm32g4xx_hal_rcc_ex.c ****     HAL_RCCEx_CRS_SyncWarnCallback();
 3406              		.loc 1 1704 5
 3407 0050 FFF7FEFF 		bl	HAL_RCCEx_CRS_SyncWarnCallback
 3408 0054 3BE0     		b	.L228
 3409              	.L229:
1705:Drivers/STM32G4xx_HAL_Driver/Src/stm32g4xx_hal_rcc_ex.c ****   }
1706:Drivers/STM32G4xx_HAL_Driver/Src/stm32g4xx_hal_rcc_ex.c ****   /* Check CRS Expected SYNC flag  */
1707:Drivers/STM32G4xx_HAL_Driver/Src/stm32g4xx_hal_rcc_ex.c ****   else if(((itflags & RCC_CRS_FLAG_ESYNC) != 0U) && ((itsources & RCC_CRS_IT_ESYNC) != 0U))
 3410              		.loc 1 1707 21
 3411 0056 BB68     		ldr	r3, [r7, #8]
 3412 0058 03F00803 		and	r3, r3, #8
 3413              		.loc 1 1707 10
 3414 005c 002B     		cmp	r3, #0
 3415 005e 0AD0     		beq	.L230
 3416              		.loc 1 1707 65 discriminator 1
 3417 0060 7B68     		ldr	r3, [r7, #4]
 3418 0062 03F00803 		and	r3, r3, #8
 3419              		.loc 1 1707 50 discriminator 1
 3420 0066 002B     		cmp	r3, #0
ARM GAS  C:\Users\AURORA~1\AppData\Local\Temp\cc3nfJXy.s 			page 97


 3421 0068 05D0     		beq	.L230
1708:Drivers/STM32G4xx_HAL_Driver/Src/stm32g4xx_hal_rcc_ex.c ****   {
1709:Drivers/STM32G4xx_HAL_Driver/Src/stm32g4xx_hal_rcc_ex.c ****     /* frequency error counter reached a zero value */
1710:Drivers/STM32G4xx_HAL_Driver/Src/stm32g4xx_hal_rcc_ex.c ****     WRITE_REG(CRS->ICR, CRS_ICR_ESYNCC);
 3422              		.loc 1 1710 5
 3423 006a 1B4B     		ldr	r3, .L235
 3424 006c 0822     		movs	r2, #8
 3425 006e DA60     		str	r2, [r3, #12]
1711:Drivers/STM32G4xx_HAL_Driver/Src/stm32g4xx_hal_rcc_ex.c **** 
1712:Drivers/STM32G4xx_HAL_Driver/Src/stm32g4xx_hal_rcc_ex.c ****     /* user callback */
1713:Drivers/STM32G4xx_HAL_Driver/Src/stm32g4xx_hal_rcc_ex.c ****     HAL_RCCEx_CRS_ExpectedSyncCallback();
 3426              		.loc 1 1713 5
 3427 0070 FFF7FEFF 		bl	HAL_RCCEx_CRS_ExpectedSyncCallback
 3428 0074 2BE0     		b	.L228
 3429              	.L230:
1714:Drivers/STM32G4xx_HAL_Driver/Src/stm32g4xx_hal_rcc_ex.c ****   }
1715:Drivers/STM32G4xx_HAL_Driver/Src/stm32g4xx_hal_rcc_ex.c ****   /* Check CRS Error flags  */
1716:Drivers/STM32G4xx_HAL_Driver/Src/stm32g4xx_hal_rcc_ex.c ****   else
1717:Drivers/STM32G4xx_HAL_Driver/Src/stm32g4xx_hal_rcc_ex.c ****   {
1718:Drivers/STM32G4xx_HAL_Driver/Src/stm32g4xx_hal_rcc_ex.c ****     if(((itflags & RCC_CRS_FLAG_ERR) != 0U) && ((itsources & RCC_CRS_IT_ERR) != 0U))
 3430              		.loc 1 1718 18
 3431 0076 BB68     		ldr	r3, [r7, #8]
 3432 0078 03F00403 		and	r3, r3, #4
 3433              		.loc 1 1718 7
 3434 007c 002B     		cmp	r3, #0
 3435 007e 26D0     		beq	.L234
 3436              		.loc 1 1718 60 discriminator 1
 3437 0080 7B68     		ldr	r3, [r7, #4]
 3438 0082 03F00403 		and	r3, r3, #4
 3439              		.loc 1 1718 45 discriminator 1
 3440 0086 002B     		cmp	r3, #0
 3441 0088 21D0     		beq	.L234
1719:Drivers/STM32G4xx_HAL_Driver/Src/stm32g4xx_hal_rcc_ex.c ****     {
1720:Drivers/STM32G4xx_HAL_Driver/Src/stm32g4xx_hal_rcc_ex.c ****       if((itflags & RCC_CRS_FLAG_SYNCERR) != 0U)
 3442              		.loc 1 1720 19
 3443 008a BB68     		ldr	r3, [r7, #8]
 3444 008c 03F48073 		and	r3, r3, #256
 3445              		.loc 1 1720 9
 3446 0090 002B     		cmp	r3, #0
 3447 0092 03D0     		beq	.L231
1721:Drivers/STM32G4xx_HAL_Driver/Src/stm32g4xx_hal_rcc_ex.c ****       {
1722:Drivers/STM32G4xx_HAL_Driver/Src/stm32g4xx_hal_rcc_ex.c ****         crserror |= RCC_CRS_SYNCERR;
 3448              		.loc 1 1722 18
 3449 0094 FB68     		ldr	r3, [r7, #12]
 3450 0096 43F00803 		orr	r3, r3, #8
 3451 009a FB60     		str	r3, [r7, #12]
 3452              	.L231:
1723:Drivers/STM32G4xx_HAL_Driver/Src/stm32g4xx_hal_rcc_ex.c ****       }
1724:Drivers/STM32G4xx_HAL_Driver/Src/stm32g4xx_hal_rcc_ex.c ****       if((itflags & RCC_CRS_FLAG_SYNCMISS) != 0U)
 3453              		.loc 1 1724 19
 3454 009c BB68     		ldr	r3, [r7, #8]
 3455 009e 03F40073 		and	r3, r3, #512
 3456              		.loc 1 1724 9
 3457 00a2 002B     		cmp	r3, #0
 3458 00a4 03D0     		beq	.L232
1725:Drivers/STM32G4xx_HAL_Driver/Src/stm32g4xx_hal_rcc_ex.c ****       {
1726:Drivers/STM32G4xx_HAL_Driver/Src/stm32g4xx_hal_rcc_ex.c ****         crserror |= RCC_CRS_SYNCMISS;
ARM GAS  C:\Users\AURORA~1\AppData\Local\Temp\cc3nfJXy.s 			page 98


 3459              		.loc 1 1726 18
 3460 00a6 FB68     		ldr	r3, [r7, #12]
 3461 00a8 43F01003 		orr	r3, r3, #16
 3462 00ac FB60     		str	r3, [r7, #12]
 3463              	.L232:
1727:Drivers/STM32G4xx_HAL_Driver/Src/stm32g4xx_hal_rcc_ex.c ****       }
1728:Drivers/STM32G4xx_HAL_Driver/Src/stm32g4xx_hal_rcc_ex.c ****       if((itflags & RCC_CRS_FLAG_TRIMOVF) != 0U)
 3464              		.loc 1 1728 19
 3465 00ae BB68     		ldr	r3, [r7, #8]
 3466 00b0 03F48063 		and	r3, r3, #1024
 3467              		.loc 1 1728 9
 3468 00b4 002B     		cmp	r3, #0
 3469 00b6 03D0     		beq	.L233
1729:Drivers/STM32G4xx_HAL_Driver/Src/stm32g4xx_hal_rcc_ex.c ****       {
1730:Drivers/STM32G4xx_HAL_Driver/Src/stm32g4xx_hal_rcc_ex.c ****         crserror |= RCC_CRS_TRIMOVF;
 3470              		.loc 1 1730 18
 3471 00b8 FB68     		ldr	r3, [r7, #12]
 3472 00ba 43F02003 		orr	r3, r3, #32
 3473 00be FB60     		str	r3, [r7, #12]
 3474              	.L233:
1731:Drivers/STM32G4xx_HAL_Driver/Src/stm32g4xx_hal_rcc_ex.c ****       }
1732:Drivers/STM32G4xx_HAL_Driver/Src/stm32g4xx_hal_rcc_ex.c **** 
1733:Drivers/STM32G4xx_HAL_Driver/Src/stm32g4xx_hal_rcc_ex.c ****       /* Clear CRS Error flags */
1734:Drivers/STM32G4xx_HAL_Driver/Src/stm32g4xx_hal_rcc_ex.c ****       WRITE_REG(CRS->ICR, CRS_ICR_ERRC);
 3475              		.loc 1 1734 7
 3476 00c0 054B     		ldr	r3, .L235
 3477 00c2 0422     		movs	r2, #4
 3478 00c4 DA60     		str	r2, [r3, #12]
1735:Drivers/STM32G4xx_HAL_Driver/Src/stm32g4xx_hal_rcc_ex.c **** 
1736:Drivers/STM32G4xx_HAL_Driver/Src/stm32g4xx_hal_rcc_ex.c ****       /* user error callback */
1737:Drivers/STM32G4xx_HAL_Driver/Src/stm32g4xx_hal_rcc_ex.c ****       HAL_RCCEx_CRS_ErrorCallback(crserror);
 3479              		.loc 1 1737 7
 3480 00c6 F868     		ldr	r0, [r7, #12]
 3481 00c8 FFF7FEFF 		bl	HAL_RCCEx_CRS_ErrorCallback
1738:Drivers/STM32G4xx_HAL_Driver/Src/stm32g4xx_hal_rcc_ex.c ****     }
1739:Drivers/STM32G4xx_HAL_Driver/Src/stm32g4xx_hal_rcc_ex.c ****   }
1740:Drivers/STM32G4xx_HAL_Driver/Src/stm32g4xx_hal_rcc_ex.c **** }
 3482              		.loc 1 1740 1
 3483 00cc FFE7     		b	.L234
 3484              	.L228:
 3485              	.L234:
 3486 00ce 00BF     		nop
 3487 00d0 1037     		adds	r7, r7, #16
 3488              	.LCFI68:
 3489              		.cfi_def_cfa_offset 8
 3490 00d2 BD46     		mov	sp, r7
 3491              	.LCFI69:
 3492              		.cfi_def_cfa_register 13
 3493              		@ sp needed
 3494 00d4 80BD     		pop	{r7, pc}
 3495              	.L236:
 3496 00d6 00BF     		.align	2
 3497              	.L235:
 3498 00d8 00200040 		.word	1073750016
 3499              		.cfi_endproc
 3500              	.LFE146:
 3502              		.section	.text.HAL_RCCEx_CRS_SyncOkCallback,"ax",%progbits
ARM GAS  C:\Users\AURORA~1\AppData\Local\Temp\cc3nfJXy.s 			page 99


 3503              		.align	1
 3504              		.weak	HAL_RCCEx_CRS_SyncOkCallback
 3505              		.syntax unified
 3506              		.thumb
 3507              		.thumb_func
 3509              	HAL_RCCEx_CRS_SyncOkCallback:
 3510              	.LFB147:
1741:Drivers/STM32G4xx_HAL_Driver/Src/stm32g4xx_hal_rcc_ex.c **** 
1742:Drivers/STM32G4xx_HAL_Driver/Src/stm32g4xx_hal_rcc_ex.c **** /**
1743:Drivers/STM32G4xx_HAL_Driver/Src/stm32g4xx_hal_rcc_ex.c ****   * @brief  RCCEx Clock Recovery System SYNCOK interrupt callback.
1744:Drivers/STM32G4xx_HAL_Driver/Src/stm32g4xx_hal_rcc_ex.c ****   * @retval none
1745:Drivers/STM32G4xx_HAL_Driver/Src/stm32g4xx_hal_rcc_ex.c ****   */
1746:Drivers/STM32G4xx_HAL_Driver/Src/stm32g4xx_hal_rcc_ex.c **** __weak void HAL_RCCEx_CRS_SyncOkCallback(void)
1747:Drivers/STM32G4xx_HAL_Driver/Src/stm32g4xx_hal_rcc_ex.c **** {
 3511              		.loc 1 1747 1
 3512              		.cfi_startproc
 3513              		@ args = 0, pretend = 0, frame = 0
 3514              		@ frame_needed = 1, uses_anonymous_args = 0
 3515              		@ link register save eliminated.
 3516 0000 80B4     		push	{r7}
 3517              	.LCFI70:
 3518              		.cfi_def_cfa_offset 4
 3519              		.cfi_offset 7, -4
 3520 0002 00AF     		add	r7, sp, #0
 3521              	.LCFI71:
 3522              		.cfi_def_cfa_register 7
1748:Drivers/STM32G4xx_HAL_Driver/Src/stm32g4xx_hal_rcc_ex.c ****   /* NOTE : This function should not be modified, when the callback is needed,
1749:Drivers/STM32G4xx_HAL_Driver/Src/stm32g4xx_hal_rcc_ex.c ****             the @ref HAL_RCCEx_CRS_SyncOkCallback should be implemented in the user file
1750:Drivers/STM32G4xx_HAL_Driver/Src/stm32g4xx_hal_rcc_ex.c ****    */
1751:Drivers/STM32G4xx_HAL_Driver/Src/stm32g4xx_hal_rcc_ex.c **** }
 3523              		.loc 1 1751 1
 3524 0004 00BF     		nop
 3525 0006 BD46     		mov	sp, r7
 3526              	.LCFI72:
 3527              		.cfi_def_cfa_register 13
 3528              		@ sp needed
 3529 0008 5DF8047B 		ldr	r7, [sp], #4
 3530              	.LCFI73:
 3531              		.cfi_restore 7
 3532              		.cfi_def_cfa_offset 0
 3533 000c 7047     		bx	lr
 3534              		.cfi_endproc
 3535              	.LFE147:
 3537              		.section	.text.HAL_RCCEx_CRS_SyncWarnCallback,"ax",%progbits
 3538              		.align	1
 3539              		.weak	HAL_RCCEx_CRS_SyncWarnCallback
 3540              		.syntax unified
 3541              		.thumb
 3542              		.thumb_func
 3544              	HAL_RCCEx_CRS_SyncWarnCallback:
 3545              	.LFB148:
1752:Drivers/STM32G4xx_HAL_Driver/Src/stm32g4xx_hal_rcc_ex.c **** 
1753:Drivers/STM32G4xx_HAL_Driver/Src/stm32g4xx_hal_rcc_ex.c **** /**
1754:Drivers/STM32G4xx_HAL_Driver/Src/stm32g4xx_hal_rcc_ex.c ****   * @brief  RCCEx Clock Recovery System SYNCWARN interrupt callback.
1755:Drivers/STM32G4xx_HAL_Driver/Src/stm32g4xx_hal_rcc_ex.c ****   * @retval none
1756:Drivers/STM32G4xx_HAL_Driver/Src/stm32g4xx_hal_rcc_ex.c ****   */
1757:Drivers/STM32G4xx_HAL_Driver/Src/stm32g4xx_hal_rcc_ex.c **** __weak void HAL_RCCEx_CRS_SyncWarnCallback(void)
ARM GAS  C:\Users\AURORA~1\AppData\Local\Temp\cc3nfJXy.s 			page 100


1758:Drivers/STM32G4xx_HAL_Driver/Src/stm32g4xx_hal_rcc_ex.c **** {
 3546              		.loc 1 1758 1
 3547              		.cfi_startproc
 3548              		@ args = 0, pretend = 0, frame = 0
 3549              		@ frame_needed = 1, uses_anonymous_args = 0
 3550              		@ link register save eliminated.
 3551 0000 80B4     		push	{r7}
 3552              	.LCFI74:
 3553              		.cfi_def_cfa_offset 4
 3554              		.cfi_offset 7, -4
 3555 0002 00AF     		add	r7, sp, #0
 3556              	.LCFI75:
 3557              		.cfi_def_cfa_register 7
1759:Drivers/STM32G4xx_HAL_Driver/Src/stm32g4xx_hal_rcc_ex.c ****   /* NOTE : This function should not be modified, when the callback is needed,
1760:Drivers/STM32G4xx_HAL_Driver/Src/stm32g4xx_hal_rcc_ex.c ****             the @ref HAL_RCCEx_CRS_SyncWarnCallback should be implemented in the user file
1761:Drivers/STM32G4xx_HAL_Driver/Src/stm32g4xx_hal_rcc_ex.c ****    */
1762:Drivers/STM32G4xx_HAL_Driver/Src/stm32g4xx_hal_rcc_ex.c **** }
 3558              		.loc 1 1762 1
 3559 0004 00BF     		nop
 3560 0006 BD46     		mov	sp, r7
 3561              	.LCFI76:
 3562              		.cfi_def_cfa_register 13
 3563              		@ sp needed
 3564 0008 5DF8047B 		ldr	r7, [sp], #4
 3565              	.LCFI77:
 3566              		.cfi_restore 7
 3567              		.cfi_def_cfa_offset 0
 3568 000c 7047     		bx	lr
 3569              		.cfi_endproc
 3570              	.LFE148:
 3572              		.section	.text.HAL_RCCEx_CRS_ExpectedSyncCallback,"ax",%progbits
 3573              		.align	1
 3574              		.weak	HAL_RCCEx_CRS_ExpectedSyncCallback
 3575              		.syntax unified
 3576              		.thumb
 3577              		.thumb_func
 3579              	HAL_RCCEx_CRS_ExpectedSyncCallback:
 3580              	.LFB149:
1763:Drivers/STM32G4xx_HAL_Driver/Src/stm32g4xx_hal_rcc_ex.c **** 
1764:Drivers/STM32G4xx_HAL_Driver/Src/stm32g4xx_hal_rcc_ex.c **** /**
1765:Drivers/STM32G4xx_HAL_Driver/Src/stm32g4xx_hal_rcc_ex.c ****   * @brief  RCCEx Clock Recovery System Expected SYNC interrupt callback.
1766:Drivers/STM32G4xx_HAL_Driver/Src/stm32g4xx_hal_rcc_ex.c ****   * @retval none
1767:Drivers/STM32G4xx_HAL_Driver/Src/stm32g4xx_hal_rcc_ex.c ****   */
1768:Drivers/STM32G4xx_HAL_Driver/Src/stm32g4xx_hal_rcc_ex.c **** __weak void HAL_RCCEx_CRS_ExpectedSyncCallback(void)
1769:Drivers/STM32G4xx_HAL_Driver/Src/stm32g4xx_hal_rcc_ex.c **** {
 3581              		.loc 1 1769 1
 3582              		.cfi_startproc
 3583              		@ args = 0, pretend = 0, frame = 0
 3584              		@ frame_needed = 1, uses_anonymous_args = 0
 3585              		@ link register save eliminated.
 3586 0000 80B4     		push	{r7}
 3587              	.LCFI78:
 3588              		.cfi_def_cfa_offset 4
 3589              		.cfi_offset 7, -4
 3590 0002 00AF     		add	r7, sp, #0
 3591              	.LCFI79:
 3592              		.cfi_def_cfa_register 7
ARM GAS  C:\Users\AURORA~1\AppData\Local\Temp\cc3nfJXy.s 			page 101


1770:Drivers/STM32G4xx_HAL_Driver/Src/stm32g4xx_hal_rcc_ex.c ****   /* NOTE : This function should not be modified, when the callback is needed,
1771:Drivers/STM32G4xx_HAL_Driver/Src/stm32g4xx_hal_rcc_ex.c ****             the @ref HAL_RCCEx_CRS_ExpectedSyncCallback should be implemented in the user file
1772:Drivers/STM32G4xx_HAL_Driver/Src/stm32g4xx_hal_rcc_ex.c ****    */
1773:Drivers/STM32G4xx_HAL_Driver/Src/stm32g4xx_hal_rcc_ex.c **** }
 3593              		.loc 1 1773 1
 3594 0004 00BF     		nop
 3595 0006 BD46     		mov	sp, r7
 3596              	.LCFI80:
 3597              		.cfi_def_cfa_register 13
 3598              		@ sp needed
 3599 0008 5DF8047B 		ldr	r7, [sp], #4
 3600              	.LCFI81:
 3601              		.cfi_restore 7
 3602              		.cfi_def_cfa_offset 0
 3603 000c 7047     		bx	lr
 3604              		.cfi_endproc
 3605              	.LFE149:
 3607              		.section	.text.HAL_RCCEx_CRS_ErrorCallback,"ax",%progbits
 3608              		.align	1
 3609              		.weak	HAL_RCCEx_CRS_ErrorCallback
 3610              		.syntax unified
 3611              		.thumb
 3612              		.thumb_func
 3614              	HAL_RCCEx_CRS_ErrorCallback:
 3615              	.LFB150:
1774:Drivers/STM32G4xx_HAL_Driver/Src/stm32g4xx_hal_rcc_ex.c **** 
1775:Drivers/STM32G4xx_HAL_Driver/Src/stm32g4xx_hal_rcc_ex.c **** /**
1776:Drivers/STM32G4xx_HAL_Driver/Src/stm32g4xx_hal_rcc_ex.c ****   * @brief  RCCEx Clock Recovery System Error interrupt callback.
1777:Drivers/STM32G4xx_HAL_Driver/Src/stm32g4xx_hal_rcc_ex.c ****   * @param  Error Combination of Error status.
1778:Drivers/STM32G4xx_HAL_Driver/Src/stm32g4xx_hal_rcc_ex.c ****   *         This parameter can be a combination of the following values:
1779:Drivers/STM32G4xx_HAL_Driver/Src/stm32g4xx_hal_rcc_ex.c ****   *           @arg @ref RCC_CRS_SYNCERR
1780:Drivers/STM32G4xx_HAL_Driver/Src/stm32g4xx_hal_rcc_ex.c ****   *           @arg @ref RCC_CRS_SYNCMISS
1781:Drivers/STM32G4xx_HAL_Driver/Src/stm32g4xx_hal_rcc_ex.c ****   *           @arg @ref RCC_CRS_TRIMOVF
1782:Drivers/STM32G4xx_HAL_Driver/Src/stm32g4xx_hal_rcc_ex.c ****   * @retval none
1783:Drivers/STM32G4xx_HAL_Driver/Src/stm32g4xx_hal_rcc_ex.c ****   */
1784:Drivers/STM32G4xx_HAL_Driver/Src/stm32g4xx_hal_rcc_ex.c **** __weak void HAL_RCCEx_CRS_ErrorCallback(uint32_t Error)
1785:Drivers/STM32G4xx_HAL_Driver/Src/stm32g4xx_hal_rcc_ex.c **** {
 3616              		.loc 1 1785 1
 3617              		.cfi_startproc
 3618              		@ args = 0, pretend = 0, frame = 8
 3619              		@ frame_needed = 1, uses_anonymous_args = 0
 3620              		@ link register save eliminated.
 3621 0000 80B4     		push	{r7}
 3622              	.LCFI82:
 3623              		.cfi_def_cfa_offset 4
 3624              		.cfi_offset 7, -4
 3625 0002 83B0     		sub	sp, sp, #12
 3626              	.LCFI83:
 3627              		.cfi_def_cfa_offset 16
 3628 0004 00AF     		add	r7, sp, #0
 3629              	.LCFI84:
 3630              		.cfi_def_cfa_register 7
 3631 0006 7860     		str	r0, [r7, #4]
1786:Drivers/STM32G4xx_HAL_Driver/Src/stm32g4xx_hal_rcc_ex.c ****   /* Prevent unused argument(s) compilation warning */
1787:Drivers/STM32G4xx_HAL_Driver/Src/stm32g4xx_hal_rcc_ex.c ****   UNUSED(Error);
1788:Drivers/STM32G4xx_HAL_Driver/Src/stm32g4xx_hal_rcc_ex.c **** 
1789:Drivers/STM32G4xx_HAL_Driver/Src/stm32g4xx_hal_rcc_ex.c ****   /* NOTE : This function should not be modified, when the callback is needed,
ARM GAS  C:\Users\AURORA~1\AppData\Local\Temp\cc3nfJXy.s 			page 102


1790:Drivers/STM32G4xx_HAL_Driver/Src/stm32g4xx_hal_rcc_ex.c ****             the @ref HAL_RCCEx_CRS_ErrorCallback should be implemented in the user file
1791:Drivers/STM32G4xx_HAL_Driver/Src/stm32g4xx_hal_rcc_ex.c ****    */
1792:Drivers/STM32G4xx_HAL_Driver/Src/stm32g4xx_hal_rcc_ex.c **** }
 3632              		.loc 1 1792 1
 3633 0008 00BF     		nop
 3634 000a 0C37     		adds	r7, r7, #12
 3635              	.LCFI85:
 3636              		.cfi_def_cfa_offset 4
 3637 000c BD46     		mov	sp, r7
 3638              	.LCFI86:
 3639              		.cfi_def_cfa_register 13
 3640              		@ sp needed
 3641 000e 5DF8047B 		ldr	r7, [sp], #4
 3642              	.LCFI87:
 3643              		.cfi_restore 7
 3644              		.cfi_def_cfa_offset 0
 3645 0012 7047     		bx	lr
 3646              		.cfi_endproc
 3647              	.LFE150:
 3649              		.text
 3650              	.Letext0:
 3651              		.file 2 "D:/msys64/mingw64/arm-none-eabi/include/machine/_default_types.h"
 3652              		.file 3 "D:/msys64/mingw64/arm-none-eabi/include/sys/_stdint.h"
 3653              		.file 4 "Drivers/CMSIS/Device/ST/STM32G4xx/Include/stm32g474xx.h"
 3654              		.file 5 "Drivers/CMSIS/Device/ST/STM32G4xx/Include/stm32g4xx.h"
 3655              		.file 6 "Drivers/STM32G4xx_HAL_Driver/Inc/stm32g4xx_hal_def.h"
 3656              		.file 7 "Drivers/STM32G4xx_HAL_Driver/Inc/stm32g4xx_hal_rcc_ex.h"
 3657              		.file 8 "Drivers/STM32G4xx_HAL_Driver/Inc/stm32g4xx_hal_gpio.h"
 3658              		.file 9 "Drivers/STM32G4xx_HAL_Driver/Inc/stm32g4xx_hal_pwr.h"
 3659              		.file 10 "Drivers/STM32G4xx_HAL_Driver/Inc/stm32g4xx_hal_rcc.h"
 3660              		.file 11 "Drivers/STM32G4xx_HAL_Driver/Inc/stm32g4xx_hal.h"
ARM GAS  C:\Users\AURORA~1\AppData\Local\Temp\cc3nfJXy.s 			page 103


DEFINED SYMBOLS
                            *ABS*:00000000 stm32g4xx_hal_rcc_ex.c
C:\Users\AURORA~1\AppData\Local\Temp\cc3nfJXy.s:21     .text.HAL_RCCEx_PeriphCLKConfig:00000000 $t
C:\Users\AURORA~1\AppData\Local\Temp\cc3nfJXy.s:27     .text.HAL_RCCEx_PeriphCLKConfig:00000000 HAL_RCCEx_PeriphCLKConfig
C:\Users\AURORA~1\AppData\Local\Temp\cc3nfJXy.s:226    .text.HAL_RCCEx_PeriphCLKConfig:00000130 $d
C:\Users\AURORA~1\AppData\Local\Temp\cc3nfJXy.s:230    .text.HAL_RCCEx_PeriphCLKConfig:00000138 $t
C:\Users\AURORA~1\AppData\Local\Temp\cc3nfJXy.s:596    .text.HAL_RCCEx_PeriphCLKConfig:000003e0 $d
C:\Users\AURORA~1\AppData\Local\Temp\cc3nfJXy.s:600    .text.HAL_RCCEx_PeriphCLKConfig:000003e4 $t
C:\Users\AURORA~1\AppData\Local\Temp\cc3nfJXy.s:704    .text.HAL_RCCEx_PeriphCLKConfig:00000498 $d
C:\Users\AURORA~1\AppData\Local\Temp\cc3nfJXy.s:709    .text.HAL_RCCEx_GetPeriphCLKConfig:00000000 $t
C:\Users\AURORA~1\AppData\Local\Temp\cc3nfJXy.s:715    .text.HAL_RCCEx_GetPeriphCLKConfig:00000000 HAL_RCCEx_GetPeriphCLKConfig
C:\Users\AURORA~1\AppData\Local\Temp\cc3nfJXy.s:894    .text.HAL_RCCEx_GetPeriphCLKConfig:00000134 $d
C:\Users\AURORA~1\AppData\Local\Temp\cc3nfJXy.s:900    .text.HAL_RCCEx_GetPeriphCLKFreq:00000000 $t
C:\Users\AURORA~1\AppData\Local\Temp\cc3nfJXy.s:906    .text.HAL_RCCEx_GetPeriphCLKFreq:00000000 HAL_RCCEx_GetPeriphCLKFreq
C:\Users\AURORA~1\AppData\Local\Temp\cc3nfJXy.s:1136   .text.HAL_RCCEx_GetPeriphCLKFreq:000001f0 $d
C:\Users\AURORA~1\AppData\Local\Temp\cc3nfJXy.s:1168   .text.HAL_RCCEx_GetPeriphCLKFreq:00000270 $t
C:\Users\AURORA~1\AppData\Local\Temp\cc3nfJXy.s:1238   .text.HAL_RCCEx_GetPeriphCLKFreq:000002dc $d
C:\Users\AURORA~1\AppData\Local\Temp\cc3nfJXy.s:1244   .text.HAL_RCCEx_GetPeriphCLKFreq:000002ec $t
C:\Users\AURORA~1\AppData\Local\Temp\cc3nfJXy.s:1631   .text.HAL_RCCEx_GetPeriphCLKFreq:00000578 $d
C:\Users\AURORA~1\AppData\Local\Temp\cc3nfJXy.s:1635   .text.HAL_RCCEx_GetPeriphCLKFreq:00000580 $t
C:\Users\AURORA~1\AppData\Local\Temp\cc3nfJXy.s:2018   .text.HAL_RCCEx_GetPeriphCLKFreq:00000804 $d
C:\Users\AURORA~1\AppData\Local\Temp\cc3nfJXy.s:2024   .text.HAL_RCCEx_GetPeriphCLKFreq:00000814 $t
C:\Users\AURORA~1\AppData\Local\Temp\cc3nfJXy.s:2433   .text.HAL_RCCEx_GetPeriphCLKFreq:00000a70 $d
C:\Users\AURORA~1\AppData\Local\Temp\cc3nfJXy.s:2440   .text.HAL_RCCEx_EnableLSECSS:00000000 $t
C:\Users\AURORA~1\AppData\Local\Temp\cc3nfJXy.s:2446   .text.HAL_RCCEx_EnableLSECSS:00000000 HAL_RCCEx_EnableLSECSS
C:\Users\AURORA~1\AppData\Local\Temp\cc3nfJXy.s:2480   .text.HAL_RCCEx_EnableLSECSS:00000020 $d
C:\Users\AURORA~1\AppData\Local\Temp\cc3nfJXy.s:2485   .text.HAL_RCCEx_DisableLSECSS:00000000 $t
C:\Users\AURORA~1\AppData\Local\Temp\cc3nfJXy.s:2491   .text.HAL_RCCEx_DisableLSECSS:00000000 HAL_RCCEx_DisableLSECSS
C:\Users\AURORA~1\AppData\Local\Temp\cc3nfJXy.s:2531   .text.HAL_RCCEx_DisableLSECSS:0000002c $d
C:\Users\AURORA~1\AppData\Local\Temp\cc3nfJXy.s:2536   .text.HAL_RCCEx_EnableLSECSS_IT:00000000 $t
C:\Users\AURORA~1\AppData\Local\Temp\cc3nfJXy.s:2542   .text.HAL_RCCEx_EnableLSECSS_IT:00000000 HAL_RCCEx_EnableLSECSS_IT
C:\Users\AURORA~1\AppData\Local\Temp\cc3nfJXy.s:2594   .text.HAL_RCCEx_EnableLSECSS_IT:00000044 $d
C:\Users\AURORA~1\AppData\Local\Temp\cc3nfJXy.s:2600   .text.HAL_RCCEx_LSECSS_IRQHandler:00000000 $t
C:\Users\AURORA~1\AppData\Local\Temp\cc3nfJXy.s:2606   .text.HAL_RCCEx_LSECSS_IRQHandler:00000000 HAL_RCCEx_LSECSS_IRQHandler
C:\Users\AURORA~1\AppData\Local\Temp\cc3nfJXy.s:2651   .text.HAL_RCCEx_LSECSS_Callback:00000000 HAL_RCCEx_LSECSS_Callback
C:\Users\AURORA~1\AppData\Local\Temp\cc3nfJXy.s:2640   .text.HAL_RCCEx_LSECSS_IRQHandler:00000024 $d
C:\Users\AURORA~1\AppData\Local\Temp\cc3nfJXy.s:2645   .text.HAL_RCCEx_LSECSS_Callback:00000000 $t
C:\Users\AURORA~1\AppData\Local\Temp\cc3nfJXy.s:2680   .text.HAL_RCCEx_EnableLSCO:00000000 $t
C:\Users\AURORA~1\AppData\Local\Temp\cc3nfJXy.s:2686   .text.HAL_RCCEx_EnableLSCO:00000000 HAL_RCCEx_EnableLSCO
C:\Users\AURORA~1\AppData\Local\Temp\cc3nfJXy.s:2817   .text.HAL_RCCEx_EnableLSCO:000000cc $d
C:\Users\AURORA~1\AppData\Local\Temp\cc3nfJXy.s:2823   .text.HAL_RCCEx_DisableLSCO:00000000 $t
C:\Users\AURORA~1\AppData\Local\Temp\cc3nfJXy.s:2829   .text.HAL_RCCEx_DisableLSCO:00000000 HAL_RCCEx_DisableLSCO
C:\Users\AURORA~1\AppData\Local\Temp\cc3nfJXy.s:2926   .text.HAL_RCCEx_DisableLSCO:00000080 $d
C:\Users\AURORA~1\AppData\Local\Temp\cc3nfJXy.s:2932   .text.HAL_RCCEx_CRSConfig:00000000 $t
C:\Users\AURORA~1\AppData\Local\Temp\cc3nfJXy.s:2938   .text.HAL_RCCEx_CRSConfig:00000000 HAL_RCCEx_CRSConfig
C:\Users\AURORA~1\AppData\Local\Temp\cc3nfJXy.s:3035   .text.HAL_RCCEx_CRSConfig:0000007c $d
C:\Users\AURORA~1\AppData\Local\Temp\cc3nfJXy.s:3041   .text.HAL_RCCEx_CRSSoftwareSynchronizationGenerate:00000000 $t
C:\Users\AURORA~1\AppData\Local\Temp\cc3nfJXy.s:3047   .text.HAL_RCCEx_CRSSoftwareSynchronizationGenerate:00000000 HAL_RCCEx_CRSSoftwareSynchronizationGenerate
C:\Users\AURORA~1\AppData\Local\Temp\cc3nfJXy.s:3081   .text.HAL_RCCEx_CRSSoftwareSynchronizationGenerate:0000001c $d
C:\Users\AURORA~1\AppData\Local\Temp\cc3nfJXy.s:3086   .text.HAL_RCCEx_CRSGetSynchronizationInfo:00000000 $t
C:\Users\AURORA~1\AppData\Local\Temp\cc3nfJXy.s:3092   .text.HAL_RCCEx_CRSGetSynchronizationInfo:00000000 HAL_RCCEx_CRSGetSynchronizationInfo
C:\Users\AURORA~1\AppData\Local\Temp\cc3nfJXy.s:3159   .text.HAL_RCCEx_CRSGetSynchronizationInfo:00000044 $d
C:\Users\AURORA~1\AppData\Local\Temp\cc3nfJXy.s:3164   .text.HAL_RCCEx_CRSWaitSynchronization:00000000 $t
C:\Users\AURORA~1\AppData\Local\Temp\cc3nfJXy.s:3170   .text.HAL_RCCEx_CRSWaitSynchronization:00000000 HAL_RCCEx_CRSWaitSynchronization
C:\Users\AURORA~1\AppData\Local\Temp\cc3nfJXy.s:3329   .text.HAL_RCCEx_CRSWaitSynchronization:000000e0 $d
C:\Users\AURORA~1\AppData\Local\Temp\cc3nfJXy.s:3334   .text.HAL_RCCEx_CRS_IRQHandler:00000000 $t
C:\Users\AURORA~1\AppData\Local\Temp\cc3nfJXy.s:3340   .text.HAL_RCCEx_CRS_IRQHandler:00000000 HAL_RCCEx_CRS_IRQHandler
ARM GAS  C:\Users\AURORA~1\AppData\Local\Temp\cc3nfJXy.s 			page 104


C:\Users\AURORA~1\AppData\Local\Temp\cc3nfJXy.s:3509   .text.HAL_RCCEx_CRS_SyncOkCallback:00000000 HAL_RCCEx_CRS_SyncOkCallback
C:\Users\AURORA~1\AppData\Local\Temp\cc3nfJXy.s:3544   .text.HAL_RCCEx_CRS_SyncWarnCallback:00000000 HAL_RCCEx_CRS_SyncWarnCallback
C:\Users\AURORA~1\AppData\Local\Temp\cc3nfJXy.s:3579   .text.HAL_RCCEx_CRS_ExpectedSyncCallback:00000000 HAL_RCCEx_CRS_ExpectedSyncCallback
C:\Users\AURORA~1\AppData\Local\Temp\cc3nfJXy.s:3614   .text.HAL_RCCEx_CRS_ErrorCallback:00000000 HAL_RCCEx_CRS_ErrorCallback
C:\Users\AURORA~1\AppData\Local\Temp\cc3nfJXy.s:3498   .text.HAL_RCCEx_CRS_IRQHandler:000000d8 $d
C:\Users\AURORA~1\AppData\Local\Temp\cc3nfJXy.s:3503   .text.HAL_RCCEx_CRS_SyncOkCallback:00000000 $t
C:\Users\AURORA~1\AppData\Local\Temp\cc3nfJXy.s:3538   .text.HAL_RCCEx_CRS_SyncWarnCallback:00000000 $t
C:\Users\AURORA~1\AppData\Local\Temp\cc3nfJXy.s:3573   .text.HAL_RCCEx_CRS_ExpectedSyncCallback:00000000 $t
C:\Users\AURORA~1\AppData\Local\Temp\cc3nfJXy.s:3608   .text.HAL_RCCEx_CRS_ErrorCallback:00000000 $t

UNDEFINED SYMBOLS
HAL_GetTick
HAL_RCC_GetPCLK2Freq
HAL_RCC_GetSysClockFreq
HAL_RCC_GetPCLK1Freq
HAL_GPIO_Init
HAL_PWR_EnableBkUpAccess
HAL_PWR_DisableBkUpAccess
