ARM GAS  C:\Users\AURORA~1\AppData\Local\Temp\ccDX0hEW.s 			page 1


   1              		.cpu cortex-m4
   2              		.arch armv7e-m
   3              		.fpu fpv4-sp-d16
   4              		.eabi_attribute 27, 1
   5              		.eabi_attribute 28, 1
   6              		.eabi_attribute 20, 1
   7              		.eabi_attribute 21, 1
   8              		.eabi_attribute 23, 3
   9              		.eabi_attribute 24, 1
  10              		.eabi_attribute 25, 1
  11              		.eabi_attribute 26, 1
  12              		.eabi_attribute 30, 6
  13              		.eabi_attribute 34, 1
  14              		.eabi_attribute 18, 4
  15              		.file	"stm32g4xx_hal_spi.c"
  16              		.text
  17              	.Ltext0:
  18              		.cfi_sections	.debug_frame
  19              		.file 1 "Drivers/STM32G4xx_HAL_Driver/Src/stm32g4xx_hal_spi.c"
  20              		.section	.text.HAL_SPI_Init,"ax",%progbits
  21              		.align	1
  22              		.global	HAL_SPI_Init
  23              		.syntax unified
  24              		.thumb
  25              		.thumb_func
  27              	HAL_SPI_Init:
  28              	.LFB132:
   1:Drivers/STM32G4xx_HAL_Driver/Src/stm32g4xx_hal_spi.c **** /**
   2:Drivers/STM32G4xx_HAL_Driver/Src/stm32g4xx_hal_spi.c ****   ******************************************************************************
   3:Drivers/STM32G4xx_HAL_Driver/Src/stm32g4xx_hal_spi.c ****   * @file    stm32g4xx_hal_spi.c
   4:Drivers/STM32G4xx_HAL_Driver/Src/stm32g4xx_hal_spi.c ****   * @author  MCD Application Team
   5:Drivers/STM32G4xx_HAL_Driver/Src/stm32g4xx_hal_spi.c ****   * @brief   SPI HAL module driver.
   6:Drivers/STM32G4xx_HAL_Driver/Src/stm32g4xx_hal_spi.c ****   *          This file provides firmware functions to manage the following
   7:Drivers/STM32G4xx_HAL_Driver/Src/stm32g4xx_hal_spi.c ****   *          functionalities of the Serial Peripheral Interface (SPI) peripheral:
   8:Drivers/STM32G4xx_HAL_Driver/Src/stm32g4xx_hal_spi.c ****   *           + Initialization and de-initialization functions
   9:Drivers/STM32G4xx_HAL_Driver/Src/stm32g4xx_hal_spi.c ****   *           + IO operation functions
  10:Drivers/STM32G4xx_HAL_Driver/Src/stm32g4xx_hal_spi.c ****   *           + Peripheral Control functions
  11:Drivers/STM32G4xx_HAL_Driver/Src/stm32g4xx_hal_spi.c ****   *           + Peripheral State functions
  12:Drivers/STM32G4xx_HAL_Driver/Src/stm32g4xx_hal_spi.c ****   ******************************************************************************
  13:Drivers/STM32G4xx_HAL_Driver/Src/stm32g4xx_hal_spi.c ****   * @attention
  14:Drivers/STM32G4xx_HAL_Driver/Src/stm32g4xx_hal_spi.c ****   *
  15:Drivers/STM32G4xx_HAL_Driver/Src/stm32g4xx_hal_spi.c ****   * Copyright (c) 2019 STMicroelectronics.
  16:Drivers/STM32G4xx_HAL_Driver/Src/stm32g4xx_hal_spi.c ****   * All rights reserved.
  17:Drivers/STM32G4xx_HAL_Driver/Src/stm32g4xx_hal_spi.c ****   *
  18:Drivers/STM32G4xx_HAL_Driver/Src/stm32g4xx_hal_spi.c ****   * This software is licensed under terms that can be found in the LICENSE file
  19:Drivers/STM32G4xx_HAL_Driver/Src/stm32g4xx_hal_spi.c ****   * in the root directory of this software component.
  20:Drivers/STM32G4xx_HAL_Driver/Src/stm32g4xx_hal_spi.c ****   * If no LICENSE file comes with this software, it is provided AS-IS.
  21:Drivers/STM32G4xx_HAL_Driver/Src/stm32g4xx_hal_spi.c ****   *
  22:Drivers/STM32G4xx_HAL_Driver/Src/stm32g4xx_hal_spi.c ****   ******************************************************************************
  23:Drivers/STM32G4xx_HAL_Driver/Src/stm32g4xx_hal_spi.c ****   @verbatim
  24:Drivers/STM32G4xx_HAL_Driver/Src/stm32g4xx_hal_spi.c ****   ==============================================================================
  25:Drivers/STM32G4xx_HAL_Driver/Src/stm32g4xx_hal_spi.c ****                         ##### How to use this driver #####
  26:Drivers/STM32G4xx_HAL_Driver/Src/stm32g4xx_hal_spi.c ****   ==============================================================================
  27:Drivers/STM32G4xx_HAL_Driver/Src/stm32g4xx_hal_spi.c ****     [..]
  28:Drivers/STM32G4xx_HAL_Driver/Src/stm32g4xx_hal_spi.c ****       The SPI HAL driver can be used as follows:
  29:Drivers/STM32G4xx_HAL_Driver/Src/stm32g4xx_hal_spi.c **** 
  30:Drivers/STM32G4xx_HAL_Driver/Src/stm32g4xx_hal_spi.c ****       (#) Declare a SPI_HandleTypeDef handle structure, for example:
ARM GAS  C:\Users\AURORA~1\AppData\Local\Temp\ccDX0hEW.s 			page 2


  31:Drivers/STM32G4xx_HAL_Driver/Src/stm32g4xx_hal_spi.c ****           SPI_HandleTypeDef  hspi;
  32:Drivers/STM32G4xx_HAL_Driver/Src/stm32g4xx_hal_spi.c **** 
  33:Drivers/STM32G4xx_HAL_Driver/Src/stm32g4xx_hal_spi.c ****       (#)Initialize the SPI low level resources by implementing the HAL_SPI_MspInit() API:
  34:Drivers/STM32G4xx_HAL_Driver/Src/stm32g4xx_hal_spi.c ****           (##) Enable the SPIx interface clock
  35:Drivers/STM32G4xx_HAL_Driver/Src/stm32g4xx_hal_spi.c ****           (##) SPI pins configuration
  36:Drivers/STM32G4xx_HAL_Driver/Src/stm32g4xx_hal_spi.c ****               (+++) Enable the clock for the SPI GPIOs
  37:Drivers/STM32G4xx_HAL_Driver/Src/stm32g4xx_hal_spi.c ****               (+++) Configure these SPI pins as alternate function push-pull
  38:Drivers/STM32G4xx_HAL_Driver/Src/stm32g4xx_hal_spi.c ****           (##) NVIC configuration if you need to use interrupt process
  39:Drivers/STM32G4xx_HAL_Driver/Src/stm32g4xx_hal_spi.c ****               (+++) Configure the SPIx interrupt priority
  40:Drivers/STM32G4xx_HAL_Driver/Src/stm32g4xx_hal_spi.c ****               (+++) Enable the NVIC SPI IRQ handle
  41:Drivers/STM32G4xx_HAL_Driver/Src/stm32g4xx_hal_spi.c ****           (##) DMA Configuration if you need to use DMA process
  42:Drivers/STM32G4xx_HAL_Driver/Src/stm32g4xx_hal_spi.c ****               (+++) Declare a DMA_HandleTypeDef handle structure for the transmit or receive Stream
  43:Drivers/STM32G4xx_HAL_Driver/Src/stm32g4xx_hal_spi.c ****               (+++) Enable the DMAx clock
  44:Drivers/STM32G4xx_HAL_Driver/Src/stm32g4xx_hal_spi.c ****               (+++) Configure the DMA handle parameters
  45:Drivers/STM32G4xx_HAL_Driver/Src/stm32g4xx_hal_spi.c ****               (+++) Configure the DMA Tx or Rx Stream/Channel
  46:Drivers/STM32G4xx_HAL_Driver/Src/stm32g4xx_hal_spi.c ****               (+++) Associate the initialized hdma_tx(or _rx)  handle to the hspi DMA Tx or Rx hand
  47:Drivers/STM32G4xx_HAL_Driver/Src/stm32g4xx_hal_spi.c ****               (+++) Configure the priority and enable the NVIC for the transfer complete interrupt 
  48:Drivers/STM32G4xx_HAL_Driver/Src/stm32g4xx_hal_spi.c **** 
  49:Drivers/STM32G4xx_HAL_Driver/Src/stm32g4xx_hal_spi.c ****       (#) Program the Mode, BidirectionalMode , Data size, Baudrate Prescaler, NSS
  50:Drivers/STM32G4xx_HAL_Driver/Src/stm32g4xx_hal_spi.c ****           management, Clock polarity and phase, FirstBit and CRC configuration in the hspi Init str
  51:Drivers/STM32G4xx_HAL_Driver/Src/stm32g4xx_hal_spi.c **** 
  52:Drivers/STM32G4xx_HAL_Driver/Src/stm32g4xx_hal_spi.c ****       (#) Initialize the SPI registers by calling the HAL_SPI_Init() API:
  53:Drivers/STM32G4xx_HAL_Driver/Src/stm32g4xx_hal_spi.c ****           (++) This API configures also the low level Hardware GPIO, CLOCK, CORTEX...etc)
  54:Drivers/STM32G4xx_HAL_Driver/Src/stm32g4xx_hal_spi.c ****               by calling the customized HAL_SPI_MspInit() API.
  55:Drivers/STM32G4xx_HAL_Driver/Src/stm32g4xx_hal_spi.c ****      [..]
  56:Drivers/STM32G4xx_HAL_Driver/Src/stm32g4xx_hal_spi.c ****        Circular mode restriction:
  57:Drivers/STM32G4xx_HAL_Driver/Src/stm32g4xx_hal_spi.c ****       (#) The DMA circular mode cannot be used when the SPI is configured in these modes:
  58:Drivers/STM32G4xx_HAL_Driver/Src/stm32g4xx_hal_spi.c ****           (##) Master 2Lines RxOnly
  59:Drivers/STM32G4xx_HAL_Driver/Src/stm32g4xx_hal_spi.c ****           (##) Master 1Line Rx
  60:Drivers/STM32G4xx_HAL_Driver/Src/stm32g4xx_hal_spi.c ****       (#) The CRC feature is not managed when the DMA circular mode is enabled
  61:Drivers/STM32G4xx_HAL_Driver/Src/stm32g4xx_hal_spi.c ****       (#) When the SPI DMA Pause/Stop features are used, we must use the following APIs
  62:Drivers/STM32G4xx_HAL_Driver/Src/stm32g4xx_hal_spi.c ****           the HAL_SPI_DMAPause()/ HAL_SPI_DMAStop() only under the SPI callbacks
  63:Drivers/STM32G4xx_HAL_Driver/Src/stm32g4xx_hal_spi.c ****      [..]
  64:Drivers/STM32G4xx_HAL_Driver/Src/stm32g4xx_hal_spi.c ****        Master Receive mode restriction:
  65:Drivers/STM32G4xx_HAL_Driver/Src/stm32g4xx_hal_spi.c ****       (#) In Master unidirectional receive-only mode (MSTR =1, BIDIMODE=0, RXONLY=1) or
  66:Drivers/STM32G4xx_HAL_Driver/Src/stm32g4xx_hal_spi.c ****           bidirectional receive mode (MSTR=1, BIDIMODE=1, BIDIOE=0), to ensure that the SPI
  67:Drivers/STM32G4xx_HAL_Driver/Src/stm32g4xx_hal_spi.c ****           does not initiate a new transfer the following procedure has to be respected:
  68:Drivers/STM32G4xx_HAL_Driver/Src/stm32g4xx_hal_spi.c ****           (##) HAL_SPI_DeInit()
  69:Drivers/STM32G4xx_HAL_Driver/Src/stm32g4xx_hal_spi.c ****           (##) HAL_SPI_Init()
  70:Drivers/STM32G4xx_HAL_Driver/Src/stm32g4xx_hal_spi.c ****      [..]
  71:Drivers/STM32G4xx_HAL_Driver/Src/stm32g4xx_hal_spi.c ****        Callback registration:
  72:Drivers/STM32G4xx_HAL_Driver/Src/stm32g4xx_hal_spi.c **** 
  73:Drivers/STM32G4xx_HAL_Driver/Src/stm32g4xx_hal_spi.c ****       (#) The compilation flag USE_HAL_SPI_REGISTER_CALLBACKS when set to 1U
  74:Drivers/STM32G4xx_HAL_Driver/Src/stm32g4xx_hal_spi.c ****           allows the user to configure dynamically the driver callbacks.
  75:Drivers/STM32G4xx_HAL_Driver/Src/stm32g4xx_hal_spi.c ****           Use Functions HAL_SPI_RegisterCallback() to register an interrupt callback.
  76:Drivers/STM32G4xx_HAL_Driver/Src/stm32g4xx_hal_spi.c **** 
  77:Drivers/STM32G4xx_HAL_Driver/Src/stm32g4xx_hal_spi.c ****           Function HAL_SPI_RegisterCallback() allows to register following callbacks:
  78:Drivers/STM32G4xx_HAL_Driver/Src/stm32g4xx_hal_spi.c ****             (++) TxCpltCallback        : SPI Tx Completed callback
  79:Drivers/STM32G4xx_HAL_Driver/Src/stm32g4xx_hal_spi.c ****             (++) RxCpltCallback        : SPI Rx Completed callback
  80:Drivers/STM32G4xx_HAL_Driver/Src/stm32g4xx_hal_spi.c ****             (++) TxRxCpltCallback      : SPI TxRx Completed callback
  81:Drivers/STM32G4xx_HAL_Driver/Src/stm32g4xx_hal_spi.c ****             (++) TxHalfCpltCallback    : SPI Tx Half Completed callback
  82:Drivers/STM32G4xx_HAL_Driver/Src/stm32g4xx_hal_spi.c ****             (++) RxHalfCpltCallback    : SPI Rx Half Completed callback
  83:Drivers/STM32G4xx_HAL_Driver/Src/stm32g4xx_hal_spi.c ****             (++) TxRxHalfCpltCallback  : SPI TxRx Half Completed callback
  84:Drivers/STM32G4xx_HAL_Driver/Src/stm32g4xx_hal_spi.c ****             (++) ErrorCallback         : SPI Error callback
  85:Drivers/STM32G4xx_HAL_Driver/Src/stm32g4xx_hal_spi.c ****             (++) AbortCpltCallback     : SPI Abort callback
  86:Drivers/STM32G4xx_HAL_Driver/Src/stm32g4xx_hal_spi.c ****             (++) MspInitCallback       : SPI Msp Init callback
  87:Drivers/STM32G4xx_HAL_Driver/Src/stm32g4xx_hal_spi.c ****             (++) MspDeInitCallback     : SPI Msp DeInit callback
ARM GAS  C:\Users\AURORA~1\AppData\Local\Temp\ccDX0hEW.s 			page 3


  88:Drivers/STM32G4xx_HAL_Driver/Src/stm32g4xx_hal_spi.c ****           This function takes as parameters the HAL peripheral handle, the Callback ID
  89:Drivers/STM32G4xx_HAL_Driver/Src/stm32g4xx_hal_spi.c ****           and a pointer to the user callback function.
  90:Drivers/STM32G4xx_HAL_Driver/Src/stm32g4xx_hal_spi.c **** 
  91:Drivers/STM32G4xx_HAL_Driver/Src/stm32g4xx_hal_spi.c **** 
  92:Drivers/STM32G4xx_HAL_Driver/Src/stm32g4xx_hal_spi.c ****       (#) Use function HAL_SPI_UnRegisterCallback to reset a callback to the default
  93:Drivers/STM32G4xx_HAL_Driver/Src/stm32g4xx_hal_spi.c ****           weak function.
  94:Drivers/STM32G4xx_HAL_Driver/Src/stm32g4xx_hal_spi.c ****           HAL_SPI_UnRegisterCallback takes as parameters the HAL peripheral handle,
  95:Drivers/STM32G4xx_HAL_Driver/Src/stm32g4xx_hal_spi.c ****           and the Callback ID.
  96:Drivers/STM32G4xx_HAL_Driver/Src/stm32g4xx_hal_spi.c ****           This function allows to reset following callbacks:
  97:Drivers/STM32G4xx_HAL_Driver/Src/stm32g4xx_hal_spi.c ****             (++) TxCpltCallback        : SPI Tx Completed callback
  98:Drivers/STM32G4xx_HAL_Driver/Src/stm32g4xx_hal_spi.c ****             (++) RxCpltCallback        : SPI Rx Completed callback
  99:Drivers/STM32G4xx_HAL_Driver/Src/stm32g4xx_hal_spi.c ****             (++) TxRxCpltCallback      : SPI TxRx Completed callback
 100:Drivers/STM32G4xx_HAL_Driver/Src/stm32g4xx_hal_spi.c ****             (++) TxHalfCpltCallback    : SPI Tx Half Completed callback
 101:Drivers/STM32G4xx_HAL_Driver/Src/stm32g4xx_hal_spi.c ****             (++) RxHalfCpltCallback    : SPI Rx Half Completed callback
 102:Drivers/STM32G4xx_HAL_Driver/Src/stm32g4xx_hal_spi.c ****             (++) TxRxHalfCpltCallback  : SPI TxRx Half Completed callback
 103:Drivers/STM32G4xx_HAL_Driver/Src/stm32g4xx_hal_spi.c ****             (++) ErrorCallback         : SPI Error callback
 104:Drivers/STM32G4xx_HAL_Driver/Src/stm32g4xx_hal_spi.c ****             (++) AbortCpltCallback     : SPI Abort callback
 105:Drivers/STM32G4xx_HAL_Driver/Src/stm32g4xx_hal_spi.c ****             (++) MspInitCallback       : SPI Msp Init callback
 106:Drivers/STM32G4xx_HAL_Driver/Src/stm32g4xx_hal_spi.c ****             (++) MspDeInitCallback     : SPI Msp DeInit callback
 107:Drivers/STM32G4xx_HAL_Driver/Src/stm32g4xx_hal_spi.c **** 
 108:Drivers/STM32G4xx_HAL_Driver/Src/stm32g4xx_hal_spi.c ****        [..]
 109:Drivers/STM32G4xx_HAL_Driver/Src/stm32g4xx_hal_spi.c ****        By default, after the HAL_SPI_Init() and when the state is HAL_SPI_STATE_RESET
 110:Drivers/STM32G4xx_HAL_Driver/Src/stm32g4xx_hal_spi.c ****        all callbacks are set to the corresponding weak functions:
 111:Drivers/STM32G4xx_HAL_Driver/Src/stm32g4xx_hal_spi.c ****        examples HAL_SPI_MasterTxCpltCallback(), HAL_SPI_MasterRxCpltCallback().
 112:Drivers/STM32G4xx_HAL_Driver/Src/stm32g4xx_hal_spi.c ****        Exception done for MspInit and MspDeInit functions that are
 113:Drivers/STM32G4xx_HAL_Driver/Src/stm32g4xx_hal_spi.c ****        reset to the legacy weak functions in the HAL_SPI_Init()/ HAL_SPI_DeInit() only when
 114:Drivers/STM32G4xx_HAL_Driver/Src/stm32g4xx_hal_spi.c ****        these callbacks are null (not registered beforehand).
 115:Drivers/STM32G4xx_HAL_Driver/Src/stm32g4xx_hal_spi.c ****        If MspInit or MspDeInit are not null, the HAL_SPI_Init()/ HAL_SPI_DeInit()
 116:Drivers/STM32G4xx_HAL_Driver/Src/stm32g4xx_hal_spi.c ****        keep and use the user MspInit/MspDeInit callbacks (registered beforehand) whatever the state
 117:Drivers/STM32G4xx_HAL_Driver/Src/stm32g4xx_hal_spi.c **** 
 118:Drivers/STM32G4xx_HAL_Driver/Src/stm32g4xx_hal_spi.c ****        [..]
 119:Drivers/STM32G4xx_HAL_Driver/Src/stm32g4xx_hal_spi.c ****        Callbacks can be registered/unregistered in HAL_SPI_STATE_READY state only.
 120:Drivers/STM32G4xx_HAL_Driver/Src/stm32g4xx_hal_spi.c ****        Exception done MspInit/MspDeInit functions that can be registered/unregistered
 121:Drivers/STM32G4xx_HAL_Driver/Src/stm32g4xx_hal_spi.c ****        in HAL_SPI_STATE_READY or HAL_SPI_STATE_RESET state,
 122:Drivers/STM32G4xx_HAL_Driver/Src/stm32g4xx_hal_spi.c ****        thus registered (user) MspInit/DeInit callbacks can be used during the Init/DeInit.
 123:Drivers/STM32G4xx_HAL_Driver/Src/stm32g4xx_hal_spi.c ****        Then, the user first registers the MspInit/MspDeInit user callbacks
 124:Drivers/STM32G4xx_HAL_Driver/Src/stm32g4xx_hal_spi.c ****        using HAL_SPI_RegisterCallback() before calling HAL_SPI_DeInit()
 125:Drivers/STM32G4xx_HAL_Driver/Src/stm32g4xx_hal_spi.c ****        or HAL_SPI_Init() function.
 126:Drivers/STM32G4xx_HAL_Driver/Src/stm32g4xx_hal_spi.c **** 
 127:Drivers/STM32G4xx_HAL_Driver/Src/stm32g4xx_hal_spi.c ****        [..]
 128:Drivers/STM32G4xx_HAL_Driver/Src/stm32g4xx_hal_spi.c ****        When the compilation define USE_HAL_PPP_REGISTER_CALLBACKS is set to 0 or
 129:Drivers/STM32G4xx_HAL_Driver/Src/stm32g4xx_hal_spi.c ****        not defined, the callback registering feature is not available
 130:Drivers/STM32G4xx_HAL_Driver/Src/stm32g4xx_hal_spi.c ****        and weak (surcharged) callbacks are used.
 131:Drivers/STM32G4xx_HAL_Driver/Src/stm32g4xx_hal_spi.c **** 
 132:Drivers/STM32G4xx_HAL_Driver/Src/stm32g4xx_hal_spi.c ****      [..]
 133:Drivers/STM32G4xx_HAL_Driver/Src/stm32g4xx_hal_spi.c ****        Using the HAL it is not possible to reach all supported SPI frequency with the different SPI
 134:Drivers/STM32G4xx_HAL_Driver/Src/stm32g4xx_hal_spi.c ****        the following table resume the max SPI frequency reached with data size 8bits/16bits,
 135:Drivers/STM32G4xx_HAL_Driver/Src/stm32g4xx_hal_spi.c ****          according to frequency of the APBx Peripheral Clock (fPCLK) used by the SPI instance.
 136:Drivers/STM32G4xx_HAL_Driver/Src/stm32g4xx_hal_spi.c **** 
 137:Drivers/STM32G4xx_HAL_Driver/Src/stm32g4xx_hal_spi.c ****   @endverbatim
 138:Drivers/STM32G4xx_HAL_Driver/Src/stm32g4xx_hal_spi.c **** 
 139:Drivers/STM32G4xx_HAL_Driver/Src/stm32g4xx_hal_spi.c ****   Additional table :
 140:Drivers/STM32G4xx_HAL_Driver/Src/stm32g4xx_hal_spi.c **** 
 141:Drivers/STM32G4xx_HAL_Driver/Src/stm32g4xx_hal_spi.c ****        DataSize = SPI_DATASIZE_8BIT:
 142:Drivers/STM32G4xx_HAL_Driver/Src/stm32g4xx_hal_spi.c ****        +-------------------------------------------------------------------------------------------
 143:Drivers/STM32G4xx_HAL_Driver/Src/stm32g4xx_hal_spi.c ****        |         |                | 2Lines Fullduplex   |     2Lines RxOnly    |         1Line     
 144:Drivers/STM32G4xx_HAL_Driver/Src/stm32g4xx_hal_spi.c ****        | Process | Transfer mode  |---------------------|----------------------|-------------------
ARM GAS  C:\Users\AURORA~1\AppData\Local\Temp\ccDX0hEW.s 			page 4


 145:Drivers/STM32G4xx_HAL_Driver/Src/stm32g4xx_hal_spi.c ****        |         |                |  Master  |  Slave   |  Master   |  Slave   |  Master   |  Slave
 146:Drivers/STM32G4xx_HAL_Driver/Src/stm32g4xx_hal_spi.c ****        |===========================================================================================
 147:Drivers/STM32G4xx_HAL_Driver/Src/stm32g4xx_hal_spi.c ****        |    T    |     Polling    | Fpclk/4  | Fpclk/8  |    NA     |    NA    |    NA     |   NA  
 148:Drivers/STM32G4xx_HAL_Driver/Src/stm32g4xx_hal_spi.c ****        |    X    |----------------|----------|----------|-----------|----------|-----------|-------
 149:Drivers/STM32G4xx_HAL_Driver/Src/stm32g4xx_hal_spi.c ****        |    /    |     Interrupt  | Fpclk/4  | Fpclk/16 |    NA     |    NA    |    NA     |   NA  
 150:Drivers/STM32G4xx_HAL_Driver/Src/stm32g4xx_hal_spi.c ****        |    R    |----------------|----------|----------|-----------|----------|-----------|-------
 151:Drivers/STM32G4xx_HAL_Driver/Src/stm32g4xx_hal_spi.c ****        |    X    |       DMA      | Fpclk/2  | Fpclk/2  |    NA     |    NA    |    NA     |   NA  
 152:Drivers/STM32G4xx_HAL_Driver/Src/stm32g4xx_hal_spi.c ****        |=========|================|==========|==========|===========|==========|===========|=======
 153:Drivers/STM32G4xx_HAL_Driver/Src/stm32g4xx_hal_spi.c ****        |         |     Polling    | Fpclk/4  | Fpclk/8  | Fpclk/16  | Fpclk/8  | Fpclk/8   | Fpclk/
 154:Drivers/STM32G4xx_HAL_Driver/Src/stm32g4xx_hal_spi.c ****        |         |----------------|----------|----------|-----------|----------|-----------|-------
 155:Drivers/STM32G4xx_HAL_Driver/Src/stm32g4xx_hal_spi.c ****        |    R    |     Interrupt  | Fpclk/8  | Fpclk/16 | Fpclk/8   | Fpclk/8  | Fpclk/8   | Fpclk/
 156:Drivers/STM32G4xx_HAL_Driver/Src/stm32g4xx_hal_spi.c ****        |    X    |----------------|----------|----------|-----------|----------|-----------|-------
 157:Drivers/STM32G4xx_HAL_Driver/Src/stm32g4xx_hal_spi.c ****        |         |       DMA      | Fpclk/4  | Fpclk/2  | Fpclk/2   | Fpclk/16 | Fpclk/2   | Fpclk/
 158:Drivers/STM32G4xx_HAL_Driver/Src/stm32g4xx_hal_spi.c ****        |=========|================|==========|==========|===========|==========|===========|=======
 159:Drivers/STM32G4xx_HAL_Driver/Src/stm32g4xx_hal_spi.c ****        |         |     Polling    | Fpclk/8  | Fpclk/2  |     NA    |    NA    | Fpclk/8   | Fpclk/
 160:Drivers/STM32G4xx_HAL_Driver/Src/stm32g4xx_hal_spi.c ****        |         |----------------|----------|----------|-----------|----------|-----------|-------
 161:Drivers/STM32G4xx_HAL_Driver/Src/stm32g4xx_hal_spi.c ****        |    T    |     Interrupt  | Fpclk/2  | Fpclk/4  |     NA    |    NA    | Fpclk/16  | Fpclk/
 162:Drivers/STM32G4xx_HAL_Driver/Src/stm32g4xx_hal_spi.c ****        |    X    |----------------|----------|----------|-----------|----------|-----------|-------
 163:Drivers/STM32G4xx_HAL_Driver/Src/stm32g4xx_hal_spi.c ****        |         |       DMA      | Fpclk/2  | Fpclk/2  |     NA    |    NA    | Fpclk/8   | Fpclk/
 164:Drivers/STM32G4xx_HAL_Driver/Src/stm32g4xx_hal_spi.c ****        +-------------------------------------------------------------------------------------------
 165:Drivers/STM32G4xx_HAL_Driver/Src/stm32g4xx_hal_spi.c **** 
 166:Drivers/STM32G4xx_HAL_Driver/Src/stm32g4xx_hal_spi.c ****        DataSize = SPI_DATASIZE_16BIT:
 167:Drivers/STM32G4xx_HAL_Driver/Src/stm32g4xx_hal_spi.c ****        +-------------------------------------------------------------------------------------------
 168:Drivers/STM32G4xx_HAL_Driver/Src/stm32g4xx_hal_spi.c ****        |         |                | 2Lines Fullduplex   |     2Lines RxOnly    |         1Line     
 169:Drivers/STM32G4xx_HAL_Driver/Src/stm32g4xx_hal_spi.c ****        | Process | Transfer mode  |---------------------|----------------------|-------------------
 170:Drivers/STM32G4xx_HAL_Driver/Src/stm32g4xx_hal_spi.c ****        |         |                |  Master  |  Slave   |  Master   |  Slave   |  Master   |  Slave
 171:Drivers/STM32G4xx_HAL_Driver/Src/stm32g4xx_hal_spi.c ****        |===========================================================================================
 172:Drivers/STM32G4xx_HAL_Driver/Src/stm32g4xx_hal_spi.c ****        |    T    |     Polling    | Fpclk/4  | Fpclk/8  |    NA     |    NA    |    NA     |   NA  
 173:Drivers/STM32G4xx_HAL_Driver/Src/stm32g4xx_hal_spi.c ****        |    X    |----------------|----------|----------|-----------|----------|-----------|-------
 174:Drivers/STM32G4xx_HAL_Driver/Src/stm32g4xx_hal_spi.c ****        |    /    |     Interrupt  | Fpclk/4  | Fpclk/16 |    NA     |    NA    |    NA     |   NA  
 175:Drivers/STM32G4xx_HAL_Driver/Src/stm32g4xx_hal_spi.c ****        |    R    |----------------|----------|----------|-----------|----------|-----------|-------
 176:Drivers/STM32G4xx_HAL_Driver/Src/stm32g4xx_hal_spi.c ****        |    X    |       DMA      | Fpclk/2  | Fpclk/2  |    NA     |    NA    |    NA     |   NA  
 177:Drivers/STM32G4xx_HAL_Driver/Src/stm32g4xx_hal_spi.c ****        |=========|================|==========|==========|===========|==========|===========|=======
 178:Drivers/STM32G4xx_HAL_Driver/Src/stm32g4xx_hal_spi.c ****        |         |     Polling    | Fpclk/4  | Fpclk/8  | Fpclk/16  | Fpclk/8  | Fpclk/8   | Fpclk/
 179:Drivers/STM32G4xx_HAL_Driver/Src/stm32g4xx_hal_spi.c ****        |         |----------------|----------|----------|-----------|----------|-----------|-------
 180:Drivers/STM32G4xx_HAL_Driver/Src/stm32g4xx_hal_spi.c ****        |    R    |     Interrupt  | Fpclk/8  | Fpclk/16 | Fpclk/8   | Fpclk/8  | Fpclk/8   | Fpclk/
 181:Drivers/STM32G4xx_HAL_Driver/Src/stm32g4xx_hal_spi.c ****        |    X    |----------------|----------|----------|-----------|----------|-----------|-------
 182:Drivers/STM32G4xx_HAL_Driver/Src/stm32g4xx_hal_spi.c ****        |         |       DMA      | Fpclk/4  | Fpclk/2  | Fpclk/2   | Fpclk/16 | Fpclk/2   | Fpclk/
 183:Drivers/STM32G4xx_HAL_Driver/Src/stm32g4xx_hal_spi.c ****        |=========|================|==========|==========|===========|==========|===========|=======
 184:Drivers/STM32G4xx_HAL_Driver/Src/stm32g4xx_hal_spi.c ****        |         |     Polling    | Fpclk/8  | Fpclk/2  |     NA    |    NA    | Fpclk/8   | Fpclk/
 185:Drivers/STM32G4xx_HAL_Driver/Src/stm32g4xx_hal_spi.c ****        |         |----------------|----------|----------|-----------|----------|-----------|-------
 186:Drivers/STM32G4xx_HAL_Driver/Src/stm32g4xx_hal_spi.c ****        |    T    |     Interrupt  | Fpclk/2  | Fpclk/4  |     NA    |    NA    | Fpclk/16  | Fpclk/
 187:Drivers/STM32G4xx_HAL_Driver/Src/stm32g4xx_hal_spi.c ****        |    X    |----------------|----------|----------|-----------|----------|-----------|-------
 188:Drivers/STM32G4xx_HAL_Driver/Src/stm32g4xx_hal_spi.c ****        |         |       DMA      | Fpclk/2  | Fpclk/2  |     NA    |    NA    | Fpclk/8   | Fpclk/
 189:Drivers/STM32G4xx_HAL_Driver/Src/stm32g4xx_hal_spi.c ****        +-------------------------------------------------------------------------------------------
 190:Drivers/STM32G4xx_HAL_Driver/Src/stm32g4xx_hal_spi.c ****        @note The max SPI frequency depend on SPI data size (4bits, 5bits,..., 8bits,...15bits, 16bi
 191:Drivers/STM32G4xx_HAL_Driver/Src/stm32g4xx_hal_spi.c ****              SPI mode(2 Lines fullduplex, 2 lines RxOnly, 1 line TX/RX) and Process mode (Polling, 
 192:Drivers/STM32G4xx_HAL_Driver/Src/stm32g4xx_hal_spi.c ****        @note
 193:Drivers/STM32G4xx_HAL_Driver/Src/stm32g4xx_hal_spi.c ****             (#) TX/RX processes are HAL_SPI_TransmitReceive(), HAL_SPI_TransmitReceive_IT() and HAL
 194:Drivers/STM32G4xx_HAL_Driver/Src/stm32g4xx_hal_spi.c ****             (#) RX processes are HAL_SPI_Receive(), HAL_SPI_Receive_IT() and HAL_SPI_Receive_DMA()
 195:Drivers/STM32G4xx_HAL_Driver/Src/stm32g4xx_hal_spi.c ****             (#) TX processes are HAL_SPI_Transmit(), HAL_SPI_Transmit_IT() and HAL_SPI_Transmit_DMA
 196:Drivers/STM32G4xx_HAL_Driver/Src/stm32g4xx_hal_spi.c **** 
 197:Drivers/STM32G4xx_HAL_Driver/Src/stm32g4xx_hal_spi.c ****   */
 198:Drivers/STM32G4xx_HAL_Driver/Src/stm32g4xx_hal_spi.c **** 
 199:Drivers/STM32G4xx_HAL_Driver/Src/stm32g4xx_hal_spi.c **** /* Includes ------------------------------------------------------------------*/
 200:Drivers/STM32G4xx_HAL_Driver/Src/stm32g4xx_hal_spi.c **** #include "stm32g4xx_hal.h"
 201:Drivers/STM32G4xx_HAL_Driver/Src/stm32g4xx_hal_spi.c **** 
ARM GAS  C:\Users\AURORA~1\AppData\Local\Temp\ccDX0hEW.s 			page 5


 202:Drivers/STM32G4xx_HAL_Driver/Src/stm32g4xx_hal_spi.c **** /** @addtogroup STM32G4xx_HAL_Driver
 203:Drivers/STM32G4xx_HAL_Driver/Src/stm32g4xx_hal_spi.c ****   * @{
 204:Drivers/STM32G4xx_HAL_Driver/Src/stm32g4xx_hal_spi.c ****   */
 205:Drivers/STM32G4xx_HAL_Driver/Src/stm32g4xx_hal_spi.c **** 
 206:Drivers/STM32G4xx_HAL_Driver/Src/stm32g4xx_hal_spi.c **** /** @defgroup SPI SPI
 207:Drivers/STM32G4xx_HAL_Driver/Src/stm32g4xx_hal_spi.c ****   * @brief SPI HAL module driver
 208:Drivers/STM32G4xx_HAL_Driver/Src/stm32g4xx_hal_spi.c ****   * @{
 209:Drivers/STM32G4xx_HAL_Driver/Src/stm32g4xx_hal_spi.c ****   */
 210:Drivers/STM32G4xx_HAL_Driver/Src/stm32g4xx_hal_spi.c **** #ifdef HAL_SPI_MODULE_ENABLED
 211:Drivers/STM32G4xx_HAL_Driver/Src/stm32g4xx_hal_spi.c **** 
 212:Drivers/STM32G4xx_HAL_Driver/Src/stm32g4xx_hal_spi.c **** /* Private typedef -----------------------------------------------------------*/
 213:Drivers/STM32G4xx_HAL_Driver/Src/stm32g4xx_hal_spi.c **** /* Private defines -----------------------------------------------------------*/
 214:Drivers/STM32G4xx_HAL_Driver/Src/stm32g4xx_hal_spi.c **** /** @defgroup SPI_Private_Constants SPI Private Constants
 215:Drivers/STM32G4xx_HAL_Driver/Src/stm32g4xx_hal_spi.c ****   * @{
 216:Drivers/STM32G4xx_HAL_Driver/Src/stm32g4xx_hal_spi.c ****   */
 217:Drivers/STM32G4xx_HAL_Driver/Src/stm32g4xx_hal_spi.c **** #define SPI_DEFAULT_TIMEOUT 100U
 218:Drivers/STM32G4xx_HAL_Driver/Src/stm32g4xx_hal_spi.c **** /**
 219:Drivers/STM32G4xx_HAL_Driver/Src/stm32g4xx_hal_spi.c ****   * @}
 220:Drivers/STM32G4xx_HAL_Driver/Src/stm32g4xx_hal_spi.c ****   */
 221:Drivers/STM32G4xx_HAL_Driver/Src/stm32g4xx_hal_spi.c **** 
 222:Drivers/STM32G4xx_HAL_Driver/Src/stm32g4xx_hal_spi.c **** /* Private macros ------------------------------------------------------------*/
 223:Drivers/STM32G4xx_HAL_Driver/Src/stm32g4xx_hal_spi.c **** /* Private variables ---------------------------------------------------------*/
 224:Drivers/STM32G4xx_HAL_Driver/Src/stm32g4xx_hal_spi.c **** /* Private function prototypes -----------------------------------------------*/
 225:Drivers/STM32G4xx_HAL_Driver/Src/stm32g4xx_hal_spi.c **** /** @defgroup SPI_Private_Functions SPI Private Functions
 226:Drivers/STM32G4xx_HAL_Driver/Src/stm32g4xx_hal_spi.c ****   * @{
 227:Drivers/STM32G4xx_HAL_Driver/Src/stm32g4xx_hal_spi.c ****   */
 228:Drivers/STM32G4xx_HAL_Driver/Src/stm32g4xx_hal_spi.c **** static void SPI_DMATransmitCplt(DMA_HandleTypeDef *hdma);
 229:Drivers/STM32G4xx_HAL_Driver/Src/stm32g4xx_hal_spi.c **** static void SPI_DMAReceiveCplt(DMA_HandleTypeDef *hdma);
 230:Drivers/STM32G4xx_HAL_Driver/Src/stm32g4xx_hal_spi.c **** static void SPI_DMATransmitReceiveCplt(DMA_HandleTypeDef *hdma);
 231:Drivers/STM32G4xx_HAL_Driver/Src/stm32g4xx_hal_spi.c **** static void SPI_DMAHalfTransmitCplt(DMA_HandleTypeDef *hdma);
 232:Drivers/STM32G4xx_HAL_Driver/Src/stm32g4xx_hal_spi.c **** static void SPI_DMAHalfReceiveCplt(DMA_HandleTypeDef *hdma);
 233:Drivers/STM32G4xx_HAL_Driver/Src/stm32g4xx_hal_spi.c **** static void SPI_DMAHalfTransmitReceiveCplt(DMA_HandleTypeDef *hdma);
 234:Drivers/STM32G4xx_HAL_Driver/Src/stm32g4xx_hal_spi.c **** static void SPI_DMAError(DMA_HandleTypeDef *hdma);
 235:Drivers/STM32G4xx_HAL_Driver/Src/stm32g4xx_hal_spi.c **** static void SPI_DMAAbortOnError(DMA_HandleTypeDef *hdma);
 236:Drivers/STM32G4xx_HAL_Driver/Src/stm32g4xx_hal_spi.c **** static void SPI_DMATxAbortCallback(DMA_HandleTypeDef *hdma);
 237:Drivers/STM32G4xx_HAL_Driver/Src/stm32g4xx_hal_spi.c **** static void SPI_DMARxAbortCallback(DMA_HandleTypeDef *hdma);
 238:Drivers/STM32G4xx_HAL_Driver/Src/stm32g4xx_hal_spi.c **** static HAL_StatusTypeDef SPI_WaitFlagStateUntilTimeout(SPI_HandleTypeDef *hspi, uint32_t Flag, Flag
 239:Drivers/STM32G4xx_HAL_Driver/Src/stm32g4xx_hal_spi.c ****                                                        uint32_t Timeout, uint32_t Tickstart);
 240:Drivers/STM32G4xx_HAL_Driver/Src/stm32g4xx_hal_spi.c **** static HAL_StatusTypeDef SPI_WaitFifoStateUntilTimeout(SPI_HandleTypeDef *hspi, uint32_t Fifo, uint
 241:Drivers/STM32G4xx_HAL_Driver/Src/stm32g4xx_hal_spi.c ****                                                        uint32_t Timeout, uint32_t Tickstart);
 242:Drivers/STM32G4xx_HAL_Driver/Src/stm32g4xx_hal_spi.c **** static void SPI_TxISR_8BIT(struct __SPI_HandleTypeDef *hspi);
 243:Drivers/STM32G4xx_HAL_Driver/Src/stm32g4xx_hal_spi.c **** static void SPI_TxISR_16BIT(struct __SPI_HandleTypeDef *hspi);
 244:Drivers/STM32G4xx_HAL_Driver/Src/stm32g4xx_hal_spi.c **** static void SPI_RxISR_8BIT(struct __SPI_HandleTypeDef *hspi);
 245:Drivers/STM32G4xx_HAL_Driver/Src/stm32g4xx_hal_spi.c **** static void SPI_RxISR_16BIT(struct __SPI_HandleTypeDef *hspi);
 246:Drivers/STM32G4xx_HAL_Driver/Src/stm32g4xx_hal_spi.c **** static void SPI_2linesRxISR_8BIT(struct __SPI_HandleTypeDef *hspi);
 247:Drivers/STM32G4xx_HAL_Driver/Src/stm32g4xx_hal_spi.c **** static void SPI_2linesTxISR_8BIT(struct __SPI_HandleTypeDef *hspi);
 248:Drivers/STM32G4xx_HAL_Driver/Src/stm32g4xx_hal_spi.c **** static void SPI_2linesTxISR_16BIT(struct __SPI_HandleTypeDef *hspi);
 249:Drivers/STM32G4xx_HAL_Driver/Src/stm32g4xx_hal_spi.c **** static void SPI_2linesRxISR_16BIT(struct __SPI_HandleTypeDef *hspi);
 250:Drivers/STM32G4xx_HAL_Driver/Src/stm32g4xx_hal_spi.c **** #if (USE_SPI_CRC != 0U)
 251:Drivers/STM32G4xx_HAL_Driver/Src/stm32g4xx_hal_spi.c **** static void SPI_RxISR_8BITCRC(struct __SPI_HandleTypeDef *hspi);
 252:Drivers/STM32G4xx_HAL_Driver/Src/stm32g4xx_hal_spi.c **** static void SPI_RxISR_16BITCRC(struct __SPI_HandleTypeDef *hspi);
 253:Drivers/STM32G4xx_HAL_Driver/Src/stm32g4xx_hal_spi.c **** static void SPI_2linesRxISR_8BITCRC(struct __SPI_HandleTypeDef *hspi);
 254:Drivers/STM32G4xx_HAL_Driver/Src/stm32g4xx_hal_spi.c **** static void SPI_2linesRxISR_16BITCRC(struct __SPI_HandleTypeDef *hspi);
 255:Drivers/STM32G4xx_HAL_Driver/Src/stm32g4xx_hal_spi.c **** #endif /* USE_SPI_CRC */
 256:Drivers/STM32G4xx_HAL_Driver/Src/stm32g4xx_hal_spi.c **** static void SPI_AbortRx_ISR(SPI_HandleTypeDef *hspi);
 257:Drivers/STM32G4xx_HAL_Driver/Src/stm32g4xx_hal_spi.c **** static void SPI_AbortTx_ISR(SPI_HandleTypeDef *hspi);
 258:Drivers/STM32G4xx_HAL_Driver/Src/stm32g4xx_hal_spi.c **** static void SPI_CloseRxTx_ISR(SPI_HandleTypeDef *hspi);
ARM GAS  C:\Users\AURORA~1\AppData\Local\Temp\ccDX0hEW.s 			page 6


 259:Drivers/STM32G4xx_HAL_Driver/Src/stm32g4xx_hal_spi.c **** static void SPI_CloseRx_ISR(SPI_HandleTypeDef *hspi);
 260:Drivers/STM32G4xx_HAL_Driver/Src/stm32g4xx_hal_spi.c **** static void SPI_CloseTx_ISR(SPI_HandleTypeDef *hspi);
 261:Drivers/STM32G4xx_HAL_Driver/Src/stm32g4xx_hal_spi.c **** static HAL_StatusTypeDef SPI_EndRxTransaction(SPI_HandleTypeDef *hspi, uint32_t Timeout, uint32_t T
 262:Drivers/STM32G4xx_HAL_Driver/Src/stm32g4xx_hal_spi.c **** static HAL_StatusTypeDef SPI_EndRxTxTransaction(SPI_HandleTypeDef *hspi, uint32_t Timeout, uint32_t
 263:Drivers/STM32G4xx_HAL_Driver/Src/stm32g4xx_hal_spi.c **** /**
 264:Drivers/STM32G4xx_HAL_Driver/Src/stm32g4xx_hal_spi.c ****   * @}
 265:Drivers/STM32G4xx_HAL_Driver/Src/stm32g4xx_hal_spi.c ****   */
 266:Drivers/STM32G4xx_HAL_Driver/Src/stm32g4xx_hal_spi.c **** 
 267:Drivers/STM32G4xx_HAL_Driver/Src/stm32g4xx_hal_spi.c **** /* Exported functions --------------------------------------------------------*/
 268:Drivers/STM32G4xx_HAL_Driver/Src/stm32g4xx_hal_spi.c **** /** @defgroup SPI_Exported_Functions SPI Exported Functions
 269:Drivers/STM32G4xx_HAL_Driver/Src/stm32g4xx_hal_spi.c ****   * @{
 270:Drivers/STM32G4xx_HAL_Driver/Src/stm32g4xx_hal_spi.c ****   */
 271:Drivers/STM32G4xx_HAL_Driver/Src/stm32g4xx_hal_spi.c **** 
 272:Drivers/STM32G4xx_HAL_Driver/Src/stm32g4xx_hal_spi.c **** /** @defgroup SPI_Exported_Functions_Group1 Initialization and de-initialization functions
 273:Drivers/STM32G4xx_HAL_Driver/Src/stm32g4xx_hal_spi.c ****   *  @brief    Initialization and Configuration functions
 274:Drivers/STM32G4xx_HAL_Driver/Src/stm32g4xx_hal_spi.c ****   *
 275:Drivers/STM32G4xx_HAL_Driver/Src/stm32g4xx_hal_spi.c **** @verbatim
 276:Drivers/STM32G4xx_HAL_Driver/Src/stm32g4xx_hal_spi.c ****  ===============================================================================
 277:Drivers/STM32G4xx_HAL_Driver/Src/stm32g4xx_hal_spi.c ****               ##### Initialization and de-initialization functions #####
 278:Drivers/STM32G4xx_HAL_Driver/Src/stm32g4xx_hal_spi.c ****  ===============================================================================
 279:Drivers/STM32G4xx_HAL_Driver/Src/stm32g4xx_hal_spi.c ****     [..]  This subsection provides a set of functions allowing to initialize and
 280:Drivers/STM32G4xx_HAL_Driver/Src/stm32g4xx_hal_spi.c ****           de-initialize the SPIx peripheral:
 281:Drivers/STM32G4xx_HAL_Driver/Src/stm32g4xx_hal_spi.c **** 
 282:Drivers/STM32G4xx_HAL_Driver/Src/stm32g4xx_hal_spi.c ****       (+) User must implement HAL_SPI_MspInit() function in which he configures
 283:Drivers/STM32G4xx_HAL_Driver/Src/stm32g4xx_hal_spi.c ****           all related peripherals resources (CLOCK, GPIO, DMA, IT and NVIC ).
 284:Drivers/STM32G4xx_HAL_Driver/Src/stm32g4xx_hal_spi.c **** 
 285:Drivers/STM32G4xx_HAL_Driver/Src/stm32g4xx_hal_spi.c ****       (+) Call the function HAL_SPI_Init() to configure the selected device with
 286:Drivers/STM32G4xx_HAL_Driver/Src/stm32g4xx_hal_spi.c ****           the selected configuration:
 287:Drivers/STM32G4xx_HAL_Driver/Src/stm32g4xx_hal_spi.c ****         (++) Mode
 288:Drivers/STM32G4xx_HAL_Driver/Src/stm32g4xx_hal_spi.c ****         (++) Direction
 289:Drivers/STM32G4xx_HAL_Driver/Src/stm32g4xx_hal_spi.c ****         (++) Data Size
 290:Drivers/STM32G4xx_HAL_Driver/Src/stm32g4xx_hal_spi.c ****         (++) Clock Polarity and Phase
 291:Drivers/STM32G4xx_HAL_Driver/Src/stm32g4xx_hal_spi.c ****         (++) NSS Management
 292:Drivers/STM32G4xx_HAL_Driver/Src/stm32g4xx_hal_spi.c ****         (++) BaudRate Prescaler
 293:Drivers/STM32G4xx_HAL_Driver/Src/stm32g4xx_hal_spi.c ****         (++) FirstBit
 294:Drivers/STM32G4xx_HAL_Driver/Src/stm32g4xx_hal_spi.c ****         (++) TIMode
 295:Drivers/STM32G4xx_HAL_Driver/Src/stm32g4xx_hal_spi.c ****         (++) CRC Calculation
 296:Drivers/STM32G4xx_HAL_Driver/Src/stm32g4xx_hal_spi.c ****         (++) CRC Polynomial if CRC enabled
 297:Drivers/STM32G4xx_HAL_Driver/Src/stm32g4xx_hal_spi.c ****         (++) CRC Length, used only with Data8 and Data16
 298:Drivers/STM32G4xx_HAL_Driver/Src/stm32g4xx_hal_spi.c ****         (++) FIFO reception threshold
 299:Drivers/STM32G4xx_HAL_Driver/Src/stm32g4xx_hal_spi.c **** 
 300:Drivers/STM32G4xx_HAL_Driver/Src/stm32g4xx_hal_spi.c ****       (+) Call the function HAL_SPI_DeInit() to restore the default configuration
 301:Drivers/STM32G4xx_HAL_Driver/Src/stm32g4xx_hal_spi.c ****           of the selected SPIx peripheral.
 302:Drivers/STM32G4xx_HAL_Driver/Src/stm32g4xx_hal_spi.c **** 
 303:Drivers/STM32G4xx_HAL_Driver/Src/stm32g4xx_hal_spi.c **** @endverbatim
 304:Drivers/STM32G4xx_HAL_Driver/Src/stm32g4xx_hal_spi.c ****   * @{
 305:Drivers/STM32G4xx_HAL_Driver/Src/stm32g4xx_hal_spi.c ****   */
 306:Drivers/STM32G4xx_HAL_Driver/Src/stm32g4xx_hal_spi.c **** 
 307:Drivers/STM32G4xx_HAL_Driver/Src/stm32g4xx_hal_spi.c **** /**
 308:Drivers/STM32G4xx_HAL_Driver/Src/stm32g4xx_hal_spi.c ****   * @brief  Initialize the SPI according to the specified parameters
 309:Drivers/STM32G4xx_HAL_Driver/Src/stm32g4xx_hal_spi.c ****   *         in the SPI_InitTypeDef and initialize the associated handle.
 310:Drivers/STM32G4xx_HAL_Driver/Src/stm32g4xx_hal_spi.c ****   * @param  hspi pointer to a SPI_HandleTypeDef structure that contains
 311:Drivers/STM32G4xx_HAL_Driver/Src/stm32g4xx_hal_spi.c ****   *               the configuration information for SPI module.
 312:Drivers/STM32G4xx_HAL_Driver/Src/stm32g4xx_hal_spi.c ****   * @retval HAL status
 313:Drivers/STM32G4xx_HAL_Driver/Src/stm32g4xx_hal_spi.c ****   */
 314:Drivers/STM32G4xx_HAL_Driver/Src/stm32g4xx_hal_spi.c **** HAL_StatusTypeDef HAL_SPI_Init(SPI_HandleTypeDef *hspi)
 315:Drivers/STM32G4xx_HAL_Driver/Src/stm32g4xx_hal_spi.c **** {
ARM GAS  C:\Users\AURORA~1\AppData\Local\Temp\ccDX0hEW.s 			page 7


  29              		.loc 1 315 1
  30              		.cfi_startproc
  31              		@ args = 0, pretend = 0, frame = 16
  32              		@ frame_needed = 1, uses_anonymous_args = 0
  33 0000 80B5     		push	{r7, lr}
  34              	.LCFI0:
  35              		.cfi_def_cfa_offset 8
  36              		.cfi_offset 7, -8
  37              		.cfi_offset 14, -4
  38 0002 84B0     		sub	sp, sp, #16
  39              	.LCFI1:
  40              		.cfi_def_cfa_offset 24
  41 0004 00AF     		add	r7, sp, #0
  42              	.LCFI2:
  43              		.cfi_def_cfa_register 7
  44 0006 7860     		str	r0, [r7, #4]
 316:Drivers/STM32G4xx_HAL_Driver/Src/stm32g4xx_hal_spi.c ****   uint32_t frxth;
 317:Drivers/STM32G4xx_HAL_Driver/Src/stm32g4xx_hal_spi.c **** 
 318:Drivers/STM32G4xx_HAL_Driver/Src/stm32g4xx_hal_spi.c ****   /* Check the SPI handle allocation */
 319:Drivers/STM32G4xx_HAL_Driver/Src/stm32g4xx_hal_spi.c ****   if (hspi == NULL)
  45              		.loc 1 319 6
  46 0008 7B68     		ldr	r3, [r7, #4]
  47 000a 002B     		cmp	r3, #0
  48 000c 01D1     		bne	.L2
 320:Drivers/STM32G4xx_HAL_Driver/Src/stm32g4xx_hal_spi.c ****   {
 321:Drivers/STM32G4xx_HAL_Driver/Src/stm32g4xx_hal_spi.c ****     return HAL_ERROR;
  49              		.loc 1 321 12
  50 000e 0123     		movs	r3, #1
  51 0010 9DE0     		b	.L3
  52              	.L2:
 322:Drivers/STM32G4xx_HAL_Driver/Src/stm32g4xx_hal_spi.c ****   }
 323:Drivers/STM32G4xx_HAL_Driver/Src/stm32g4xx_hal_spi.c **** 
 324:Drivers/STM32G4xx_HAL_Driver/Src/stm32g4xx_hal_spi.c ****   /* Check the parameters */
 325:Drivers/STM32G4xx_HAL_Driver/Src/stm32g4xx_hal_spi.c ****   assert_param(IS_SPI_ALL_INSTANCE(hspi->Instance));
 326:Drivers/STM32G4xx_HAL_Driver/Src/stm32g4xx_hal_spi.c ****   assert_param(IS_SPI_MODE(hspi->Init.Mode));
 327:Drivers/STM32G4xx_HAL_Driver/Src/stm32g4xx_hal_spi.c ****   assert_param(IS_SPI_DIRECTION(hspi->Init.Direction));
 328:Drivers/STM32G4xx_HAL_Driver/Src/stm32g4xx_hal_spi.c ****   assert_param(IS_SPI_DATASIZE(hspi->Init.DataSize));
 329:Drivers/STM32G4xx_HAL_Driver/Src/stm32g4xx_hal_spi.c ****   assert_param(IS_SPI_NSS(hspi->Init.NSS));
 330:Drivers/STM32G4xx_HAL_Driver/Src/stm32g4xx_hal_spi.c ****   assert_param(IS_SPI_NSSP(hspi->Init.NSSPMode));
 331:Drivers/STM32G4xx_HAL_Driver/Src/stm32g4xx_hal_spi.c ****   assert_param(IS_SPI_BAUDRATE_PRESCALER(hspi->Init.BaudRatePrescaler));
 332:Drivers/STM32G4xx_HAL_Driver/Src/stm32g4xx_hal_spi.c ****   assert_param(IS_SPI_FIRST_BIT(hspi->Init.FirstBit));
 333:Drivers/STM32G4xx_HAL_Driver/Src/stm32g4xx_hal_spi.c ****   assert_param(IS_SPI_TIMODE(hspi->Init.TIMode));
 334:Drivers/STM32G4xx_HAL_Driver/Src/stm32g4xx_hal_spi.c ****   if (hspi->Init.TIMode == SPI_TIMODE_DISABLE)
  53              		.loc 1 334 17
  54 0012 7B68     		ldr	r3, [r7, #4]
  55 0014 5B6A     		ldr	r3, [r3, #36]
  56              		.loc 1 334 6
  57 0016 002B     		cmp	r3, #0
  58 0018 08D1     		bne	.L4
 335:Drivers/STM32G4xx_HAL_Driver/Src/stm32g4xx_hal_spi.c ****   {
 336:Drivers/STM32G4xx_HAL_Driver/Src/stm32g4xx_hal_spi.c ****     assert_param(IS_SPI_CPOL(hspi->Init.CLKPolarity));
 337:Drivers/STM32G4xx_HAL_Driver/Src/stm32g4xx_hal_spi.c ****     assert_param(IS_SPI_CPHA(hspi->Init.CLKPhase));
 338:Drivers/STM32G4xx_HAL_Driver/Src/stm32g4xx_hal_spi.c **** 
 339:Drivers/STM32G4xx_HAL_Driver/Src/stm32g4xx_hal_spi.c ****     if (hspi->Init.Mode == SPI_MODE_MASTER)
  59              		.loc 1 339 19
  60 001a 7B68     		ldr	r3, [r7, #4]
  61 001c 5B68     		ldr	r3, [r3, #4]
ARM GAS  C:\Users\AURORA~1\AppData\Local\Temp\ccDX0hEW.s 			page 8


  62              		.loc 1 339 8
  63 001e B3F5827F 		cmp	r3, #260
  64 0022 09D0     		beq	.L5
 340:Drivers/STM32G4xx_HAL_Driver/Src/stm32g4xx_hal_spi.c ****     {
 341:Drivers/STM32G4xx_HAL_Driver/Src/stm32g4xx_hal_spi.c ****       assert_param(IS_SPI_BAUDRATE_PRESCALER(hspi->Init.BaudRatePrescaler));
 342:Drivers/STM32G4xx_HAL_Driver/Src/stm32g4xx_hal_spi.c ****     }
 343:Drivers/STM32G4xx_HAL_Driver/Src/stm32g4xx_hal_spi.c ****     else
 344:Drivers/STM32G4xx_HAL_Driver/Src/stm32g4xx_hal_spi.c ****     {
 345:Drivers/STM32G4xx_HAL_Driver/Src/stm32g4xx_hal_spi.c ****       /* Baudrate prescaler not use in Motoraola Slave mode. force to default value */
 346:Drivers/STM32G4xx_HAL_Driver/Src/stm32g4xx_hal_spi.c ****       hspi->Init.BaudRatePrescaler = SPI_BAUDRATEPRESCALER_2;
  65              		.loc 1 346 36
  66 0024 7B68     		ldr	r3, [r7, #4]
  67 0026 0022     		movs	r2, #0
  68 0028 DA61     		str	r2, [r3, #28]
  69 002a 05E0     		b	.L5
  70              	.L4:
 347:Drivers/STM32G4xx_HAL_Driver/Src/stm32g4xx_hal_spi.c ****     }
 348:Drivers/STM32G4xx_HAL_Driver/Src/stm32g4xx_hal_spi.c ****   }
 349:Drivers/STM32G4xx_HAL_Driver/Src/stm32g4xx_hal_spi.c ****   else
 350:Drivers/STM32G4xx_HAL_Driver/Src/stm32g4xx_hal_spi.c ****   {
 351:Drivers/STM32G4xx_HAL_Driver/Src/stm32g4xx_hal_spi.c ****     assert_param(IS_SPI_BAUDRATE_PRESCALER(hspi->Init.BaudRatePrescaler));
 352:Drivers/STM32G4xx_HAL_Driver/Src/stm32g4xx_hal_spi.c **** 
 353:Drivers/STM32G4xx_HAL_Driver/Src/stm32g4xx_hal_spi.c ****     /* Force polarity and phase to TI protocaol requirements */
 354:Drivers/STM32G4xx_HAL_Driver/Src/stm32g4xx_hal_spi.c ****     hspi->Init.CLKPolarity = SPI_POLARITY_LOW;
  71              		.loc 1 354 28
  72 002c 7B68     		ldr	r3, [r7, #4]
  73 002e 0022     		movs	r2, #0
  74 0030 1A61     		str	r2, [r3, #16]
 355:Drivers/STM32G4xx_HAL_Driver/Src/stm32g4xx_hal_spi.c ****     hspi->Init.CLKPhase    = SPI_PHASE_1EDGE;
  75              		.loc 1 355 28
  76 0032 7B68     		ldr	r3, [r7, #4]
  77 0034 0022     		movs	r2, #0
  78 0036 5A61     		str	r2, [r3, #20]
  79              	.L5:
 356:Drivers/STM32G4xx_HAL_Driver/Src/stm32g4xx_hal_spi.c ****   }
 357:Drivers/STM32G4xx_HAL_Driver/Src/stm32g4xx_hal_spi.c **** #if (USE_SPI_CRC != 0U)
 358:Drivers/STM32G4xx_HAL_Driver/Src/stm32g4xx_hal_spi.c ****   assert_param(IS_SPI_CRC_CALCULATION(hspi->Init.CRCCalculation));
 359:Drivers/STM32G4xx_HAL_Driver/Src/stm32g4xx_hal_spi.c ****   if (hspi->Init.CRCCalculation == SPI_CRCCALCULATION_ENABLE)
 360:Drivers/STM32G4xx_HAL_Driver/Src/stm32g4xx_hal_spi.c ****   {
 361:Drivers/STM32G4xx_HAL_Driver/Src/stm32g4xx_hal_spi.c ****     assert_param(IS_SPI_CRC_POLYNOMIAL(hspi->Init.CRCPolynomial));
 362:Drivers/STM32G4xx_HAL_Driver/Src/stm32g4xx_hal_spi.c ****     assert_param(IS_SPI_CRC_LENGTH(hspi->Init.CRCLength));
 363:Drivers/STM32G4xx_HAL_Driver/Src/stm32g4xx_hal_spi.c ****   }
 364:Drivers/STM32G4xx_HAL_Driver/Src/stm32g4xx_hal_spi.c **** #else
 365:Drivers/STM32G4xx_HAL_Driver/Src/stm32g4xx_hal_spi.c ****   hspi->Init.CRCCalculation = SPI_CRCCALCULATION_DISABLE;
  80              		.loc 1 365 29
  81 0038 7B68     		ldr	r3, [r7, #4]
  82 003a 0022     		movs	r2, #0
  83 003c 9A62     		str	r2, [r3, #40]
 366:Drivers/STM32G4xx_HAL_Driver/Src/stm32g4xx_hal_spi.c **** #endif /* USE_SPI_CRC */
 367:Drivers/STM32G4xx_HAL_Driver/Src/stm32g4xx_hal_spi.c **** 
 368:Drivers/STM32G4xx_HAL_Driver/Src/stm32g4xx_hal_spi.c ****   if (hspi->State == HAL_SPI_STATE_RESET)
  84              		.loc 1 368 11
  85 003e 7B68     		ldr	r3, [r7, #4]
  86 0040 93F85D30 		ldrb	r3, [r3, #93]
  87 0044 DBB2     		uxtb	r3, r3
  88              		.loc 1 368 6
  89 0046 002B     		cmp	r3, #0
ARM GAS  C:\Users\AURORA~1\AppData\Local\Temp\ccDX0hEW.s 			page 9


  90 0048 06D1     		bne	.L6
 369:Drivers/STM32G4xx_HAL_Driver/Src/stm32g4xx_hal_spi.c ****   {
 370:Drivers/STM32G4xx_HAL_Driver/Src/stm32g4xx_hal_spi.c ****     /* Allocate lock resource and initialize it */
 371:Drivers/STM32G4xx_HAL_Driver/Src/stm32g4xx_hal_spi.c ****     hspi->Lock = HAL_UNLOCKED;
  91              		.loc 1 371 16
  92 004a 7B68     		ldr	r3, [r7, #4]
  93 004c 0022     		movs	r2, #0
  94 004e 83F85C20 		strb	r2, [r3, #92]
 372:Drivers/STM32G4xx_HAL_Driver/Src/stm32g4xx_hal_spi.c **** 
 373:Drivers/STM32G4xx_HAL_Driver/Src/stm32g4xx_hal_spi.c **** #if (USE_HAL_SPI_REGISTER_CALLBACKS == 1U)
 374:Drivers/STM32G4xx_HAL_Driver/Src/stm32g4xx_hal_spi.c ****     /* Init the SPI Callback settings */
 375:Drivers/STM32G4xx_HAL_Driver/Src/stm32g4xx_hal_spi.c ****     hspi->TxCpltCallback       = HAL_SPI_TxCpltCallback;       /* Legacy weak TxCpltCallback       
 376:Drivers/STM32G4xx_HAL_Driver/Src/stm32g4xx_hal_spi.c ****     hspi->RxCpltCallback       = HAL_SPI_RxCpltCallback;       /* Legacy weak RxCpltCallback       
 377:Drivers/STM32G4xx_HAL_Driver/Src/stm32g4xx_hal_spi.c ****     hspi->TxRxCpltCallback     = HAL_SPI_TxRxCpltCallback;     /* Legacy weak TxRxCpltCallback     
 378:Drivers/STM32G4xx_HAL_Driver/Src/stm32g4xx_hal_spi.c ****     hspi->TxHalfCpltCallback   = HAL_SPI_TxHalfCpltCallback;   /* Legacy weak TxHalfCpltCallback   
 379:Drivers/STM32G4xx_HAL_Driver/Src/stm32g4xx_hal_spi.c ****     hspi->RxHalfCpltCallback   = HAL_SPI_RxHalfCpltCallback;   /* Legacy weak RxHalfCpltCallback   
 380:Drivers/STM32G4xx_HAL_Driver/Src/stm32g4xx_hal_spi.c ****     hspi->TxRxHalfCpltCallback = HAL_SPI_TxRxHalfCpltCallback; /* Legacy weak TxRxHalfCpltCallback 
 381:Drivers/STM32G4xx_HAL_Driver/Src/stm32g4xx_hal_spi.c ****     hspi->ErrorCallback        = HAL_SPI_ErrorCallback;        /* Legacy weak ErrorCallback        
 382:Drivers/STM32G4xx_HAL_Driver/Src/stm32g4xx_hal_spi.c ****     hspi->AbortCpltCallback    = HAL_SPI_AbortCpltCallback;    /* Legacy weak AbortCpltCallback    
 383:Drivers/STM32G4xx_HAL_Driver/Src/stm32g4xx_hal_spi.c **** 
 384:Drivers/STM32G4xx_HAL_Driver/Src/stm32g4xx_hal_spi.c ****     if (hspi->MspInitCallback == NULL)
 385:Drivers/STM32G4xx_HAL_Driver/Src/stm32g4xx_hal_spi.c ****     {
 386:Drivers/STM32G4xx_HAL_Driver/Src/stm32g4xx_hal_spi.c ****       hspi->MspInitCallback = HAL_SPI_MspInit; /* Legacy weak MspInit  */
 387:Drivers/STM32G4xx_HAL_Driver/Src/stm32g4xx_hal_spi.c ****     }
 388:Drivers/STM32G4xx_HAL_Driver/Src/stm32g4xx_hal_spi.c **** 
 389:Drivers/STM32G4xx_HAL_Driver/Src/stm32g4xx_hal_spi.c ****     /* Init the low level hardware : GPIO, CLOCK, NVIC... */
 390:Drivers/STM32G4xx_HAL_Driver/Src/stm32g4xx_hal_spi.c ****     hspi->MspInitCallback(hspi);
 391:Drivers/STM32G4xx_HAL_Driver/Src/stm32g4xx_hal_spi.c **** #else
 392:Drivers/STM32G4xx_HAL_Driver/Src/stm32g4xx_hal_spi.c ****     /* Init the low level hardware : GPIO, CLOCK, NVIC... */
 393:Drivers/STM32G4xx_HAL_Driver/Src/stm32g4xx_hal_spi.c ****     HAL_SPI_MspInit(hspi);
  95              		.loc 1 393 5
  96 0052 7868     		ldr	r0, [r7, #4]
  97 0054 FFF7FEFF 		bl	HAL_SPI_MspInit
  98              	.L6:
 394:Drivers/STM32G4xx_HAL_Driver/Src/stm32g4xx_hal_spi.c **** #endif /* USE_HAL_SPI_REGISTER_CALLBACKS */
 395:Drivers/STM32G4xx_HAL_Driver/Src/stm32g4xx_hal_spi.c ****   }
 396:Drivers/STM32G4xx_HAL_Driver/Src/stm32g4xx_hal_spi.c **** 
 397:Drivers/STM32G4xx_HAL_Driver/Src/stm32g4xx_hal_spi.c ****   hspi->State = HAL_SPI_STATE_BUSY;
  99              		.loc 1 397 15
 100 0058 7B68     		ldr	r3, [r7, #4]
 101 005a 0222     		movs	r2, #2
 102 005c 83F85D20 		strb	r2, [r3, #93]
 398:Drivers/STM32G4xx_HAL_Driver/Src/stm32g4xx_hal_spi.c **** 
 399:Drivers/STM32G4xx_HAL_Driver/Src/stm32g4xx_hal_spi.c ****   /* Disable the selected SPI peripheral */
 400:Drivers/STM32G4xx_HAL_Driver/Src/stm32g4xx_hal_spi.c ****   __HAL_SPI_DISABLE(hspi);
 103              		.loc 1 400 3
 104 0060 7B68     		ldr	r3, [r7, #4]
 105 0062 1B68     		ldr	r3, [r3]
 106 0064 1A68     		ldr	r2, [r3]
 107 0066 7B68     		ldr	r3, [r7, #4]
 108 0068 1B68     		ldr	r3, [r3]
 109 006a 22F04002 		bic	r2, r2, #64
 110 006e 1A60     		str	r2, [r3]
 401:Drivers/STM32G4xx_HAL_Driver/Src/stm32g4xx_hal_spi.c **** 
 402:Drivers/STM32G4xx_HAL_Driver/Src/stm32g4xx_hal_spi.c ****   /* Align by default the rs fifo threshold on the data size */
 403:Drivers/STM32G4xx_HAL_Driver/Src/stm32g4xx_hal_spi.c ****   if (hspi->Init.DataSize > SPI_DATASIZE_8BIT)
 111              		.loc 1 403 17
ARM GAS  C:\Users\AURORA~1\AppData\Local\Temp\ccDX0hEW.s 			page 10


 112 0070 7B68     		ldr	r3, [r7, #4]
 113 0072 DB68     		ldr	r3, [r3, #12]
 114              		.loc 1 403 6
 115 0074 B3F5E06F 		cmp	r3, #1792
 116 0078 02D9     		bls	.L7
 404:Drivers/STM32G4xx_HAL_Driver/Src/stm32g4xx_hal_spi.c ****   {
 405:Drivers/STM32G4xx_HAL_Driver/Src/stm32g4xx_hal_spi.c ****     frxth = SPI_RXFIFO_THRESHOLD_HF;
 117              		.loc 1 405 11
 118 007a 0023     		movs	r3, #0
 119 007c FB60     		str	r3, [r7, #12]
 120 007e 02E0     		b	.L8
 121              	.L7:
 406:Drivers/STM32G4xx_HAL_Driver/Src/stm32g4xx_hal_spi.c ****   }
 407:Drivers/STM32G4xx_HAL_Driver/Src/stm32g4xx_hal_spi.c ****   else
 408:Drivers/STM32G4xx_HAL_Driver/Src/stm32g4xx_hal_spi.c ****   {
 409:Drivers/STM32G4xx_HAL_Driver/Src/stm32g4xx_hal_spi.c ****     frxth = SPI_RXFIFO_THRESHOLD_QF;
 122              		.loc 1 409 11
 123 0080 4FF48053 		mov	r3, #4096
 124 0084 FB60     		str	r3, [r7, #12]
 125              	.L8:
 410:Drivers/STM32G4xx_HAL_Driver/Src/stm32g4xx_hal_spi.c ****   }
 411:Drivers/STM32G4xx_HAL_Driver/Src/stm32g4xx_hal_spi.c **** 
 412:Drivers/STM32G4xx_HAL_Driver/Src/stm32g4xx_hal_spi.c ****   /* CRC calculation is valid only for 16Bit and 8 Bit */
 413:Drivers/STM32G4xx_HAL_Driver/Src/stm32g4xx_hal_spi.c ****   if ((hspi->Init.DataSize != SPI_DATASIZE_16BIT) && (hspi->Init.DataSize != SPI_DATASIZE_8BIT))
 126              		.loc 1 413 18
 127 0086 7B68     		ldr	r3, [r7, #4]
 128 0088 DB68     		ldr	r3, [r3, #12]
 129              		.loc 1 413 6
 130 008a B3F5706F 		cmp	r3, #3840
 131 008e 07D0     		beq	.L9
 132              		.loc 1 413 65 discriminator 1
 133 0090 7B68     		ldr	r3, [r7, #4]
 134 0092 DB68     		ldr	r3, [r3, #12]
 135              		.loc 1 413 51 discriminator 1
 136 0094 B3F5E06F 		cmp	r3, #1792
 137 0098 02D0     		beq	.L9
 414:Drivers/STM32G4xx_HAL_Driver/Src/stm32g4xx_hal_spi.c ****   {
 415:Drivers/STM32G4xx_HAL_Driver/Src/stm32g4xx_hal_spi.c ****     /* CRC must be disabled */
 416:Drivers/STM32G4xx_HAL_Driver/Src/stm32g4xx_hal_spi.c ****     hspi->Init.CRCCalculation = SPI_CRCCALCULATION_DISABLE;
 138              		.loc 1 416 31
 139 009a 7B68     		ldr	r3, [r7, #4]
 140 009c 0022     		movs	r2, #0
 141 009e 9A62     		str	r2, [r3, #40]
 142              	.L9:
 417:Drivers/STM32G4xx_HAL_Driver/Src/stm32g4xx_hal_spi.c ****   }
 418:Drivers/STM32G4xx_HAL_Driver/Src/stm32g4xx_hal_spi.c **** 
 419:Drivers/STM32G4xx_HAL_Driver/Src/stm32g4xx_hal_spi.c ****   /*----------------------- SPIx CR1 & CR2 Configuration ---------------------*/
 420:Drivers/STM32G4xx_HAL_Driver/Src/stm32g4xx_hal_spi.c ****   /* Configure : SPI Mode, Communication Mode, Clock polarity and phase, NSS management,
 421:Drivers/STM32G4xx_HAL_Driver/Src/stm32g4xx_hal_spi.c ****   Communication speed, First bit and CRC calculation state */
 422:Drivers/STM32G4xx_HAL_Driver/Src/stm32g4xx_hal_spi.c ****   WRITE_REG(hspi->Instance->CR1, ((hspi->Init.Mode & (SPI_CR1_MSTR | SPI_CR1_SSI)) |
 143              		.loc 1 422 3
 144 00a0 7B68     		ldr	r3, [r7, #4]
 145 00a2 5B68     		ldr	r3, [r3, #4]
 146 00a4 03F48272 		and	r2, r3, #260
 147 00a8 7B68     		ldr	r3, [r7, #4]
 148 00aa 9B68     		ldr	r3, [r3, #8]
 149 00ac 03F40443 		and	r3, r3, #33792
ARM GAS  C:\Users\AURORA~1\AppData\Local\Temp\ccDX0hEW.s 			page 11


 150 00b0 1A43     		orrs	r2, r2, r3
 151 00b2 7B68     		ldr	r3, [r7, #4]
 152 00b4 1B69     		ldr	r3, [r3, #16]
 153 00b6 03F00203 		and	r3, r3, #2
 154 00ba 1A43     		orrs	r2, r2, r3
 155 00bc 7B68     		ldr	r3, [r7, #4]
 156 00be 5B69     		ldr	r3, [r3, #20]
 157 00c0 03F00103 		and	r3, r3, #1
 158 00c4 1A43     		orrs	r2, r2, r3
 159 00c6 7B68     		ldr	r3, [r7, #4]
 160 00c8 9B69     		ldr	r3, [r3, #24]
 161 00ca 03F40073 		and	r3, r3, #512
 162 00ce 1A43     		orrs	r2, r2, r3
 163 00d0 7B68     		ldr	r3, [r7, #4]
 164 00d2 DB69     		ldr	r3, [r3, #28]
 165 00d4 03F03803 		and	r3, r3, #56
 166 00d8 1A43     		orrs	r2, r2, r3
 167 00da 7B68     		ldr	r3, [r7, #4]
 168 00dc 1B6A     		ldr	r3, [r3, #32]
 169 00de 03F08003 		and	r3, r3, #128
 170 00e2 42EA0301 		orr	r1, r2, r3
 171 00e6 7B68     		ldr	r3, [r7, #4]
 172 00e8 9B6A     		ldr	r3, [r3, #40]
 173 00ea 03F40052 		and	r2, r3, #8192
 174 00ee 7B68     		ldr	r3, [r7, #4]
 175 00f0 1B68     		ldr	r3, [r3]
 176 00f2 0A43     		orrs	r2, r2, r1
 177 00f4 1A60     		str	r2, [r3]
 423:Drivers/STM32G4xx_HAL_Driver/Src/stm32g4xx_hal_spi.c ****                                   (hspi->Init.Direction & (SPI_CR1_RXONLY | SPI_CR1_BIDIMODE)) |
 424:Drivers/STM32G4xx_HAL_Driver/Src/stm32g4xx_hal_spi.c ****                                   (hspi->Init.CLKPolarity & SPI_CR1_CPOL) |
 425:Drivers/STM32G4xx_HAL_Driver/Src/stm32g4xx_hal_spi.c ****                                   (hspi->Init.CLKPhase & SPI_CR1_CPHA) |
 426:Drivers/STM32G4xx_HAL_Driver/Src/stm32g4xx_hal_spi.c ****                                   (hspi->Init.NSS & SPI_CR1_SSM) |
 427:Drivers/STM32G4xx_HAL_Driver/Src/stm32g4xx_hal_spi.c ****                                   (hspi->Init.BaudRatePrescaler & SPI_CR1_BR_Msk) |
 428:Drivers/STM32G4xx_HAL_Driver/Src/stm32g4xx_hal_spi.c ****                                   (hspi->Init.FirstBit  & SPI_CR1_LSBFIRST) |
 429:Drivers/STM32G4xx_HAL_Driver/Src/stm32g4xx_hal_spi.c ****                                   (hspi->Init.CRCCalculation & SPI_CR1_CRCEN)));
 430:Drivers/STM32G4xx_HAL_Driver/Src/stm32g4xx_hal_spi.c **** #if (USE_SPI_CRC != 0U)
 431:Drivers/STM32G4xx_HAL_Driver/Src/stm32g4xx_hal_spi.c ****   /*---------------------------- SPIx CRCL Configuration -------------------*/
 432:Drivers/STM32G4xx_HAL_Driver/Src/stm32g4xx_hal_spi.c ****   if (hspi->Init.CRCCalculation == SPI_CRCCALCULATION_ENABLE)
 433:Drivers/STM32G4xx_HAL_Driver/Src/stm32g4xx_hal_spi.c ****   {
 434:Drivers/STM32G4xx_HAL_Driver/Src/stm32g4xx_hal_spi.c ****     /* Align the CRC Length on the data size */
 435:Drivers/STM32G4xx_HAL_Driver/Src/stm32g4xx_hal_spi.c ****     if (hspi->Init.CRCLength == SPI_CRC_LENGTH_DATASIZE)
 436:Drivers/STM32G4xx_HAL_Driver/Src/stm32g4xx_hal_spi.c ****     {
 437:Drivers/STM32G4xx_HAL_Driver/Src/stm32g4xx_hal_spi.c ****       /* CRC Length aligned on the data size : value set by default */
 438:Drivers/STM32G4xx_HAL_Driver/Src/stm32g4xx_hal_spi.c ****       if (hspi->Init.DataSize > SPI_DATASIZE_8BIT)
 439:Drivers/STM32G4xx_HAL_Driver/Src/stm32g4xx_hal_spi.c ****       {
 440:Drivers/STM32G4xx_HAL_Driver/Src/stm32g4xx_hal_spi.c ****         hspi->Init.CRCLength = SPI_CRC_LENGTH_16BIT;
 441:Drivers/STM32G4xx_HAL_Driver/Src/stm32g4xx_hal_spi.c ****       }
 442:Drivers/STM32G4xx_HAL_Driver/Src/stm32g4xx_hal_spi.c ****       else
 443:Drivers/STM32G4xx_HAL_Driver/Src/stm32g4xx_hal_spi.c ****       {
 444:Drivers/STM32G4xx_HAL_Driver/Src/stm32g4xx_hal_spi.c ****         hspi->Init.CRCLength = SPI_CRC_LENGTH_8BIT;
 445:Drivers/STM32G4xx_HAL_Driver/Src/stm32g4xx_hal_spi.c ****       }
 446:Drivers/STM32G4xx_HAL_Driver/Src/stm32g4xx_hal_spi.c ****     }
 447:Drivers/STM32G4xx_HAL_Driver/Src/stm32g4xx_hal_spi.c **** 
 448:Drivers/STM32G4xx_HAL_Driver/Src/stm32g4xx_hal_spi.c ****     /* Configure : CRC Length */
 449:Drivers/STM32G4xx_HAL_Driver/Src/stm32g4xx_hal_spi.c ****     if (hspi->Init.CRCLength == SPI_CRC_LENGTH_16BIT)
 450:Drivers/STM32G4xx_HAL_Driver/Src/stm32g4xx_hal_spi.c ****     {
 451:Drivers/STM32G4xx_HAL_Driver/Src/stm32g4xx_hal_spi.c ****       SET_BIT(hspi->Instance->CR1, SPI_CR1_CRCL);
ARM GAS  C:\Users\AURORA~1\AppData\Local\Temp\ccDX0hEW.s 			page 12


 452:Drivers/STM32G4xx_HAL_Driver/Src/stm32g4xx_hal_spi.c ****     }
 453:Drivers/STM32G4xx_HAL_Driver/Src/stm32g4xx_hal_spi.c ****   }
 454:Drivers/STM32G4xx_HAL_Driver/Src/stm32g4xx_hal_spi.c **** #endif /* USE_SPI_CRC */
 455:Drivers/STM32G4xx_HAL_Driver/Src/stm32g4xx_hal_spi.c **** 
 456:Drivers/STM32G4xx_HAL_Driver/Src/stm32g4xx_hal_spi.c ****   /* Configure : NSS management, TI Mode, NSS Pulse, Data size and Rx Fifo threshold */
 457:Drivers/STM32G4xx_HAL_Driver/Src/stm32g4xx_hal_spi.c ****   WRITE_REG(hspi->Instance->CR2, (((hspi->Init.NSS >> 16U) & SPI_CR2_SSOE) |
 178              		.loc 1 457 3
 179 00f6 7B68     		ldr	r3, [r7, #4]
 180 00f8 9B69     		ldr	r3, [r3, #24]
 181 00fa 1B0C     		lsrs	r3, r3, #16
 182 00fc 03F00402 		and	r2, r3, #4
 183 0100 7B68     		ldr	r3, [r7, #4]
 184 0102 5B6A     		ldr	r3, [r3, #36]
 185 0104 03F01003 		and	r3, r3, #16
 186 0108 1A43     		orrs	r2, r2, r3
 187 010a 7B68     		ldr	r3, [r7, #4]
 188 010c 5B6B     		ldr	r3, [r3, #52]
 189 010e 03F00803 		and	r3, r3, #8
 190 0112 1A43     		orrs	r2, r2, r3
 191 0114 7B68     		ldr	r3, [r7, #4]
 192 0116 DB68     		ldr	r3, [r3, #12]
 193 0118 03F47063 		and	r3, r3, #3840
 194 011c 42EA0301 		orr	r1, r2, r3
 195 0120 FB68     		ldr	r3, [r7, #12]
 196 0122 03F48052 		and	r2, r3, #4096
 197 0126 7B68     		ldr	r3, [r7, #4]
 198 0128 1B68     		ldr	r3, [r3]
 199 012a 0A43     		orrs	r2, r2, r1
 200 012c 5A60     		str	r2, [r3, #4]
 458:Drivers/STM32G4xx_HAL_Driver/Src/stm32g4xx_hal_spi.c ****                                   (hspi->Init.TIMode & SPI_CR2_FRF) |
 459:Drivers/STM32G4xx_HAL_Driver/Src/stm32g4xx_hal_spi.c ****                                   (hspi->Init.NSSPMode & SPI_CR2_NSSP) |
 460:Drivers/STM32G4xx_HAL_Driver/Src/stm32g4xx_hal_spi.c ****                                   (hspi->Init.DataSize & SPI_CR2_DS_Msk) |
 461:Drivers/STM32G4xx_HAL_Driver/Src/stm32g4xx_hal_spi.c ****                                   (frxth & SPI_CR2_FRXTH)));
 462:Drivers/STM32G4xx_HAL_Driver/Src/stm32g4xx_hal_spi.c **** 
 463:Drivers/STM32G4xx_HAL_Driver/Src/stm32g4xx_hal_spi.c **** #if (USE_SPI_CRC != 0U)
 464:Drivers/STM32G4xx_HAL_Driver/Src/stm32g4xx_hal_spi.c ****   /*---------------------------- SPIx CRCPOLY Configuration ------------------*/
 465:Drivers/STM32G4xx_HAL_Driver/Src/stm32g4xx_hal_spi.c ****   /* Configure : CRC Polynomial */
 466:Drivers/STM32G4xx_HAL_Driver/Src/stm32g4xx_hal_spi.c ****   if (hspi->Init.CRCCalculation == SPI_CRCCALCULATION_ENABLE)
 467:Drivers/STM32G4xx_HAL_Driver/Src/stm32g4xx_hal_spi.c ****   {
 468:Drivers/STM32G4xx_HAL_Driver/Src/stm32g4xx_hal_spi.c ****     WRITE_REG(hspi->Instance->CRCPR, (hspi->Init.CRCPolynomial & SPI_CRCPR_CRCPOLY_Msk));
 469:Drivers/STM32G4xx_HAL_Driver/Src/stm32g4xx_hal_spi.c ****   }
 470:Drivers/STM32G4xx_HAL_Driver/Src/stm32g4xx_hal_spi.c **** #endif /* USE_SPI_CRC */
 471:Drivers/STM32G4xx_HAL_Driver/Src/stm32g4xx_hal_spi.c **** 
 472:Drivers/STM32G4xx_HAL_Driver/Src/stm32g4xx_hal_spi.c **** #if defined(SPI_I2SCFGR_I2SMOD)
 473:Drivers/STM32G4xx_HAL_Driver/Src/stm32g4xx_hal_spi.c ****   /* Activate the SPI mode (Make sure that I2SMOD bit in I2SCFGR register is reset) */
 474:Drivers/STM32G4xx_HAL_Driver/Src/stm32g4xx_hal_spi.c ****   CLEAR_BIT(hspi->Instance->I2SCFGR, SPI_I2SCFGR_I2SMOD);
 201              		.loc 1 474 3
 202 012e 7B68     		ldr	r3, [r7, #4]
 203 0130 1B68     		ldr	r3, [r3]
 204 0132 DA69     		ldr	r2, [r3, #28]
 205 0134 7B68     		ldr	r3, [r7, #4]
 206 0136 1B68     		ldr	r3, [r3]
 207 0138 22F40062 		bic	r2, r2, #2048
 208 013c DA61     		str	r2, [r3, #28]
 475:Drivers/STM32G4xx_HAL_Driver/Src/stm32g4xx_hal_spi.c **** #endif /* SPI_I2SCFGR_I2SMOD */
 476:Drivers/STM32G4xx_HAL_Driver/Src/stm32g4xx_hal_spi.c **** 
 477:Drivers/STM32G4xx_HAL_Driver/Src/stm32g4xx_hal_spi.c ****   hspi->ErrorCode = HAL_SPI_ERROR_NONE;
ARM GAS  C:\Users\AURORA~1\AppData\Local\Temp\ccDX0hEW.s 			page 13


 209              		.loc 1 477 19
 210 013e 7B68     		ldr	r3, [r7, #4]
 211 0140 0022     		movs	r2, #0
 212 0142 1A66     		str	r2, [r3, #96]
 478:Drivers/STM32G4xx_HAL_Driver/Src/stm32g4xx_hal_spi.c ****   hspi->State     = HAL_SPI_STATE_READY;
 213              		.loc 1 478 19
 214 0144 7B68     		ldr	r3, [r7, #4]
 215 0146 0122     		movs	r2, #1
 216 0148 83F85D20 		strb	r2, [r3, #93]
 479:Drivers/STM32G4xx_HAL_Driver/Src/stm32g4xx_hal_spi.c **** 
 480:Drivers/STM32G4xx_HAL_Driver/Src/stm32g4xx_hal_spi.c ****   return HAL_OK;
 217              		.loc 1 480 10
 218 014c 0023     		movs	r3, #0
 219              	.L3:
 481:Drivers/STM32G4xx_HAL_Driver/Src/stm32g4xx_hal_spi.c **** }
 220              		.loc 1 481 1
 221 014e 1846     		mov	r0, r3
 222 0150 1037     		adds	r7, r7, #16
 223              	.LCFI3:
 224              		.cfi_def_cfa_offset 8
 225 0152 BD46     		mov	sp, r7
 226              	.LCFI4:
 227              		.cfi_def_cfa_register 13
 228              		@ sp needed
 229 0154 80BD     		pop	{r7, pc}
 230              		.cfi_endproc
 231              	.LFE132:
 233              		.section	.text.HAL_SPI_DeInit,"ax",%progbits
 234              		.align	1
 235              		.global	HAL_SPI_DeInit
 236              		.syntax unified
 237              		.thumb
 238              		.thumb_func
 240              	HAL_SPI_DeInit:
 241              	.LFB133:
 482:Drivers/STM32G4xx_HAL_Driver/Src/stm32g4xx_hal_spi.c **** 
 483:Drivers/STM32G4xx_HAL_Driver/Src/stm32g4xx_hal_spi.c **** /**
 484:Drivers/STM32G4xx_HAL_Driver/Src/stm32g4xx_hal_spi.c ****   * @brief  De-Initialize the SPI peripheral.
 485:Drivers/STM32G4xx_HAL_Driver/Src/stm32g4xx_hal_spi.c ****   * @param  hspi pointer to a SPI_HandleTypeDef structure that contains
 486:Drivers/STM32G4xx_HAL_Driver/Src/stm32g4xx_hal_spi.c ****   *               the configuration information for SPI module.
 487:Drivers/STM32G4xx_HAL_Driver/Src/stm32g4xx_hal_spi.c ****   * @retval HAL status
 488:Drivers/STM32G4xx_HAL_Driver/Src/stm32g4xx_hal_spi.c ****   */
 489:Drivers/STM32G4xx_HAL_Driver/Src/stm32g4xx_hal_spi.c **** HAL_StatusTypeDef HAL_SPI_DeInit(SPI_HandleTypeDef *hspi)
 490:Drivers/STM32G4xx_HAL_Driver/Src/stm32g4xx_hal_spi.c **** {
 242              		.loc 1 490 1
 243              		.cfi_startproc
 244              		@ args = 0, pretend = 0, frame = 8
 245              		@ frame_needed = 1, uses_anonymous_args = 0
 246 0000 80B5     		push	{r7, lr}
 247              	.LCFI5:
 248              		.cfi_def_cfa_offset 8
 249              		.cfi_offset 7, -8
 250              		.cfi_offset 14, -4
 251 0002 82B0     		sub	sp, sp, #8
 252              	.LCFI6:
 253              		.cfi_def_cfa_offset 16
 254 0004 00AF     		add	r7, sp, #0
ARM GAS  C:\Users\AURORA~1\AppData\Local\Temp\ccDX0hEW.s 			page 14


 255              	.LCFI7:
 256              		.cfi_def_cfa_register 7
 257 0006 7860     		str	r0, [r7, #4]
 491:Drivers/STM32G4xx_HAL_Driver/Src/stm32g4xx_hal_spi.c ****   /* Check the SPI handle allocation */
 492:Drivers/STM32G4xx_HAL_Driver/Src/stm32g4xx_hal_spi.c ****   if (hspi == NULL)
 258              		.loc 1 492 6
 259 0008 7B68     		ldr	r3, [r7, #4]
 260 000a 002B     		cmp	r3, #0
 261 000c 01D1     		bne	.L11
 493:Drivers/STM32G4xx_HAL_Driver/Src/stm32g4xx_hal_spi.c ****   {
 494:Drivers/STM32G4xx_HAL_Driver/Src/stm32g4xx_hal_spi.c ****     return HAL_ERROR;
 262              		.loc 1 494 12
 263 000e 0123     		movs	r3, #1
 264 0010 1AE0     		b	.L12
 265              	.L11:
 495:Drivers/STM32G4xx_HAL_Driver/Src/stm32g4xx_hal_spi.c ****   }
 496:Drivers/STM32G4xx_HAL_Driver/Src/stm32g4xx_hal_spi.c **** 
 497:Drivers/STM32G4xx_HAL_Driver/Src/stm32g4xx_hal_spi.c ****   /* Check SPI Instance parameter */
 498:Drivers/STM32G4xx_HAL_Driver/Src/stm32g4xx_hal_spi.c ****   assert_param(IS_SPI_ALL_INSTANCE(hspi->Instance));
 499:Drivers/STM32G4xx_HAL_Driver/Src/stm32g4xx_hal_spi.c **** 
 500:Drivers/STM32G4xx_HAL_Driver/Src/stm32g4xx_hal_spi.c ****   hspi->State = HAL_SPI_STATE_BUSY;
 266              		.loc 1 500 15
 267 0012 7B68     		ldr	r3, [r7, #4]
 268 0014 0222     		movs	r2, #2
 269 0016 83F85D20 		strb	r2, [r3, #93]
 501:Drivers/STM32G4xx_HAL_Driver/Src/stm32g4xx_hal_spi.c **** 
 502:Drivers/STM32G4xx_HAL_Driver/Src/stm32g4xx_hal_spi.c ****   /* Disable the SPI Peripheral Clock */
 503:Drivers/STM32G4xx_HAL_Driver/Src/stm32g4xx_hal_spi.c ****   __HAL_SPI_DISABLE(hspi);
 270              		.loc 1 503 3
 271 001a 7B68     		ldr	r3, [r7, #4]
 272 001c 1B68     		ldr	r3, [r3]
 273 001e 1A68     		ldr	r2, [r3]
 274 0020 7B68     		ldr	r3, [r7, #4]
 275 0022 1B68     		ldr	r3, [r3]
 276 0024 22F04002 		bic	r2, r2, #64
 277 0028 1A60     		str	r2, [r3]
 504:Drivers/STM32G4xx_HAL_Driver/Src/stm32g4xx_hal_spi.c **** 
 505:Drivers/STM32G4xx_HAL_Driver/Src/stm32g4xx_hal_spi.c **** #if (USE_HAL_SPI_REGISTER_CALLBACKS == 1U)
 506:Drivers/STM32G4xx_HAL_Driver/Src/stm32g4xx_hal_spi.c ****   if (hspi->MspDeInitCallback == NULL)
 507:Drivers/STM32G4xx_HAL_Driver/Src/stm32g4xx_hal_spi.c ****   {
 508:Drivers/STM32G4xx_HAL_Driver/Src/stm32g4xx_hal_spi.c ****     hspi->MspDeInitCallback = HAL_SPI_MspDeInit; /* Legacy weak MspDeInit  */
 509:Drivers/STM32G4xx_HAL_Driver/Src/stm32g4xx_hal_spi.c ****   }
 510:Drivers/STM32G4xx_HAL_Driver/Src/stm32g4xx_hal_spi.c **** 
 511:Drivers/STM32G4xx_HAL_Driver/Src/stm32g4xx_hal_spi.c ****   /* DeInit the low level hardware: GPIO, CLOCK, NVIC... */
 512:Drivers/STM32G4xx_HAL_Driver/Src/stm32g4xx_hal_spi.c ****   hspi->MspDeInitCallback(hspi);
 513:Drivers/STM32G4xx_HAL_Driver/Src/stm32g4xx_hal_spi.c **** #else
 514:Drivers/STM32G4xx_HAL_Driver/Src/stm32g4xx_hal_spi.c ****   /* DeInit the low level hardware: GPIO, CLOCK, NVIC... */
 515:Drivers/STM32G4xx_HAL_Driver/Src/stm32g4xx_hal_spi.c ****   HAL_SPI_MspDeInit(hspi);
 278              		.loc 1 515 3
 279 002a 7868     		ldr	r0, [r7, #4]
 280 002c FFF7FEFF 		bl	HAL_SPI_MspDeInit
 516:Drivers/STM32G4xx_HAL_Driver/Src/stm32g4xx_hal_spi.c **** #endif /* USE_HAL_SPI_REGISTER_CALLBACKS */
 517:Drivers/STM32G4xx_HAL_Driver/Src/stm32g4xx_hal_spi.c **** 
 518:Drivers/STM32G4xx_HAL_Driver/Src/stm32g4xx_hal_spi.c ****   hspi->ErrorCode = HAL_SPI_ERROR_NONE;
 281              		.loc 1 518 19
 282 0030 7B68     		ldr	r3, [r7, #4]
 283 0032 0022     		movs	r2, #0
ARM GAS  C:\Users\AURORA~1\AppData\Local\Temp\ccDX0hEW.s 			page 15


 284 0034 1A66     		str	r2, [r3, #96]
 519:Drivers/STM32G4xx_HAL_Driver/Src/stm32g4xx_hal_spi.c ****   hspi->State = HAL_SPI_STATE_RESET;
 285              		.loc 1 519 15
 286 0036 7B68     		ldr	r3, [r7, #4]
 287 0038 0022     		movs	r2, #0
 288 003a 83F85D20 		strb	r2, [r3, #93]
 520:Drivers/STM32G4xx_HAL_Driver/Src/stm32g4xx_hal_spi.c **** 
 521:Drivers/STM32G4xx_HAL_Driver/Src/stm32g4xx_hal_spi.c ****   /* Release Lock */
 522:Drivers/STM32G4xx_HAL_Driver/Src/stm32g4xx_hal_spi.c ****   __HAL_UNLOCK(hspi);
 289              		.loc 1 522 3
 290 003e 7B68     		ldr	r3, [r7, #4]
 291 0040 0022     		movs	r2, #0
 292 0042 83F85C20 		strb	r2, [r3, #92]
 523:Drivers/STM32G4xx_HAL_Driver/Src/stm32g4xx_hal_spi.c **** 
 524:Drivers/STM32G4xx_HAL_Driver/Src/stm32g4xx_hal_spi.c ****   return HAL_OK;
 293              		.loc 1 524 10
 294 0046 0023     		movs	r3, #0
 295              	.L12:
 525:Drivers/STM32G4xx_HAL_Driver/Src/stm32g4xx_hal_spi.c **** }
 296              		.loc 1 525 1
 297 0048 1846     		mov	r0, r3
 298 004a 0837     		adds	r7, r7, #8
 299              	.LCFI8:
 300              		.cfi_def_cfa_offset 8
 301 004c BD46     		mov	sp, r7
 302              	.LCFI9:
 303              		.cfi_def_cfa_register 13
 304              		@ sp needed
 305 004e 80BD     		pop	{r7, pc}
 306              		.cfi_endproc
 307              	.LFE133:
 309              		.section	.text.HAL_SPI_MspInit,"ax",%progbits
 310              		.align	1
 311              		.weak	HAL_SPI_MspInit
 312              		.syntax unified
 313              		.thumb
 314              		.thumb_func
 316              	HAL_SPI_MspInit:
 317              	.LFB134:
 526:Drivers/STM32G4xx_HAL_Driver/Src/stm32g4xx_hal_spi.c **** 
 527:Drivers/STM32G4xx_HAL_Driver/Src/stm32g4xx_hal_spi.c **** /**
 528:Drivers/STM32G4xx_HAL_Driver/Src/stm32g4xx_hal_spi.c ****   * @brief  Initialize the SPI MSP.
 529:Drivers/STM32G4xx_HAL_Driver/Src/stm32g4xx_hal_spi.c ****   * @param  hspi pointer to a SPI_HandleTypeDef structure that contains
 530:Drivers/STM32G4xx_HAL_Driver/Src/stm32g4xx_hal_spi.c ****   *               the configuration information for SPI module.
 531:Drivers/STM32G4xx_HAL_Driver/Src/stm32g4xx_hal_spi.c ****   * @retval None
 532:Drivers/STM32G4xx_HAL_Driver/Src/stm32g4xx_hal_spi.c ****   */
 533:Drivers/STM32G4xx_HAL_Driver/Src/stm32g4xx_hal_spi.c **** __weak void HAL_SPI_MspInit(SPI_HandleTypeDef *hspi)
 534:Drivers/STM32G4xx_HAL_Driver/Src/stm32g4xx_hal_spi.c **** {
 318              		.loc 1 534 1
 319              		.cfi_startproc
 320              		@ args = 0, pretend = 0, frame = 8
 321              		@ frame_needed = 1, uses_anonymous_args = 0
 322              		@ link register save eliminated.
 323 0000 80B4     		push	{r7}
 324              	.LCFI10:
 325              		.cfi_def_cfa_offset 4
 326              		.cfi_offset 7, -4
ARM GAS  C:\Users\AURORA~1\AppData\Local\Temp\ccDX0hEW.s 			page 16


 327 0002 83B0     		sub	sp, sp, #12
 328              	.LCFI11:
 329              		.cfi_def_cfa_offset 16
 330 0004 00AF     		add	r7, sp, #0
 331              	.LCFI12:
 332              		.cfi_def_cfa_register 7
 333 0006 7860     		str	r0, [r7, #4]
 535:Drivers/STM32G4xx_HAL_Driver/Src/stm32g4xx_hal_spi.c ****   /* Prevent unused argument(s) compilation warning */
 536:Drivers/STM32G4xx_HAL_Driver/Src/stm32g4xx_hal_spi.c ****   UNUSED(hspi);
 537:Drivers/STM32G4xx_HAL_Driver/Src/stm32g4xx_hal_spi.c **** 
 538:Drivers/STM32G4xx_HAL_Driver/Src/stm32g4xx_hal_spi.c ****   /* NOTE : This function should not be modified, when the callback is needed,
 539:Drivers/STM32G4xx_HAL_Driver/Src/stm32g4xx_hal_spi.c ****             the HAL_SPI_MspInit should be implemented in the user file
 540:Drivers/STM32G4xx_HAL_Driver/Src/stm32g4xx_hal_spi.c ****    */
 541:Drivers/STM32G4xx_HAL_Driver/Src/stm32g4xx_hal_spi.c **** }
 334              		.loc 1 541 1
 335 0008 00BF     		nop
 336 000a 0C37     		adds	r7, r7, #12
 337              	.LCFI13:
 338              		.cfi_def_cfa_offset 4
 339 000c BD46     		mov	sp, r7
 340              	.LCFI14:
 341              		.cfi_def_cfa_register 13
 342              		@ sp needed
 343 000e 5DF8047B 		ldr	r7, [sp], #4
 344              	.LCFI15:
 345              		.cfi_restore 7
 346              		.cfi_def_cfa_offset 0
 347 0012 7047     		bx	lr
 348              		.cfi_endproc
 349              	.LFE134:
 351              		.section	.text.HAL_SPI_MspDeInit,"ax",%progbits
 352              		.align	1
 353              		.weak	HAL_SPI_MspDeInit
 354              		.syntax unified
 355              		.thumb
 356              		.thumb_func
 358              	HAL_SPI_MspDeInit:
 359              	.LFB135:
 542:Drivers/STM32G4xx_HAL_Driver/Src/stm32g4xx_hal_spi.c **** 
 543:Drivers/STM32G4xx_HAL_Driver/Src/stm32g4xx_hal_spi.c **** /**
 544:Drivers/STM32G4xx_HAL_Driver/Src/stm32g4xx_hal_spi.c ****   * @brief  De-Initialize the SPI MSP.
 545:Drivers/STM32G4xx_HAL_Driver/Src/stm32g4xx_hal_spi.c ****   * @param  hspi pointer to a SPI_HandleTypeDef structure that contains
 546:Drivers/STM32G4xx_HAL_Driver/Src/stm32g4xx_hal_spi.c ****   *               the configuration information for SPI module.
 547:Drivers/STM32G4xx_HAL_Driver/Src/stm32g4xx_hal_spi.c ****   * @retval None
 548:Drivers/STM32G4xx_HAL_Driver/Src/stm32g4xx_hal_spi.c ****   */
 549:Drivers/STM32G4xx_HAL_Driver/Src/stm32g4xx_hal_spi.c **** __weak void HAL_SPI_MspDeInit(SPI_HandleTypeDef *hspi)
 550:Drivers/STM32G4xx_HAL_Driver/Src/stm32g4xx_hal_spi.c **** {
 360              		.loc 1 550 1
 361              		.cfi_startproc
 362              		@ args = 0, pretend = 0, frame = 8
 363              		@ frame_needed = 1, uses_anonymous_args = 0
 364              		@ link register save eliminated.
 365 0000 80B4     		push	{r7}
 366              	.LCFI16:
 367              		.cfi_def_cfa_offset 4
 368              		.cfi_offset 7, -4
 369 0002 83B0     		sub	sp, sp, #12
ARM GAS  C:\Users\AURORA~1\AppData\Local\Temp\ccDX0hEW.s 			page 17


 370              	.LCFI17:
 371              		.cfi_def_cfa_offset 16
 372 0004 00AF     		add	r7, sp, #0
 373              	.LCFI18:
 374              		.cfi_def_cfa_register 7
 375 0006 7860     		str	r0, [r7, #4]
 551:Drivers/STM32G4xx_HAL_Driver/Src/stm32g4xx_hal_spi.c ****   /* Prevent unused argument(s) compilation warning */
 552:Drivers/STM32G4xx_HAL_Driver/Src/stm32g4xx_hal_spi.c ****   UNUSED(hspi);
 553:Drivers/STM32G4xx_HAL_Driver/Src/stm32g4xx_hal_spi.c **** 
 554:Drivers/STM32G4xx_HAL_Driver/Src/stm32g4xx_hal_spi.c ****   /* NOTE : This function should not be modified, when the callback is needed,
 555:Drivers/STM32G4xx_HAL_Driver/Src/stm32g4xx_hal_spi.c ****             the HAL_SPI_MspDeInit should be implemented in the user file
 556:Drivers/STM32G4xx_HAL_Driver/Src/stm32g4xx_hal_spi.c ****    */
 557:Drivers/STM32G4xx_HAL_Driver/Src/stm32g4xx_hal_spi.c **** }
 376              		.loc 1 557 1
 377 0008 00BF     		nop
 378 000a 0C37     		adds	r7, r7, #12
 379              	.LCFI19:
 380              		.cfi_def_cfa_offset 4
 381 000c BD46     		mov	sp, r7
 382              	.LCFI20:
 383              		.cfi_def_cfa_register 13
 384              		@ sp needed
 385 000e 5DF8047B 		ldr	r7, [sp], #4
 386              	.LCFI21:
 387              		.cfi_restore 7
 388              		.cfi_def_cfa_offset 0
 389 0012 7047     		bx	lr
 390              		.cfi_endproc
 391              	.LFE135:
 393              		.section	.text.HAL_SPI_Transmit,"ax",%progbits
 394              		.align	1
 395              		.global	HAL_SPI_Transmit
 396              		.syntax unified
 397              		.thumb
 398              		.thumb_func
 400              	HAL_SPI_Transmit:
 401              	.LFB136:
 558:Drivers/STM32G4xx_HAL_Driver/Src/stm32g4xx_hal_spi.c **** 
 559:Drivers/STM32G4xx_HAL_Driver/Src/stm32g4xx_hal_spi.c **** #if (USE_HAL_SPI_REGISTER_CALLBACKS == 1U)
 560:Drivers/STM32G4xx_HAL_Driver/Src/stm32g4xx_hal_spi.c **** /**
 561:Drivers/STM32G4xx_HAL_Driver/Src/stm32g4xx_hal_spi.c ****   * @brief  Register a User SPI Callback
 562:Drivers/STM32G4xx_HAL_Driver/Src/stm32g4xx_hal_spi.c ****   *         To be used instead of the weak predefined callback
 563:Drivers/STM32G4xx_HAL_Driver/Src/stm32g4xx_hal_spi.c ****   * @param  hspi Pointer to a SPI_HandleTypeDef structure that contains
 564:Drivers/STM32G4xx_HAL_Driver/Src/stm32g4xx_hal_spi.c ****   *                the configuration information for the specified SPI.
 565:Drivers/STM32G4xx_HAL_Driver/Src/stm32g4xx_hal_spi.c ****   * @param  CallbackID ID of the callback to be registered
 566:Drivers/STM32G4xx_HAL_Driver/Src/stm32g4xx_hal_spi.c ****   * @param  pCallback pointer to the Callback function
 567:Drivers/STM32G4xx_HAL_Driver/Src/stm32g4xx_hal_spi.c ****   * @retval HAL status
 568:Drivers/STM32G4xx_HAL_Driver/Src/stm32g4xx_hal_spi.c ****   */
 569:Drivers/STM32G4xx_HAL_Driver/Src/stm32g4xx_hal_spi.c **** HAL_StatusTypeDef HAL_SPI_RegisterCallback(SPI_HandleTypeDef *hspi, HAL_SPI_CallbackIDTypeDef Callb
 570:Drivers/STM32G4xx_HAL_Driver/Src/stm32g4xx_hal_spi.c ****                                            pSPI_CallbackTypeDef pCallback)
 571:Drivers/STM32G4xx_HAL_Driver/Src/stm32g4xx_hal_spi.c **** {
 572:Drivers/STM32G4xx_HAL_Driver/Src/stm32g4xx_hal_spi.c ****   HAL_StatusTypeDef status = HAL_OK;
 573:Drivers/STM32G4xx_HAL_Driver/Src/stm32g4xx_hal_spi.c **** 
 574:Drivers/STM32G4xx_HAL_Driver/Src/stm32g4xx_hal_spi.c ****   if (pCallback == NULL)
 575:Drivers/STM32G4xx_HAL_Driver/Src/stm32g4xx_hal_spi.c ****   {
 576:Drivers/STM32G4xx_HAL_Driver/Src/stm32g4xx_hal_spi.c ****     /* Update the error code */
 577:Drivers/STM32G4xx_HAL_Driver/Src/stm32g4xx_hal_spi.c ****     hspi->ErrorCode |= HAL_SPI_ERROR_INVALID_CALLBACK;
ARM GAS  C:\Users\AURORA~1\AppData\Local\Temp\ccDX0hEW.s 			page 18


 578:Drivers/STM32G4xx_HAL_Driver/Src/stm32g4xx_hal_spi.c **** 
 579:Drivers/STM32G4xx_HAL_Driver/Src/stm32g4xx_hal_spi.c ****     return HAL_ERROR;
 580:Drivers/STM32G4xx_HAL_Driver/Src/stm32g4xx_hal_spi.c ****   }
 581:Drivers/STM32G4xx_HAL_Driver/Src/stm32g4xx_hal_spi.c ****   /* Process locked */
 582:Drivers/STM32G4xx_HAL_Driver/Src/stm32g4xx_hal_spi.c ****   __HAL_LOCK(hspi);
 583:Drivers/STM32G4xx_HAL_Driver/Src/stm32g4xx_hal_spi.c **** 
 584:Drivers/STM32G4xx_HAL_Driver/Src/stm32g4xx_hal_spi.c ****   if (HAL_SPI_STATE_READY == hspi->State)
 585:Drivers/STM32G4xx_HAL_Driver/Src/stm32g4xx_hal_spi.c ****   {
 586:Drivers/STM32G4xx_HAL_Driver/Src/stm32g4xx_hal_spi.c ****     switch (CallbackID)
 587:Drivers/STM32G4xx_HAL_Driver/Src/stm32g4xx_hal_spi.c ****     {
 588:Drivers/STM32G4xx_HAL_Driver/Src/stm32g4xx_hal_spi.c ****       case HAL_SPI_TX_COMPLETE_CB_ID :
 589:Drivers/STM32G4xx_HAL_Driver/Src/stm32g4xx_hal_spi.c ****         hspi->TxCpltCallback = pCallback;
 590:Drivers/STM32G4xx_HAL_Driver/Src/stm32g4xx_hal_spi.c ****         break;
 591:Drivers/STM32G4xx_HAL_Driver/Src/stm32g4xx_hal_spi.c **** 
 592:Drivers/STM32G4xx_HAL_Driver/Src/stm32g4xx_hal_spi.c ****       case HAL_SPI_RX_COMPLETE_CB_ID :
 593:Drivers/STM32G4xx_HAL_Driver/Src/stm32g4xx_hal_spi.c ****         hspi->RxCpltCallback = pCallback;
 594:Drivers/STM32G4xx_HAL_Driver/Src/stm32g4xx_hal_spi.c ****         break;
 595:Drivers/STM32G4xx_HAL_Driver/Src/stm32g4xx_hal_spi.c **** 
 596:Drivers/STM32G4xx_HAL_Driver/Src/stm32g4xx_hal_spi.c ****       case HAL_SPI_TX_RX_COMPLETE_CB_ID :
 597:Drivers/STM32G4xx_HAL_Driver/Src/stm32g4xx_hal_spi.c ****         hspi->TxRxCpltCallback = pCallback;
 598:Drivers/STM32G4xx_HAL_Driver/Src/stm32g4xx_hal_spi.c ****         break;
 599:Drivers/STM32G4xx_HAL_Driver/Src/stm32g4xx_hal_spi.c **** 
 600:Drivers/STM32G4xx_HAL_Driver/Src/stm32g4xx_hal_spi.c ****       case HAL_SPI_TX_HALF_COMPLETE_CB_ID :
 601:Drivers/STM32G4xx_HAL_Driver/Src/stm32g4xx_hal_spi.c ****         hspi->TxHalfCpltCallback = pCallback;
 602:Drivers/STM32G4xx_HAL_Driver/Src/stm32g4xx_hal_spi.c ****         break;
 603:Drivers/STM32G4xx_HAL_Driver/Src/stm32g4xx_hal_spi.c **** 
 604:Drivers/STM32G4xx_HAL_Driver/Src/stm32g4xx_hal_spi.c ****       case HAL_SPI_RX_HALF_COMPLETE_CB_ID :
 605:Drivers/STM32G4xx_HAL_Driver/Src/stm32g4xx_hal_spi.c ****         hspi->RxHalfCpltCallback = pCallback;
 606:Drivers/STM32G4xx_HAL_Driver/Src/stm32g4xx_hal_spi.c ****         break;
 607:Drivers/STM32G4xx_HAL_Driver/Src/stm32g4xx_hal_spi.c **** 
 608:Drivers/STM32G4xx_HAL_Driver/Src/stm32g4xx_hal_spi.c ****       case HAL_SPI_TX_RX_HALF_COMPLETE_CB_ID :
 609:Drivers/STM32G4xx_HAL_Driver/Src/stm32g4xx_hal_spi.c ****         hspi->TxRxHalfCpltCallback = pCallback;
 610:Drivers/STM32G4xx_HAL_Driver/Src/stm32g4xx_hal_spi.c ****         break;
 611:Drivers/STM32G4xx_HAL_Driver/Src/stm32g4xx_hal_spi.c **** 
 612:Drivers/STM32G4xx_HAL_Driver/Src/stm32g4xx_hal_spi.c ****       case HAL_SPI_ERROR_CB_ID :
 613:Drivers/STM32G4xx_HAL_Driver/Src/stm32g4xx_hal_spi.c ****         hspi->ErrorCallback = pCallback;
 614:Drivers/STM32G4xx_HAL_Driver/Src/stm32g4xx_hal_spi.c ****         break;
 615:Drivers/STM32G4xx_HAL_Driver/Src/stm32g4xx_hal_spi.c **** 
 616:Drivers/STM32G4xx_HAL_Driver/Src/stm32g4xx_hal_spi.c ****       case HAL_SPI_ABORT_CB_ID :
 617:Drivers/STM32G4xx_HAL_Driver/Src/stm32g4xx_hal_spi.c ****         hspi->AbortCpltCallback = pCallback;
 618:Drivers/STM32G4xx_HAL_Driver/Src/stm32g4xx_hal_spi.c ****         break;
 619:Drivers/STM32G4xx_HAL_Driver/Src/stm32g4xx_hal_spi.c **** 
 620:Drivers/STM32G4xx_HAL_Driver/Src/stm32g4xx_hal_spi.c ****       case HAL_SPI_MSPINIT_CB_ID :
 621:Drivers/STM32G4xx_HAL_Driver/Src/stm32g4xx_hal_spi.c ****         hspi->MspInitCallback = pCallback;
 622:Drivers/STM32G4xx_HAL_Driver/Src/stm32g4xx_hal_spi.c ****         break;
 623:Drivers/STM32G4xx_HAL_Driver/Src/stm32g4xx_hal_spi.c **** 
 624:Drivers/STM32G4xx_HAL_Driver/Src/stm32g4xx_hal_spi.c ****       case HAL_SPI_MSPDEINIT_CB_ID :
 625:Drivers/STM32G4xx_HAL_Driver/Src/stm32g4xx_hal_spi.c ****         hspi->MspDeInitCallback = pCallback;
 626:Drivers/STM32G4xx_HAL_Driver/Src/stm32g4xx_hal_spi.c ****         break;
 627:Drivers/STM32G4xx_HAL_Driver/Src/stm32g4xx_hal_spi.c **** 
 628:Drivers/STM32G4xx_HAL_Driver/Src/stm32g4xx_hal_spi.c ****       default :
 629:Drivers/STM32G4xx_HAL_Driver/Src/stm32g4xx_hal_spi.c ****         /* Update the error code */
 630:Drivers/STM32G4xx_HAL_Driver/Src/stm32g4xx_hal_spi.c ****         SET_BIT(hspi->ErrorCode, HAL_SPI_ERROR_INVALID_CALLBACK);
 631:Drivers/STM32G4xx_HAL_Driver/Src/stm32g4xx_hal_spi.c **** 
 632:Drivers/STM32G4xx_HAL_Driver/Src/stm32g4xx_hal_spi.c ****         /* Return error status */
 633:Drivers/STM32G4xx_HAL_Driver/Src/stm32g4xx_hal_spi.c ****         status =  HAL_ERROR;
 634:Drivers/STM32G4xx_HAL_Driver/Src/stm32g4xx_hal_spi.c ****         break;
ARM GAS  C:\Users\AURORA~1\AppData\Local\Temp\ccDX0hEW.s 			page 19


 635:Drivers/STM32G4xx_HAL_Driver/Src/stm32g4xx_hal_spi.c ****     }
 636:Drivers/STM32G4xx_HAL_Driver/Src/stm32g4xx_hal_spi.c ****   }
 637:Drivers/STM32G4xx_HAL_Driver/Src/stm32g4xx_hal_spi.c ****   else if (HAL_SPI_STATE_RESET == hspi->State)
 638:Drivers/STM32G4xx_HAL_Driver/Src/stm32g4xx_hal_spi.c ****   {
 639:Drivers/STM32G4xx_HAL_Driver/Src/stm32g4xx_hal_spi.c ****     switch (CallbackID)
 640:Drivers/STM32G4xx_HAL_Driver/Src/stm32g4xx_hal_spi.c ****     {
 641:Drivers/STM32G4xx_HAL_Driver/Src/stm32g4xx_hal_spi.c ****       case HAL_SPI_MSPINIT_CB_ID :
 642:Drivers/STM32G4xx_HAL_Driver/Src/stm32g4xx_hal_spi.c ****         hspi->MspInitCallback = pCallback;
 643:Drivers/STM32G4xx_HAL_Driver/Src/stm32g4xx_hal_spi.c ****         break;
 644:Drivers/STM32G4xx_HAL_Driver/Src/stm32g4xx_hal_spi.c **** 
 645:Drivers/STM32G4xx_HAL_Driver/Src/stm32g4xx_hal_spi.c ****       case HAL_SPI_MSPDEINIT_CB_ID :
 646:Drivers/STM32G4xx_HAL_Driver/Src/stm32g4xx_hal_spi.c ****         hspi->MspDeInitCallback = pCallback;
 647:Drivers/STM32G4xx_HAL_Driver/Src/stm32g4xx_hal_spi.c ****         break;
 648:Drivers/STM32G4xx_HAL_Driver/Src/stm32g4xx_hal_spi.c **** 
 649:Drivers/STM32G4xx_HAL_Driver/Src/stm32g4xx_hal_spi.c ****       default :
 650:Drivers/STM32G4xx_HAL_Driver/Src/stm32g4xx_hal_spi.c ****         /* Update the error code */
 651:Drivers/STM32G4xx_HAL_Driver/Src/stm32g4xx_hal_spi.c ****         SET_BIT(hspi->ErrorCode, HAL_SPI_ERROR_INVALID_CALLBACK);
 652:Drivers/STM32G4xx_HAL_Driver/Src/stm32g4xx_hal_spi.c **** 
 653:Drivers/STM32G4xx_HAL_Driver/Src/stm32g4xx_hal_spi.c ****         /* Return error status */
 654:Drivers/STM32G4xx_HAL_Driver/Src/stm32g4xx_hal_spi.c ****         status =  HAL_ERROR;
 655:Drivers/STM32G4xx_HAL_Driver/Src/stm32g4xx_hal_spi.c ****         break;
 656:Drivers/STM32G4xx_HAL_Driver/Src/stm32g4xx_hal_spi.c ****     }
 657:Drivers/STM32G4xx_HAL_Driver/Src/stm32g4xx_hal_spi.c ****   }
 658:Drivers/STM32G4xx_HAL_Driver/Src/stm32g4xx_hal_spi.c ****   else
 659:Drivers/STM32G4xx_HAL_Driver/Src/stm32g4xx_hal_spi.c ****   {
 660:Drivers/STM32G4xx_HAL_Driver/Src/stm32g4xx_hal_spi.c ****     /* Update the error code */
 661:Drivers/STM32G4xx_HAL_Driver/Src/stm32g4xx_hal_spi.c ****     SET_BIT(hspi->ErrorCode, HAL_SPI_ERROR_INVALID_CALLBACK);
 662:Drivers/STM32G4xx_HAL_Driver/Src/stm32g4xx_hal_spi.c **** 
 663:Drivers/STM32G4xx_HAL_Driver/Src/stm32g4xx_hal_spi.c ****     /* Return error status */
 664:Drivers/STM32G4xx_HAL_Driver/Src/stm32g4xx_hal_spi.c ****     status =  HAL_ERROR;
 665:Drivers/STM32G4xx_HAL_Driver/Src/stm32g4xx_hal_spi.c ****   }
 666:Drivers/STM32G4xx_HAL_Driver/Src/stm32g4xx_hal_spi.c **** 
 667:Drivers/STM32G4xx_HAL_Driver/Src/stm32g4xx_hal_spi.c ****   /* Release Lock */
 668:Drivers/STM32G4xx_HAL_Driver/Src/stm32g4xx_hal_spi.c ****   __HAL_UNLOCK(hspi);
 669:Drivers/STM32G4xx_HAL_Driver/Src/stm32g4xx_hal_spi.c ****   return status;
 670:Drivers/STM32G4xx_HAL_Driver/Src/stm32g4xx_hal_spi.c **** }
 671:Drivers/STM32G4xx_HAL_Driver/Src/stm32g4xx_hal_spi.c **** 
 672:Drivers/STM32G4xx_HAL_Driver/Src/stm32g4xx_hal_spi.c **** /**
 673:Drivers/STM32G4xx_HAL_Driver/Src/stm32g4xx_hal_spi.c ****   * @brief  Unregister an SPI Callback
 674:Drivers/STM32G4xx_HAL_Driver/Src/stm32g4xx_hal_spi.c ****   *         SPI callback is redirected to the weak predefined callback
 675:Drivers/STM32G4xx_HAL_Driver/Src/stm32g4xx_hal_spi.c ****   * @param  hspi Pointer to a SPI_HandleTypeDef structure that contains
 676:Drivers/STM32G4xx_HAL_Driver/Src/stm32g4xx_hal_spi.c ****   *                the configuration information for the specified SPI.
 677:Drivers/STM32G4xx_HAL_Driver/Src/stm32g4xx_hal_spi.c ****   * @param  CallbackID ID of the callback to be unregistered
 678:Drivers/STM32G4xx_HAL_Driver/Src/stm32g4xx_hal_spi.c ****   * @retval HAL status
 679:Drivers/STM32G4xx_HAL_Driver/Src/stm32g4xx_hal_spi.c ****   */
 680:Drivers/STM32G4xx_HAL_Driver/Src/stm32g4xx_hal_spi.c **** HAL_StatusTypeDef HAL_SPI_UnRegisterCallback(SPI_HandleTypeDef *hspi, HAL_SPI_CallbackIDTypeDef Cal
 681:Drivers/STM32G4xx_HAL_Driver/Src/stm32g4xx_hal_spi.c **** {
 682:Drivers/STM32G4xx_HAL_Driver/Src/stm32g4xx_hal_spi.c ****   HAL_StatusTypeDef status = HAL_OK;
 683:Drivers/STM32G4xx_HAL_Driver/Src/stm32g4xx_hal_spi.c **** 
 684:Drivers/STM32G4xx_HAL_Driver/Src/stm32g4xx_hal_spi.c ****   /* Process locked */
 685:Drivers/STM32G4xx_HAL_Driver/Src/stm32g4xx_hal_spi.c ****   __HAL_LOCK(hspi);
 686:Drivers/STM32G4xx_HAL_Driver/Src/stm32g4xx_hal_spi.c **** 
 687:Drivers/STM32G4xx_HAL_Driver/Src/stm32g4xx_hal_spi.c ****   if (HAL_SPI_STATE_READY == hspi->State)
 688:Drivers/STM32G4xx_HAL_Driver/Src/stm32g4xx_hal_spi.c ****   {
 689:Drivers/STM32G4xx_HAL_Driver/Src/stm32g4xx_hal_spi.c ****     switch (CallbackID)
 690:Drivers/STM32G4xx_HAL_Driver/Src/stm32g4xx_hal_spi.c ****     {
 691:Drivers/STM32G4xx_HAL_Driver/Src/stm32g4xx_hal_spi.c ****       case HAL_SPI_TX_COMPLETE_CB_ID :
ARM GAS  C:\Users\AURORA~1\AppData\Local\Temp\ccDX0hEW.s 			page 20


 692:Drivers/STM32G4xx_HAL_Driver/Src/stm32g4xx_hal_spi.c ****         hspi->TxCpltCallback = HAL_SPI_TxCpltCallback;             /* Legacy weak TxCpltCallback   
 693:Drivers/STM32G4xx_HAL_Driver/Src/stm32g4xx_hal_spi.c ****         break;
 694:Drivers/STM32G4xx_HAL_Driver/Src/stm32g4xx_hal_spi.c **** 
 695:Drivers/STM32G4xx_HAL_Driver/Src/stm32g4xx_hal_spi.c ****       case HAL_SPI_RX_COMPLETE_CB_ID :
 696:Drivers/STM32G4xx_HAL_Driver/Src/stm32g4xx_hal_spi.c ****         hspi->RxCpltCallback = HAL_SPI_RxCpltCallback;             /* Legacy weak RxCpltCallback   
 697:Drivers/STM32G4xx_HAL_Driver/Src/stm32g4xx_hal_spi.c ****         break;
 698:Drivers/STM32G4xx_HAL_Driver/Src/stm32g4xx_hal_spi.c **** 
 699:Drivers/STM32G4xx_HAL_Driver/Src/stm32g4xx_hal_spi.c ****       case HAL_SPI_TX_RX_COMPLETE_CB_ID :
 700:Drivers/STM32G4xx_HAL_Driver/Src/stm32g4xx_hal_spi.c ****         hspi->TxRxCpltCallback = HAL_SPI_TxRxCpltCallback;         /* Legacy weak TxRxCpltCallback 
 701:Drivers/STM32G4xx_HAL_Driver/Src/stm32g4xx_hal_spi.c ****         break;
 702:Drivers/STM32G4xx_HAL_Driver/Src/stm32g4xx_hal_spi.c **** 
 703:Drivers/STM32G4xx_HAL_Driver/Src/stm32g4xx_hal_spi.c ****       case HAL_SPI_TX_HALF_COMPLETE_CB_ID :
 704:Drivers/STM32G4xx_HAL_Driver/Src/stm32g4xx_hal_spi.c ****         hspi->TxHalfCpltCallback = HAL_SPI_TxHalfCpltCallback;     /* Legacy weak TxHalfCpltCallbac
 705:Drivers/STM32G4xx_HAL_Driver/Src/stm32g4xx_hal_spi.c ****         break;
 706:Drivers/STM32G4xx_HAL_Driver/Src/stm32g4xx_hal_spi.c **** 
 707:Drivers/STM32G4xx_HAL_Driver/Src/stm32g4xx_hal_spi.c ****       case HAL_SPI_RX_HALF_COMPLETE_CB_ID :
 708:Drivers/STM32G4xx_HAL_Driver/Src/stm32g4xx_hal_spi.c ****         hspi->RxHalfCpltCallback = HAL_SPI_RxHalfCpltCallback;     /* Legacy weak RxHalfCpltCallbac
 709:Drivers/STM32G4xx_HAL_Driver/Src/stm32g4xx_hal_spi.c ****         break;
 710:Drivers/STM32G4xx_HAL_Driver/Src/stm32g4xx_hal_spi.c **** 
 711:Drivers/STM32G4xx_HAL_Driver/Src/stm32g4xx_hal_spi.c ****       case HAL_SPI_TX_RX_HALF_COMPLETE_CB_ID :
 712:Drivers/STM32G4xx_HAL_Driver/Src/stm32g4xx_hal_spi.c ****         hspi->TxRxHalfCpltCallback = HAL_SPI_TxRxHalfCpltCallback; /* Legacy weak TxRxHalfCpltCallb
 713:Drivers/STM32G4xx_HAL_Driver/Src/stm32g4xx_hal_spi.c ****         break;
 714:Drivers/STM32G4xx_HAL_Driver/Src/stm32g4xx_hal_spi.c **** 
 715:Drivers/STM32G4xx_HAL_Driver/Src/stm32g4xx_hal_spi.c ****       case HAL_SPI_ERROR_CB_ID :
 716:Drivers/STM32G4xx_HAL_Driver/Src/stm32g4xx_hal_spi.c ****         hspi->ErrorCallback = HAL_SPI_ErrorCallback;               /* Legacy weak ErrorCallback    
 717:Drivers/STM32G4xx_HAL_Driver/Src/stm32g4xx_hal_spi.c ****         break;
 718:Drivers/STM32G4xx_HAL_Driver/Src/stm32g4xx_hal_spi.c **** 
 719:Drivers/STM32G4xx_HAL_Driver/Src/stm32g4xx_hal_spi.c ****       case HAL_SPI_ABORT_CB_ID :
 720:Drivers/STM32G4xx_HAL_Driver/Src/stm32g4xx_hal_spi.c ****         hspi->AbortCpltCallback = HAL_SPI_AbortCpltCallback;       /* Legacy weak AbortCpltCallback
 721:Drivers/STM32G4xx_HAL_Driver/Src/stm32g4xx_hal_spi.c ****         break;
 722:Drivers/STM32G4xx_HAL_Driver/Src/stm32g4xx_hal_spi.c **** 
 723:Drivers/STM32G4xx_HAL_Driver/Src/stm32g4xx_hal_spi.c ****       case HAL_SPI_MSPINIT_CB_ID :
 724:Drivers/STM32G4xx_HAL_Driver/Src/stm32g4xx_hal_spi.c ****         hspi->MspInitCallback = HAL_SPI_MspInit;                   /* Legacy weak MspInit          
 725:Drivers/STM32G4xx_HAL_Driver/Src/stm32g4xx_hal_spi.c ****         break;
 726:Drivers/STM32G4xx_HAL_Driver/Src/stm32g4xx_hal_spi.c **** 
 727:Drivers/STM32G4xx_HAL_Driver/Src/stm32g4xx_hal_spi.c ****       case HAL_SPI_MSPDEINIT_CB_ID :
 728:Drivers/STM32G4xx_HAL_Driver/Src/stm32g4xx_hal_spi.c ****         hspi->MspDeInitCallback = HAL_SPI_MspDeInit;               /* Legacy weak MspDeInit        
 729:Drivers/STM32G4xx_HAL_Driver/Src/stm32g4xx_hal_spi.c ****         break;
 730:Drivers/STM32G4xx_HAL_Driver/Src/stm32g4xx_hal_spi.c **** 
 731:Drivers/STM32G4xx_HAL_Driver/Src/stm32g4xx_hal_spi.c ****       default :
 732:Drivers/STM32G4xx_HAL_Driver/Src/stm32g4xx_hal_spi.c ****         /* Update the error code */
 733:Drivers/STM32G4xx_HAL_Driver/Src/stm32g4xx_hal_spi.c ****         SET_BIT(hspi->ErrorCode, HAL_SPI_ERROR_INVALID_CALLBACK);
 734:Drivers/STM32G4xx_HAL_Driver/Src/stm32g4xx_hal_spi.c **** 
 735:Drivers/STM32G4xx_HAL_Driver/Src/stm32g4xx_hal_spi.c ****         /* Return error status */
 736:Drivers/STM32G4xx_HAL_Driver/Src/stm32g4xx_hal_spi.c ****         status =  HAL_ERROR;
 737:Drivers/STM32G4xx_HAL_Driver/Src/stm32g4xx_hal_spi.c ****         break;
 738:Drivers/STM32G4xx_HAL_Driver/Src/stm32g4xx_hal_spi.c ****     }
 739:Drivers/STM32G4xx_HAL_Driver/Src/stm32g4xx_hal_spi.c ****   }
 740:Drivers/STM32G4xx_HAL_Driver/Src/stm32g4xx_hal_spi.c ****   else if (HAL_SPI_STATE_RESET == hspi->State)
 741:Drivers/STM32G4xx_HAL_Driver/Src/stm32g4xx_hal_spi.c ****   {
 742:Drivers/STM32G4xx_HAL_Driver/Src/stm32g4xx_hal_spi.c ****     switch (CallbackID)
 743:Drivers/STM32G4xx_HAL_Driver/Src/stm32g4xx_hal_spi.c ****     {
 744:Drivers/STM32G4xx_HAL_Driver/Src/stm32g4xx_hal_spi.c ****       case HAL_SPI_MSPINIT_CB_ID :
 745:Drivers/STM32G4xx_HAL_Driver/Src/stm32g4xx_hal_spi.c ****         hspi->MspInitCallback = HAL_SPI_MspInit;                   /* Legacy weak MspInit          
 746:Drivers/STM32G4xx_HAL_Driver/Src/stm32g4xx_hal_spi.c ****         break;
 747:Drivers/STM32G4xx_HAL_Driver/Src/stm32g4xx_hal_spi.c **** 
 748:Drivers/STM32G4xx_HAL_Driver/Src/stm32g4xx_hal_spi.c ****       case HAL_SPI_MSPDEINIT_CB_ID :
ARM GAS  C:\Users\AURORA~1\AppData\Local\Temp\ccDX0hEW.s 			page 21


 749:Drivers/STM32G4xx_HAL_Driver/Src/stm32g4xx_hal_spi.c ****         hspi->MspDeInitCallback = HAL_SPI_MspDeInit;               /* Legacy weak MspDeInit        
 750:Drivers/STM32G4xx_HAL_Driver/Src/stm32g4xx_hal_spi.c ****         break;
 751:Drivers/STM32G4xx_HAL_Driver/Src/stm32g4xx_hal_spi.c **** 
 752:Drivers/STM32G4xx_HAL_Driver/Src/stm32g4xx_hal_spi.c ****       default :
 753:Drivers/STM32G4xx_HAL_Driver/Src/stm32g4xx_hal_spi.c ****         /* Update the error code */
 754:Drivers/STM32G4xx_HAL_Driver/Src/stm32g4xx_hal_spi.c ****         SET_BIT(hspi->ErrorCode, HAL_SPI_ERROR_INVALID_CALLBACK);
 755:Drivers/STM32G4xx_HAL_Driver/Src/stm32g4xx_hal_spi.c **** 
 756:Drivers/STM32G4xx_HAL_Driver/Src/stm32g4xx_hal_spi.c ****         /* Return error status */
 757:Drivers/STM32G4xx_HAL_Driver/Src/stm32g4xx_hal_spi.c ****         status =  HAL_ERROR;
 758:Drivers/STM32G4xx_HAL_Driver/Src/stm32g4xx_hal_spi.c ****         break;
 759:Drivers/STM32G4xx_HAL_Driver/Src/stm32g4xx_hal_spi.c ****     }
 760:Drivers/STM32G4xx_HAL_Driver/Src/stm32g4xx_hal_spi.c ****   }
 761:Drivers/STM32G4xx_HAL_Driver/Src/stm32g4xx_hal_spi.c ****   else
 762:Drivers/STM32G4xx_HAL_Driver/Src/stm32g4xx_hal_spi.c ****   {
 763:Drivers/STM32G4xx_HAL_Driver/Src/stm32g4xx_hal_spi.c ****     /* Update the error code */
 764:Drivers/STM32G4xx_HAL_Driver/Src/stm32g4xx_hal_spi.c ****     SET_BIT(hspi->ErrorCode, HAL_SPI_ERROR_INVALID_CALLBACK);
 765:Drivers/STM32G4xx_HAL_Driver/Src/stm32g4xx_hal_spi.c **** 
 766:Drivers/STM32G4xx_HAL_Driver/Src/stm32g4xx_hal_spi.c ****     /* Return error status */
 767:Drivers/STM32G4xx_HAL_Driver/Src/stm32g4xx_hal_spi.c ****     status =  HAL_ERROR;
 768:Drivers/STM32G4xx_HAL_Driver/Src/stm32g4xx_hal_spi.c ****   }
 769:Drivers/STM32G4xx_HAL_Driver/Src/stm32g4xx_hal_spi.c **** 
 770:Drivers/STM32G4xx_HAL_Driver/Src/stm32g4xx_hal_spi.c ****   /* Release Lock */
 771:Drivers/STM32G4xx_HAL_Driver/Src/stm32g4xx_hal_spi.c ****   __HAL_UNLOCK(hspi);
 772:Drivers/STM32G4xx_HAL_Driver/Src/stm32g4xx_hal_spi.c ****   return status;
 773:Drivers/STM32G4xx_HAL_Driver/Src/stm32g4xx_hal_spi.c **** }
 774:Drivers/STM32G4xx_HAL_Driver/Src/stm32g4xx_hal_spi.c **** #endif /* USE_HAL_SPI_REGISTER_CALLBACKS */
 775:Drivers/STM32G4xx_HAL_Driver/Src/stm32g4xx_hal_spi.c **** /**
 776:Drivers/STM32G4xx_HAL_Driver/Src/stm32g4xx_hal_spi.c ****   * @}
 777:Drivers/STM32G4xx_HAL_Driver/Src/stm32g4xx_hal_spi.c ****   */
 778:Drivers/STM32G4xx_HAL_Driver/Src/stm32g4xx_hal_spi.c **** 
 779:Drivers/STM32G4xx_HAL_Driver/Src/stm32g4xx_hal_spi.c **** /** @defgroup SPI_Exported_Functions_Group2 IO operation functions
 780:Drivers/STM32G4xx_HAL_Driver/Src/stm32g4xx_hal_spi.c ****   *  @brief   Data transfers functions
 781:Drivers/STM32G4xx_HAL_Driver/Src/stm32g4xx_hal_spi.c ****   *
 782:Drivers/STM32G4xx_HAL_Driver/Src/stm32g4xx_hal_spi.c **** @verbatim
 783:Drivers/STM32G4xx_HAL_Driver/Src/stm32g4xx_hal_spi.c ****   ==============================================================================
 784:Drivers/STM32G4xx_HAL_Driver/Src/stm32g4xx_hal_spi.c ****                       ##### IO operation functions #####
 785:Drivers/STM32G4xx_HAL_Driver/Src/stm32g4xx_hal_spi.c ****  ===============================================================================
 786:Drivers/STM32G4xx_HAL_Driver/Src/stm32g4xx_hal_spi.c ****  [..]
 787:Drivers/STM32G4xx_HAL_Driver/Src/stm32g4xx_hal_spi.c ****     This subsection provides a set of functions allowing to manage the SPI
 788:Drivers/STM32G4xx_HAL_Driver/Src/stm32g4xx_hal_spi.c ****     data transfers.
 789:Drivers/STM32G4xx_HAL_Driver/Src/stm32g4xx_hal_spi.c **** 
 790:Drivers/STM32G4xx_HAL_Driver/Src/stm32g4xx_hal_spi.c ****     [..] The SPI supports master and slave mode :
 791:Drivers/STM32G4xx_HAL_Driver/Src/stm32g4xx_hal_spi.c **** 
 792:Drivers/STM32G4xx_HAL_Driver/Src/stm32g4xx_hal_spi.c ****     (#) There are two modes of transfer:
 793:Drivers/STM32G4xx_HAL_Driver/Src/stm32g4xx_hal_spi.c ****        (++) Blocking mode: The communication is performed in polling mode.
 794:Drivers/STM32G4xx_HAL_Driver/Src/stm32g4xx_hal_spi.c ****             The HAL status of all data processing is returned by the same function
 795:Drivers/STM32G4xx_HAL_Driver/Src/stm32g4xx_hal_spi.c ****             after finishing transfer.
 796:Drivers/STM32G4xx_HAL_Driver/Src/stm32g4xx_hal_spi.c ****        (++) No-Blocking mode: The communication is performed using Interrupts
 797:Drivers/STM32G4xx_HAL_Driver/Src/stm32g4xx_hal_spi.c ****             or DMA, These APIs return the HAL status.
 798:Drivers/STM32G4xx_HAL_Driver/Src/stm32g4xx_hal_spi.c ****             The end of the data processing will be indicated through the
 799:Drivers/STM32G4xx_HAL_Driver/Src/stm32g4xx_hal_spi.c ****             dedicated SPI IRQ when using Interrupt mode or the DMA IRQ when
 800:Drivers/STM32G4xx_HAL_Driver/Src/stm32g4xx_hal_spi.c ****             using DMA mode.
 801:Drivers/STM32G4xx_HAL_Driver/Src/stm32g4xx_hal_spi.c ****             The HAL_SPI_TxCpltCallback(), HAL_SPI_RxCpltCallback() and HAL_SPI_TxRxCpltCallback() u
 802:Drivers/STM32G4xx_HAL_Driver/Src/stm32g4xx_hal_spi.c ****             will be executed respectively at the end of the transmit or Receive process
 803:Drivers/STM32G4xx_HAL_Driver/Src/stm32g4xx_hal_spi.c ****             The HAL_SPI_ErrorCallback()user callback will be executed when a communication error is
 804:Drivers/STM32G4xx_HAL_Driver/Src/stm32g4xx_hal_spi.c **** 
 805:Drivers/STM32G4xx_HAL_Driver/Src/stm32g4xx_hal_spi.c ****     (#) APIs provided for these 2 transfer modes (Blocking mode or Non blocking mode using either I
ARM GAS  C:\Users\AURORA~1\AppData\Local\Temp\ccDX0hEW.s 			page 22


 806:Drivers/STM32G4xx_HAL_Driver/Src/stm32g4xx_hal_spi.c ****         exist for 1Line (simplex) and 2Lines (full duplex) modes.
 807:Drivers/STM32G4xx_HAL_Driver/Src/stm32g4xx_hal_spi.c **** 
 808:Drivers/STM32G4xx_HAL_Driver/Src/stm32g4xx_hal_spi.c **** @endverbatim
 809:Drivers/STM32G4xx_HAL_Driver/Src/stm32g4xx_hal_spi.c ****   * @{
 810:Drivers/STM32G4xx_HAL_Driver/Src/stm32g4xx_hal_spi.c ****   */
 811:Drivers/STM32G4xx_HAL_Driver/Src/stm32g4xx_hal_spi.c **** 
 812:Drivers/STM32G4xx_HAL_Driver/Src/stm32g4xx_hal_spi.c **** /**
 813:Drivers/STM32G4xx_HAL_Driver/Src/stm32g4xx_hal_spi.c ****   * @brief  Transmit an amount of data in blocking mode.
 814:Drivers/STM32G4xx_HAL_Driver/Src/stm32g4xx_hal_spi.c ****   * @param  hspi pointer to a SPI_HandleTypeDef structure that contains
 815:Drivers/STM32G4xx_HAL_Driver/Src/stm32g4xx_hal_spi.c ****   *               the configuration information for SPI module.
 816:Drivers/STM32G4xx_HAL_Driver/Src/stm32g4xx_hal_spi.c ****   * @param  pData pointer to data buffer
 817:Drivers/STM32G4xx_HAL_Driver/Src/stm32g4xx_hal_spi.c ****   * @param  Size amount of data to be sent
 818:Drivers/STM32G4xx_HAL_Driver/Src/stm32g4xx_hal_spi.c ****   * @param  Timeout Timeout duration
 819:Drivers/STM32G4xx_HAL_Driver/Src/stm32g4xx_hal_spi.c ****   * @retval HAL status
 820:Drivers/STM32G4xx_HAL_Driver/Src/stm32g4xx_hal_spi.c ****   */
 821:Drivers/STM32G4xx_HAL_Driver/Src/stm32g4xx_hal_spi.c **** HAL_StatusTypeDef HAL_SPI_Transmit(SPI_HandleTypeDef *hspi, uint8_t *pData, uint16_t Size, uint32_t
 822:Drivers/STM32G4xx_HAL_Driver/Src/stm32g4xx_hal_spi.c **** {
 402              		.loc 1 822 1
 403              		.cfi_startproc
 404              		@ args = 0, pretend = 0, frame = 32
 405              		@ frame_needed = 1, uses_anonymous_args = 0
 406 0000 80B5     		push	{r7, lr}
 407              	.LCFI22:
 408              		.cfi_def_cfa_offset 8
 409              		.cfi_offset 7, -8
 410              		.cfi_offset 14, -4
 411 0002 88B0     		sub	sp, sp, #32
 412              	.LCFI23:
 413              		.cfi_def_cfa_offset 40
 414 0004 00AF     		add	r7, sp, #0
 415              	.LCFI24:
 416              		.cfi_def_cfa_register 7
 417 0006 F860     		str	r0, [r7, #12]
 418 0008 B960     		str	r1, [r7, #8]
 419 000a 3B60     		str	r3, [r7]
 420 000c 1346     		mov	r3, r2	@ movhi
 421 000e FB80     		strh	r3, [r7, #6]	@ movhi
 823:Drivers/STM32G4xx_HAL_Driver/Src/stm32g4xx_hal_spi.c ****   uint32_t tickstart;
 824:Drivers/STM32G4xx_HAL_Driver/Src/stm32g4xx_hal_spi.c ****   HAL_StatusTypeDef errorcode = HAL_OK;
 422              		.loc 1 824 21
 423 0010 0023     		movs	r3, #0
 424 0012 FB77     		strb	r3, [r7, #31]
 825:Drivers/STM32G4xx_HAL_Driver/Src/stm32g4xx_hal_spi.c ****   uint16_t initial_TxXferCount;
 826:Drivers/STM32G4xx_HAL_Driver/Src/stm32g4xx_hal_spi.c **** 
 827:Drivers/STM32G4xx_HAL_Driver/Src/stm32g4xx_hal_spi.c ****   /* Check Direction parameter */
 828:Drivers/STM32G4xx_HAL_Driver/Src/stm32g4xx_hal_spi.c ****   assert_param(IS_SPI_DIRECTION_2LINES_OR_1LINE(hspi->Init.Direction));
 829:Drivers/STM32G4xx_HAL_Driver/Src/stm32g4xx_hal_spi.c **** 
 830:Drivers/STM32G4xx_HAL_Driver/Src/stm32g4xx_hal_spi.c ****   /* Process Locked */
 831:Drivers/STM32G4xx_HAL_Driver/Src/stm32g4xx_hal_spi.c ****   __HAL_LOCK(hspi);
 425              		.loc 1 831 3
 426 0014 FB68     		ldr	r3, [r7, #12]
 427 0016 93F85C30 		ldrb	r3, [r3, #92]	@ zero_extendqisi2
 428 001a 012B     		cmp	r3, #1
 429 001c 01D1     		bne	.L16
 430              		.loc 1 831 3 is_stmt 0 discriminator 1
 431 001e 0223     		movs	r3, #2
 432              		.loc 1 831 3
ARM GAS  C:\Users\AURORA~1\AppData\Local\Temp\ccDX0hEW.s 			page 23


 433 0020 5FE1     		b	.L17
 434              	.L16:
 435              		.loc 1 831 3 discriminator 2
 436 0022 FB68     		ldr	r3, [r7, #12]
 437 0024 0122     		movs	r2, #1
 438 0026 83F85C20 		strb	r2, [r3, #92]
 832:Drivers/STM32G4xx_HAL_Driver/Src/stm32g4xx_hal_spi.c **** 
 833:Drivers/STM32G4xx_HAL_Driver/Src/stm32g4xx_hal_spi.c ****   /* Init tickstart for timeout management*/
 834:Drivers/STM32G4xx_HAL_Driver/Src/stm32g4xx_hal_spi.c ****   tickstart = HAL_GetTick();
 439              		.loc 1 834 15 is_stmt 1
 440 002a FFF7FEFF 		bl	HAL_GetTick
 441 002e B861     		str	r0, [r7, #24]
 835:Drivers/STM32G4xx_HAL_Driver/Src/stm32g4xx_hal_spi.c ****   initial_TxXferCount = Size;
 442              		.loc 1 835 23
 443 0030 FB88     		ldrh	r3, [r7, #6]	@ movhi
 444 0032 FB82     		strh	r3, [r7, #22]	@ movhi
 836:Drivers/STM32G4xx_HAL_Driver/Src/stm32g4xx_hal_spi.c **** 
 837:Drivers/STM32G4xx_HAL_Driver/Src/stm32g4xx_hal_spi.c ****   if (hspi->State != HAL_SPI_STATE_READY)
 445              		.loc 1 837 11
 446 0034 FB68     		ldr	r3, [r7, #12]
 447 0036 93F85D30 		ldrb	r3, [r3, #93]
 448 003a DBB2     		uxtb	r3, r3
 449              		.loc 1 837 6
 450 003c 012B     		cmp	r3, #1
 451 003e 02D0     		beq	.L18
 838:Drivers/STM32G4xx_HAL_Driver/Src/stm32g4xx_hal_spi.c ****   {
 839:Drivers/STM32G4xx_HAL_Driver/Src/stm32g4xx_hal_spi.c ****     errorcode = HAL_BUSY;
 452              		.loc 1 839 15
 453 0040 0223     		movs	r3, #2
 454 0042 FB77     		strb	r3, [r7, #31]
 840:Drivers/STM32G4xx_HAL_Driver/Src/stm32g4xx_hal_spi.c ****     goto error;
 455              		.loc 1 840 5
 456 0044 48E1     		b	.L19
 457              	.L18:
 841:Drivers/STM32G4xx_HAL_Driver/Src/stm32g4xx_hal_spi.c ****   }
 842:Drivers/STM32G4xx_HAL_Driver/Src/stm32g4xx_hal_spi.c **** 
 843:Drivers/STM32G4xx_HAL_Driver/Src/stm32g4xx_hal_spi.c ****   if ((pData == NULL) || (Size == 0U))
 458              		.loc 1 843 6
 459 0046 BB68     		ldr	r3, [r7, #8]
 460 0048 002B     		cmp	r3, #0
 461 004a 02D0     		beq	.L20
 462              		.loc 1 843 23 discriminator 1
 463 004c FB88     		ldrh	r3, [r7, #6]
 464 004e 002B     		cmp	r3, #0
 465 0050 02D1     		bne	.L21
 466              	.L20:
 844:Drivers/STM32G4xx_HAL_Driver/Src/stm32g4xx_hal_spi.c ****   {
 845:Drivers/STM32G4xx_HAL_Driver/Src/stm32g4xx_hal_spi.c ****     errorcode = HAL_ERROR;
 467              		.loc 1 845 15
 468 0052 0123     		movs	r3, #1
 469 0054 FB77     		strb	r3, [r7, #31]
 846:Drivers/STM32G4xx_HAL_Driver/Src/stm32g4xx_hal_spi.c ****     goto error;
 470              		.loc 1 846 5
 471 0056 3FE1     		b	.L19
 472              	.L21:
 847:Drivers/STM32G4xx_HAL_Driver/Src/stm32g4xx_hal_spi.c ****   }
 848:Drivers/STM32G4xx_HAL_Driver/Src/stm32g4xx_hal_spi.c **** 
ARM GAS  C:\Users\AURORA~1\AppData\Local\Temp\ccDX0hEW.s 			page 24


 849:Drivers/STM32G4xx_HAL_Driver/Src/stm32g4xx_hal_spi.c ****   /* Set the transaction information */
 850:Drivers/STM32G4xx_HAL_Driver/Src/stm32g4xx_hal_spi.c ****   hspi->State       = HAL_SPI_STATE_BUSY_TX;
 473              		.loc 1 850 21
 474 0058 FB68     		ldr	r3, [r7, #12]
 475 005a 0322     		movs	r2, #3
 476 005c 83F85D20 		strb	r2, [r3, #93]
 851:Drivers/STM32G4xx_HAL_Driver/Src/stm32g4xx_hal_spi.c ****   hspi->ErrorCode   = HAL_SPI_ERROR_NONE;
 477              		.loc 1 851 21
 478 0060 FB68     		ldr	r3, [r7, #12]
 479 0062 0022     		movs	r2, #0
 480 0064 1A66     		str	r2, [r3, #96]
 852:Drivers/STM32G4xx_HAL_Driver/Src/stm32g4xx_hal_spi.c ****   hspi->pTxBuffPtr  = (uint8_t *)pData;
 481              		.loc 1 852 21
 482 0066 FB68     		ldr	r3, [r7, #12]
 483 0068 BA68     		ldr	r2, [r7, #8]
 484 006a 9A63     		str	r2, [r3, #56]
 853:Drivers/STM32G4xx_HAL_Driver/Src/stm32g4xx_hal_spi.c ****   hspi->TxXferSize  = Size;
 485              		.loc 1 853 21
 486 006c FB68     		ldr	r3, [r7, #12]
 487 006e FA88     		ldrh	r2, [r7, #6]	@ movhi
 488 0070 9A87     		strh	r2, [r3, #60]	@ movhi
 854:Drivers/STM32G4xx_HAL_Driver/Src/stm32g4xx_hal_spi.c ****   hspi->TxXferCount = Size;
 489              		.loc 1 854 21
 490 0072 FB68     		ldr	r3, [r7, #12]
 491 0074 FA88     		ldrh	r2, [r7, #6]	@ movhi
 492 0076 DA87     		strh	r2, [r3, #62]	@ movhi
 855:Drivers/STM32G4xx_HAL_Driver/Src/stm32g4xx_hal_spi.c **** 
 856:Drivers/STM32G4xx_HAL_Driver/Src/stm32g4xx_hal_spi.c ****   /*Init field not used in handle to zero */
 857:Drivers/STM32G4xx_HAL_Driver/Src/stm32g4xx_hal_spi.c ****   hspi->pRxBuffPtr  = (uint8_t *)NULL;
 493              		.loc 1 857 21
 494 0078 FB68     		ldr	r3, [r7, #12]
 495 007a 0022     		movs	r2, #0
 496 007c 1A64     		str	r2, [r3, #64]
 858:Drivers/STM32G4xx_HAL_Driver/Src/stm32g4xx_hal_spi.c ****   hspi->RxXferSize  = 0U;
 497              		.loc 1 858 21
 498 007e FB68     		ldr	r3, [r7, #12]
 499 0080 0022     		movs	r2, #0
 500 0082 A3F84420 		strh	r2, [r3, #68]	@ movhi
 859:Drivers/STM32G4xx_HAL_Driver/Src/stm32g4xx_hal_spi.c ****   hspi->RxXferCount = 0U;
 501              		.loc 1 859 21
 502 0086 FB68     		ldr	r3, [r7, #12]
 503 0088 0022     		movs	r2, #0
 504 008a A3F84620 		strh	r2, [r3, #70]	@ movhi
 860:Drivers/STM32G4xx_HAL_Driver/Src/stm32g4xx_hal_spi.c ****   hspi->TxISR       = NULL;
 505              		.loc 1 860 21
 506 008e FB68     		ldr	r3, [r7, #12]
 507 0090 0022     		movs	r2, #0
 508 0092 1A65     		str	r2, [r3, #80]
 861:Drivers/STM32G4xx_HAL_Driver/Src/stm32g4xx_hal_spi.c ****   hspi->RxISR       = NULL;
 509              		.loc 1 861 21
 510 0094 FB68     		ldr	r3, [r7, #12]
 511 0096 0022     		movs	r2, #0
 512 0098 DA64     		str	r2, [r3, #76]
 862:Drivers/STM32G4xx_HAL_Driver/Src/stm32g4xx_hal_spi.c **** 
 863:Drivers/STM32G4xx_HAL_Driver/Src/stm32g4xx_hal_spi.c ****   /* Configure communication direction : 1Line */
 864:Drivers/STM32G4xx_HAL_Driver/Src/stm32g4xx_hal_spi.c ****   if (hspi->Init.Direction == SPI_DIRECTION_1LINE)
 513              		.loc 1 864 17
ARM GAS  C:\Users\AURORA~1\AppData\Local\Temp\ccDX0hEW.s 			page 25


 514 009a FB68     		ldr	r3, [r7, #12]
 515 009c 9B68     		ldr	r3, [r3, #8]
 516              		.loc 1 864 6
 517 009e B3F5004F 		cmp	r3, #32768
 518 00a2 0FD1     		bne	.L22
 865:Drivers/STM32G4xx_HAL_Driver/Src/stm32g4xx_hal_spi.c ****   {
 866:Drivers/STM32G4xx_HAL_Driver/Src/stm32g4xx_hal_spi.c ****     /* Disable SPI Peripheral before set 1Line direction (BIDIOE bit) */
 867:Drivers/STM32G4xx_HAL_Driver/Src/stm32g4xx_hal_spi.c ****     __HAL_SPI_DISABLE(hspi);
 519              		.loc 1 867 5
 520 00a4 FB68     		ldr	r3, [r7, #12]
 521 00a6 1B68     		ldr	r3, [r3]
 522 00a8 1A68     		ldr	r2, [r3]
 523 00aa FB68     		ldr	r3, [r7, #12]
 524 00ac 1B68     		ldr	r3, [r3]
 525 00ae 22F04002 		bic	r2, r2, #64
 526 00b2 1A60     		str	r2, [r3]
 868:Drivers/STM32G4xx_HAL_Driver/Src/stm32g4xx_hal_spi.c ****     SPI_1LINE_TX(hspi);
 527              		.loc 1 868 5
 528 00b4 FB68     		ldr	r3, [r7, #12]
 529 00b6 1B68     		ldr	r3, [r3]
 530 00b8 1A68     		ldr	r2, [r3]
 531 00ba FB68     		ldr	r3, [r7, #12]
 532 00bc 1B68     		ldr	r3, [r3]
 533 00be 42F48042 		orr	r2, r2, #16384
 534 00c2 1A60     		str	r2, [r3]
 535              	.L22:
 869:Drivers/STM32G4xx_HAL_Driver/Src/stm32g4xx_hal_spi.c ****   }
 870:Drivers/STM32G4xx_HAL_Driver/Src/stm32g4xx_hal_spi.c **** 
 871:Drivers/STM32G4xx_HAL_Driver/Src/stm32g4xx_hal_spi.c **** #if (USE_SPI_CRC != 0U)
 872:Drivers/STM32G4xx_HAL_Driver/Src/stm32g4xx_hal_spi.c ****   /* Reset CRC Calculation */
 873:Drivers/STM32G4xx_HAL_Driver/Src/stm32g4xx_hal_spi.c ****   if (hspi->Init.CRCCalculation == SPI_CRCCALCULATION_ENABLE)
 874:Drivers/STM32G4xx_HAL_Driver/Src/stm32g4xx_hal_spi.c ****   {
 875:Drivers/STM32G4xx_HAL_Driver/Src/stm32g4xx_hal_spi.c ****     SPI_RESET_CRC(hspi);
 876:Drivers/STM32G4xx_HAL_Driver/Src/stm32g4xx_hal_spi.c ****   }
 877:Drivers/STM32G4xx_HAL_Driver/Src/stm32g4xx_hal_spi.c **** #endif /* USE_SPI_CRC */
 878:Drivers/STM32G4xx_HAL_Driver/Src/stm32g4xx_hal_spi.c **** 
 879:Drivers/STM32G4xx_HAL_Driver/Src/stm32g4xx_hal_spi.c ****   /* Check if the SPI is already enabled */
 880:Drivers/STM32G4xx_HAL_Driver/Src/stm32g4xx_hal_spi.c ****   if ((hspi->Instance->CR1 & SPI_CR1_SPE) != SPI_CR1_SPE)
 536              		.loc 1 880 12
 537 00c4 FB68     		ldr	r3, [r7, #12]
 538 00c6 1B68     		ldr	r3, [r3]
 539              		.loc 1 880 22
 540 00c8 1B68     		ldr	r3, [r3]
 541              		.loc 1 880 28
 542 00ca 03F04003 		and	r3, r3, #64
 543              		.loc 1 880 6
 544 00ce 402B     		cmp	r3, #64
 545 00d0 07D0     		beq	.L23
 881:Drivers/STM32G4xx_HAL_Driver/Src/stm32g4xx_hal_spi.c ****   {
 882:Drivers/STM32G4xx_HAL_Driver/Src/stm32g4xx_hal_spi.c ****     /* Enable SPI peripheral */
 883:Drivers/STM32G4xx_HAL_Driver/Src/stm32g4xx_hal_spi.c ****     __HAL_SPI_ENABLE(hspi);
 546              		.loc 1 883 5
 547 00d2 FB68     		ldr	r3, [r7, #12]
 548 00d4 1B68     		ldr	r3, [r3]
 549 00d6 1A68     		ldr	r2, [r3]
 550 00d8 FB68     		ldr	r3, [r7, #12]
 551 00da 1B68     		ldr	r3, [r3]
ARM GAS  C:\Users\AURORA~1\AppData\Local\Temp\ccDX0hEW.s 			page 26


 552 00dc 42F04002 		orr	r2, r2, #64
 553 00e0 1A60     		str	r2, [r3]
 554              	.L23:
 884:Drivers/STM32G4xx_HAL_Driver/Src/stm32g4xx_hal_spi.c ****   }
 885:Drivers/STM32G4xx_HAL_Driver/Src/stm32g4xx_hal_spi.c **** 
 886:Drivers/STM32G4xx_HAL_Driver/Src/stm32g4xx_hal_spi.c ****   /* Transmit data in 16 Bit mode */
 887:Drivers/STM32G4xx_HAL_Driver/Src/stm32g4xx_hal_spi.c ****   if (hspi->Init.DataSize > SPI_DATASIZE_8BIT)
 555              		.loc 1 887 17
 556 00e2 FB68     		ldr	r3, [r7, #12]
 557 00e4 DB68     		ldr	r3, [r3, #12]
 558              		.loc 1 887 6
 559 00e6 B3F5E06F 		cmp	r3, #1792
 560 00ea 4FD9     		bls	.L24
 888:Drivers/STM32G4xx_HAL_Driver/Src/stm32g4xx_hal_spi.c ****   {
 889:Drivers/STM32G4xx_HAL_Driver/Src/stm32g4xx_hal_spi.c ****     if ((hspi->Init.Mode == SPI_MODE_SLAVE) || (initial_TxXferCount == 0x01U))
 561              		.loc 1 889 20
 562 00ec FB68     		ldr	r3, [r7, #12]
 563 00ee 5B68     		ldr	r3, [r3, #4]
 564              		.loc 1 889 8
 565 00f0 002B     		cmp	r3, #0
 566 00f2 02D0     		beq	.L25
 567              		.loc 1 889 45 discriminator 1
 568 00f4 FB8A     		ldrh	r3, [r7, #22]
 569 00f6 012B     		cmp	r3, #1
 570 00f8 42D1     		bne	.L27
 571              	.L25:
 890:Drivers/STM32G4xx_HAL_Driver/Src/stm32g4xx_hal_spi.c ****     {
 891:Drivers/STM32G4xx_HAL_Driver/Src/stm32g4xx_hal_spi.c ****       hspi->Instance->DR = *((uint16_t *)hspi->pTxBuffPtr);
 572              		.loc 1 891 46
 573 00fa FB68     		ldr	r3, [r7, #12]
 574 00fc 9B6B     		ldr	r3, [r3, #56]
 575              		.loc 1 891 28
 576 00fe 1A88     		ldrh	r2, [r3]
 577              		.loc 1 891 11
 578 0100 FB68     		ldr	r3, [r7, #12]
 579 0102 1B68     		ldr	r3, [r3]
 580              		.loc 1 891 26
 581 0104 DA60     		str	r2, [r3, #12]
 892:Drivers/STM32G4xx_HAL_Driver/Src/stm32g4xx_hal_spi.c ****       hspi->pTxBuffPtr += sizeof(uint16_t);
 582              		.loc 1 892 11
 583 0106 FB68     		ldr	r3, [r7, #12]
 584 0108 9B6B     		ldr	r3, [r3, #56]
 585              		.loc 1 892 24
 586 010a 9A1C     		adds	r2, r3, #2
 587 010c FB68     		ldr	r3, [r7, #12]
 588 010e 9A63     		str	r2, [r3, #56]
 893:Drivers/STM32G4xx_HAL_Driver/Src/stm32g4xx_hal_spi.c ****       hspi->TxXferCount--;
 589              		.loc 1 893 11
 590 0110 FB68     		ldr	r3, [r7, #12]
 591 0112 DB8F     		ldrh	r3, [r3, #62]	@ movhi
 592 0114 9BB2     		uxth	r3, r3
 593              		.loc 1 893 24
 594 0116 013B     		subs	r3, r3, #1
 595 0118 9AB2     		uxth	r2, r3
 596 011a FB68     		ldr	r3, [r7, #12]
 597 011c DA87     		strh	r2, [r3, #62]	@ movhi
 894:Drivers/STM32G4xx_HAL_Driver/Src/stm32g4xx_hal_spi.c ****     }
ARM GAS  C:\Users\AURORA~1\AppData\Local\Temp\ccDX0hEW.s 			page 27


 895:Drivers/STM32G4xx_HAL_Driver/Src/stm32g4xx_hal_spi.c ****     /* Transmit data in 16 Bit mode */
 896:Drivers/STM32G4xx_HAL_Driver/Src/stm32g4xx_hal_spi.c ****     while (hspi->TxXferCount > 0U)
 598              		.loc 1 896 11
 599 011e 2FE0     		b	.L27
 600              	.L32:
 897:Drivers/STM32G4xx_HAL_Driver/Src/stm32g4xx_hal_spi.c ****     {
 898:Drivers/STM32G4xx_HAL_Driver/Src/stm32g4xx_hal_spi.c ****       /* Wait until TXE flag is set to send data */
 899:Drivers/STM32G4xx_HAL_Driver/Src/stm32g4xx_hal_spi.c ****       if (__HAL_SPI_GET_FLAG(hspi, SPI_FLAG_TXE))
 601              		.loc 1 899 11
 602 0120 FB68     		ldr	r3, [r7, #12]
 603 0122 1B68     		ldr	r3, [r3]
 604 0124 9B68     		ldr	r3, [r3, #8]
 605 0126 03F00203 		and	r3, r3, #2
 606              		.loc 1 899 10
 607 012a 022B     		cmp	r3, #2
 608 012c 12D1     		bne	.L28
 900:Drivers/STM32G4xx_HAL_Driver/Src/stm32g4xx_hal_spi.c ****       {
 901:Drivers/STM32G4xx_HAL_Driver/Src/stm32g4xx_hal_spi.c ****         hspi->Instance->DR = *((uint16_t *)hspi->pTxBuffPtr);
 609              		.loc 1 901 48
 610 012e FB68     		ldr	r3, [r7, #12]
 611 0130 9B6B     		ldr	r3, [r3, #56]
 612              		.loc 1 901 30
 613 0132 1A88     		ldrh	r2, [r3]
 614              		.loc 1 901 13
 615 0134 FB68     		ldr	r3, [r7, #12]
 616 0136 1B68     		ldr	r3, [r3]
 617              		.loc 1 901 28
 618 0138 DA60     		str	r2, [r3, #12]
 902:Drivers/STM32G4xx_HAL_Driver/Src/stm32g4xx_hal_spi.c ****         hspi->pTxBuffPtr += sizeof(uint16_t);
 619              		.loc 1 902 13
 620 013a FB68     		ldr	r3, [r7, #12]
 621 013c 9B6B     		ldr	r3, [r3, #56]
 622              		.loc 1 902 26
 623 013e 9A1C     		adds	r2, r3, #2
 624 0140 FB68     		ldr	r3, [r7, #12]
 625 0142 9A63     		str	r2, [r3, #56]
 903:Drivers/STM32G4xx_HAL_Driver/Src/stm32g4xx_hal_spi.c ****         hspi->TxXferCount--;
 626              		.loc 1 903 13
 627 0144 FB68     		ldr	r3, [r7, #12]
 628 0146 DB8F     		ldrh	r3, [r3, #62]	@ movhi
 629 0148 9BB2     		uxth	r3, r3
 630              		.loc 1 903 26
 631 014a 013B     		subs	r3, r3, #1
 632 014c 9AB2     		uxth	r2, r3
 633 014e FB68     		ldr	r3, [r7, #12]
 634 0150 DA87     		strh	r2, [r3, #62]	@ movhi
 635 0152 15E0     		b	.L27
 636              	.L28:
 904:Drivers/STM32G4xx_HAL_Driver/Src/stm32g4xx_hal_spi.c ****       }
 905:Drivers/STM32G4xx_HAL_Driver/Src/stm32g4xx_hal_spi.c ****       else
 906:Drivers/STM32G4xx_HAL_Driver/Src/stm32g4xx_hal_spi.c ****       {
 907:Drivers/STM32G4xx_HAL_Driver/Src/stm32g4xx_hal_spi.c ****         /* Timeout management */
 908:Drivers/STM32G4xx_HAL_Driver/Src/stm32g4xx_hal_spi.c ****         if ((((HAL_GetTick() - tickstart) >=  Timeout) && (Timeout != HAL_MAX_DELAY)) || (Timeout =
 637              		.loc 1 908 16
 638 0154 FFF7FEFF 		bl	HAL_GetTick
 639 0158 0246     		mov	r2, r0
 640              		.loc 1 908 30 discriminator 1
ARM GAS  C:\Users\AURORA~1\AppData\Local\Temp\ccDX0hEW.s 			page 28


 641 015a BB69     		ldr	r3, [r7, #24]
 642 015c D31A     		subs	r3, r2, r3
 643              		.loc 1 908 12 discriminator 1
 644 015e 3A68     		ldr	r2, [r7]
 645 0160 9A42     		cmp	r2, r3
 646 0162 03D8     		bhi	.L30
 647              		.loc 1 908 56 discriminator 1
 648 0164 3B68     		ldr	r3, [r7]
 649 0166 B3F1FF3F 		cmp	r3, #-1
 650 016a 02D1     		bne	.L31
 651              	.L30:
 652              		.loc 1 908 87 discriminator 3
 653 016c 3B68     		ldr	r3, [r7]
 654 016e 002B     		cmp	r3, #0
 655 0170 06D1     		bne	.L27
 656              	.L31:
 909:Drivers/STM32G4xx_HAL_Driver/Src/stm32g4xx_hal_spi.c ****         {
 910:Drivers/STM32G4xx_HAL_Driver/Src/stm32g4xx_hal_spi.c ****           errorcode = HAL_TIMEOUT;
 657              		.loc 1 910 21
 658 0172 0323     		movs	r3, #3
 659 0174 FB77     		strb	r3, [r7, #31]
 911:Drivers/STM32G4xx_HAL_Driver/Src/stm32g4xx_hal_spi.c ****           hspi->State = HAL_SPI_STATE_READY;
 660              		.loc 1 911 23
 661 0176 FB68     		ldr	r3, [r7, #12]
 662 0178 0122     		movs	r2, #1
 663 017a 83F85D20 		strb	r2, [r3, #93]
 912:Drivers/STM32G4xx_HAL_Driver/Src/stm32g4xx_hal_spi.c ****           goto error;
 664              		.loc 1 912 11
 665 017e ABE0     		b	.L19
 666              	.L27:
 896:Drivers/STM32G4xx_HAL_Driver/Src/stm32g4xx_hal_spi.c ****     {
 667              		.loc 1 896 16
 668 0180 FB68     		ldr	r3, [r7, #12]
 669 0182 DB8F     		ldrh	r3, [r3, #62]	@ movhi
 670 0184 9BB2     		uxth	r3, r3
 896:Drivers/STM32G4xx_HAL_Driver/Src/stm32g4xx_hal_spi.c ****     {
 671              		.loc 1 896 30
 672 0186 002B     		cmp	r3, #0
 673 0188 CAD1     		bne	.L32
 674 018a 80E0     		b	.L33
 675              	.L24:
 913:Drivers/STM32G4xx_HAL_Driver/Src/stm32g4xx_hal_spi.c ****         }
 914:Drivers/STM32G4xx_HAL_Driver/Src/stm32g4xx_hal_spi.c ****       }
 915:Drivers/STM32G4xx_HAL_Driver/Src/stm32g4xx_hal_spi.c ****     }
 916:Drivers/STM32G4xx_HAL_Driver/Src/stm32g4xx_hal_spi.c ****   }
 917:Drivers/STM32G4xx_HAL_Driver/Src/stm32g4xx_hal_spi.c ****   /* Transmit data in 8 Bit mode */
 918:Drivers/STM32G4xx_HAL_Driver/Src/stm32g4xx_hal_spi.c ****   else
 919:Drivers/STM32G4xx_HAL_Driver/Src/stm32g4xx_hal_spi.c ****   {
 920:Drivers/STM32G4xx_HAL_Driver/Src/stm32g4xx_hal_spi.c ****     if ((hspi->Init.Mode == SPI_MODE_SLAVE) || (initial_TxXferCount == 0x01U))
 676              		.loc 1 920 20
 677 018c FB68     		ldr	r3, [r7, #12]
 678 018e 5B68     		ldr	r3, [r3, #4]
 679              		.loc 1 920 8
 680 0190 002B     		cmp	r3, #0
 681 0192 02D0     		beq	.L34
 682              		.loc 1 920 45 discriminator 1
 683 0194 FB8A     		ldrh	r3, [r7, #22]
ARM GAS  C:\Users\AURORA~1\AppData\Local\Temp\ccDX0hEW.s 			page 29


 684 0196 012B     		cmp	r3, #1
 685 0198 74D1     		bne	.L37
 686              	.L34:
 921:Drivers/STM32G4xx_HAL_Driver/Src/stm32g4xx_hal_spi.c ****     {
 922:Drivers/STM32G4xx_HAL_Driver/Src/stm32g4xx_hal_spi.c ****       if (hspi->TxXferCount > 1U)
 687              		.loc 1 922 15
 688 019a FB68     		ldr	r3, [r7, #12]
 689 019c DB8F     		ldrh	r3, [r3, #62]	@ movhi
 690 019e 9BB2     		uxth	r3, r3
 691              		.loc 1 922 10
 692 01a0 012B     		cmp	r3, #1
 693 01a2 12D9     		bls	.L36
 923:Drivers/STM32G4xx_HAL_Driver/Src/stm32g4xx_hal_spi.c ****       {
 924:Drivers/STM32G4xx_HAL_Driver/Src/stm32g4xx_hal_spi.c ****         /* write on the data register in packing mode */
 925:Drivers/STM32G4xx_HAL_Driver/Src/stm32g4xx_hal_spi.c ****         hspi->Instance->DR = *((uint16_t *)hspi->pTxBuffPtr);
 694              		.loc 1 925 48
 695 01a4 FB68     		ldr	r3, [r7, #12]
 696 01a6 9B6B     		ldr	r3, [r3, #56]
 697              		.loc 1 925 30
 698 01a8 1A88     		ldrh	r2, [r3]
 699              		.loc 1 925 13
 700 01aa FB68     		ldr	r3, [r7, #12]
 701 01ac 1B68     		ldr	r3, [r3]
 702              		.loc 1 925 28
 703 01ae DA60     		str	r2, [r3, #12]
 926:Drivers/STM32G4xx_HAL_Driver/Src/stm32g4xx_hal_spi.c ****         hspi->pTxBuffPtr += sizeof(uint16_t);
 704              		.loc 1 926 13
 705 01b0 FB68     		ldr	r3, [r7, #12]
 706 01b2 9B6B     		ldr	r3, [r3, #56]
 707              		.loc 1 926 26
 708 01b4 9A1C     		adds	r2, r3, #2
 709 01b6 FB68     		ldr	r3, [r7, #12]
 710 01b8 9A63     		str	r2, [r3, #56]
 927:Drivers/STM32G4xx_HAL_Driver/Src/stm32g4xx_hal_spi.c ****         hspi->TxXferCount -= 2U;
 711              		.loc 1 927 13
 712 01ba FB68     		ldr	r3, [r7, #12]
 713 01bc DB8F     		ldrh	r3, [r3, #62]	@ movhi
 714 01be 9BB2     		uxth	r3, r3
 715              		.loc 1 927 27
 716 01c0 023B     		subs	r3, r3, #2
 717 01c2 9AB2     		uxth	r2, r3
 718 01c4 FB68     		ldr	r3, [r7, #12]
 719 01c6 DA87     		strh	r2, [r3, #62]	@ movhi
 720 01c8 5CE0     		b	.L37
 721              	.L36:
 928:Drivers/STM32G4xx_HAL_Driver/Src/stm32g4xx_hal_spi.c ****       }
 929:Drivers/STM32G4xx_HAL_Driver/Src/stm32g4xx_hal_spi.c ****       else
 930:Drivers/STM32G4xx_HAL_Driver/Src/stm32g4xx_hal_spi.c ****       {
 931:Drivers/STM32G4xx_HAL_Driver/Src/stm32g4xx_hal_spi.c ****         *((__IO uint8_t *)&hspi->Instance->DR) = (*hspi->pTxBuffPtr);
 722              		.loc 1 931 56
 723 01ca FB68     		ldr	r3, [r7, #12]
 724 01cc 9A6B     		ldr	r2, [r3, #56]
 725              		.loc 1 931 32
 726 01ce FB68     		ldr	r3, [r7, #12]
 727 01d0 1B68     		ldr	r3, [r3]
 728              		.loc 1 931 27
 729 01d2 0C33     		adds	r3, r3, #12
ARM GAS  C:\Users\AURORA~1\AppData\Local\Temp\ccDX0hEW.s 			page 30


 730              		.loc 1 931 51
 731 01d4 1278     		ldrb	r2, [r2]	@ zero_extendqisi2
 732              		.loc 1 931 48
 733 01d6 1A70     		strb	r2, [r3]
 932:Drivers/STM32G4xx_HAL_Driver/Src/stm32g4xx_hal_spi.c ****         hspi->pTxBuffPtr ++;
 734              		.loc 1 932 13
 735 01d8 FB68     		ldr	r3, [r7, #12]
 736 01da 9B6B     		ldr	r3, [r3, #56]
 737              		.loc 1 932 26
 738 01dc 5A1C     		adds	r2, r3, #1
 739 01de FB68     		ldr	r3, [r7, #12]
 740 01e0 9A63     		str	r2, [r3, #56]
 933:Drivers/STM32G4xx_HAL_Driver/Src/stm32g4xx_hal_spi.c ****         hspi->TxXferCount--;
 741              		.loc 1 933 13
 742 01e2 FB68     		ldr	r3, [r7, #12]
 743 01e4 DB8F     		ldrh	r3, [r3, #62]	@ movhi
 744 01e6 9BB2     		uxth	r3, r3
 745              		.loc 1 933 26
 746 01e8 013B     		subs	r3, r3, #1
 747 01ea 9AB2     		uxth	r2, r3
 748 01ec FB68     		ldr	r3, [r7, #12]
 749 01ee DA87     		strh	r2, [r3, #62]	@ movhi
 934:Drivers/STM32G4xx_HAL_Driver/Src/stm32g4xx_hal_spi.c ****       }
 935:Drivers/STM32G4xx_HAL_Driver/Src/stm32g4xx_hal_spi.c ****     }
 936:Drivers/STM32G4xx_HAL_Driver/Src/stm32g4xx_hal_spi.c ****     while (hspi->TxXferCount > 0U)
 750              		.loc 1 936 11
 751 01f0 48E0     		b	.L37
 752              	.L43:
 937:Drivers/STM32G4xx_HAL_Driver/Src/stm32g4xx_hal_spi.c ****     {
 938:Drivers/STM32G4xx_HAL_Driver/Src/stm32g4xx_hal_spi.c ****       /* Wait until TXE flag is set to send data */
 939:Drivers/STM32G4xx_HAL_Driver/Src/stm32g4xx_hal_spi.c ****       if (__HAL_SPI_GET_FLAG(hspi, SPI_FLAG_TXE))
 753              		.loc 1 939 11
 754 01f2 FB68     		ldr	r3, [r7, #12]
 755 01f4 1B68     		ldr	r3, [r3]
 756 01f6 9B68     		ldr	r3, [r3, #8]
 757 01f8 03F00203 		and	r3, r3, #2
 758              		.loc 1 939 10
 759 01fc 022B     		cmp	r3, #2
 760 01fe 2BD1     		bne	.L38
 940:Drivers/STM32G4xx_HAL_Driver/Src/stm32g4xx_hal_spi.c ****       {
 941:Drivers/STM32G4xx_HAL_Driver/Src/stm32g4xx_hal_spi.c ****         if (hspi->TxXferCount > 1U)
 761              		.loc 1 941 17
 762 0200 FB68     		ldr	r3, [r7, #12]
 763 0202 DB8F     		ldrh	r3, [r3, #62]	@ movhi
 764 0204 9BB2     		uxth	r3, r3
 765              		.loc 1 941 12
 766 0206 012B     		cmp	r3, #1
 767 0208 12D9     		bls	.L39
 942:Drivers/STM32G4xx_HAL_Driver/Src/stm32g4xx_hal_spi.c ****         {
 943:Drivers/STM32G4xx_HAL_Driver/Src/stm32g4xx_hal_spi.c ****           /* write on the data register in packing mode */
 944:Drivers/STM32G4xx_HAL_Driver/Src/stm32g4xx_hal_spi.c ****           hspi->Instance->DR = *((uint16_t *)hspi->pTxBuffPtr);
 768              		.loc 1 944 50
 769 020a FB68     		ldr	r3, [r7, #12]
 770 020c 9B6B     		ldr	r3, [r3, #56]
 771              		.loc 1 944 32
 772 020e 1A88     		ldrh	r2, [r3]
 773              		.loc 1 944 15
ARM GAS  C:\Users\AURORA~1\AppData\Local\Temp\ccDX0hEW.s 			page 31


 774 0210 FB68     		ldr	r3, [r7, #12]
 775 0212 1B68     		ldr	r3, [r3]
 776              		.loc 1 944 30
 777 0214 DA60     		str	r2, [r3, #12]
 945:Drivers/STM32G4xx_HAL_Driver/Src/stm32g4xx_hal_spi.c ****           hspi->pTxBuffPtr += sizeof(uint16_t);
 778              		.loc 1 945 15
 779 0216 FB68     		ldr	r3, [r7, #12]
 780 0218 9B6B     		ldr	r3, [r3, #56]
 781              		.loc 1 945 28
 782 021a 9A1C     		adds	r2, r3, #2
 783 021c FB68     		ldr	r3, [r7, #12]
 784 021e 9A63     		str	r2, [r3, #56]
 946:Drivers/STM32G4xx_HAL_Driver/Src/stm32g4xx_hal_spi.c ****           hspi->TxXferCount -= 2U;
 785              		.loc 1 946 15
 786 0220 FB68     		ldr	r3, [r7, #12]
 787 0222 DB8F     		ldrh	r3, [r3, #62]	@ movhi
 788 0224 9BB2     		uxth	r3, r3
 789              		.loc 1 946 29
 790 0226 023B     		subs	r3, r3, #2
 791 0228 9AB2     		uxth	r2, r3
 792 022a FB68     		ldr	r3, [r7, #12]
 793 022c DA87     		strh	r2, [r3, #62]	@ movhi
 794 022e 29E0     		b	.L37
 795              	.L39:
 947:Drivers/STM32G4xx_HAL_Driver/Src/stm32g4xx_hal_spi.c ****         }
 948:Drivers/STM32G4xx_HAL_Driver/Src/stm32g4xx_hal_spi.c ****         else
 949:Drivers/STM32G4xx_HAL_Driver/Src/stm32g4xx_hal_spi.c ****         {
 950:Drivers/STM32G4xx_HAL_Driver/Src/stm32g4xx_hal_spi.c ****           *((__IO uint8_t *)&hspi->Instance->DR) = (*hspi->pTxBuffPtr);
 796              		.loc 1 950 58
 797 0230 FB68     		ldr	r3, [r7, #12]
 798 0232 9A6B     		ldr	r2, [r3, #56]
 799              		.loc 1 950 34
 800 0234 FB68     		ldr	r3, [r7, #12]
 801 0236 1B68     		ldr	r3, [r3]
 802              		.loc 1 950 29
 803 0238 0C33     		adds	r3, r3, #12
 804              		.loc 1 950 53
 805 023a 1278     		ldrb	r2, [r2]	@ zero_extendqisi2
 806              		.loc 1 950 50
 807 023c 1A70     		strb	r2, [r3]
 951:Drivers/STM32G4xx_HAL_Driver/Src/stm32g4xx_hal_spi.c ****           hspi->pTxBuffPtr++;
 808              		.loc 1 951 15
 809 023e FB68     		ldr	r3, [r7, #12]
 810 0240 9B6B     		ldr	r3, [r3, #56]
 811              		.loc 1 951 27
 812 0242 5A1C     		adds	r2, r3, #1
 813 0244 FB68     		ldr	r3, [r7, #12]
 814 0246 9A63     		str	r2, [r3, #56]
 952:Drivers/STM32G4xx_HAL_Driver/Src/stm32g4xx_hal_spi.c ****           hspi->TxXferCount--;
 815              		.loc 1 952 15
 816 0248 FB68     		ldr	r3, [r7, #12]
 817 024a DB8F     		ldrh	r3, [r3, #62]	@ movhi
 818 024c 9BB2     		uxth	r3, r3
 819              		.loc 1 952 28
 820 024e 013B     		subs	r3, r3, #1
 821 0250 9AB2     		uxth	r2, r3
 822 0252 FB68     		ldr	r3, [r7, #12]
ARM GAS  C:\Users\AURORA~1\AppData\Local\Temp\ccDX0hEW.s 			page 32


 823 0254 DA87     		strh	r2, [r3, #62]	@ movhi
 824 0256 15E0     		b	.L37
 825              	.L38:
 953:Drivers/STM32G4xx_HAL_Driver/Src/stm32g4xx_hal_spi.c ****         }
 954:Drivers/STM32G4xx_HAL_Driver/Src/stm32g4xx_hal_spi.c ****       }
 955:Drivers/STM32G4xx_HAL_Driver/Src/stm32g4xx_hal_spi.c ****       else
 956:Drivers/STM32G4xx_HAL_Driver/Src/stm32g4xx_hal_spi.c ****       {
 957:Drivers/STM32G4xx_HAL_Driver/Src/stm32g4xx_hal_spi.c ****         /* Timeout management */
 958:Drivers/STM32G4xx_HAL_Driver/Src/stm32g4xx_hal_spi.c ****         if ((((HAL_GetTick() - tickstart) >=  Timeout) && (Timeout != HAL_MAX_DELAY)) || (Timeout =
 826              		.loc 1 958 16
 827 0258 FFF7FEFF 		bl	HAL_GetTick
 828 025c 0246     		mov	r2, r0
 829              		.loc 1 958 30 discriminator 1
 830 025e BB69     		ldr	r3, [r7, #24]
 831 0260 D31A     		subs	r3, r2, r3
 832              		.loc 1 958 12 discriminator 1
 833 0262 3A68     		ldr	r2, [r7]
 834 0264 9A42     		cmp	r2, r3
 835 0266 03D8     		bhi	.L41
 836              		.loc 1 958 56 discriminator 1
 837 0268 3B68     		ldr	r3, [r7]
 838 026a B3F1FF3F 		cmp	r3, #-1
 839 026e 02D1     		bne	.L42
 840              	.L41:
 841              		.loc 1 958 87 discriminator 3
 842 0270 3B68     		ldr	r3, [r7]
 843 0272 002B     		cmp	r3, #0
 844 0274 06D1     		bne	.L37
 845              	.L42:
 959:Drivers/STM32G4xx_HAL_Driver/Src/stm32g4xx_hal_spi.c ****         {
 960:Drivers/STM32G4xx_HAL_Driver/Src/stm32g4xx_hal_spi.c ****           errorcode = HAL_TIMEOUT;
 846              		.loc 1 960 21
 847 0276 0323     		movs	r3, #3
 848 0278 FB77     		strb	r3, [r7, #31]
 961:Drivers/STM32G4xx_HAL_Driver/Src/stm32g4xx_hal_spi.c ****           hspi->State = HAL_SPI_STATE_READY;
 849              		.loc 1 961 23
 850 027a FB68     		ldr	r3, [r7, #12]
 851 027c 0122     		movs	r2, #1
 852 027e 83F85D20 		strb	r2, [r3, #93]
 962:Drivers/STM32G4xx_HAL_Driver/Src/stm32g4xx_hal_spi.c ****           goto error;
 853              		.loc 1 962 11
 854 0282 29E0     		b	.L19
 855              	.L37:
 936:Drivers/STM32G4xx_HAL_Driver/Src/stm32g4xx_hal_spi.c ****     {
 856              		.loc 1 936 16
 857 0284 FB68     		ldr	r3, [r7, #12]
 858 0286 DB8F     		ldrh	r3, [r3, #62]	@ movhi
 859 0288 9BB2     		uxth	r3, r3
 936:Drivers/STM32G4xx_HAL_Driver/Src/stm32g4xx_hal_spi.c ****     {
 860              		.loc 1 936 30
 861 028a 002B     		cmp	r3, #0
 862 028c B1D1     		bne	.L43
 863              	.L33:
 963:Drivers/STM32G4xx_HAL_Driver/Src/stm32g4xx_hal_spi.c ****         }
 964:Drivers/STM32G4xx_HAL_Driver/Src/stm32g4xx_hal_spi.c ****       }
 965:Drivers/STM32G4xx_HAL_Driver/Src/stm32g4xx_hal_spi.c ****     }
 966:Drivers/STM32G4xx_HAL_Driver/Src/stm32g4xx_hal_spi.c ****   }
ARM GAS  C:\Users\AURORA~1\AppData\Local\Temp\ccDX0hEW.s 			page 33


 967:Drivers/STM32G4xx_HAL_Driver/Src/stm32g4xx_hal_spi.c **** #if (USE_SPI_CRC != 0U)
 968:Drivers/STM32G4xx_HAL_Driver/Src/stm32g4xx_hal_spi.c ****   /* Enable CRC Transmission */
 969:Drivers/STM32G4xx_HAL_Driver/Src/stm32g4xx_hal_spi.c ****   if (hspi->Init.CRCCalculation == SPI_CRCCALCULATION_ENABLE)
 970:Drivers/STM32G4xx_HAL_Driver/Src/stm32g4xx_hal_spi.c ****   {
 971:Drivers/STM32G4xx_HAL_Driver/Src/stm32g4xx_hal_spi.c ****     SET_BIT(hspi->Instance->CR1, SPI_CR1_CRCNEXT);
 972:Drivers/STM32G4xx_HAL_Driver/Src/stm32g4xx_hal_spi.c ****   }
 973:Drivers/STM32G4xx_HAL_Driver/Src/stm32g4xx_hal_spi.c **** #endif /* USE_SPI_CRC */
 974:Drivers/STM32G4xx_HAL_Driver/Src/stm32g4xx_hal_spi.c **** 
 975:Drivers/STM32G4xx_HAL_Driver/Src/stm32g4xx_hal_spi.c ****   /* Check the end of the transaction */
 976:Drivers/STM32G4xx_HAL_Driver/Src/stm32g4xx_hal_spi.c ****   if (SPI_EndRxTxTransaction(hspi, Timeout, tickstart) != HAL_OK)
 864              		.loc 1 976 7
 865 028e BA69     		ldr	r2, [r7, #24]
 866 0290 3968     		ldr	r1, [r7]
 867 0292 F868     		ldr	r0, [r7, #12]
 868 0294 FFF7FEFF 		bl	SPI_EndRxTxTransaction
 869 0298 0346     		mov	r3, r0
 870              		.loc 1 976 6 discriminator 1
 871 029a 002B     		cmp	r3, #0
 872 029c 02D0     		beq	.L44
 977:Drivers/STM32G4xx_HAL_Driver/Src/stm32g4xx_hal_spi.c ****   {
 978:Drivers/STM32G4xx_HAL_Driver/Src/stm32g4xx_hal_spi.c ****     hspi->ErrorCode = HAL_SPI_ERROR_FLAG;
 873              		.loc 1 978 21
 874 029e FB68     		ldr	r3, [r7, #12]
 875 02a0 2022     		movs	r2, #32
 876 02a2 1A66     		str	r2, [r3, #96]
 877              	.L44:
 979:Drivers/STM32G4xx_HAL_Driver/Src/stm32g4xx_hal_spi.c ****   }
 980:Drivers/STM32G4xx_HAL_Driver/Src/stm32g4xx_hal_spi.c **** 
 981:Drivers/STM32G4xx_HAL_Driver/Src/stm32g4xx_hal_spi.c ****   /* Clear overrun flag in 2 Lines communication mode because received is not read */
 982:Drivers/STM32G4xx_HAL_Driver/Src/stm32g4xx_hal_spi.c ****   if (hspi->Init.Direction == SPI_DIRECTION_2LINES)
 878              		.loc 1 982 17
 879 02a4 FB68     		ldr	r3, [r7, #12]
 880 02a6 9B68     		ldr	r3, [r3, #8]
 881              		.loc 1 982 6
 882 02a8 002B     		cmp	r3, #0
 883 02aa 0AD1     		bne	.L45
 884              	.LBB2:
 983:Drivers/STM32G4xx_HAL_Driver/Src/stm32g4xx_hal_spi.c ****   {
 984:Drivers/STM32G4xx_HAL_Driver/Src/stm32g4xx_hal_spi.c ****     __HAL_SPI_CLEAR_OVRFLAG(hspi);
 885              		.loc 1 984 5
 886 02ac 0023     		movs	r3, #0
 887 02ae 3B61     		str	r3, [r7, #16]
 888 02b0 FB68     		ldr	r3, [r7, #12]
 889 02b2 1B68     		ldr	r3, [r3]
 890 02b4 DB68     		ldr	r3, [r3, #12]
 891 02b6 3B61     		str	r3, [r7, #16]
 892 02b8 FB68     		ldr	r3, [r7, #12]
 893 02ba 1B68     		ldr	r3, [r3]
 894 02bc 9B68     		ldr	r3, [r3, #8]
 895 02be 3B61     		str	r3, [r7, #16]
 896 02c0 3B69     		ldr	r3, [r7, #16]
 897              	.L45:
 898              	.LBE2:
 985:Drivers/STM32G4xx_HAL_Driver/Src/stm32g4xx_hal_spi.c ****   }
 986:Drivers/STM32G4xx_HAL_Driver/Src/stm32g4xx_hal_spi.c **** 
 987:Drivers/STM32G4xx_HAL_Driver/Src/stm32g4xx_hal_spi.c ****   if (hspi->ErrorCode != HAL_SPI_ERROR_NONE)
 899              		.loc 1 987 11
ARM GAS  C:\Users\AURORA~1\AppData\Local\Temp\ccDX0hEW.s 			page 34


 900 02c2 FB68     		ldr	r3, [r7, #12]
 901 02c4 1B6E     		ldr	r3, [r3, #96]
 902              		.loc 1 987 6
 903 02c6 002B     		cmp	r3, #0
 904 02c8 02D0     		beq	.L46
 988:Drivers/STM32G4xx_HAL_Driver/Src/stm32g4xx_hal_spi.c ****   {
 989:Drivers/STM32G4xx_HAL_Driver/Src/stm32g4xx_hal_spi.c ****     errorcode = HAL_ERROR;
 905              		.loc 1 989 15
 906 02ca 0123     		movs	r3, #1
 907 02cc FB77     		strb	r3, [r7, #31]
 908 02ce 03E0     		b	.L19
 909              	.L46:
 990:Drivers/STM32G4xx_HAL_Driver/Src/stm32g4xx_hal_spi.c ****   }
 991:Drivers/STM32G4xx_HAL_Driver/Src/stm32g4xx_hal_spi.c ****   else
 992:Drivers/STM32G4xx_HAL_Driver/Src/stm32g4xx_hal_spi.c ****   {
 993:Drivers/STM32G4xx_HAL_Driver/Src/stm32g4xx_hal_spi.c ****     hspi->State = HAL_SPI_STATE_READY;
 910              		.loc 1 993 17
 911 02d0 FB68     		ldr	r3, [r7, #12]
 912 02d2 0122     		movs	r2, #1
 913 02d4 83F85D20 		strb	r2, [r3, #93]
 914              	.L19:
 994:Drivers/STM32G4xx_HAL_Driver/Src/stm32g4xx_hal_spi.c ****   }
 995:Drivers/STM32G4xx_HAL_Driver/Src/stm32g4xx_hal_spi.c **** 
 996:Drivers/STM32G4xx_HAL_Driver/Src/stm32g4xx_hal_spi.c **** error:
 997:Drivers/STM32G4xx_HAL_Driver/Src/stm32g4xx_hal_spi.c ****   /* Process Unlocked */
 998:Drivers/STM32G4xx_HAL_Driver/Src/stm32g4xx_hal_spi.c ****   __HAL_UNLOCK(hspi);
 915              		.loc 1 998 3
 916 02d8 FB68     		ldr	r3, [r7, #12]
 917 02da 0022     		movs	r2, #0
 918 02dc 83F85C20 		strb	r2, [r3, #92]
 999:Drivers/STM32G4xx_HAL_Driver/Src/stm32g4xx_hal_spi.c ****   return errorcode;
 919              		.loc 1 999 10
 920 02e0 FB7F     		ldrb	r3, [r7, #31]	@ zero_extendqisi2
 921              	.L17:
1000:Drivers/STM32G4xx_HAL_Driver/Src/stm32g4xx_hal_spi.c **** }
 922              		.loc 1 1000 1
 923 02e2 1846     		mov	r0, r3
 924 02e4 2037     		adds	r7, r7, #32
 925              	.LCFI25:
 926              		.cfi_def_cfa_offset 8
 927 02e6 BD46     		mov	sp, r7
 928              	.LCFI26:
 929              		.cfi_def_cfa_register 13
 930              		@ sp needed
 931 02e8 80BD     		pop	{r7, pc}
 932              		.cfi_endproc
 933              	.LFE136:
 935              		.section	.text.HAL_SPI_Receive,"ax",%progbits
 936              		.align	1
 937              		.global	HAL_SPI_Receive
 938              		.syntax unified
 939              		.thumb
 940              		.thumb_func
 942              	HAL_SPI_Receive:
 943              	.LFB137:
1001:Drivers/STM32G4xx_HAL_Driver/Src/stm32g4xx_hal_spi.c **** 
1002:Drivers/STM32G4xx_HAL_Driver/Src/stm32g4xx_hal_spi.c **** /**
ARM GAS  C:\Users\AURORA~1\AppData\Local\Temp\ccDX0hEW.s 			page 35


1003:Drivers/STM32G4xx_HAL_Driver/Src/stm32g4xx_hal_spi.c ****   * @brief  Receive an amount of data in blocking mode.
1004:Drivers/STM32G4xx_HAL_Driver/Src/stm32g4xx_hal_spi.c ****   * @param  hspi pointer to a SPI_HandleTypeDef structure that contains
1005:Drivers/STM32G4xx_HAL_Driver/Src/stm32g4xx_hal_spi.c ****   *               the configuration information for SPI module.
1006:Drivers/STM32G4xx_HAL_Driver/Src/stm32g4xx_hal_spi.c ****   * @param  pData pointer to data buffer
1007:Drivers/STM32G4xx_HAL_Driver/Src/stm32g4xx_hal_spi.c ****   * @param  Size amount of data to be received
1008:Drivers/STM32G4xx_HAL_Driver/Src/stm32g4xx_hal_spi.c ****   * @param  Timeout Timeout duration
1009:Drivers/STM32G4xx_HAL_Driver/Src/stm32g4xx_hal_spi.c ****   * @retval HAL status
1010:Drivers/STM32G4xx_HAL_Driver/Src/stm32g4xx_hal_spi.c ****   */
1011:Drivers/STM32G4xx_HAL_Driver/Src/stm32g4xx_hal_spi.c **** HAL_StatusTypeDef HAL_SPI_Receive(SPI_HandleTypeDef *hspi, uint8_t *pData, uint16_t Size, uint32_t 
1012:Drivers/STM32G4xx_HAL_Driver/Src/stm32g4xx_hal_spi.c **** {
 944              		.loc 1 1012 1
 945              		.cfi_startproc
 946              		@ args = 0, pretend = 0, frame = 24
 947              		@ frame_needed = 1, uses_anonymous_args = 0
 948 0000 80B5     		push	{r7, lr}
 949              	.LCFI27:
 950              		.cfi_def_cfa_offset 8
 951              		.cfi_offset 7, -8
 952              		.cfi_offset 14, -4
 953 0002 88B0     		sub	sp, sp, #32
 954              	.LCFI28:
 955              		.cfi_def_cfa_offset 40
 956 0004 02AF     		add	r7, sp, #8
 957              	.LCFI29:
 958              		.cfi_def_cfa 7, 32
 959 0006 F860     		str	r0, [r7, #12]
 960 0008 B960     		str	r1, [r7, #8]
 961 000a 3B60     		str	r3, [r7]
 962 000c 1346     		mov	r3, r2	@ movhi
 963 000e FB80     		strh	r3, [r7, #6]	@ movhi
1013:Drivers/STM32G4xx_HAL_Driver/Src/stm32g4xx_hal_spi.c **** #if (USE_SPI_CRC != 0U)
1014:Drivers/STM32G4xx_HAL_Driver/Src/stm32g4xx_hal_spi.c ****   __IO uint32_t tmpreg = 0U;
1015:Drivers/STM32G4xx_HAL_Driver/Src/stm32g4xx_hal_spi.c ****   __IO uint8_t  *ptmpreg8;
1016:Drivers/STM32G4xx_HAL_Driver/Src/stm32g4xx_hal_spi.c ****   __IO uint8_t  tmpreg8 = 0;
1017:Drivers/STM32G4xx_HAL_Driver/Src/stm32g4xx_hal_spi.c **** #endif /* USE_SPI_CRC */
1018:Drivers/STM32G4xx_HAL_Driver/Src/stm32g4xx_hal_spi.c ****   uint32_t tickstart;
1019:Drivers/STM32G4xx_HAL_Driver/Src/stm32g4xx_hal_spi.c ****   HAL_StatusTypeDef errorcode = HAL_OK;
 964              		.loc 1 1019 21
 965 0010 0023     		movs	r3, #0
 966 0012 FB75     		strb	r3, [r7, #23]
1020:Drivers/STM32G4xx_HAL_Driver/Src/stm32g4xx_hal_spi.c **** 
1021:Drivers/STM32G4xx_HAL_Driver/Src/stm32g4xx_hal_spi.c ****   if (hspi->State != HAL_SPI_STATE_READY)
 967              		.loc 1 1021 11
 968 0014 FB68     		ldr	r3, [r7, #12]
 969 0016 93F85D30 		ldrb	r3, [r3, #93]
 970 001a DBB2     		uxtb	r3, r3
 971              		.loc 1 1021 6
 972 001c 012B     		cmp	r3, #1
 973 001e 02D0     		beq	.L48
1022:Drivers/STM32G4xx_HAL_Driver/Src/stm32g4xx_hal_spi.c ****   {
1023:Drivers/STM32G4xx_HAL_Driver/Src/stm32g4xx_hal_spi.c ****     errorcode = HAL_BUSY;
 974              		.loc 1 1023 15
 975 0020 0223     		movs	r3, #2
 976 0022 FB75     		strb	r3, [r7, #23]
1024:Drivers/STM32G4xx_HAL_Driver/Src/stm32g4xx_hal_spi.c ****     goto error;
 977              		.loc 1 1024 5
 978 0024 1AE1     		b	.L49
ARM GAS  C:\Users\AURORA~1\AppData\Local\Temp\ccDX0hEW.s 			page 36


 979              	.L48:
1025:Drivers/STM32G4xx_HAL_Driver/Src/stm32g4xx_hal_spi.c ****   }
1026:Drivers/STM32G4xx_HAL_Driver/Src/stm32g4xx_hal_spi.c **** 
1027:Drivers/STM32G4xx_HAL_Driver/Src/stm32g4xx_hal_spi.c ****   if ((hspi->Init.Mode == SPI_MODE_MASTER) && (hspi->Init.Direction == SPI_DIRECTION_2LINES))
 980              		.loc 1 1027 18
 981 0026 FB68     		ldr	r3, [r7, #12]
 982 0028 5B68     		ldr	r3, [r3, #4]
 983              		.loc 1 1027 6
 984 002a B3F5827F 		cmp	r3, #260
 985 002e 12D1     		bne	.L50
 986              		.loc 1 1027 58 discriminator 1
 987 0030 FB68     		ldr	r3, [r7, #12]
 988 0032 9B68     		ldr	r3, [r3, #8]
 989              		.loc 1 1027 44 discriminator 1
 990 0034 002B     		cmp	r3, #0
 991 0036 0ED1     		bne	.L50
1028:Drivers/STM32G4xx_HAL_Driver/Src/stm32g4xx_hal_spi.c ****   {
1029:Drivers/STM32G4xx_HAL_Driver/Src/stm32g4xx_hal_spi.c ****     hspi->State = HAL_SPI_STATE_BUSY_RX;
 992              		.loc 1 1029 17
 993 0038 FB68     		ldr	r3, [r7, #12]
 994 003a 0422     		movs	r2, #4
 995 003c 83F85D20 		strb	r2, [r3, #93]
1030:Drivers/STM32G4xx_HAL_Driver/Src/stm32g4xx_hal_spi.c ****     /* Call transmit-receive function to send Dummy data on Tx line and generate clock on CLK line 
1031:Drivers/STM32G4xx_HAL_Driver/Src/stm32g4xx_hal_spi.c ****     return HAL_SPI_TransmitReceive(hspi, pData, pData, Size, Timeout);
 996              		.loc 1 1031 12
 997 0040 FA88     		ldrh	r2, [r7, #6]
 998 0042 3B68     		ldr	r3, [r7]
 999 0044 0093     		str	r3, [sp]
 1000 0046 1346     		mov	r3, r2
 1001 0048 BA68     		ldr	r2, [r7, #8]
 1002 004a B968     		ldr	r1, [r7, #8]
 1003 004c F868     		ldr	r0, [r7, #12]
 1004 004e FFF7FEFF 		bl	HAL_SPI_TransmitReceive
 1005 0052 0346     		mov	r3, r0
 1006 0054 07E1     		b	.L51
 1007              	.L50:
1032:Drivers/STM32G4xx_HAL_Driver/Src/stm32g4xx_hal_spi.c ****   }
1033:Drivers/STM32G4xx_HAL_Driver/Src/stm32g4xx_hal_spi.c **** 
1034:Drivers/STM32G4xx_HAL_Driver/Src/stm32g4xx_hal_spi.c ****   /* Process Locked */
1035:Drivers/STM32G4xx_HAL_Driver/Src/stm32g4xx_hal_spi.c ****   __HAL_LOCK(hspi);
 1008              		.loc 1 1035 3
 1009 0056 FB68     		ldr	r3, [r7, #12]
 1010 0058 93F85C30 		ldrb	r3, [r3, #92]	@ zero_extendqisi2
 1011 005c 012B     		cmp	r3, #1
 1012 005e 01D1     		bne	.L52
 1013              		.loc 1 1035 3 is_stmt 0 discriminator 1
 1014 0060 0223     		movs	r3, #2
 1015              		.loc 1 1035 3
 1016 0062 00E1     		b	.L51
 1017              	.L52:
 1018              		.loc 1 1035 3 discriminator 2
 1019 0064 FB68     		ldr	r3, [r7, #12]
 1020 0066 0122     		movs	r2, #1
 1021 0068 83F85C20 		strb	r2, [r3, #92]
1036:Drivers/STM32G4xx_HAL_Driver/Src/stm32g4xx_hal_spi.c **** 
1037:Drivers/STM32G4xx_HAL_Driver/Src/stm32g4xx_hal_spi.c ****   /* Init tickstart for timeout management*/
1038:Drivers/STM32G4xx_HAL_Driver/Src/stm32g4xx_hal_spi.c ****   tickstart = HAL_GetTick();
ARM GAS  C:\Users\AURORA~1\AppData\Local\Temp\ccDX0hEW.s 			page 37


 1022              		.loc 1 1038 15 is_stmt 1
 1023 006c FFF7FEFF 		bl	HAL_GetTick
 1024 0070 3861     		str	r0, [r7, #16]
1039:Drivers/STM32G4xx_HAL_Driver/Src/stm32g4xx_hal_spi.c **** 
1040:Drivers/STM32G4xx_HAL_Driver/Src/stm32g4xx_hal_spi.c ****   if ((pData == NULL) || (Size == 0U))
 1025              		.loc 1 1040 6
 1026 0072 BB68     		ldr	r3, [r7, #8]
 1027 0074 002B     		cmp	r3, #0
 1028 0076 02D0     		beq	.L53
 1029              		.loc 1 1040 23 discriminator 1
 1030 0078 FB88     		ldrh	r3, [r7, #6]
 1031 007a 002B     		cmp	r3, #0
 1032 007c 02D1     		bne	.L54
 1033              	.L53:
1041:Drivers/STM32G4xx_HAL_Driver/Src/stm32g4xx_hal_spi.c ****   {
1042:Drivers/STM32G4xx_HAL_Driver/Src/stm32g4xx_hal_spi.c ****     errorcode = HAL_ERROR;
 1034              		.loc 1 1042 15
 1035 007e 0123     		movs	r3, #1
 1036 0080 FB75     		strb	r3, [r7, #23]
1043:Drivers/STM32G4xx_HAL_Driver/Src/stm32g4xx_hal_spi.c ****     goto error;
 1037              		.loc 1 1043 5
 1038 0082 EBE0     		b	.L49
 1039              	.L54:
1044:Drivers/STM32G4xx_HAL_Driver/Src/stm32g4xx_hal_spi.c ****   }
1045:Drivers/STM32G4xx_HAL_Driver/Src/stm32g4xx_hal_spi.c **** 
1046:Drivers/STM32G4xx_HAL_Driver/Src/stm32g4xx_hal_spi.c ****   /* Set the transaction information */
1047:Drivers/STM32G4xx_HAL_Driver/Src/stm32g4xx_hal_spi.c ****   hspi->State       = HAL_SPI_STATE_BUSY_RX;
 1040              		.loc 1 1047 21
 1041 0084 FB68     		ldr	r3, [r7, #12]
 1042 0086 0422     		movs	r2, #4
 1043 0088 83F85D20 		strb	r2, [r3, #93]
1048:Drivers/STM32G4xx_HAL_Driver/Src/stm32g4xx_hal_spi.c ****   hspi->ErrorCode   = HAL_SPI_ERROR_NONE;
 1044              		.loc 1 1048 21
 1045 008c FB68     		ldr	r3, [r7, #12]
 1046 008e 0022     		movs	r2, #0
 1047 0090 1A66     		str	r2, [r3, #96]
1049:Drivers/STM32G4xx_HAL_Driver/Src/stm32g4xx_hal_spi.c ****   hspi->pRxBuffPtr  = (uint8_t *)pData;
 1048              		.loc 1 1049 21
 1049 0092 FB68     		ldr	r3, [r7, #12]
 1050 0094 BA68     		ldr	r2, [r7, #8]
 1051 0096 1A64     		str	r2, [r3, #64]
1050:Drivers/STM32G4xx_HAL_Driver/Src/stm32g4xx_hal_spi.c ****   hspi->RxXferSize  = Size;
 1052              		.loc 1 1050 21
 1053 0098 FB68     		ldr	r3, [r7, #12]
 1054 009a FA88     		ldrh	r2, [r7, #6]	@ movhi
 1055 009c A3F84420 		strh	r2, [r3, #68]	@ movhi
1051:Drivers/STM32G4xx_HAL_Driver/Src/stm32g4xx_hal_spi.c ****   hspi->RxXferCount = Size;
 1056              		.loc 1 1051 21
 1057 00a0 FB68     		ldr	r3, [r7, #12]
 1058 00a2 FA88     		ldrh	r2, [r7, #6]	@ movhi
 1059 00a4 A3F84620 		strh	r2, [r3, #70]	@ movhi
1052:Drivers/STM32G4xx_HAL_Driver/Src/stm32g4xx_hal_spi.c **** 
1053:Drivers/STM32G4xx_HAL_Driver/Src/stm32g4xx_hal_spi.c ****   /*Init field not used in handle to zero */
1054:Drivers/STM32G4xx_HAL_Driver/Src/stm32g4xx_hal_spi.c ****   hspi->pTxBuffPtr  = (uint8_t *)NULL;
 1060              		.loc 1 1054 21
 1061 00a8 FB68     		ldr	r3, [r7, #12]
 1062 00aa 0022     		movs	r2, #0
ARM GAS  C:\Users\AURORA~1\AppData\Local\Temp\ccDX0hEW.s 			page 38


 1063 00ac 9A63     		str	r2, [r3, #56]
1055:Drivers/STM32G4xx_HAL_Driver/Src/stm32g4xx_hal_spi.c ****   hspi->TxXferSize  = 0U;
 1064              		.loc 1 1055 21
 1065 00ae FB68     		ldr	r3, [r7, #12]
 1066 00b0 0022     		movs	r2, #0
 1067 00b2 9A87     		strh	r2, [r3, #60]	@ movhi
1056:Drivers/STM32G4xx_HAL_Driver/Src/stm32g4xx_hal_spi.c ****   hspi->TxXferCount = 0U;
 1068              		.loc 1 1056 21
 1069 00b4 FB68     		ldr	r3, [r7, #12]
 1070 00b6 0022     		movs	r2, #0
 1071 00b8 DA87     		strh	r2, [r3, #62]	@ movhi
1057:Drivers/STM32G4xx_HAL_Driver/Src/stm32g4xx_hal_spi.c ****   hspi->RxISR       = NULL;
 1072              		.loc 1 1057 21
 1073 00ba FB68     		ldr	r3, [r7, #12]
 1074 00bc 0022     		movs	r2, #0
 1075 00be DA64     		str	r2, [r3, #76]
1058:Drivers/STM32G4xx_HAL_Driver/Src/stm32g4xx_hal_spi.c ****   hspi->TxISR       = NULL;
 1076              		.loc 1 1058 21
 1077 00c0 FB68     		ldr	r3, [r7, #12]
 1078 00c2 0022     		movs	r2, #0
 1079 00c4 1A65     		str	r2, [r3, #80]
1059:Drivers/STM32G4xx_HAL_Driver/Src/stm32g4xx_hal_spi.c **** 
1060:Drivers/STM32G4xx_HAL_Driver/Src/stm32g4xx_hal_spi.c **** #if (USE_SPI_CRC != 0U)
1061:Drivers/STM32G4xx_HAL_Driver/Src/stm32g4xx_hal_spi.c ****   /* Reset CRC Calculation */
1062:Drivers/STM32G4xx_HAL_Driver/Src/stm32g4xx_hal_spi.c ****   if (hspi->Init.CRCCalculation == SPI_CRCCALCULATION_ENABLE)
1063:Drivers/STM32G4xx_HAL_Driver/Src/stm32g4xx_hal_spi.c ****   {
1064:Drivers/STM32G4xx_HAL_Driver/Src/stm32g4xx_hal_spi.c ****     SPI_RESET_CRC(hspi);
1065:Drivers/STM32G4xx_HAL_Driver/Src/stm32g4xx_hal_spi.c ****     /* this is done to handle the CRCNEXT before the latest data */
1066:Drivers/STM32G4xx_HAL_Driver/Src/stm32g4xx_hal_spi.c ****     hspi->RxXferCount--;
1067:Drivers/STM32G4xx_HAL_Driver/Src/stm32g4xx_hal_spi.c ****   }
1068:Drivers/STM32G4xx_HAL_Driver/Src/stm32g4xx_hal_spi.c **** #endif /* USE_SPI_CRC */
1069:Drivers/STM32G4xx_HAL_Driver/Src/stm32g4xx_hal_spi.c **** 
1070:Drivers/STM32G4xx_HAL_Driver/Src/stm32g4xx_hal_spi.c ****   /* Set the Rx Fifo threshold */
1071:Drivers/STM32G4xx_HAL_Driver/Src/stm32g4xx_hal_spi.c ****   if (hspi->Init.DataSize > SPI_DATASIZE_8BIT)
 1080              		.loc 1 1071 17
 1081 00c6 FB68     		ldr	r3, [r7, #12]
 1082 00c8 DB68     		ldr	r3, [r3, #12]
 1083              		.loc 1 1071 6
 1084 00ca B3F5E06F 		cmp	r3, #1792
 1085 00ce 08D9     		bls	.L55
1072:Drivers/STM32G4xx_HAL_Driver/Src/stm32g4xx_hal_spi.c ****   {
1073:Drivers/STM32G4xx_HAL_Driver/Src/stm32g4xx_hal_spi.c ****     /* Set RX Fifo threshold according the reception data length: 16bit */
1074:Drivers/STM32G4xx_HAL_Driver/Src/stm32g4xx_hal_spi.c ****     CLEAR_BIT(hspi->Instance->CR2, SPI_RXFIFO_THRESHOLD);
 1086              		.loc 1 1074 5
 1087 00d0 FB68     		ldr	r3, [r7, #12]
 1088 00d2 1B68     		ldr	r3, [r3]
 1089 00d4 5A68     		ldr	r2, [r3, #4]
 1090 00d6 FB68     		ldr	r3, [r7, #12]
 1091 00d8 1B68     		ldr	r3, [r3]
 1092 00da 22F48052 		bic	r2, r2, #4096
 1093 00de 5A60     		str	r2, [r3, #4]
 1094 00e0 07E0     		b	.L56
 1095              	.L55:
1075:Drivers/STM32G4xx_HAL_Driver/Src/stm32g4xx_hal_spi.c ****   }
1076:Drivers/STM32G4xx_HAL_Driver/Src/stm32g4xx_hal_spi.c ****   else
1077:Drivers/STM32G4xx_HAL_Driver/Src/stm32g4xx_hal_spi.c ****   {
1078:Drivers/STM32G4xx_HAL_Driver/Src/stm32g4xx_hal_spi.c ****     /* Set RX Fifo threshold according the reception data length: 8bit */
ARM GAS  C:\Users\AURORA~1\AppData\Local\Temp\ccDX0hEW.s 			page 39


1079:Drivers/STM32G4xx_HAL_Driver/Src/stm32g4xx_hal_spi.c ****     SET_BIT(hspi->Instance->CR2, SPI_RXFIFO_THRESHOLD);
 1096              		.loc 1 1079 5
 1097 00e2 FB68     		ldr	r3, [r7, #12]
 1098 00e4 1B68     		ldr	r3, [r3]
 1099 00e6 5A68     		ldr	r2, [r3, #4]
 1100 00e8 FB68     		ldr	r3, [r7, #12]
 1101 00ea 1B68     		ldr	r3, [r3]
 1102 00ec 42F48052 		orr	r2, r2, #4096
 1103 00f0 5A60     		str	r2, [r3, #4]
 1104              	.L56:
1080:Drivers/STM32G4xx_HAL_Driver/Src/stm32g4xx_hal_spi.c ****   }
1081:Drivers/STM32G4xx_HAL_Driver/Src/stm32g4xx_hal_spi.c **** 
1082:Drivers/STM32G4xx_HAL_Driver/Src/stm32g4xx_hal_spi.c ****   /* Configure communication direction: 1Line */
1083:Drivers/STM32G4xx_HAL_Driver/Src/stm32g4xx_hal_spi.c ****   if (hspi->Init.Direction == SPI_DIRECTION_1LINE)
 1105              		.loc 1 1083 17
 1106 00f2 FB68     		ldr	r3, [r7, #12]
 1107 00f4 9B68     		ldr	r3, [r3, #8]
 1108              		.loc 1 1083 6
 1109 00f6 B3F5004F 		cmp	r3, #32768
 1110 00fa 0FD1     		bne	.L57
1084:Drivers/STM32G4xx_HAL_Driver/Src/stm32g4xx_hal_spi.c ****   {
1085:Drivers/STM32G4xx_HAL_Driver/Src/stm32g4xx_hal_spi.c ****     /* Disable SPI Peripheral before set 1Line direction (BIDIOE bit) */
1086:Drivers/STM32G4xx_HAL_Driver/Src/stm32g4xx_hal_spi.c ****     __HAL_SPI_DISABLE(hspi);
 1111              		.loc 1 1086 5
 1112 00fc FB68     		ldr	r3, [r7, #12]
 1113 00fe 1B68     		ldr	r3, [r3]
 1114 0100 1A68     		ldr	r2, [r3]
 1115 0102 FB68     		ldr	r3, [r7, #12]
 1116 0104 1B68     		ldr	r3, [r3]
 1117 0106 22F04002 		bic	r2, r2, #64
 1118 010a 1A60     		str	r2, [r3]
1087:Drivers/STM32G4xx_HAL_Driver/Src/stm32g4xx_hal_spi.c ****     SPI_1LINE_RX(hspi);
 1119              		.loc 1 1087 5
 1120 010c FB68     		ldr	r3, [r7, #12]
 1121 010e 1B68     		ldr	r3, [r3]
 1122 0110 1A68     		ldr	r2, [r3]
 1123 0112 FB68     		ldr	r3, [r7, #12]
 1124 0114 1B68     		ldr	r3, [r3]
 1125 0116 22F48042 		bic	r2, r2, #16384
 1126 011a 1A60     		str	r2, [r3]
 1127              	.L57:
1088:Drivers/STM32G4xx_HAL_Driver/Src/stm32g4xx_hal_spi.c ****   }
1089:Drivers/STM32G4xx_HAL_Driver/Src/stm32g4xx_hal_spi.c **** 
1090:Drivers/STM32G4xx_HAL_Driver/Src/stm32g4xx_hal_spi.c ****   /* Check if the SPI is already enabled */
1091:Drivers/STM32G4xx_HAL_Driver/Src/stm32g4xx_hal_spi.c ****   if ((hspi->Instance->CR1 & SPI_CR1_SPE) != SPI_CR1_SPE)
 1128              		.loc 1 1091 12
 1129 011c FB68     		ldr	r3, [r7, #12]
 1130 011e 1B68     		ldr	r3, [r3]
 1131              		.loc 1 1091 22
 1132 0120 1B68     		ldr	r3, [r3]
 1133              		.loc 1 1091 28
 1134 0122 03F04003 		and	r3, r3, #64
 1135              		.loc 1 1091 6
 1136 0126 402B     		cmp	r3, #64
 1137 0128 07D0     		beq	.L58
1092:Drivers/STM32G4xx_HAL_Driver/Src/stm32g4xx_hal_spi.c ****   {
1093:Drivers/STM32G4xx_HAL_Driver/Src/stm32g4xx_hal_spi.c ****     /* Enable SPI peripheral */
ARM GAS  C:\Users\AURORA~1\AppData\Local\Temp\ccDX0hEW.s 			page 40


1094:Drivers/STM32G4xx_HAL_Driver/Src/stm32g4xx_hal_spi.c ****     __HAL_SPI_ENABLE(hspi);
 1138              		.loc 1 1094 5
 1139 012a FB68     		ldr	r3, [r7, #12]
 1140 012c 1B68     		ldr	r3, [r3]
 1141 012e 1A68     		ldr	r2, [r3]
 1142 0130 FB68     		ldr	r3, [r7, #12]
 1143 0132 1B68     		ldr	r3, [r3]
 1144 0134 42F04002 		orr	r2, r2, #64
 1145 0138 1A60     		str	r2, [r3]
 1146              	.L58:
1095:Drivers/STM32G4xx_HAL_Driver/Src/stm32g4xx_hal_spi.c ****   }
1096:Drivers/STM32G4xx_HAL_Driver/Src/stm32g4xx_hal_spi.c **** 
1097:Drivers/STM32G4xx_HAL_Driver/Src/stm32g4xx_hal_spi.c ****   /* Receive data in 8 Bit mode */
1098:Drivers/STM32G4xx_HAL_Driver/Src/stm32g4xx_hal_spi.c ****   if (hspi->Init.DataSize <= SPI_DATASIZE_8BIT)
 1147              		.loc 1 1098 17
 1148 013a FB68     		ldr	r3, [r7, #12]
 1149 013c DB68     		ldr	r3, [r3, #12]
 1150              		.loc 1 1098 6
 1151 013e B3F5E06F 		cmp	r3, #1792
 1152 0142 6FD8     		bhi	.L67
1099:Drivers/STM32G4xx_HAL_Driver/Src/stm32g4xx_hal_spi.c ****   {
1100:Drivers/STM32G4xx_HAL_Driver/Src/stm32g4xx_hal_spi.c ****     /* Transfer loop */
1101:Drivers/STM32G4xx_HAL_Driver/Src/stm32g4xx_hal_spi.c ****     while (hspi->RxXferCount > 0U)
 1153              		.loc 1 1101 11
 1154 0144 34E0     		b	.L60
 1155              	.L65:
1102:Drivers/STM32G4xx_HAL_Driver/Src/stm32g4xx_hal_spi.c ****     {
1103:Drivers/STM32G4xx_HAL_Driver/Src/stm32g4xx_hal_spi.c ****       /* Check the RXNE flag */
1104:Drivers/STM32G4xx_HAL_Driver/Src/stm32g4xx_hal_spi.c ****       if (__HAL_SPI_GET_FLAG(hspi, SPI_FLAG_RXNE))
 1156              		.loc 1 1104 11
 1157 0146 FB68     		ldr	r3, [r7, #12]
 1158 0148 1B68     		ldr	r3, [r3]
 1159 014a 9B68     		ldr	r3, [r3, #8]
 1160 014c 03F00103 		and	r3, r3, #1
 1161              		.loc 1 1104 10
 1162 0150 012B     		cmp	r3, #1
 1163 0152 17D1     		bne	.L61
1105:Drivers/STM32G4xx_HAL_Driver/Src/stm32g4xx_hal_spi.c ****       {
1106:Drivers/STM32G4xx_HAL_Driver/Src/stm32g4xx_hal_spi.c ****         /* read the received data */
1107:Drivers/STM32G4xx_HAL_Driver/Src/stm32g4xx_hal_spi.c ****         (* (uint8_t *)hspi->pRxBuffPtr) = *(__IO uint8_t *)&hspi->Instance->DR;
 1164              		.loc 1 1107 65
 1165 0154 FB68     		ldr	r3, [r7, #12]
 1166 0156 1B68     		ldr	r3, [r3]
 1167              		.loc 1 1107 60
 1168 0158 03F10C02 		add	r2, r3, #12
 1169              		.loc 1 1107 27
 1170 015c FB68     		ldr	r3, [r7, #12]
 1171 015e 1B6C     		ldr	r3, [r3, #64]
 1172              		.loc 1 1107 43
 1173 0160 1278     		ldrb	r2, [r2]
 1174 0162 D2B2     		uxtb	r2, r2
 1175              		.loc 1 1107 41
 1176 0164 1A70     		strb	r2, [r3]
1108:Drivers/STM32G4xx_HAL_Driver/Src/stm32g4xx_hal_spi.c ****         hspi->pRxBuffPtr += sizeof(uint8_t);
 1177              		.loc 1 1108 13
 1178 0166 FB68     		ldr	r3, [r7, #12]
 1179 0168 1B6C     		ldr	r3, [r3, #64]
ARM GAS  C:\Users\AURORA~1\AppData\Local\Temp\ccDX0hEW.s 			page 41


 1180              		.loc 1 1108 26
 1181 016a 5A1C     		adds	r2, r3, #1
 1182 016c FB68     		ldr	r3, [r7, #12]
 1183 016e 1A64     		str	r2, [r3, #64]
1109:Drivers/STM32G4xx_HAL_Driver/Src/stm32g4xx_hal_spi.c ****         hspi->RxXferCount--;
 1184              		.loc 1 1109 13
 1185 0170 FB68     		ldr	r3, [r7, #12]
 1186 0172 B3F84630 		ldrh	r3, [r3, #70]	@ movhi
 1187 0176 9BB2     		uxth	r3, r3
 1188              		.loc 1 1109 26
 1189 0178 013B     		subs	r3, r3, #1
 1190 017a 9AB2     		uxth	r2, r3
 1191 017c FB68     		ldr	r3, [r7, #12]
 1192 017e A3F84620 		strh	r2, [r3, #70]	@ movhi
 1193 0182 15E0     		b	.L60
 1194              	.L61:
1110:Drivers/STM32G4xx_HAL_Driver/Src/stm32g4xx_hal_spi.c ****       }
1111:Drivers/STM32G4xx_HAL_Driver/Src/stm32g4xx_hal_spi.c ****       else
1112:Drivers/STM32G4xx_HAL_Driver/Src/stm32g4xx_hal_spi.c ****       {
1113:Drivers/STM32G4xx_HAL_Driver/Src/stm32g4xx_hal_spi.c ****         /* Timeout management */
1114:Drivers/STM32G4xx_HAL_Driver/Src/stm32g4xx_hal_spi.c ****         if ((((HAL_GetTick() - tickstart) >=  Timeout) && (Timeout != HAL_MAX_DELAY)) || (Timeout =
 1195              		.loc 1 1114 16
 1196 0184 FFF7FEFF 		bl	HAL_GetTick
 1197 0188 0246     		mov	r2, r0
 1198              		.loc 1 1114 30 discriminator 1
 1199 018a 3B69     		ldr	r3, [r7, #16]
 1200 018c D31A     		subs	r3, r2, r3
 1201              		.loc 1 1114 12 discriminator 1
 1202 018e 3A68     		ldr	r2, [r7]
 1203 0190 9A42     		cmp	r2, r3
 1204 0192 03D8     		bhi	.L63
 1205              		.loc 1 1114 56 discriminator 1
 1206 0194 3B68     		ldr	r3, [r7]
 1207 0196 B3F1FF3F 		cmp	r3, #-1
 1208 019a 02D1     		bne	.L64
 1209              	.L63:
 1210              		.loc 1 1114 87 discriminator 3
 1211 019c 3B68     		ldr	r3, [r7]
 1212 019e 002B     		cmp	r3, #0
 1213 01a0 06D1     		bne	.L60
 1214              	.L64:
1115:Drivers/STM32G4xx_HAL_Driver/Src/stm32g4xx_hal_spi.c ****         {
1116:Drivers/STM32G4xx_HAL_Driver/Src/stm32g4xx_hal_spi.c ****           errorcode = HAL_TIMEOUT;
 1215              		.loc 1 1116 21
 1216 01a2 0323     		movs	r3, #3
 1217 01a4 FB75     		strb	r3, [r7, #23]
1117:Drivers/STM32G4xx_HAL_Driver/Src/stm32g4xx_hal_spi.c ****           hspi->State = HAL_SPI_STATE_READY;
 1218              		.loc 1 1117 23
 1219 01a6 FB68     		ldr	r3, [r7, #12]
 1220 01a8 0122     		movs	r2, #1
 1221 01aa 83F85D20 		strb	r2, [r3, #93]
1118:Drivers/STM32G4xx_HAL_Driver/Src/stm32g4xx_hal_spi.c ****           goto error;
 1222              		.loc 1 1118 11
 1223 01ae 55E0     		b	.L49
 1224              	.L60:
1101:Drivers/STM32G4xx_HAL_Driver/Src/stm32g4xx_hal_spi.c ****     {
 1225              		.loc 1 1101 16
ARM GAS  C:\Users\AURORA~1\AppData\Local\Temp\ccDX0hEW.s 			page 42


 1226 01b0 FB68     		ldr	r3, [r7, #12]
 1227 01b2 B3F84630 		ldrh	r3, [r3, #70]	@ movhi
 1228 01b6 9BB2     		uxth	r3, r3
1101:Drivers/STM32G4xx_HAL_Driver/Src/stm32g4xx_hal_spi.c ****     {
 1229              		.loc 1 1101 30
 1230 01b8 002B     		cmp	r3, #0
 1231 01ba C4D1     		bne	.L65
 1232 01bc 38E0     		b	.L66
 1233              	.L72:
1119:Drivers/STM32G4xx_HAL_Driver/Src/stm32g4xx_hal_spi.c ****         }
1120:Drivers/STM32G4xx_HAL_Driver/Src/stm32g4xx_hal_spi.c ****       }
1121:Drivers/STM32G4xx_HAL_Driver/Src/stm32g4xx_hal_spi.c ****     }
1122:Drivers/STM32G4xx_HAL_Driver/Src/stm32g4xx_hal_spi.c ****   }
1123:Drivers/STM32G4xx_HAL_Driver/Src/stm32g4xx_hal_spi.c ****   else
1124:Drivers/STM32G4xx_HAL_Driver/Src/stm32g4xx_hal_spi.c ****   {
1125:Drivers/STM32G4xx_HAL_Driver/Src/stm32g4xx_hal_spi.c ****     /* Transfer loop */
1126:Drivers/STM32G4xx_HAL_Driver/Src/stm32g4xx_hal_spi.c ****     while (hspi->RxXferCount > 0U)
1127:Drivers/STM32G4xx_HAL_Driver/Src/stm32g4xx_hal_spi.c ****     {
1128:Drivers/STM32G4xx_HAL_Driver/Src/stm32g4xx_hal_spi.c ****       /* Check the RXNE flag */
1129:Drivers/STM32G4xx_HAL_Driver/Src/stm32g4xx_hal_spi.c ****       if (__HAL_SPI_GET_FLAG(hspi, SPI_FLAG_RXNE))
 1234              		.loc 1 1129 11
 1235 01be FB68     		ldr	r3, [r7, #12]
 1236 01c0 1B68     		ldr	r3, [r3]
 1237 01c2 9B68     		ldr	r3, [r3, #8]
 1238 01c4 03F00103 		and	r3, r3, #1
 1239              		.loc 1 1129 10
 1240 01c8 012B     		cmp	r3, #1
 1241 01ca 15D1     		bne	.L68
1130:Drivers/STM32G4xx_HAL_Driver/Src/stm32g4xx_hal_spi.c ****       {
1131:Drivers/STM32G4xx_HAL_Driver/Src/stm32g4xx_hal_spi.c ****         *((uint16_t *)hspi->pRxBuffPtr) = (uint16_t)hspi->Instance->DR;
 1242              		.loc 1 1131 57
 1243 01cc FB68     		ldr	r3, [r7, #12]
 1244 01ce 1B68     		ldr	r3, [r3]
 1245              		.loc 1 1131 67
 1246 01d0 DA68     		ldr	r2, [r3, #12]
 1247              		.loc 1 1131 27
 1248 01d2 FB68     		ldr	r3, [r7, #12]
 1249 01d4 1B6C     		ldr	r3, [r3, #64]
 1250              		.loc 1 1131 43
 1251 01d6 92B2     		uxth	r2, r2
 1252              		.loc 1 1131 41
 1253 01d8 1A80     		strh	r2, [r3]	@ movhi
1132:Drivers/STM32G4xx_HAL_Driver/Src/stm32g4xx_hal_spi.c ****         hspi->pRxBuffPtr += sizeof(uint16_t);
 1254              		.loc 1 1132 13
 1255 01da FB68     		ldr	r3, [r7, #12]
 1256 01dc 1B6C     		ldr	r3, [r3, #64]
 1257              		.loc 1 1132 26
 1258 01de 9A1C     		adds	r2, r3, #2
 1259 01e0 FB68     		ldr	r3, [r7, #12]
 1260 01e2 1A64     		str	r2, [r3, #64]
1133:Drivers/STM32G4xx_HAL_Driver/Src/stm32g4xx_hal_spi.c ****         hspi->RxXferCount--;
 1261              		.loc 1 1133 13
 1262 01e4 FB68     		ldr	r3, [r7, #12]
 1263 01e6 B3F84630 		ldrh	r3, [r3, #70]	@ movhi
 1264 01ea 9BB2     		uxth	r3, r3
 1265              		.loc 1 1133 26
 1266 01ec 013B     		subs	r3, r3, #1
ARM GAS  C:\Users\AURORA~1\AppData\Local\Temp\ccDX0hEW.s 			page 43


 1267 01ee 9AB2     		uxth	r2, r3
 1268 01f0 FB68     		ldr	r3, [r7, #12]
 1269 01f2 A3F84620 		strh	r2, [r3, #70]	@ movhi
 1270 01f6 15E0     		b	.L67
 1271              	.L68:
1134:Drivers/STM32G4xx_HAL_Driver/Src/stm32g4xx_hal_spi.c ****       }
1135:Drivers/STM32G4xx_HAL_Driver/Src/stm32g4xx_hal_spi.c ****       else
1136:Drivers/STM32G4xx_HAL_Driver/Src/stm32g4xx_hal_spi.c ****       {
1137:Drivers/STM32G4xx_HAL_Driver/Src/stm32g4xx_hal_spi.c ****         /* Timeout management */
1138:Drivers/STM32G4xx_HAL_Driver/Src/stm32g4xx_hal_spi.c ****         if ((((HAL_GetTick() - tickstart) >=  Timeout) && (Timeout != HAL_MAX_DELAY)) || (Timeout =
 1272              		.loc 1 1138 16
 1273 01f8 FFF7FEFF 		bl	HAL_GetTick
 1274 01fc 0246     		mov	r2, r0
 1275              		.loc 1 1138 30 discriminator 1
 1276 01fe 3B69     		ldr	r3, [r7, #16]
 1277 0200 D31A     		subs	r3, r2, r3
 1278              		.loc 1 1138 12 discriminator 1
 1279 0202 3A68     		ldr	r2, [r7]
 1280 0204 9A42     		cmp	r2, r3
 1281 0206 03D8     		bhi	.L70
 1282              		.loc 1 1138 56 discriminator 1
 1283 0208 3B68     		ldr	r3, [r7]
 1284 020a B3F1FF3F 		cmp	r3, #-1
 1285 020e 02D1     		bne	.L71
 1286              	.L70:
 1287              		.loc 1 1138 87 discriminator 3
 1288 0210 3B68     		ldr	r3, [r7]
 1289 0212 002B     		cmp	r3, #0
 1290 0214 06D1     		bne	.L67
 1291              	.L71:
1139:Drivers/STM32G4xx_HAL_Driver/Src/stm32g4xx_hal_spi.c ****         {
1140:Drivers/STM32G4xx_HAL_Driver/Src/stm32g4xx_hal_spi.c ****           errorcode = HAL_TIMEOUT;
 1292              		.loc 1 1140 21
 1293 0216 0323     		movs	r3, #3
 1294 0218 FB75     		strb	r3, [r7, #23]
1141:Drivers/STM32G4xx_HAL_Driver/Src/stm32g4xx_hal_spi.c ****           hspi->State = HAL_SPI_STATE_READY;
 1295              		.loc 1 1141 23
 1296 021a FB68     		ldr	r3, [r7, #12]
 1297 021c 0122     		movs	r2, #1
 1298 021e 83F85D20 		strb	r2, [r3, #93]
1142:Drivers/STM32G4xx_HAL_Driver/Src/stm32g4xx_hal_spi.c ****           goto error;
 1299              		.loc 1 1142 11
 1300 0222 1BE0     		b	.L49
 1301              	.L67:
1126:Drivers/STM32G4xx_HAL_Driver/Src/stm32g4xx_hal_spi.c ****     {
 1302              		.loc 1 1126 16
 1303 0224 FB68     		ldr	r3, [r7, #12]
 1304 0226 B3F84630 		ldrh	r3, [r3, #70]	@ movhi
 1305 022a 9BB2     		uxth	r3, r3
1126:Drivers/STM32G4xx_HAL_Driver/Src/stm32g4xx_hal_spi.c ****     {
 1306              		.loc 1 1126 30
 1307 022c 002B     		cmp	r3, #0
 1308 022e C6D1     		bne	.L72
 1309              	.L66:
1143:Drivers/STM32G4xx_HAL_Driver/Src/stm32g4xx_hal_spi.c ****         }
1144:Drivers/STM32G4xx_HAL_Driver/Src/stm32g4xx_hal_spi.c ****       }
1145:Drivers/STM32G4xx_HAL_Driver/Src/stm32g4xx_hal_spi.c ****     }
ARM GAS  C:\Users\AURORA~1\AppData\Local\Temp\ccDX0hEW.s 			page 44


1146:Drivers/STM32G4xx_HAL_Driver/Src/stm32g4xx_hal_spi.c ****   }
1147:Drivers/STM32G4xx_HAL_Driver/Src/stm32g4xx_hal_spi.c **** 
1148:Drivers/STM32G4xx_HAL_Driver/Src/stm32g4xx_hal_spi.c **** #if (USE_SPI_CRC != 0U)
1149:Drivers/STM32G4xx_HAL_Driver/Src/stm32g4xx_hal_spi.c ****   /* Handle the CRC Transmission */
1150:Drivers/STM32G4xx_HAL_Driver/Src/stm32g4xx_hal_spi.c ****   if (hspi->Init.CRCCalculation == SPI_CRCCALCULATION_ENABLE)
1151:Drivers/STM32G4xx_HAL_Driver/Src/stm32g4xx_hal_spi.c ****   {
1152:Drivers/STM32G4xx_HAL_Driver/Src/stm32g4xx_hal_spi.c ****     /* freeze the CRC before the latest data */
1153:Drivers/STM32G4xx_HAL_Driver/Src/stm32g4xx_hal_spi.c ****     SET_BIT(hspi->Instance->CR1, SPI_CR1_CRCNEXT);
1154:Drivers/STM32G4xx_HAL_Driver/Src/stm32g4xx_hal_spi.c **** 
1155:Drivers/STM32G4xx_HAL_Driver/Src/stm32g4xx_hal_spi.c ****     /* Read the latest data */
1156:Drivers/STM32G4xx_HAL_Driver/Src/stm32g4xx_hal_spi.c ****     if (SPI_WaitFlagStateUntilTimeout(hspi, SPI_FLAG_RXNE, SET, Timeout, tickstart) != HAL_OK)
1157:Drivers/STM32G4xx_HAL_Driver/Src/stm32g4xx_hal_spi.c ****     {
1158:Drivers/STM32G4xx_HAL_Driver/Src/stm32g4xx_hal_spi.c ****       /* the latest data has not been received */
1159:Drivers/STM32G4xx_HAL_Driver/Src/stm32g4xx_hal_spi.c ****       errorcode = HAL_TIMEOUT;
1160:Drivers/STM32G4xx_HAL_Driver/Src/stm32g4xx_hal_spi.c ****       goto error;
1161:Drivers/STM32G4xx_HAL_Driver/Src/stm32g4xx_hal_spi.c ****     }
1162:Drivers/STM32G4xx_HAL_Driver/Src/stm32g4xx_hal_spi.c **** 
1163:Drivers/STM32G4xx_HAL_Driver/Src/stm32g4xx_hal_spi.c ****     /* Receive last data in 16 Bit mode */
1164:Drivers/STM32G4xx_HAL_Driver/Src/stm32g4xx_hal_spi.c ****     if (hspi->Init.DataSize > SPI_DATASIZE_8BIT)
1165:Drivers/STM32G4xx_HAL_Driver/Src/stm32g4xx_hal_spi.c ****     {
1166:Drivers/STM32G4xx_HAL_Driver/Src/stm32g4xx_hal_spi.c ****       *((uint16_t *)hspi->pRxBuffPtr) = (uint16_t)hspi->Instance->DR;
1167:Drivers/STM32G4xx_HAL_Driver/Src/stm32g4xx_hal_spi.c ****     }
1168:Drivers/STM32G4xx_HAL_Driver/Src/stm32g4xx_hal_spi.c ****     /* Receive last data in 8 Bit mode */
1169:Drivers/STM32G4xx_HAL_Driver/Src/stm32g4xx_hal_spi.c ****     else
1170:Drivers/STM32G4xx_HAL_Driver/Src/stm32g4xx_hal_spi.c ****     {
1171:Drivers/STM32G4xx_HAL_Driver/Src/stm32g4xx_hal_spi.c ****       (*(uint8_t *)hspi->pRxBuffPtr) = *(__IO uint8_t *)&hspi->Instance->DR;
1172:Drivers/STM32G4xx_HAL_Driver/Src/stm32g4xx_hal_spi.c ****     }
1173:Drivers/STM32G4xx_HAL_Driver/Src/stm32g4xx_hal_spi.c **** 
1174:Drivers/STM32G4xx_HAL_Driver/Src/stm32g4xx_hal_spi.c ****     /* Wait the CRC data */
1175:Drivers/STM32G4xx_HAL_Driver/Src/stm32g4xx_hal_spi.c ****     if (SPI_WaitFlagStateUntilTimeout(hspi, SPI_FLAG_RXNE, SET, Timeout, tickstart) != HAL_OK)
1176:Drivers/STM32G4xx_HAL_Driver/Src/stm32g4xx_hal_spi.c ****     {
1177:Drivers/STM32G4xx_HAL_Driver/Src/stm32g4xx_hal_spi.c ****       SET_BIT(hspi->ErrorCode, HAL_SPI_ERROR_CRC);
1178:Drivers/STM32G4xx_HAL_Driver/Src/stm32g4xx_hal_spi.c ****       errorcode = HAL_TIMEOUT;
1179:Drivers/STM32G4xx_HAL_Driver/Src/stm32g4xx_hal_spi.c ****       goto error;
1180:Drivers/STM32G4xx_HAL_Driver/Src/stm32g4xx_hal_spi.c ****     }
1181:Drivers/STM32G4xx_HAL_Driver/Src/stm32g4xx_hal_spi.c **** 
1182:Drivers/STM32G4xx_HAL_Driver/Src/stm32g4xx_hal_spi.c ****     /* Read CRC to Flush DR and RXNE flag */
1183:Drivers/STM32G4xx_HAL_Driver/Src/stm32g4xx_hal_spi.c ****     if (hspi->Init.DataSize == SPI_DATASIZE_16BIT)
1184:Drivers/STM32G4xx_HAL_Driver/Src/stm32g4xx_hal_spi.c ****     {
1185:Drivers/STM32G4xx_HAL_Driver/Src/stm32g4xx_hal_spi.c ****       /* Read 16bit CRC */
1186:Drivers/STM32G4xx_HAL_Driver/Src/stm32g4xx_hal_spi.c ****       tmpreg = READ_REG(hspi->Instance->DR);
1187:Drivers/STM32G4xx_HAL_Driver/Src/stm32g4xx_hal_spi.c ****       /* To avoid GCC warning */
1188:Drivers/STM32G4xx_HAL_Driver/Src/stm32g4xx_hal_spi.c ****       UNUSED(tmpreg);
1189:Drivers/STM32G4xx_HAL_Driver/Src/stm32g4xx_hal_spi.c ****     }
1190:Drivers/STM32G4xx_HAL_Driver/Src/stm32g4xx_hal_spi.c ****     else
1191:Drivers/STM32G4xx_HAL_Driver/Src/stm32g4xx_hal_spi.c ****     {
1192:Drivers/STM32G4xx_HAL_Driver/Src/stm32g4xx_hal_spi.c ****       /* Initialize the 8bit temporary pointer */
1193:Drivers/STM32G4xx_HAL_Driver/Src/stm32g4xx_hal_spi.c ****       ptmpreg8 = (__IO uint8_t *)&hspi->Instance->DR;
1194:Drivers/STM32G4xx_HAL_Driver/Src/stm32g4xx_hal_spi.c ****       /* Read 8bit CRC */
1195:Drivers/STM32G4xx_HAL_Driver/Src/stm32g4xx_hal_spi.c ****       tmpreg8 = *ptmpreg8;
1196:Drivers/STM32G4xx_HAL_Driver/Src/stm32g4xx_hal_spi.c ****       /* To avoid GCC warning */
1197:Drivers/STM32G4xx_HAL_Driver/Src/stm32g4xx_hal_spi.c ****       UNUSED(tmpreg8);
1198:Drivers/STM32G4xx_HAL_Driver/Src/stm32g4xx_hal_spi.c **** 
1199:Drivers/STM32G4xx_HAL_Driver/Src/stm32g4xx_hal_spi.c ****       if ((hspi->Init.DataSize == SPI_DATASIZE_8BIT) && (hspi->Init.CRCLength == SPI_CRC_LENGTH_16B
1200:Drivers/STM32G4xx_HAL_Driver/Src/stm32g4xx_hal_spi.c ****       {
1201:Drivers/STM32G4xx_HAL_Driver/Src/stm32g4xx_hal_spi.c ****         if (SPI_WaitFlagStateUntilTimeout(hspi, SPI_FLAG_RXNE, SET, Timeout, tickstart) != HAL_OK)
1202:Drivers/STM32G4xx_HAL_Driver/Src/stm32g4xx_hal_spi.c ****         {
ARM GAS  C:\Users\AURORA~1\AppData\Local\Temp\ccDX0hEW.s 			page 45


1203:Drivers/STM32G4xx_HAL_Driver/Src/stm32g4xx_hal_spi.c ****           /* Error on the CRC reception */
1204:Drivers/STM32G4xx_HAL_Driver/Src/stm32g4xx_hal_spi.c ****           SET_BIT(hspi->ErrorCode, HAL_SPI_ERROR_CRC);
1205:Drivers/STM32G4xx_HAL_Driver/Src/stm32g4xx_hal_spi.c ****           errorcode = HAL_TIMEOUT;
1206:Drivers/STM32G4xx_HAL_Driver/Src/stm32g4xx_hal_spi.c ****           goto error;
1207:Drivers/STM32G4xx_HAL_Driver/Src/stm32g4xx_hal_spi.c ****         }
1208:Drivers/STM32G4xx_HAL_Driver/Src/stm32g4xx_hal_spi.c ****         /* Read 8bit CRC again in case of 16bit CRC in 8bit Data mode */
1209:Drivers/STM32G4xx_HAL_Driver/Src/stm32g4xx_hal_spi.c ****         tmpreg8 = *ptmpreg8;
1210:Drivers/STM32G4xx_HAL_Driver/Src/stm32g4xx_hal_spi.c ****         /* To avoid GCC warning */
1211:Drivers/STM32G4xx_HAL_Driver/Src/stm32g4xx_hal_spi.c ****         UNUSED(tmpreg8);
1212:Drivers/STM32G4xx_HAL_Driver/Src/stm32g4xx_hal_spi.c ****       }
1213:Drivers/STM32G4xx_HAL_Driver/Src/stm32g4xx_hal_spi.c ****     }
1214:Drivers/STM32G4xx_HAL_Driver/Src/stm32g4xx_hal_spi.c ****   }
1215:Drivers/STM32G4xx_HAL_Driver/Src/stm32g4xx_hal_spi.c **** #endif /* USE_SPI_CRC */
1216:Drivers/STM32G4xx_HAL_Driver/Src/stm32g4xx_hal_spi.c **** 
1217:Drivers/STM32G4xx_HAL_Driver/Src/stm32g4xx_hal_spi.c ****   /* Check the end of the transaction */
1218:Drivers/STM32G4xx_HAL_Driver/Src/stm32g4xx_hal_spi.c ****   if (SPI_EndRxTransaction(hspi, Timeout, tickstart) != HAL_OK)
 1310              		.loc 1 1218 7
 1311 0230 3A69     		ldr	r2, [r7, #16]
 1312 0232 3968     		ldr	r1, [r7]
 1313 0234 F868     		ldr	r0, [r7, #12]
 1314 0236 FFF7FEFF 		bl	SPI_EndRxTransaction
 1315 023a 0346     		mov	r3, r0
 1316              		.loc 1 1218 6 discriminator 1
 1317 023c 002B     		cmp	r3, #0
 1318 023e 02D0     		beq	.L73
1219:Drivers/STM32G4xx_HAL_Driver/Src/stm32g4xx_hal_spi.c ****   {
1220:Drivers/STM32G4xx_HAL_Driver/Src/stm32g4xx_hal_spi.c ****     hspi->ErrorCode = HAL_SPI_ERROR_FLAG;
 1319              		.loc 1 1220 21
 1320 0240 FB68     		ldr	r3, [r7, #12]
 1321 0242 2022     		movs	r2, #32
 1322 0244 1A66     		str	r2, [r3, #96]
 1323              	.L73:
1221:Drivers/STM32G4xx_HAL_Driver/Src/stm32g4xx_hal_spi.c ****   }
1222:Drivers/STM32G4xx_HAL_Driver/Src/stm32g4xx_hal_spi.c **** 
1223:Drivers/STM32G4xx_HAL_Driver/Src/stm32g4xx_hal_spi.c **** #if (USE_SPI_CRC != 0U)
1224:Drivers/STM32G4xx_HAL_Driver/Src/stm32g4xx_hal_spi.c ****   /* Check if CRC error occurred */
1225:Drivers/STM32G4xx_HAL_Driver/Src/stm32g4xx_hal_spi.c ****   if (__HAL_SPI_GET_FLAG(hspi, SPI_FLAG_CRCERR))
1226:Drivers/STM32G4xx_HAL_Driver/Src/stm32g4xx_hal_spi.c ****   {
1227:Drivers/STM32G4xx_HAL_Driver/Src/stm32g4xx_hal_spi.c ****     SET_BIT(hspi->ErrorCode, HAL_SPI_ERROR_CRC);
1228:Drivers/STM32G4xx_HAL_Driver/Src/stm32g4xx_hal_spi.c ****     __HAL_SPI_CLEAR_CRCERRFLAG(hspi);
1229:Drivers/STM32G4xx_HAL_Driver/Src/stm32g4xx_hal_spi.c ****   }
1230:Drivers/STM32G4xx_HAL_Driver/Src/stm32g4xx_hal_spi.c **** #endif /* USE_SPI_CRC */
1231:Drivers/STM32G4xx_HAL_Driver/Src/stm32g4xx_hal_spi.c **** 
1232:Drivers/STM32G4xx_HAL_Driver/Src/stm32g4xx_hal_spi.c ****   if (hspi->ErrorCode != HAL_SPI_ERROR_NONE)
 1324              		.loc 1 1232 11
 1325 0246 FB68     		ldr	r3, [r7, #12]
 1326 0248 1B6E     		ldr	r3, [r3, #96]
 1327              		.loc 1 1232 6
 1328 024a 002B     		cmp	r3, #0
 1329 024c 02D0     		beq	.L74
1233:Drivers/STM32G4xx_HAL_Driver/Src/stm32g4xx_hal_spi.c ****   {
1234:Drivers/STM32G4xx_HAL_Driver/Src/stm32g4xx_hal_spi.c ****     errorcode = HAL_ERROR;
 1330              		.loc 1 1234 15
 1331 024e 0123     		movs	r3, #1
 1332 0250 FB75     		strb	r3, [r7, #23]
 1333 0252 03E0     		b	.L49
 1334              	.L74:
ARM GAS  C:\Users\AURORA~1\AppData\Local\Temp\ccDX0hEW.s 			page 46


1235:Drivers/STM32G4xx_HAL_Driver/Src/stm32g4xx_hal_spi.c ****   }
1236:Drivers/STM32G4xx_HAL_Driver/Src/stm32g4xx_hal_spi.c ****   else
1237:Drivers/STM32G4xx_HAL_Driver/Src/stm32g4xx_hal_spi.c ****   {
1238:Drivers/STM32G4xx_HAL_Driver/Src/stm32g4xx_hal_spi.c ****     hspi->State = HAL_SPI_STATE_READY;
 1335              		.loc 1 1238 17
 1336 0254 FB68     		ldr	r3, [r7, #12]
 1337 0256 0122     		movs	r2, #1
 1338 0258 83F85D20 		strb	r2, [r3, #93]
 1339              	.L49:
1239:Drivers/STM32G4xx_HAL_Driver/Src/stm32g4xx_hal_spi.c ****   }
1240:Drivers/STM32G4xx_HAL_Driver/Src/stm32g4xx_hal_spi.c **** 
1241:Drivers/STM32G4xx_HAL_Driver/Src/stm32g4xx_hal_spi.c **** error :
1242:Drivers/STM32G4xx_HAL_Driver/Src/stm32g4xx_hal_spi.c ****   __HAL_UNLOCK(hspi);
 1340              		.loc 1 1242 3
 1341 025c FB68     		ldr	r3, [r7, #12]
 1342 025e 0022     		movs	r2, #0
 1343 0260 83F85C20 		strb	r2, [r3, #92]
1243:Drivers/STM32G4xx_HAL_Driver/Src/stm32g4xx_hal_spi.c ****   return errorcode;
 1344              		.loc 1 1243 10
 1345 0264 FB7D     		ldrb	r3, [r7, #23]	@ zero_extendqisi2
 1346              	.L51:
1244:Drivers/STM32G4xx_HAL_Driver/Src/stm32g4xx_hal_spi.c **** }
 1347              		.loc 1 1244 1
 1348 0266 1846     		mov	r0, r3
 1349 0268 1837     		adds	r7, r7, #24
 1350              	.LCFI30:
 1351              		.cfi_def_cfa_offset 8
 1352 026a BD46     		mov	sp, r7
 1353              	.LCFI31:
 1354              		.cfi_def_cfa_register 13
 1355              		@ sp needed
 1356 026c 80BD     		pop	{r7, pc}
 1357              		.cfi_endproc
 1358              	.LFE137:
 1360              		.section	.text.HAL_SPI_TransmitReceive,"ax",%progbits
 1361              		.align	1
 1362              		.global	HAL_SPI_TransmitReceive
 1363              		.syntax unified
 1364              		.thumb
 1365              		.thumb_func
 1367              	HAL_SPI_TransmitReceive:
 1368              	.LFB138:
1245:Drivers/STM32G4xx_HAL_Driver/Src/stm32g4xx_hal_spi.c **** 
1246:Drivers/STM32G4xx_HAL_Driver/Src/stm32g4xx_hal_spi.c **** /**
1247:Drivers/STM32G4xx_HAL_Driver/Src/stm32g4xx_hal_spi.c ****   * @brief  Transmit and Receive an amount of data in blocking mode.
1248:Drivers/STM32G4xx_HAL_Driver/Src/stm32g4xx_hal_spi.c ****   * @param  hspi pointer to a SPI_HandleTypeDef structure that contains
1249:Drivers/STM32G4xx_HAL_Driver/Src/stm32g4xx_hal_spi.c ****   *               the configuration information for SPI module.
1250:Drivers/STM32G4xx_HAL_Driver/Src/stm32g4xx_hal_spi.c ****   * @param  pTxData pointer to transmission data buffer
1251:Drivers/STM32G4xx_HAL_Driver/Src/stm32g4xx_hal_spi.c ****   * @param  pRxData pointer to reception data buffer
1252:Drivers/STM32G4xx_HAL_Driver/Src/stm32g4xx_hal_spi.c ****   * @param  Size amount of data to be sent and received
1253:Drivers/STM32G4xx_HAL_Driver/Src/stm32g4xx_hal_spi.c ****   * @param  Timeout Timeout duration
1254:Drivers/STM32G4xx_HAL_Driver/Src/stm32g4xx_hal_spi.c ****   * @retval HAL status
1255:Drivers/STM32G4xx_HAL_Driver/Src/stm32g4xx_hal_spi.c ****   */
1256:Drivers/STM32G4xx_HAL_Driver/Src/stm32g4xx_hal_spi.c **** HAL_StatusTypeDef HAL_SPI_TransmitReceive(SPI_HandleTypeDef *hspi, uint8_t *pTxData, uint8_t *pRxDa
1257:Drivers/STM32G4xx_HAL_Driver/Src/stm32g4xx_hal_spi.c ****                                           uint32_t Timeout)
1258:Drivers/STM32G4xx_HAL_Driver/Src/stm32g4xx_hal_spi.c **** {
 1369              		.loc 1 1258 1
ARM GAS  C:\Users\AURORA~1\AppData\Local\Temp\ccDX0hEW.s 			page 47


 1370              		.cfi_startproc
 1371              		@ args = 4, pretend = 0, frame = 40
 1372              		@ frame_needed = 1, uses_anonymous_args = 0
 1373 0000 80B5     		push	{r7, lr}
 1374              	.LCFI32:
 1375              		.cfi_def_cfa_offset 8
 1376              		.cfi_offset 7, -8
 1377              		.cfi_offset 14, -4
 1378 0002 8AB0     		sub	sp, sp, #40
 1379              	.LCFI33:
 1380              		.cfi_def_cfa_offset 48
 1381 0004 00AF     		add	r7, sp, #0
 1382              	.LCFI34:
 1383              		.cfi_def_cfa_register 7
 1384 0006 F860     		str	r0, [r7, #12]
 1385 0008 B960     		str	r1, [r7, #8]
 1386 000a 7A60     		str	r2, [r7, #4]
 1387 000c 7B80     		strh	r3, [r7, #2]	@ movhi
1259:Drivers/STM32G4xx_HAL_Driver/Src/stm32g4xx_hal_spi.c ****   uint16_t             initial_TxXferCount;
1260:Drivers/STM32G4xx_HAL_Driver/Src/stm32g4xx_hal_spi.c ****   uint16_t             initial_RxXferCount;
1261:Drivers/STM32G4xx_HAL_Driver/Src/stm32g4xx_hal_spi.c ****   uint32_t             tmp_mode;
1262:Drivers/STM32G4xx_HAL_Driver/Src/stm32g4xx_hal_spi.c ****   HAL_SPI_StateTypeDef tmp_state;
1263:Drivers/STM32G4xx_HAL_Driver/Src/stm32g4xx_hal_spi.c ****   uint32_t             tickstart;
1264:Drivers/STM32G4xx_HAL_Driver/Src/stm32g4xx_hal_spi.c **** #if (USE_SPI_CRC != 0U)
1265:Drivers/STM32G4xx_HAL_Driver/Src/stm32g4xx_hal_spi.c ****   __IO uint32_t tmpreg = 0U;
1266:Drivers/STM32G4xx_HAL_Driver/Src/stm32g4xx_hal_spi.c ****   uint32_t             spi_cr1;
1267:Drivers/STM32G4xx_HAL_Driver/Src/stm32g4xx_hal_spi.c ****   uint32_t             spi_cr2;
1268:Drivers/STM32G4xx_HAL_Driver/Src/stm32g4xx_hal_spi.c ****   __IO uint8_t  *ptmpreg8;
1269:Drivers/STM32G4xx_HAL_Driver/Src/stm32g4xx_hal_spi.c ****   __IO uint8_t  tmpreg8 = 0;
1270:Drivers/STM32G4xx_HAL_Driver/Src/stm32g4xx_hal_spi.c **** #endif /* USE_SPI_CRC */
1271:Drivers/STM32G4xx_HAL_Driver/Src/stm32g4xx_hal_spi.c **** 
1272:Drivers/STM32G4xx_HAL_Driver/Src/stm32g4xx_hal_spi.c ****   /* Variable used to alternate Rx and Tx during transfer */
1273:Drivers/STM32G4xx_HAL_Driver/Src/stm32g4xx_hal_spi.c ****   uint32_t             txallowed = 1U;
 1388              		.loc 1 1273 24
 1389 000e 0123     		movs	r3, #1
 1390 0010 7B62     		str	r3, [r7, #36]
1274:Drivers/STM32G4xx_HAL_Driver/Src/stm32g4xx_hal_spi.c ****   HAL_StatusTypeDef    errorcode = HAL_OK;
 1391              		.loc 1 1274 24
 1392 0012 0023     		movs	r3, #0
 1393 0014 87F82330 		strb	r3, [r7, #35]
1275:Drivers/STM32G4xx_HAL_Driver/Src/stm32g4xx_hal_spi.c **** 
1276:Drivers/STM32G4xx_HAL_Driver/Src/stm32g4xx_hal_spi.c ****   /* Check Direction parameter */
1277:Drivers/STM32G4xx_HAL_Driver/Src/stm32g4xx_hal_spi.c ****   assert_param(IS_SPI_DIRECTION_2LINES(hspi->Init.Direction));
1278:Drivers/STM32G4xx_HAL_Driver/Src/stm32g4xx_hal_spi.c **** 
1279:Drivers/STM32G4xx_HAL_Driver/Src/stm32g4xx_hal_spi.c ****   /* Process Locked */
1280:Drivers/STM32G4xx_HAL_Driver/Src/stm32g4xx_hal_spi.c ****   __HAL_LOCK(hspi);
 1394              		.loc 1 1280 3
 1395 0018 FB68     		ldr	r3, [r7, #12]
 1396 001a 93F85C30 		ldrb	r3, [r3, #92]	@ zero_extendqisi2
 1397 001e 012B     		cmp	r3, #1
 1398 0020 01D1     		bne	.L76
 1399              		.loc 1 1280 3 is_stmt 0 discriminator 1
 1400 0022 0223     		movs	r3, #2
 1401              		.loc 1 1280 3
 1402 0024 0AE2     		b	.L77
 1403              	.L76:
 1404              		.loc 1 1280 3 discriminator 2
ARM GAS  C:\Users\AURORA~1\AppData\Local\Temp\ccDX0hEW.s 			page 48


 1405 0026 FB68     		ldr	r3, [r7, #12]
 1406 0028 0122     		movs	r2, #1
 1407 002a 83F85C20 		strb	r2, [r3, #92]
1281:Drivers/STM32G4xx_HAL_Driver/Src/stm32g4xx_hal_spi.c **** 
1282:Drivers/STM32G4xx_HAL_Driver/Src/stm32g4xx_hal_spi.c ****   /* Init tickstart for timeout management*/
1283:Drivers/STM32G4xx_HAL_Driver/Src/stm32g4xx_hal_spi.c ****   tickstart = HAL_GetTick();
 1408              		.loc 1 1283 15 is_stmt 1
 1409 002e FFF7FEFF 		bl	HAL_GetTick
 1410 0032 F861     		str	r0, [r7, #28]
1284:Drivers/STM32G4xx_HAL_Driver/Src/stm32g4xx_hal_spi.c **** 
1285:Drivers/STM32G4xx_HAL_Driver/Src/stm32g4xx_hal_spi.c ****   /* Init temporary variables */
1286:Drivers/STM32G4xx_HAL_Driver/Src/stm32g4xx_hal_spi.c ****   tmp_state           = hspi->State;
 1411              		.loc 1 1286 23
 1412 0034 FB68     		ldr	r3, [r7, #12]
 1413 0036 93F85D30 		ldrb	r3, [r3, #93]
 1414 003a FB76     		strb	r3, [r7, #27]
1287:Drivers/STM32G4xx_HAL_Driver/Src/stm32g4xx_hal_spi.c ****   tmp_mode            = hspi->Init.Mode;
 1415              		.loc 1 1287 23
 1416 003c FB68     		ldr	r3, [r7, #12]
 1417 003e 5B68     		ldr	r3, [r3, #4]
 1418 0040 7B61     		str	r3, [r7, #20]
1288:Drivers/STM32G4xx_HAL_Driver/Src/stm32g4xx_hal_spi.c ****   initial_TxXferCount = Size;
 1419              		.loc 1 1288 23
 1420 0042 7B88     		ldrh	r3, [r7, #2]	@ movhi
 1421 0044 7B82     		strh	r3, [r7, #18]	@ movhi
1289:Drivers/STM32G4xx_HAL_Driver/Src/stm32g4xx_hal_spi.c ****   initial_RxXferCount = Size;
 1422              		.loc 1 1289 23
 1423 0046 7B88     		ldrh	r3, [r7, #2]	@ movhi
 1424 0048 3B82     		strh	r3, [r7, #16]	@ movhi
1290:Drivers/STM32G4xx_HAL_Driver/Src/stm32g4xx_hal_spi.c **** #if (USE_SPI_CRC != 0U)
1291:Drivers/STM32G4xx_HAL_Driver/Src/stm32g4xx_hal_spi.c ****   spi_cr1             = READ_REG(hspi->Instance->CR1);
1292:Drivers/STM32G4xx_HAL_Driver/Src/stm32g4xx_hal_spi.c ****   spi_cr2             = READ_REG(hspi->Instance->CR2);
1293:Drivers/STM32G4xx_HAL_Driver/Src/stm32g4xx_hal_spi.c **** #endif /* USE_SPI_CRC */
1294:Drivers/STM32G4xx_HAL_Driver/Src/stm32g4xx_hal_spi.c **** 
1295:Drivers/STM32G4xx_HAL_Driver/Src/stm32g4xx_hal_spi.c ****   if (!((tmp_state == HAL_SPI_STATE_READY) || \
 1425              		.loc 1 1295 6
 1426 004a FB7E     		ldrb	r3, [r7, #27]	@ zero_extendqisi2
 1427 004c 012B     		cmp	r3, #1
 1428 004e 0ED0     		beq	.L78
 1429              		.loc 1 1295 7 discriminator 1
 1430 0050 7B69     		ldr	r3, [r7, #20]
 1431 0052 B3F5827F 		cmp	r3, #260
 1432 0056 06D1     		bne	.L79
1296:Drivers/STM32G4xx_HAL_Driver/Src/stm32g4xx_hal_spi.c ****         ((tmp_mode == SPI_MODE_MASTER) && (hspi->Init.Direction == SPI_DIRECTION_2LINES) && (tmp_st
 1433              		.loc 1 1296 54
 1434 0058 FB68     		ldr	r3, [r7, #12]
 1435 005a 9B68     		ldr	r3, [r3, #8]
 1436              		.loc 1 1296 40
 1437 005c 002B     		cmp	r3, #0
 1438 005e 02D1     		bne	.L79
 1439              		.loc 1 1296 90 discriminator 1
 1440 0060 FB7E     		ldrb	r3, [r7, #27]	@ zero_extendqisi2
 1441 0062 042B     		cmp	r3, #4
 1442 0064 03D0     		beq	.L78
 1443              	.L79:
1297:Drivers/STM32G4xx_HAL_Driver/Src/stm32g4xx_hal_spi.c ****   {
1298:Drivers/STM32G4xx_HAL_Driver/Src/stm32g4xx_hal_spi.c ****     errorcode = HAL_BUSY;
ARM GAS  C:\Users\AURORA~1\AppData\Local\Temp\ccDX0hEW.s 			page 49


 1444              		.loc 1 1298 15
 1445 0066 0223     		movs	r3, #2
 1446 0068 87F82330 		strb	r3, [r7, #35]
1299:Drivers/STM32G4xx_HAL_Driver/Src/stm32g4xx_hal_spi.c ****     goto error;
 1447              		.loc 1 1299 5
 1448 006c E0E1     		b	.L80
 1449              	.L78:
1300:Drivers/STM32G4xx_HAL_Driver/Src/stm32g4xx_hal_spi.c ****   }
1301:Drivers/STM32G4xx_HAL_Driver/Src/stm32g4xx_hal_spi.c **** 
1302:Drivers/STM32G4xx_HAL_Driver/Src/stm32g4xx_hal_spi.c ****   if ((pTxData == NULL) || (pRxData == NULL) || (Size == 0U))
 1450              		.loc 1 1302 6
 1451 006e BB68     		ldr	r3, [r7, #8]
 1452 0070 002B     		cmp	r3, #0
 1453 0072 05D0     		beq	.L81
 1454              		.loc 1 1302 25 discriminator 1
 1455 0074 7B68     		ldr	r3, [r7, #4]
 1456 0076 002B     		cmp	r3, #0
 1457 0078 02D0     		beq	.L81
 1458              		.loc 1 1302 46 discriminator 2
 1459 007a 7B88     		ldrh	r3, [r7, #2]
 1460 007c 002B     		cmp	r3, #0
 1461 007e 03D1     		bne	.L82
 1462              	.L81:
1303:Drivers/STM32G4xx_HAL_Driver/Src/stm32g4xx_hal_spi.c ****   {
1304:Drivers/STM32G4xx_HAL_Driver/Src/stm32g4xx_hal_spi.c ****     errorcode = HAL_ERROR;
 1463              		.loc 1 1304 15
 1464 0080 0123     		movs	r3, #1
 1465 0082 87F82330 		strb	r3, [r7, #35]
1305:Drivers/STM32G4xx_HAL_Driver/Src/stm32g4xx_hal_spi.c ****     goto error;
 1466              		.loc 1 1305 5
 1467 0086 D3E1     		b	.L80
 1468              	.L82:
1306:Drivers/STM32G4xx_HAL_Driver/Src/stm32g4xx_hal_spi.c ****   }
1307:Drivers/STM32G4xx_HAL_Driver/Src/stm32g4xx_hal_spi.c **** 
1308:Drivers/STM32G4xx_HAL_Driver/Src/stm32g4xx_hal_spi.c ****   /* Don't overwrite in case of HAL_SPI_STATE_BUSY_RX */
1309:Drivers/STM32G4xx_HAL_Driver/Src/stm32g4xx_hal_spi.c ****   if (hspi->State != HAL_SPI_STATE_BUSY_RX)
 1469              		.loc 1 1309 11
 1470 0088 FB68     		ldr	r3, [r7, #12]
 1471 008a 93F85D30 		ldrb	r3, [r3, #93]
 1472 008e DBB2     		uxtb	r3, r3
 1473              		.loc 1 1309 6
 1474 0090 042B     		cmp	r3, #4
 1475 0092 03D0     		beq	.L83
1310:Drivers/STM32G4xx_HAL_Driver/Src/stm32g4xx_hal_spi.c ****   {
1311:Drivers/STM32G4xx_HAL_Driver/Src/stm32g4xx_hal_spi.c ****     hspi->State = HAL_SPI_STATE_BUSY_TX_RX;
 1476              		.loc 1 1311 17
 1477 0094 FB68     		ldr	r3, [r7, #12]
 1478 0096 0522     		movs	r2, #5
 1479 0098 83F85D20 		strb	r2, [r3, #93]
 1480              	.L83:
1312:Drivers/STM32G4xx_HAL_Driver/Src/stm32g4xx_hal_spi.c ****   }
1313:Drivers/STM32G4xx_HAL_Driver/Src/stm32g4xx_hal_spi.c **** 
1314:Drivers/STM32G4xx_HAL_Driver/Src/stm32g4xx_hal_spi.c ****   /* Set the transaction information */
1315:Drivers/STM32G4xx_HAL_Driver/Src/stm32g4xx_hal_spi.c ****   hspi->ErrorCode   = HAL_SPI_ERROR_NONE;
 1481              		.loc 1 1315 21
 1482 009c FB68     		ldr	r3, [r7, #12]
 1483 009e 0022     		movs	r2, #0
ARM GAS  C:\Users\AURORA~1\AppData\Local\Temp\ccDX0hEW.s 			page 50


 1484 00a0 1A66     		str	r2, [r3, #96]
1316:Drivers/STM32G4xx_HAL_Driver/Src/stm32g4xx_hal_spi.c ****   hspi->pRxBuffPtr  = (uint8_t *)pRxData;
 1485              		.loc 1 1316 21
 1486 00a2 FB68     		ldr	r3, [r7, #12]
 1487 00a4 7A68     		ldr	r2, [r7, #4]
 1488 00a6 1A64     		str	r2, [r3, #64]
1317:Drivers/STM32G4xx_HAL_Driver/Src/stm32g4xx_hal_spi.c ****   hspi->RxXferCount = Size;
 1489              		.loc 1 1317 21
 1490 00a8 FB68     		ldr	r3, [r7, #12]
 1491 00aa 7A88     		ldrh	r2, [r7, #2]	@ movhi
 1492 00ac A3F84620 		strh	r2, [r3, #70]	@ movhi
1318:Drivers/STM32G4xx_HAL_Driver/Src/stm32g4xx_hal_spi.c ****   hspi->RxXferSize  = Size;
 1493              		.loc 1 1318 21
 1494 00b0 FB68     		ldr	r3, [r7, #12]
 1495 00b2 7A88     		ldrh	r2, [r7, #2]	@ movhi
 1496 00b4 A3F84420 		strh	r2, [r3, #68]	@ movhi
1319:Drivers/STM32G4xx_HAL_Driver/Src/stm32g4xx_hal_spi.c ****   hspi->pTxBuffPtr  = (uint8_t *)pTxData;
 1497              		.loc 1 1319 21
 1498 00b8 FB68     		ldr	r3, [r7, #12]
 1499 00ba BA68     		ldr	r2, [r7, #8]
 1500 00bc 9A63     		str	r2, [r3, #56]
1320:Drivers/STM32G4xx_HAL_Driver/Src/stm32g4xx_hal_spi.c ****   hspi->TxXferCount = Size;
 1501              		.loc 1 1320 21
 1502 00be FB68     		ldr	r3, [r7, #12]
 1503 00c0 7A88     		ldrh	r2, [r7, #2]	@ movhi
 1504 00c2 DA87     		strh	r2, [r3, #62]	@ movhi
1321:Drivers/STM32G4xx_HAL_Driver/Src/stm32g4xx_hal_spi.c ****   hspi->TxXferSize  = Size;
 1505              		.loc 1 1321 21
 1506 00c4 FB68     		ldr	r3, [r7, #12]
 1507 00c6 7A88     		ldrh	r2, [r7, #2]	@ movhi
 1508 00c8 9A87     		strh	r2, [r3, #60]	@ movhi
1322:Drivers/STM32G4xx_HAL_Driver/Src/stm32g4xx_hal_spi.c **** 
1323:Drivers/STM32G4xx_HAL_Driver/Src/stm32g4xx_hal_spi.c ****   /*Init field not used in handle to zero */
1324:Drivers/STM32G4xx_HAL_Driver/Src/stm32g4xx_hal_spi.c ****   hspi->RxISR       = NULL;
 1509              		.loc 1 1324 21
 1510 00ca FB68     		ldr	r3, [r7, #12]
 1511 00cc 0022     		movs	r2, #0
 1512 00ce DA64     		str	r2, [r3, #76]
1325:Drivers/STM32G4xx_HAL_Driver/Src/stm32g4xx_hal_spi.c ****   hspi->TxISR       = NULL;
 1513              		.loc 1 1325 21
 1514 00d0 FB68     		ldr	r3, [r7, #12]
 1515 00d2 0022     		movs	r2, #0
 1516 00d4 1A65     		str	r2, [r3, #80]
1326:Drivers/STM32G4xx_HAL_Driver/Src/stm32g4xx_hal_spi.c **** 
1327:Drivers/STM32G4xx_HAL_Driver/Src/stm32g4xx_hal_spi.c **** #if (USE_SPI_CRC != 0U)
1328:Drivers/STM32G4xx_HAL_Driver/Src/stm32g4xx_hal_spi.c ****   /* Reset CRC Calculation */
1329:Drivers/STM32G4xx_HAL_Driver/Src/stm32g4xx_hal_spi.c ****   if (hspi->Init.CRCCalculation == SPI_CRCCALCULATION_ENABLE)
1330:Drivers/STM32G4xx_HAL_Driver/Src/stm32g4xx_hal_spi.c ****   {
1331:Drivers/STM32G4xx_HAL_Driver/Src/stm32g4xx_hal_spi.c ****     SPI_RESET_CRC(hspi);
1332:Drivers/STM32G4xx_HAL_Driver/Src/stm32g4xx_hal_spi.c ****   }
1333:Drivers/STM32G4xx_HAL_Driver/Src/stm32g4xx_hal_spi.c **** #endif /* USE_SPI_CRC */
1334:Drivers/STM32G4xx_HAL_Driver/Src/stm32g4xx_hal_spi.c **** 
1335:Drivers/STM32G4xx_HAL_Driver/Src/stm32g4xx_hal_spi.c ****   /* Set the Rx Fifo threshold */
1336:Drivers/STM32G4xx_HAL_Driver/Src/stm32g4xx_hal_spi.c ****   if ((hspi->Init.DataSize > SPI_DATASIZE_8BIT) || (initial_RxXferCount > 1U))
 1517              		.loc 1 1336 18
 1518 00d6 FB68     		ldr	r3, [r7, #12]
 1519 00d8 DB68     		ldr	r3, [r3, #12]
ARM GAS  C:\Users\AURORA~1\AppData\Local\Temp\ccDX0hEW.s 			page 51


 1520              		.loc 1 1336 6
 1521 00da B3F5E06F 		cmp	r3, #1792
 1522 00de 02D8     		bhi	.L84
 1523              		.loc 1 1336 49 discriminator 1
 1524 00e0 3B8A     		ldrh	r3, [r7, #16]
 1525 00e2 012B     		cmp	r3, #1
 1526 00e4 08D9     		bls	.L85
 1527              	.L84:
1337:Drivers/STM32G4xx_HAL_Driver/Src/stm32g4xx_hal_spi.c ****   {
1338:Drivers/STM32G4xx_HAL_Driver/Src/stm32g4xx_hal_spi.c ****     /* Set fiforxthreshold according the reception data length: 16bit */
1339:Drivers/STM32G4xx_HAL_Driver/Src/stm32g4xx_hal_spi.c ****     CLEAR_BIT(hspi->Instance->CR2, SPI_RXFIFO_THRESHOLD);
 1528              		.loc 1 1339 5
 1529 00e6 FB68     		ldr	r3, [r7, #12]
 1530 00e8 1B68     		ldr	r3, [r3]
 1531 00ea 5A68     		ldr	r2, [r3, #4]
 1532 00ec FB68     		ldr	r3, [r7, #12]
 1533 00ee 1B68     		ldr	r3, [r3]
 1534 00f0 22F48052 		bic	r2, r2, #4096
 1535 00f4 5A60     		str	r2, [r3, #4]
 1536 00f6 07E0     		b	.L86
 1537              	.L85:
1340:Drivers/STM32G4xx_HAL_Driver/Src/stm32g4xx_hal_spi.c ****   }
1341:Drivers/STM32G4xx_HAL_Driver/Src/stm32g4xx_hal_spi.c ****   else
1342:Drivers/STM32G4xx_HAL_Driver/Src/stm32g4xx_hal_spi.c ****   {
1343:Drivers/STM32G4xx_HAL_Driver/Src/stm32g4xx_hal_spi.c ****     /* Set fiforxthreshold according the reception data length: 8bit */
1344:Drivers/STM32G4xx_HAL_Driver/Src/stm32g4xx_hal_spi.c ****     SET_BIT(hspi->Instance->CR2, SPI_RXFIFO_THRESHOLD);
 1538              		.loc 1 1344 5
 1539 00f8 FB68     		ldr	r3, [r7, #12]
 1540 00fa 1B68     		ldr	r3, [r3]
 1541 00fc 5A68     		ldr	r2, [r3, #4]
 1542 00fe FB68     		ldr	r3, [r7, #12]
 1543 0100 1B68     		ldr	r3, [r3]
 1544 0102 42F48052 		orr	r2, r2, #4096
 1545 0106 5A60     		str	r2, [r3, #4]
 1546              	.L86:
1345:Drivers/STM32G4xx_HAL_Driver/Src/stm32g4xx_hal_spi.c ****   }
1346:Drivers/STM32G4xx_HAL_Driver/Src/stm32g4xx_hal_spi.c **** 
1347:Drivers/STM32G4xx_HAL_Driver/Src/stm32g4xx_hal_spi.c ****   /* Check if the SPI is already enabled */
1348:Drivers/STM32G4xx_HAL_Driver/Src/stm32g4xx_hal_spi.c ****   if ((hspi->Instance->CR1 & SPI_CR1_SPE) != SPI_CR1_SPE)
 1547              		.loc 1 1348 12
 1548 0108 FB68     		ldr	r3, [r7, #12]
 1549 010a 1B68     		ldr	r3, [r3]
 1550              		.loc 1 1348 22
 1551 010c 1B68     		ldr	r3, [r3]
 1552              		.loc 1 1348 28
 1553 010e 03F04003 		and	r3, r3, #64
 1554              		.loc 1 1348 6
 1555 0112 402B     		cmp	r3, #64
 1556 0114 07D0     		beq	.L87
1349:Drivers/STM32G4xx_HAL_Driver/Src/stm32g4xx_hal_spi.c ****   {
1350:Drivers/STM32G4xx_HAL_Driver/Src/stm32g4xx_hal_spi.c ****     /* Enable SPI peripheral */
1351:Drivers/STM32G4xx_HAL_Driver/Src/stm32g4xx_hal_spi.c ****     __HAL_SPI_ENABLE(hspi);
 1557              		.loc 1 1351 5
 1558 0116 FB68     		ldr	r3, [r7, #12]
 1559 0118 1B68     		ldr	r3, [r3]
 1560 011a 1A68     		ldr	r2, [r3]
 1561 011c FB68     		ldr	r3, [r7, #12]
ARM GAS  C:\Users\AURORA~1\AppData\Local\Temp\ccDX0hEW.s 			page 52


 1562 011e 1B68     		ldr	r3, [r3]
 1563 0120 42F04002 		orr	r2, r2, #64
 1564 0124 1A60     		str	r2, [r3]
 1565              	.L87:
1352:Drivers/STM32G4xx_HAL_Driver/Src/stm32g4xx_hal_spi.c ****   }
1353:Drivers/STM32G4xx_HAL_Driver/Src/stm32g4xx_hal_spi.c **** 
1354:Drivers/STM32G4xx_HAL_Driver/Src/stm32g4xx_hal_spi.c ****   /* Transmit and Receive data in 16 Bit mode */
1355:Drivers/STM32G4xx_HAL_Driver/Src/stm32g4xx_hal_spi.c ****   if (hspi->Init.DataSize > SPI_DATASIZE_8BIT)
 1566              		.loc 1 1355 17
 1567 0126 FB68     		ldr	r3, [r7, #12]
 1568 0128 DB68     		ldr	r3, [r3, #12]
 1569              		.loc 1 1355 6
 1570 012a B3F5E06F 		cmp	r3, #1792
 1571 012e 40F28180 		bls	.L88
1356:Drivers/STM32G4xx_HAL_Driver/Src/stm32g4xx_hal_spi.c ****   {
1357:Drivers/STM32G4xx_HAL_Driver/Src/stm32g4xx_hal_spi.c ****     if ((hspi->Init.Mode == SPI_MODE_SLAVE) || (initial_TxXferCount == 0x01U))
 1572              		.loc 1 1357 20
 1573 0132 FB68     		ldr	r3, [r7, #12]
 1574 0134 5B68     		ldr	r3, [r3, #4]
 1575              		.loc 1 1357 8
 1576 0136 002B     		cmp	r3, #0
 1577 0138 02D0     		beq	.L89
 1578              		.loc 1 1357 45 discriminator 1
 1579 013a 7B8A     		ldrh	r3, [r7, #18]
 1580 013c 012B     		cmp	r3, #1
 1581 013e 6DD1     		bne	.L91
 1582              	.L89:
1358:Drivers/STM32G4xx_HAL_Driver/Src/stm32g4xx_hal_spi.c ****     {
1359:Drivers/STM32G4xx_HAL_Driver/Src/stm32g4xx_hal_spi.c ****       hspi->Instance->DR = *((uint16_t *)hspi->pTxBuffPtr);
 1583              		.loc 1 1359 46
 1584 0140 FB68     		ldr	r3, [r7, #12]
 1585 0142 9B6B     		ldr	r3, [r3, #56]
 1586              		.loc 1 1359 28
 1587 0144 1A88     		ldrh	r2, [r3]
 1588              		.loc 1 1359 11
 1589 0146 FB68     		ldr	r3, [r7, #12]
 1590 0148 1B68     		ldr	r3, [r3]
 1591              		.loc 1 1359 26
 1592 014a DA60     		str	r2, [r3, #12]
1360:Drivers/STM32G4xx_HAL_Driver/Src/stm32g4xx_hal_spi.c ****       hspi->pTxBuffPtr += sizeof(uint16_t);
 1593              		.loc 1 1360 11
 1594 014c FB68     		ldr	r3, [r7, #12]
 1595 014e 9B6B     		ldr	r3, [r3, #56]
 1596              		.loc 1 1360 24
 1597 0150 9A1C     		adds	r2, r3, #2
 1598 0152 FB68     		ldr	r3, [r7, #12]
 1599 0154 9A63     		str	r2, [r3, #56]
1361:Drivers/STM32G4xx_HAL_Driver/Src/stm32g4xx_hal_spi.c ****       hspi->TxXferCount--;
 1600              		.loc 1 1361 11
 1601 0156 FB68     		ldr	r3, [r7, #12]
 1602 0158 DB8F     		ldrh	r3, [r3, #62]	@ movhi
 1603 015a 9BB2     		uxth	r3, r3
 1604              		.loc 1 1361 24
 1605 015c 013B     		subs	r3, r3, #1
 1606 015e 9AB2     		uxth	r2, r3
 1607 0160 FB68     		ldr	r3, [r7, #12]
 1608 0162 DA87     		strh	r2, [r3, #62]	@ movhi
ARM GAS  C:\Users\AURORA~1\AppData\Local\Temp\ccDX0hEW.s 			page 53


1362:Drivers/STM32G4xx_HAL_Driver/Src/stm32g4xx_hal_spi.c **** 
1363:Drivers/STM32G4xx_HAL_Driver/Src/stm32g4xx_hal_spi.c **** #if (USE_SPI_CRC != 0U)
1364:Drivers/STM32G4xx_HAL_Driver/Src/stm32g4xx_hal_spi.c ****       /* Enable CRC Transmission */
1365:Drivers/STM32G4xx_HAL_Driver/Src/stm32g4xx_hal_spi.c ****       if ((hspi->TxXferCount == 0U) && (hspi->Init.CRCCalculation == SPI_CRCCALCULATION_ENABLE))
1366:Drivers/STM32G4xx_HAL_Driver/Src/stm32g4xx_hal_spi.c ****       {
1367:Drivers/STM32G4xx_HAL_Driver/Src/stm32g4xx_hal_spi.c ****         /* Set NSS Soft to received correctly the CRC on slave mode with NSS pulse activated */
1368:Drivers/STM32G4xx_HAL_Driver/Src/stm32g4xx_hal_spi.c ****         if ((READ_BIT(spi_cr1, SPI_CR1_MSTR) == 0U) && (READ_BIT(spi_cr2, SPI_CR2_NSSP) == SPI_CR2_
1369:Drivers/STM32G4xx_HAL_Driver/Src/stm32g4xx_hal_spi.c ****         {
1370:Drivers/STM32G4xx_HAL_Driver/Src/stm32g4xx_hal_spi.c ****           SET_BIT(hspi->Instance->CR1, SPI_CR1_SSM);
1371:Drivers/STM32G4xx_HAL_Driver/Src/stm32g4xx_hal_spi.c ****         }
1372:Drivers/STM32G4xx_HAL_Driver/Src/stm32g4xx_hal_spi.c ****         SET_BIT(hspi->Instance->CR1, SPI_CR1_CRCNEXT);
1373:Drivers/STM32G4xx_HAL_Driver/Src/stm32g4xx_hal_spi.c ****       }
1374:Drivers/STM32G4xx_HAL_Driver/Src/stm32g4xx_hal_spi.c **** #endif /* USE_SPI_CRC */
1375:Drivers/STM32G4xx_HAL_Driver/Src/stm32g4xx_hal_spi.c **** 
1376:Drivers/STM32G4xx_HAL_Driver/Src/stm32g4xx_hal_spi.c ****     }
1377:Drivers/STM32G4xx_HAL_Driver/Src/stm32g4xx_hal_spi.c ****     while ((hspi->TxXferCount > 0U) || (hspi->RxXferCount > 0U))
 1609              		.loc 1 1377 11
 1610 0164 5AE0     		b	.L91
 1611              	.L95:
1378:Drivers/STM32G4xx_HAL_Driver/Src/stm32g4xx_hal_spi.c ****     {
1379:Drivers/STM32G4xx_HAL_Driver/Src/stm32g4xx_hal_spi.c ****       /* Check TXE flag */
1380:Drivers/STM32G4xx_HAL_Driver/Src/stm32g4xx_hal_spi.c ****       if ((__HAL_SPI_GET_FLAG(hspi, SPI_FLAG_TXE)) && (hspi->TxXferCount > 0U) && (txallowed == 1U)
 1612              		.loc 1 1380 12
 1613 0166 FB68     		ldr	r3, [r7, #12]
 1614 0168 1B68     		ldr	r3, [r3]
 1615 016a 9B68     		ldr	r3, [r3, #8]
 1616 016c 03F00203 		and	r3, r3, #2
 1617              		.loc 1 1380 10
 1618 0170 022B     		cmp	r3, #2
 1619 0172 1BD1     		bne	.L92
 1620              		.loc 1 1380 60 discriminator 1
 1621 0174 FB68     		ldr	r3, [r7, #12]
 1622 0176 DB8F     		ldrh	r3, [r3, #62]	@ movhi
 1623 0178 9BB2     		uxth	r3, r3
 1624              		.loc 1 1380 52 discriminator 1
 1625 017a 002B     		cmp	r3, #0
 1626 017c 16D0     		beq	.L92
 1627              		.loc 1 1380 80 discriminator 2
 1628 017e 7B6A     		ldr	r3, [r7, #36]
 1629 0180 012B     		cmp	r3, #1
 1630 0182 13D1     		bne	.L92
1381:Drivers/STM32G4xx_HAL_Driver/Src/stm32g4xx_hal_spi.c ****       {
1382:Drivers/STM32G4xx_HAL_Driver/Src/stm32g4xx_hal_spi.c ****         hspi->Instance->DR = *((uint16_t *)hspi->pTxBuffPtr);
 1631              		.loc 1 1382 48
 1632 0184 FB68     		ldr	r3, [r7, #12]
 1633 0186 9B6B     		ldr	r3, [r3, #56]
 1634              		.loc 1 1382 30
 1635 0188 1A88     		ldrh	r2, [r3]
 1636              		.loc 1 1382 13
 1637 018a FB68     		ldr	r3, [r7, #12]
 1638 018c 1B68     		ldr	r3, [r3]
 1639              		.loc 1 1382 28
 1640 018e DA60     		str	r2, [r3, #12]
1383:Drivers/STM32G4xx_HAL_Driver/Src/stm32g4xx_hal_spi.c ****         hspi->pTxBuffPtr += sizeof(uint16_t);
 1641              		.loc 1 1383 13
 1642 0190 FB68     		ldr	r3, [r7, #12]
 1643 0192 9B6B     		ldr	r3, [r3, #56]
ARM GAS  C:\Users\AURORA~1\AppData\Local\Temp\ccDX0hEW.s 			page 54


 1644              		.loc 1 1383 26
 1645 0194 9A1C     		adds	r2, r3, #2
 1646 0196 FB68     		ldr	r3, [r7, #12]
 1647 0198 9A63     		str	r2, [r3, #56]
1384:Drivers/STM32G4xx_HAL_Driver/Src/stm32g4xx_hal_spi.c ****         hspi->TxXferCount--;
 1648              		.loc 1 1384 13
 1649 019a FB68     		ldr	r3, [r7, #12]
 1650 019c DB8F     		ldrh	r3, [r3, #62]	@ movhi
 1651 019e 9BB2     		uxth	r3, r3
 1652              		.loc 1 1384 26
 1653 01a0 013B     		subs	r3, r3, #1
 1654 01a2 9AB2     		uxth	r2, r3
 1655 01a4 FB68     		ldr	r3, [r7, #12]
 1656 01a6 DA87     		strh	r2, [r3, #62]	@ movhi
1385:Drivers/STM32G4xx_HAL_Driver/Src/stm32g4xx_hal_spi.c ****         /* Next Data is a reception (Rx). Tx not allowed */
1386:Drivers/STM32G4xx_HAL_Driver/Src/stm32g4xx_hal_spi.c ****         txallowed = 0U;
 1657              		.loc 1 1386 19
 1658 01a8 0023     		movs	r3, #0
 1659 01aa 7B62     		str	r3, [r7, #36]
 1660              	.L92:
1387:Drivers/STM32G4xx_HAL_Driver/Src/stm32g4xx_hal_spi.c **** 
1388:Drivers/STM32G4xx_HAL_Driver/Src/stm32g4xx_hal_spi.c **** #if (USE_SPI_CRC != 0U)
1389:Drivers/STM32G4xx_HAL_Driver/Src/stm32g4xx_hal_spi.c ****         /* Enable CRC Transmission */
1390:Drivers/STM32G4xx_HAL_Driver/Src/stm32g4xx_hal_spi.c ****         if ((hspi->TxXferCount == 0U) && (hspi->Init.CRCCalculation == SPI_CRCCALCULATION_ENABLE))
1391:Drivers/STM32G4xx_HAL_Driver/Src/stm32g4xx_hal_spi.c ****         {
1392:Drivers/STM32G4xx_HAL_Driver/Src/stm32g4xx_hal_spi.c ****           /* Set NSS Soft to received correctly the CRC on slave mode with NSS pulse activated */
1393:Drivers/STM32G4xx_HAL_Driver/Src/stm32g4xx_hal_spi.c ****           if ((READ_BIT(spi_cr1, SPI_CR1_MSTR) == 0U) && (READ_BIT(spi_cr2, SPI_CR2_NSSP) == SPI_CR
1394:Drivers/STM32G4xx_HAL_Driver/Src/stm32g4xx_hal_spi.c ****           {
1395:Drivers/STM32G4xx_HAL_Driver/Src/stm32g4xx_hal_spi.c ****             SET_BIT(hspi->Instance->CR1, SPI_CR1_SSM);
1396:Drivers/STM32G4xx_HAL_Driver/Src/stm32g4xx_hal_spi.c ****           }
1397:Drivers/STM32G4xx_HAL_Driver/Src/stm32g4xx_hal_spi.c ****           SET_BIT(hspi->Instance->CR1, SPI_CR1_CRCNEXT);
1398:Drivers/STM32G4xx_HAL_Driver/Src/stm32g4xx_hal_spi.c ****         }
1399:Drivers/STM32G4xx_HAL_Driver/Src/stm32g4xx_hal_spi.c **** #endif /* USE_SPI_CRC */
1400:Drivers/STM32G4xx_HAL_Driver/Src/stm32g4xx_hal_spi.c ****       }
1401:Drivers/STM32G4xx_HAL_Driver/Src/stm32g4xx_hal_spi.c **** 
1402:Drivers/STM32G4xx_HAL_Driver/Src/stm32g4xx_hal_spi.c ****       /* Check RXNE flag */
1403:Drivers/STM32G4xx_HAL_Driver/Src/stm32g4xx_hal_spi.c ****       if ((__HAL_SPI_GET_FLAG(hspi, SPI_FLAG_RXNE)) && (hspi->RxXferCount > 0U))
 1661              		.loc 1 1403 12
 1662 01ac FB68     		ldr	r3, [r7, #12]
 1663 01ae 1B68     		ldr	r3, [r3]
 1664 01b0 9B68     		ldr	r3, [r3, #8]
 1665 01b2 03F00103 		and	r3, r3, #1
 1666              		.loc 1 1403 10
 1667 01b6 012B     		cmp	r3, #1
 1668 01b8 1CD1     		bne	.L93
 1669              		.loc 1 1403 61 discriminator 1
 1670 01ba FB68     		ldr	r3, [r7, #12]
 1671 01bc B3F84630 		ldrh	r3, [r3, #70]	@ movhi
 1672 01c0 9BB2     		uxth	r3, r3
 1673              		.loc 1 1403 53 discriminator 1
 1674 01c2 002B     		cmp	r3, #0
 1675 01c4 16D0     		beq	.L93
1404:Drivers/STM32G4xx_HAL_Driver/Src/stm32g4xx_hal_spi.c ****       {
1405:Drivers/STM32G4xx_HAL_Driver/Src/stm32g4xx_hal_spi.c ****         *((uint16_t *)hspi->pRxBuffPtr) = (uint16_t)hspi->Instance->DR;
 1676              		.loc 1 1405 57
 1677 01c6 FB68     		ldr	r3, [r7, #12]
 1678 01c8 1B68     		ldr	r3, [r3]
ARM GAS  C:\Users\AURORA~1\AppData\Local\Temp\ccDX0hEW.s 			page 55


 1679              		.loc 1 1405 67
 1680 01ca DA68     		ldr	r2, [r3, #12]
 1681              		.loc 1 1405 27
 1682 01cc FB68     		ldr	r3, [r7, #12]
 1683 01ce 1B6C     		ldr	r3, [r3, #64]
 1684              		.loc 1 1405 43
 1685 01d0 92B2     		uxth	r2, r2
 1686              		.loc 1 1405 41
 1687 01d2 1A80     		strh	r2, [r3]	@ movhi
1406:Drivers/STM32G4xx_HAL_Driver/Src/stm32g4xx_hal_spi.c ****         hspi->pRxBuffPtr += sizeof(uint16_t);
 1688              		.loc 1 1406 13
 1689 01d4 FB68     		ldr	r3, [r7, #12]
 1690 01d6 1B6C     		ldr	r3, [r3, #64]
 1691              		.loc 1 1406 26
 1692 01d8 9A1C     		adds	r2, r3, #2
 1693 01da FB68     		ldr	r3, [r7, #12]
 1694 01dc 1A64     		str	r2, [r3, #64]
1407:Drivers/STM32G4xx_HAL_Driver/Src/stm32g4xx_hal_spi.c ****         hspi->RxXferCount--;
 1695              		.loc 1 1407 13
 1696 01de FB68     		ldr	r3, [r7, #12]
 1697 01e0 B3F84630 		ldrh	r3, [r3, #70]	@ movhi
 1698 01e4 9BB2     		uxth	r3, r3
 1699              		.loc 1 1407 26
 1700 01e6 013B     		subs	r3, r3, #1
 1701 01e8 9AB2     		uxth	r2, r3
 1702 01ea FB68     		ldr	r3, [r7, #12]
 1703 01ec A3F84620 		strh	r2, [r3, #70]	@ movhi
1408:Drivers/STM32G4xx_HAL_Driver/Src/stm32g4xx_hal_spi.c ****         /* Next Data is a Transmission (Tx). Tx is allowed */
1409:Drivers/STM32G4xx_HAL_Driver/Src/stm32g4xx_hal_spi.c ****         txallowed = 1U;
 1704              		.loc 1 1409 19
 1705 01f0 0123     		movs	r3, #1
 1706 01f2 7B62     		str	r3, [r7, #36]
 1707              	.L93:
1410:Drivers/STM32G4xx_HAL_Driver/Src/stm32g4xx_hal_spi.c ****       }
1411:Drivers/STM32G4xx_HAL_Driver/Src/stm32g4xx_hal_spi.c ****       if (((HAL_GetTick() - tickstart) >=  Timeout) && (Timeout != HAL_MAX_DELAY))
 1708              		.loc 1 1411 13
 1709 01f4 FFF7FEFF 		bl	HAL_GetTick
 1710 01f8 0246     		mov	r2, r0
 1711              		.loc 1 1411 27 discriminator 1
 1712 01fa FB69     		ldr	r3, [r7, #28]
 1713 01fc D31A     		subs	r3, r2, r3
 1714              		.loc 1 1411 10 discriminator 1
 1715 01fe 3A6B     		ldr	r2, [r7, #48]
 1716 0200 9A42     		cmp	r2, r3
 1717 0202 0BD8     		bhi	.L91
 1718              		.loc 1 1411 53 discriminator 1
 1719 0204 3B6B     		ldr	r3, [r7, #48]
 1720 0206 B3F1FF3F 		cmp	r3, #-1
 1721 020a 07D0     		beq	.L91
1412:Drivers/STM32G4xx_HAL_Driver/Src/stm32g4xx_hal_spi.c ****       {
1413:Drivers/STM32G4xx_HAL_Driver/Src/stm32g4xx_hal_spi.c ****         errorcode = HAL_TIMEOUT;
 1722              		.loc 1 1413 19
 1723 020c 0323     		movs	r3, #3
 1724 020e 87F82330 		strb	r3, [r7, #35]
1414:Drivers/STM32G4xx_HAL_Driver/Src/stm32g4xx_hal_spi.c ****         hspi->State = HAL_SPI_STATE_READY;
 1725              		.loc 1 1414 21
 1726 0212 FB68     		ldr	r3, [r7, #12]
ARM GAS  C:\Users\AURORA~1\AppData\Local\Temp\ccDX0hEW.s 			page 56


 1727 0214 0122     		movs	r2, #1
 1728 0216 83F85D20 		strb	r2, [r3, #93]
1415:Drivers/STM32G4xx_HAL_Driver/Src/stm32g4xx_hal_spi.c ****         goto error;
 1729              		.loc 1 1415 9
 1730 021a 09E1     		b	.L80
 1731              	.L91:
1377:Drivers/STM32G4xx_HAL_Driver/Src/stm32g4xx_hal_spi.c ****     {
 1732              		.loc 1 1377 17
 1733 021c FB68     		ldr	r3, [r7, #12]
 1734 021e DB8F     		ldrh	r3, [r3, #62]	@ movhi
 1735 0220 9BB2     		uxth	r3, r3
1377:Drivers/STM32G4xx_HAL_Driver/Src/stm32g4xx_hal_spi.c ****     {
 1736              		.loc 1 1377 37
 1737 0222 002B     		cmp	r3, #0
 1738 0224 9FD1     		bne	.L95
1377:Drivers/STM32G4xx_HAL_Driver/Src/stm32g4xx_hal_spi.c ****     {
 1739              		.loc 1 1377 45 discriminator 1
 1740 0226 FB68     		ldr	r3, [r7, #12]
 1741 0228 B3F84630 		ldrh	r3, [r3, #70]	@ movhi
 1742 022c 9BB2     		uxth	r3, r3
1377:Drivers/STM32G4xx_HAL_Driver/Src/stm32g4xx_hal_spi.c ****     {
 1743              		.loc 1 1377 37 discriminator 1
 1744 022e 002B     		cmp	r3, #0
 1745 0230 99D1     		bne	.L95
 1746 0232 E3E0     		b	.L96
 1747              	.L88:
1416:Drivers/STM32G4xx_HAL_Driver/Src/stm32g4xx_hal_spi.c ****       }
1417:Drivers/STM32G4xx_HAL_Driver/Src/stm32g4xx_hal_spi.c ****     }
1418:Drivers/STM32G4xx_HAL_Driver/Src/stm32g4xx_hal_spi.c ****   }
1419:Drivers/STM32G4xx_HAL_Driver/Src/stm32g4xx_hal_spi.c ****   /* Transmit and Receive data in 8 Bit mode */
1420:Drivers/STM32G4xx_HAL_Driver/Src/stm32g4xx_hal_spi.c ****   else
1421:Drivers/STM32G4xx_HAL_Driver/Src/stm32g4xx_hal_spi.c ****   {
1422:Drivers/STM32G4xx_HAL_Driver/Src/stm32g4xx_hal_spi.c ****     if ((hspi->Init.Mode == SPI_MODE_SLAVE) || (initial_TxXferCount == 0x01U))
 1748              		.loc 1 1422 20
 1749 0234 FB68     		ldr	r3, [r7, #12]
 1750 0236 5B68     		ldr	r3, [r3, #4]
 1751              		.loc 1 1422 8
 1752 0238 002B     		cmp	r3, #0
 1753 023a 03D0     		beq	.L97
 1754              		.loc 1 1422 45 discriminator 1
 1755 023c 7B8A     		ldrh	r3, [r7, #18]
 1756 023e 012B     		cmp	r3, #1
 1757 0240 40F0CF80 		bne	.L100
 1758              	.L97:
1423:Drivers/STM32G4xx_HAL_Driver/Src/stm32g4xx_hal_spi.c ****     {
1424:Drivers/STM32G4xx_HAL_Driver/Src/stm32g4xx_hal_spi.c ****       if (hspi->TxXferCount > 1U)
 1759              		.loc 1 1424 15
 1760 0244 FB68     		ldr	r3, [r7, #12]
 1761 0246 DB8F     		ldrh	r3, [r3, #62]	@ movhi
 1762 0248 9BB2     		uxth	r3, r3
 1763              		.loc 1 1424 10
 1764 024a 012B     		cmp	r3, #1
 1765 024c 12D9     		bls	.L99
1425:Drivers/STM32G4xx_HAL_Driver/Src/stm32g4xx_hal_spi.c ****       {
1426:Drivers/STM32G4xx_HAL_Driver/Src/stm32g4xx_hal_spi.c ****         hspi->Instance->DR = *((uint16_t *)hspi->pTxBuffPtr);
 1766              		.loc 1 1426 48
 1767 024e FB68     		ldr	r3, [r7, #12]
ARM GAS  C:\Users\AURORA~1\AppData\Local\Temp\ccDX0hEW.s 			page 57


 1768 0250 9B6B     		ldr	r3, [r3, #56]
 1769              		.loc 1 1426 30
 1770 0252 1A88     		ldrh	r2, [r3]
 1771              		.loc 1 1426 13
 1772 0254 FB68     		ldr	r3, [r7, #12]
 1773 0256 1B68     		ldr	r3, [r3]
 1774              		.loc 1 1426 28
 1775 0258 DA60     		str	r2, [r3, #12]
1427:Drivers/STM32G4xx_HAL_Driver/Src/stm32g4xx_hal_spi.c ****         hspi->pTxBuffPtr += sizeof(uint16_t);
 1776              		.loc 1 1427 13
 1777 025a FB68     		ldr	r3, [r7, #12]
 1778 025c 9B6B     		ldr	r3, [r3, #56]
 1779              		.loc 1 1427 26
 1780 025e 9A1C     		adds	r2, r3, #2
 1781 0260 FB68     		ldr	r3, [r7, #12]
 1782 0262 9A63     		str	r2, [r3, #56]
1428:Drivers/STM32G4xx_HAL_Driver/Src/stm32g4xx_hal_spi.c ****         hspi->TxXferCount -= 2U;
 1783              		.loc 1 1428 13
 1784 0264 FB68     		ldr	r3, [r7, #12]
 1785 0266 DB8F     		ldrh	r3, [r3, #62]	@ movhi
 1786 0268 9BB2     		uxth	r3, r3
 1787              		.loc 1 1428 27
 1788 026a 023B     		subs	r3, r3, #2
 1789 026c 9AB2     		uxth	r2, r3
 1790 026e FB68     		ldr	r3, [r7, #12]
 1791 0270 DA87     		strh	r2, [r3, #62]	@ movhi
 1792 0272 B6E0     		b	.L100
 1793              	.L99:
1429:Drivers/STM32G4xx_HAL_Driver/Src/stm32g4xx_hal_spi.c ****       }
1430:Drivers/STM32G4xx_HAL_Driver/Src/stm32g4xx_hal_spi.c ****       else
1431:Drivers/STM32G4xx_HAL_Driver/Src/stm32g4xx_hal_spi.c ****       {
1432:Drivers/STM32G4xx_HAL_Driver/Src/stm32g4xx_hal_spi.c ****         *(__IO uint8_t *)&hspi->Instance->DR = (*hspi->pTxBuffPtr);
 1794              		.loc 1 1432 54
 1795 0274 FB68     		ldr	r3, [r7, #12]
 1796 0276 9A6B     		ldr	r2, [r3, #56]
 1797              		.loc 1 1432 31
 1798 0278 FB68     		ldr	r3, [r7, #12]
 1799 027a 1B68     		ldr	r3, [r3]
 1800              		.loc 1 1432 26
 1801 027c 0C33     		adds	r3, r3, #12
 1802              		.loc 1 1432 49
 1803 027e 1278     		ldrb	r2, [r2]	@ zero_extendqisi2
 1804              		.loc 1 1432 46
 1805 0280 1A70     		strb	r2, [r3]
1433:Drivers/STM32G4xx_HAL_Driver/Src/stm32g4xx_hal_spi.c ****         hspi->pTxBuffPtr++;
 1806              		.loc 1 1433 13
 1807 0282 FB68     		ldr	r3, [r7, #12]
 1808 0284 9B6B     		ldr	r3, [r3, #56]
 1809              		.loc 1 1433 25
 1810 0286 5A1C     		adds	r2, r3, #1
 1811 0288 FB68     		ldr	r3, [r7, #12]
 1812 028a 9A63     		str	r2, [r3, #56]
1434:Drivers/STM32G4xx_HAL_Driver/Src/stm32g4xx_hal_spi.c ****         hspi->TxXferCount--;
 1813              		.loc 1 1434 13
 1814 028c FB68     		ldr	r3, [r7, #12]
 1815 028e DB8F     		ldrh	r3, [r3, #62]	@ movhi
 1816 0290 9BB2     		uxth	r3, r3
ARM GAS  C:\Users\AURORA~1\AppData\Local\Temp\ccDX0hEW.s 			page 58


 1817              		.loc 1 1434 26
 1818 0292 013B     		subs	r3, r3, #1
 1819 0294 9AB2     		uxth	r2, r3
 1820 0296 FB68     		ldr	r3, [r7, #12]
 1821 0298 DA87     		strh	r2, [r3, #62]	@ movhi
1435:Drivers/STM32G4xx_HAL_Driver/Src/stm32g4xx_hal_spi.c **** 
1436:Drivers/STM32G4xx_HAL_Driver/Src/stm32g4xx_hal_spi.c **** #if (USE_SPI_CRC != 0U)
1437:Drivers/STM32G4xx_HAL_Driver/Src/stm32g4xx_hal_spi.c ****         /* Enable CRC Transmission */
1438:Drivers/STM32G4xx_HAL_Driver/Src/stm32g4xx_hal_spi.c ****         if ((hspi->TxXferCount == 0U) && (hspi->Init.CRCCalculation == SPI_CRCCALCULATION_ENABLE))
1439:Drivers/STM32G4xx_HAL_Driver/Src/stm32g4xx_hal_spi.c ****         {
1440:Drivers/STM32G4xx_HAL_Driver/Src/stm32g4xx_hal_spi.c ****           /* Set NSS Soft to received correctly the CRC on slave mode with NSS pulse activated */
1441:Drivers/STM32G4xx_HAL_Driver/Src/stm32g4xx_hal_spi.c ****           if ((READ_BIT(spi_cr1, SPI_CR1_MSTR) == 0U) && (READ_BIT(spi_cr2, SPI_CR2_NSSP) == SPI_CR
1442:Drivers/STM32G4xx_HAL_Driver/Src/stm32g4xx_hal_spi.c ****           {
1443:Drivers/STM32G4xx_HAL_Driver/Src/stm32g4xx_hal_spi.c ****             SET_BIT(hspi->Instance->CR1, SPI_CR1_SSM);
1444:Drivers/STM32G4xx_HAL_Driver/Src/stm32g4xx_hal_spi.c ****           }
1445:Drivers/STM32G4xx_HAL_Driver/Src/stm32g4xx_hal_spi.c ****           SET_BIT(hspi->Instance->CR1, SPI_CR1_CRCNEXT);
1446:Drivers/STM32G4xx_HAL_Driver/Src/stm32g4xx_hal_spi.c ****         }
1447:Drivers/STM32G4xx_HAL_Driver/Src/stm32g4xx_hal_spi.c **** #endif /* USE_SPI_CRC */
1448:Drivers/STM32G4xx_HAL_Driver/Src/stm32g4xx_hal_spi.c ****       }
1449:Drivers/STM32G4xx_HAL_Driver/Src/stm32g4xx_hal_spi.c ****     }
1450:Drivers/STM32G4xx_HAL_Driver/Src/stm32g4xx_hal_spi.c ****     while ((hspi->TxXferCount > 0U) || (hspi->RxXferCount > 0U))
 1822              		.loc 1 1450 11
 1823 029a A2E0     		b	.L100
 1824              	.L109:
1451:Drivers/STM32G4xx_HAL_Driver/Src/stm32g4xx_hal_spi.c ****     {
1452:Drivers/STM32G4xx_HAL_Driver/Src/stm32g4xx_hal_spi.c ****       /* Check TXE flag */
1453:Drivers/STM32G4xx_HAL_Driver/Src/stm32g4xx_hal_spi.c ****       if ((__HAL_SPI_GET_FLAG(hspi, SPI_FLAG_TXE)) && (hspi->TxXferCount > 0U) && (txallowed == 1U)
 1825              		.loc 1 1453 12
 1826 029c FB68     		ldr	r3, [r7, #12]
 1827 029e 1B68     		ldr	r3, [r3]
 1828 02a0 9B68     		ldr	r3, [r3, #8]
 1829 02a2 03F00203 		and	r3, r3, #2
 1830              		.loc 1 1453 10
 1831 02a6 022B     		cmp	r3, #2
 1832 02a8 34D1     		bne	.L101
 1833              		.loc 1 1453 60 discriminator 1
 1834 02aa FB68     		ldr	r3, [r7, #12]
 1835 02ac DB8F     		ldrh	r3, [r3, #62]	@ movhi
 1836 02ae 9BB2     		uxth	r3, r3
 1837              		.loc 1 1453 52 discriminator 1
 1838 02b0 002B     		cmp	r3, #0
 1839 02b2 2FD0     		beq	.L101
 1840              		.loc 1 1453 80 discriminator 2
 1841 02b4 7B6A     		ldr	r3, [r7, #36]
 1842 02b6 012B     		cmp	r3, #1
 1843 02b8 2CD1     		bne	.L101
1454:Drivers/STM32G4xx_HAL_Driver/Src/stm32g4xx_hal_spi.c ****       {
1455:Drivers/STM32G4xx_HAL_Driver/Src/stm32g4xx_hal_spi.c ****         if (hspi->TxXferCount > 1U)
 1844              		.loc 1 1455 17
 1845 02ba FB68     		ldr	r3, [r7, #12]
 1846 02bc DB8F     		ldrh	r3, [r3, #62]	@ movhi
 1847 02be 9BB2     		uxth	r3, r3
 1848              		.loc 1 1455 12
 1849 02c0 012B     		cmp	r3, #1
 1850 02c2 12D9     		bls	.L102
1456:Drivers/STM32G4xx_HAL_Driver/Src/stm32g4xx_hal_spi.c ****         {
1457:Drivers/STM32G4xx_HAL_Driver/Src/stm32g4xx_hal_spi.c ****           hspi->Instance->DR = *((uint16_t *)hspi->pTxBuffPtr);
ARM GAS  C:\Users\AURORA~1\AppData\Local\Temp\ccDX0hEW.s 			page 59


 1851              		.loc 1 1457 50
 1852 02c4 FB68     		ldr	r3, [r7, #12]
 1853 02c6 9B6B     		ldr	r3, [r3, #56]
 1854              		.loc 1 1457 32
 1855 02c8 1A88     		ldrh	r2, [r3]
 1856              		.loc 1 1457 15
 1857 02ca FB68     		ldr	r3, [r7, #12]
 1858 02cc 1B68     		ldr	r3, [r3]
 1859              		.loc 1 1457 30
 1860 02ce DA60     		str	r2, [r3, #12]
1458:Drivers/STM32G4xx_HAL_Driver/Src/stm32g4xx_hal_spi.c ****           hspi->pTxBuffPtr += sizeof(uint16_t);
 1861              		.loc 1 1458 15
 1862 02d0 FB68     		ldr	r3, [r7, #12]
 1863 02d2 9B6B     		ldr	r3, [r3, #56]
 1864              		.loc 1 1458 28
 1865 02d4 9A1C     		adds	r2, r3, #2
 1866 02d6 FB68     		ldr	r3, [r7, #12]
 1867 02d8 9A63     		str	r2, [r3, #56]
1459:Drivers/STM32G4xx_HAL_Driver/Src/stm32g4xx_hal_spi.c ****           hspi->TxXferCount -= 2U;
 1868              		.loc 1 1459 15
 1869 02da FB68     		ldr	r3, [r7, #12]
 1870 02dc DB8F     		ldrh	r3, [r3, #62]	@ movhi
 1871 02de 9BB2     		uxth	r3, r3
 1872              		.loc 1 1459 29
 1873 02e0 023B     		subs	r3, r3, #2
 1874 02e2 9AB2     		uxth	r2, r3
 1875 02e4 FB68     		ldr	r3, [r7, #12]
 1876 02e6 DA87     		strh	r2, [r3, #62]	@ movhi
 1877 02e8 12E0     		b	.L103
 1878              	.L102:
1460:Drivers/STM32G4xx_HAL_Driver/Src/stm32g4xx_hal_spi.c ****         }
1461:Drivers/STM32G4xx_HAL_Driver/Src/stm32g4xx_hal_spi.c ****         else
1462:Drivers/STM32G4xx_HAL_Driver/Src/stm32g4xx_hal_spi.c ****         {
1463:Drivers/STM32G4xx_HAL_Driver/Src/stm32g4xx_hal_spi.c ****           *(__IO uint8_t *)&hspi->Instance->DR = (*hspi->pTxBuffPtr);
 1879              		.loc 1 1463 56
 1880 02ea FB68     		ldr	r3, [r7, #12]
 1881 02ec 9A6B     		ldr	r2, [r3, #56]
 1882              		.loc 1 1463 33
 1883 02ee FB68     		ldr	r3, [r7, #12]
 1884 02f0 1B68     		ldr	r3, [r3]
 1885              		.loc 1 1463 28
 1886 02f2 0C33     		adds	r3, r3, #12
 1887              		.loc 1 1463 51
 1888 02f4 1278     		ldrb	r2, [r2]	@ zero_extendqisi2
 1889              		.loc 1 1463 48
 1890 02f6 1A70     		strb	r2, [r3]
1464:Drivers/STM32G4xx_HAL_Driver/Src/stm32g4xx_hal_spi.c ****           hspi->pTxBuffPtr++;
 1891              		.loc 1 1464 15
 1892 02f8 FB68     		ldr	r3, [r7, #12]
 1893 02fa 9B6B     		ldr	r3, [r3, #56]
 1894              		.loc 1 1464 27
 1895 02fc 5A1C     		adds	r2, r3, #1
 1896 02fe FB68     		ldr	r3, [r7, #12]
 1897 0300 9A63     		str	r2, [r3, #56]
1465:Drivers/STM32G4xx_HAL_Driver/Src/stm32g4xx_hal_spi.c ****           hspi->TxXferCount--;
 1898              		.loc 1 1465 15
 1899 0302 FB68     		ldr	r3, [r7, #12]
ARM GAS  C:\Users\AURORA~1\AppData\Local\Temp\ccDX0hEW.s 			page 60


 1900 0304 DB8F     		ldrh	r3, [r3, #62]	@ movhi
 1901 0306 9BB2     		uxth	r3, r3
 1902              		.loc 1 1465 28
 1903 0308 013B     		subs	r3, r3, #1
 1904 030a 9AB2     		uxth	r2, r3
 1905 030c FB68     		ldr	r3, [r7, #12]
 1906 030e DA87     		strh	r2, [r3, #62]	@ movhi
 1907              	.L103:
1466:Drivers/STM32G4xx_HAL_Driver/Src/stm32g4xx_hal_spi.c ****         }
1467:Drivers/STM32G4xx_HAL_Driver/Src/stm32g4xx_hal_spi.c ****         /* Next Data is a reception (Rx). Tx not allowed */
1468:Drivers/STM32G4xx_HAL_Driver/Src/stm32g4xx_hal_spi.c ****         txallowed = 0U;
 1908              		.loc 1 1468 19
 1909 0310 0023     		movs	r3, #0
 1910 0312 7B62     		str	r3, [r7, #36]
 1911              	.L101:
1469:Drivers/STM32G4xx_HAL_Driver/Src/stm32g4xx_hal_spi.c **** 
1470:Drivers/STM32G4xx_HAL_Driver/Src/stm32g4xx_hal_spi.c **** #if (USE_SPI_CRC != 0U)
1471:Drivers/STM32G4xx_HAL_Driver/Src/stm32g4xx_hal_spi.c ****         /* Enable CRC Transmission */
1472:Drivers/STM32G4xx_HAL_Driver/Src/stm32g4xx_hal_spi.c ****         if ((hspi->TxXferCount == 0U) && (hspi->Init.CRCCalculation == SPI_CRCCALCULATION_ENABLE))
1473:Drivers/STM32G4xx_HAL_Driver/Src/stm32g4xx_hal_spi.c ****         {
1474:Drivers/STM32G4xx_HAL_Driver/Src/stm32g4xx_hal_spi.c ****           /* Set NSS Soft to received correctly the CRC on slave mode with NSS pulse activated */
1475:Drivers/STM32G4xx_HAL_Driver/Src/stm32g4xx_hal_spi.c ****           if ((READ_BIT(spi_cr1, SPI_CR1_MSTR) == 0U) && (READ_BIT(spi_cr2, SPI_CR2_NSSP) == SPI_CR
1476:Drivers/STM32G4xx_HAL_Driver/Src/stm32g4xx_hal_spi.c ****           {
1477:Drivers/STM32G4xx_HAL_Driver/Src/stm32g4xx_hal_spi.c ****             SET_BIT(hspi->Instance->CR1, SPI_CR1_SSM);
1478:Drivers/STM32G4xx_HAL_Driver/Src/stm32g4xx_hal_spi.c ****           }
1479:Drivers/STM32G4xx_HAL_Driver/Src/stm32g4xx_hal_spi.c ****           SET_BIT(hspi->Instance->CR1, SPI_CR1_CRCNEXT);
1480:Drivers/STM32G4xx_HAL_Driver/Src/stm32g4xx_hal_spi.c ****         }
1481:Drivers/STM32G4xx_HAL_Driver/Src/stm32g4xx_hal_spi.c **** #endif /* USE_SPI_CRC */
1482:Drivers/STM32G4xx_HAL_Driver/Src/stm32g4xx_hal_spi.c ****       }
1483:Drivers/STM32G4xx_HAL_Driver/Src/stm32g4xx_hal_spi.c **** 
1484:Drivers/STM32G4xx_HAL_Driver/Src/stm32g4xx_hal_spi.c ****       /* Wait until RXNE flag is reset */
1485:Drivers/STM32G4xx_HAL_Driver/Src/stm32g4xx_hal_spi.c ****       if ((__HAL_SPI_GET_FLAG(hspi, SPI_FLAG_RXNE)) && (hspi->RxXferCount > 0U))
 1912              		.loc 1 1485 12
 1913 0314 FB68     		ldr	r3, [r7, #12]
 1914 0316 1B68     		ldr	r3, [r3]
 1915 0318 9B68     		ldr	r3, [r3, #8]
 1916 031a 03F00103 		and	r3, r3, #1
 1917              		.loc 1 1485 10
 1918 031e 012B     		cmp	r3, #1
 1919 0320 48D1     		bne	.L104
 1920              		.loc 1 1485 61 discriminator 1
 1921 0322 FB68     		ldr	r3, [r7, #12]
 1922 0324 B3F84630 		ldrh	r3, [r3, #70]	@ movhi
 1923 0328 9BB2     		uxth	r3, r3
 1924              		.loc 1 1485 53 discriminator 1
 1925 032a 002B     		cmp	r3, #0
 1926 032c 42D0     		beq	.L104
1486:Drivers/STM32G4xx_HAL_Driver/Src/stm32g4xx_hal_spi.c ****       {
1487:Drivers/STM32G4xx_HAL_Driver/Src/stm32g4xx_hal_spi.c ****         if (hspi->RxXferCount > 1U)
 1927              		.loc 1 1487 17
 1928 032e FB68     		ldr	r3, [r7, #12]
 1929 0330 B3F84630 		ldrh	r3, [r3, #70]	@ movhi
 1930 0334 9BB2     		uxth	r3, r3
 1931              		.loc 1 1487 12
 1932 0336 012B     		cmp	r3, #1
 1933 0338 23D9     		bls	.L105
1488:Drivers/STM32G4xx_HAL_Driver/Src/stm32g4xx_hal_spi.c ****         {
ARM GAS  C:\Users\AURORA~1\AppData\Local\Temp\ccDX0hEW.s 			page 61


1489:Drivers/STM32G4xx_HAL_Driver/Src/stm32g4xx_hal_spi.c ****           *((uint16_t *)hspi->pRxBuffPtr) = (uint16_t)hspi->Instance->DR;
 1934              		.loc 1 1489 59
 1935 033a FB68     		ldr	r3, [r7, #12]
 1936 033c 1B68     		ldr	r3, [r3]
 1937              		.loc 1 1489 69
 1938 033e DA68     		ldr	r2, [r3, #12]
 1939              		.loc 1 1489 29
 1940 0340 FB68     		ldr	r3, [r7, #12]
 1941 0342 1B6C     		ldr	r3, [r3, #64]
 1942              		.loc 1 1489 45
 1943 0344 92B2     		uxth	r2, r2
 1944              		.loc 1 1489 43
 1945 0346 1A80     		strh	r2, [r3]	@ movhi
1490:Drivers/STM32G4xx_HAL_Driver/Src/stm32g4xx_hal_spi.c ****           hspi->pRxBuffPtr += sizeof(uint16_t);
 1946              		.loc 1 1490 15
 1947 0348 FB68     		ldr	r3, [r7, #12]
 1948 034a 1B6C     		ldr	r3, [r3, #64]
 1949              		.loc 1 1490 28
 1950 034c 9A1C     		adds	r2, r3, #2
 1951 034e FB68     		ldr	r3, [r7, #12]
 1952 0350 1A64     		str	r2, [r3, #64]
1491:Drivers/STM32G4xx_HAL_Driver/Src/stm32g4xx_hal_spi.c ****           hspi->RxXferCount -= 2U;
 1953              		.loc 1 1491 15
 1954 0352 FB68     		ldr	r3, [r7, #12]
 1955 0354 B3F84630 		ldrh	r3, [r3, #70]	@ movhi
 1956 0358 9BB2     		uxth	r3, r3
 1957              		.loc 1 1491 29
 1958 035a 023B     		subs	r3, r3, #2
 1959 035c 9AB2     		uxth	r2, r3
 1960 035e FB68     		ldr	r3, [r7, #12]
 1961 0360 A3F84620 		strh	r2, [r3, #70]	@ movhi
1492:Drivers/STM32G4xx_HAL_Driver/Src/stm32g4xx_hal_spi.c ****           if (hspi->RxXferCount <= 1U)
 1962              		.loc 1 1492 19
 1963 0364 FB68     		ldr	r3, [r7, #12]
 1964 0366 B3F84630 		ldrh	r3, [r3, #70]	@ movhi
 1965 036a 9BB2     		uxth	r3, r3
 1966              		.loc 1 1492 14
 1967 036c 012B     		cmp	r3, #1
 1968 036e 1FD8     		bhi	.L106
1493:Drivers/STM32G4xx_HAL_Driver/Src/stm32g4xx_hal_spi.c ****           {
1494:Drivers/STM32G4xx_HAL_Driver/Src/stm32g4xx_hal_spi.c ****             /* Set RX Fifo threshold before to switch on 8 bit data size */
1495:Drivers/STM32G4xx_HAL_Driver/Src/stm32g4xx_hal_spi.c ****             SET_BIT(hspi->Instance->CR2, SPI_RXFIFO_THRESHOLD);
 1969              		.loc 1 1495 13
 1970 0370 FB68     		ldr	r3, [r7, #12]
 1971 0372 1B68     		ldr	r3, [r3]
 1972 0374 5A68     		ldr	r2, [r3, #4]
 1973 0376 FB68     		ldr	r3, [r7, #12]
 1974 0378 1B68     		ldr	r3, [r3]
 1975 037a 42F48052 		orr	r2, r2, #4096
 1976 037e 5A60     		str	r2, [r3, #4]
 1977 0380 16E0     		b	.L106
 1978              	.L105:
1496:Drivers/STM32G4xx_HAL_Driver/Src/stm32g4xx_hal_spi.c ****           }
1497:Drivers/STM32G4xx_HAL_Driver/Src/stm32g4xx_hal_spi.c ****         }
1498:Drivers/STM32G4xx_HAL_Driver/Src/stm32g4xx_hal_spi.c ****         else
1499:Drivers/STM32G4xx_HAL_Driver/Src/stm32g4xx_hal_spi.c ****         {
1500:Drivers/STM32G4xx_HAL_Driver/Src/stm32g4xx_hal_spi.c ****           (*(uint8_t *)hspi->pRxBuffPtr) = *(__IO uint8_t *)&hspi->Instance->DR;
ARM GAS  C:\Users\AURORA~1\AppData\Local\Temp\ccDX0hEW.s 			page 62


 1979              		.loc 1 1500 66
 1980 0382 FB68     		ldr	r3, [r7, #12]
 1981 0384 1B68     		ldr	r3, [r3]
 1982              		.loc 1 1500 61
 1983 0386 03F10C02 		add	r2, r3, #12
 1984              		.loc 1 1500 28
 1985 038a FB68     		ldr	r3, [r7, #12]
 1986 038c 1B6C     		ldr	r3, [r3, #64]
 1987              		.loc 1 1500 44
 1988 038e 1278     		ldrb	r2, [r2]
 1989 0390 D2B2     		uxtb	r2, r2
 1990              		.loc 1 1500 42
 1991 0392 1A70     		strb	r2, [r3]
1501:Drivers/STM32G4xx_HAL_Driver/Src/stm32g4xx_hal_spi.c ****           hspi->pRxBuffPtr++;
 1992              		.loc 1 1501 15
 1993 0394 FB68     		ldr	r3, [r7, #12]
 1994 0396 1B6C     		ldr	r3, [r3, #64]
 1995              		.loc 1 1501 27
 1996 0398 5A1C     		adds	r2, r3, #1
 1997 039a FB68     		ldr	r3, [r7, #12]
 1998 039c 1A64     		str	r2, [r3, #64]
1502:Drivers/STM32G4xx_HAL_Driver/Src/stm32g4xx_hal_spi.c ****           hspi->RxXferCount--;
 1999              		.loc 1 1502 15
 2000 039e FB68     		ldr	r3, [r7, #12]
 2001 03a0 B3F84630 		ldrh	r3, [r3, #70]	@ movhi
 2002 03a4 9BB2     		uxth	r3, r3
 2003              		.loc 1 1502 28
 2004 03a6 013B     		subs	r3, r3, #1
 2005 03a8 9AB2     		uxth	r2, r3
 2006 03aa FB68     		ldr	r3, [r7, #12]
 2007 03ac A3F84620 		strh	r2, [r3, #70]	@ movhi
 2008              	.L106:
1503:Drivers/STM32G4xx_HAL_Driver/Src/stm32g4xx_hal_spi.c ****         }
1504:Drivers/STM32G4xx_HAL_Driver/Src/stm32g4xx_hal_spi.c ****         /* Next Data is a Transmission (Tx). Tx is allowed */
1505:Drivers/STM32G4xx_HAL_Driver/Src/stm32g4xx_hal_spi.c ****         txallowed = 1U;
 2009              		.loc 1 1505 19
 2010 03b0 0123     		movs	r3, #1
 2011 03b2 7B62     		str	r3, [r7, #36]
 2012              	.L104:
1506:Drivers/STM32G4xx_HAL_Driver/Src/stm32g4xx_hal_spi.c ****       }
1507:Drivers/STM32G4xx_HAL_Driver/Src/stm32g4xx_hal_spi.c ****       if ((((HAL_GetTick() - tickstart) >=  Timeout) && ((Timeout != HAL_MAX_DELAY))) || (Timeout =
 2013              		.loc 1 1507 14
 2014 03b4 FFF7FEFF 		bl	HAL_GetTick
 2015 03b8 0246     		mov	r2, r0
 2016              		.loc 1 1507 28 discriminator 1
 2017 03ba FB69     		ldr	r3, [r7, #28]
 2018 03bc D31A     		subs	r3, r2, r3
 2019              		.loc 1 1507 10 discriminator 1
 2020 03be 3A6B     		ldr	r2, [r7, #48]
 2021 03c0 9A42     		cmp	r2, r3
 2022 03c2 03D8     		bhi	.L107
 2023              		.loc 1 1507 54 discriminator 1
 2024 03c4 3B6B     		ldr	r3, [r7, #48]
 2025 03c6 B3F1FF3F 		cmp	r3, #-1
 2026 03ca 02D1     		bne	.L108
 2027              	.L107:
 2028              		.loc 1 1507 87 discriminator 3
ARM GAS  C:\Users\AURORA~1\AppData\Local\Temp\ccDX0hEW.s 			page 63


 2029 03cc 3B6B     		ldr	r3, [r7, #48]
 2030 03ce 002B     		cmp	r3, #0
 2031 03d0 07D1     		bne	.L100
 2032              	.L108:
1508:Drivers/STM32G4xx_HAL_Driver/Src/stm32g4xx_hal_spi.c ****       {
1509:Drivers/STM32G4xx_HAL_Driver/Src/stm32g4xx_hal_spi.c ****         errorcode = HAL_TIMEOUT;
 2033              		.loc 1 1509 19
 2034 03d2 0323     		movs	r3, #3
 2035 03d4 87F82330 		strb	r3, [r7, #35]
1510:Drivers/STM32G4xx_HAL_Driver/Src/stm32g4xx_hal_spi.c ****         hspi->State = HAL_SPI_STATE_READY;
 2036              		.loc 1 1510 21
 2037 03d8 FB68     		ldr	r3, [r7, #12]
 2038 03da 0122     		movs	r2, #1
 2039 03dc 83F85D20 		strb	r2, [r3, #93]
1511:Drivers/STM32G4xx_HAL_Driver/Src/stm32g4xx_hal_spi.c ****         goto error;
 2040              		.loc 1 1511 9
 2041 03e0 26E0     		b	.L80
 2042              	.L100:
1450:Drivers/STM32G4xx_HAL_Driver/Src/stm32g4xx_hal_spi.c ****     {
 2043              		.loc 1 1450 17
 2044 03e2 FB68     		ldr	r3, [r7, #12]
 2045 03e4 DB8F     		ldrh	r3, [r3, #62]	@ movhi
 2046 03e6 9BB2     		uxth	r3, r3
1450:Drivers/STM32G4xx_HAL_Driver/Src/stm32g4xx_hal_spi.c ****     {
 2047              		.loc 1 1450 37
 2048 03e8 002B     		cmp	r3, #0
 2049 03ea 7FF457AF 		bne	.L109
1450:Drivers/STM32G4xx_HAL_Driver/Src/stm32g4xx_hal_spi.c ****     {
 2050              		.loc 1 1450 45 discriminator 1
 2051 03ee FB68     		ldr	r3, [r7, #12]
 2052 03f0 B3F84630 		ldrh	r3, [r3, #70]	@ movhi
 2053 03f4 9BB2     		uxth	r3, r3
1450:Drivers/STM32G4xx_HAL_Driver/Src/stm32g4xx_hal_spi.c ****     {
 2054              		.loc 1 1450 37 discriminator 1
 2055 03f6 002B     		cmp	r3, #0
 2056 03f8 7FF450AF 		bne	.L109
 2057              	.L96:
1512:Drivers/STM32G4xx_HAL_Driver/Src/stm32g4xx_hal_spi.c ****       }
1513:Drivers/STM32G4xx_HAL_Driver/Src/stm32g4xx_hal_spi.c ****     }
1514:Drivers/STM32G4xx_HAL_Driver/Src/stm32g4xx_hal_spi.c ****   }
1515:Drivers/STM32G4xx_HAL_Driver/Src/stm32g4xx_hal_spi.c **** 
1516:Drivers/STM32G4xx_HAL_Driver/Src/stm32g4xx_hal_spi.c **** #if (USE_SPI_CRC != 0U)
1517:Drivers/STM32G4xx_HAL_Driver/Src/stm32g4xx_hal_spi.c ****   /* Read CRC from DR to close CRC calculation process */
1518:Drivers/STM32G4xx_HAL_Driver/Src/stm32g4xx_hal_spi.c ****   if (hspi->Init.CRCCalculation == SPI_CRCCALCULATION_ENABLE)
1519:Drivers/STM32G4xx_HAL_Driver/Src/stm32g4xx_hal_spi.c ****   {
1520:Drivers/STM32G4xx_HAL_Driver/Src/stm32g4xx_hal_spi.c ****     /* Wait until TXE flag */
1521:Drivers/STM32G4xx_HAL_Driver/Src/stm32g4xx_hal_spi.c ****     if (SPI_WaitFlagStateUntilTimeout(hspi, SPI_FLAG_RXNE, SET, Timeout, tickstart) != HAL_OK)
1522:Drivers/STM32G4xx_HAL_Driver/Src/stm32g4xx_hal_spi.c ****     {
1523:Drivers/STM32G4xx_HAL_Driver/Src/stm32g4xx_hal_spi.c ****       /* Error on the CRC reception */
1524:Drivers/STM32G4xx_HAL_Driver/Src/stm32g4xx_hal_spi.c ****       SET_BIT(hspi->ErrorCode, HAL_SPI_ERROR_CRC);
1525:Drivers/STM32G4xx_HAL_Driver/Src/stm32g4xx_hal_spi.c ****       errorcode = HAL_TIMEOUT;
1526:Drivers/STM32G4xx_HAL_Driver/Src/stm32g4xx_hal_spi.c ****       goto error;
1527:Drivers/STM32G4xx_HAL_Driver/Src/stm32g4xx_hal_spi.c ****     }
1528:Drivers/STM32G4xx_HAL_Driver/Src/stm32g4xx_hal_spi.c ****     /* Read CRC */
1529:Drivers/STM32G4xx_HAL_Driver/Src/stm32g4xx_hal_spi.c ****     if (hspi->Init.DataSize == SPI_DATASIZE_16BIT)
1530:Drivers/STM32G4xx_HAL_Driver/Src/stm32g4xx_hal_spi.c ****     {
1531:Drivers/STM32G4xx_HAL_Driver/Src/stm32g4xx_hal_spi.c ****       /* Read 16bit CRC */
ARM GAS  C:\Users\AURORA~1\AppData\Local\Temp\ccDX0hEW.s 			page 64


1532:Drivers/STM32G4xx_HAL_Driver/Src/stm32g4xx_hal_spi.c ****       tmpreg = READ_REG(hspi->Instance->DR);
1533:Drivers/STM32G4xx_HAL_Driver/Src/stm32g4xx_hal_spi.c ****       /* To avoid GCC warning */
1534:Drivers/STM32G4xx_HAL_Driver/Src/stm32g4xx_hal_spi.c ****       UNUSED(tmpreg);
1535:Drivers/STM32G4xx_HAL_Driver/Src/stm32g4xx_hal_spi.c ****     }
1536:Drivers/STM32G4xx_HAL_Driver/Src/stm32g4xx_hal_spi.c ****     else
1537:Drivers/STM32G4xx_HAL_Driver/Src/stm32g4xx_hal_spi.c ****     {
1538:Drivers/STM32G4xx_HAL_Driver/Src/stm32g4xx_hal_spi.c ****       /* Initialize the 8bit temporary pointer */
1539:Drivers/STM32G4xx_HAL_Driver/Src/stm32g4xx_hal_spi.c ****       ptmpreg8 = (__IO uint8_t *)&hspi->Instance->DR;
1540:Drivers/STM32G4xx_HAL_Driver/Src/stm32g4xx_hal_spi.c ****       /* Read 8bit CRC */
1541:Drivers/STM32G4xx_HAL_Driver/Src/stm32g4xx_hal_spi.c ****       tmpreg8 = *ptmpreg8;
1542:Drivers/STM32G4xx_HAL_Driver/Src/stm32g4xx_hal_spi.c ****       /* To avoid GCC warning */
1543:Drivers/STM32G4xx_HAL_Driver/Src/stm32g4xx_hal_spi.c ****       UNUSED(tmpreg8);
1544:Drivers/STM32G4xx_HAL_Driver/Src/stm32g4xx_hal_spi.c **** 
1545:Drivers/STM32G4xx_HAL_Driver/Src/stm32g4xx_hal_spi.c ****       if (hspi->Init.CRCLength == SPI_CRC_LENGTH_16BIT)
1546:Drivers/STM32G4xx_HAL_Driver/Src/stm32g4xx_hal_spi.c ****       {
1547:Drivers/STM32G4xx_HAL_Driver/Src/stm32g4xx_hal_spi.c ****         if (SPI_WaitFlagStateUntilTimeout(hspi, SPI_FLAG_RXNE, SET, Timeout, tickstart) != HAL_OK)
1548:Drivers/STM32G4xx_HAL_Driver/Src/stm32g4xx_hal_spi.c ****         {
1549:Drivers/STM32G4xx_HAL_Driver/Src/stm32g4xx_hal_spi.c ****           /* Error on the CRC reception */
1550:Drivers/STM32G4xx_HAL_Driver/Src/stm32g4xx_hal_spi.c ****           SET_BIT(hspi->ErrorCode, HAL_SPI_ERROR_CRC);
1551:Drivers/STM32G4xx_HAL_Driver/Src/stm32g4xx_hal_spi.c ****           errorcode = HAL_TIMEOUT;
1552:Drivers/STM32G4xx_HAL_Driver/Src/stm32g4xx_hal_spi.c ****           goto error;
1553:Drivers/STM32G4xx_HAL_Driver/Src/stm32g4xx_hal_spi.c ****         }
1554:Drivers/STM32G4xx_HAL_Driver/Src/stm32g4xx_hal_spi.c ****         /* Read 8bit CRC again in case of 16bit CRC in 8bit Data mode */
1555:Drivers/STM32G4xx_HAL_Driver/Src/stm32g4xx_hal_spi.c ****         tmpreg8 = *ptmpreg8;
1556:Drivers/STM32G4xx_HAL_Driver/Src/stm32g4xx_hal_spi.c ****         /* To avoid GCC warning */
1557:Drivers/STM32G4xx_HAL_Driver/Src/stm32g4xx_hal_spi.c ****         UNUSED(tmpreg8);
1558:Drivers/STM32G4xx_HAL_Driver/Src/stm32g4xx_hal_spi.c ****       }
1559:Drivers/STM32G4xx_HAL_Driver/Src/stm32g4xx_hal_spi.c ****     }
1560:Drivers/STM32G4xx_HAL_Driver/Src/stm32g4xx_hal_spi.c ****   }
1561:Drivers/STM32G4xx_HAL_Driver/Src/stm32g4xx_hal_spi.c **** 
1562:Drivers/STM32G4xx_HAL_Driver/Src/stm32g4xx_hal_spi.c ****   /* Check if CRC error occurred */
1563:Drivers/STM32G4xx_HAL_Driver/Src/stm32g4xx_hal_spi.c ****   if (__HAL_SPI_GET_FLAG(hspi, SPI_FLAG_CRCERR))
1564:Drivers/STM32G4xx_HAL_Driver/Src/stm32g4xx_hal_spi.c ****   {
1565:Drivers/STM32G4xx_HAL_Driver/Src/stm32g4xx_hal_spi.c ****     SET_BIT(hspi->ErrorCode, HAL_SPI_ERROR_CRC);
1566:Drivers/STM32G4xx_HAL_Driver/Src/stm32g4xx_hal_spi.c ****     /* Clear CRC Flag */
1567:Drivers/STM32G4xx_HAL_Driver/Src/stm32g4xx_hal_spi.c ****     __HAL_SPI_CLEAR_CRCERRFLAG(hspi);
1568:Drivers/STM32G4xx_HAL_Driver/Src/stm32g4xx_hal_spi.c **** 
1569:Drivers/STM32G4xx_HAL_Driver/Src/stm32g4xx_hal_spi.c ****     errorcode = HAL_ERROR;
1570:Drivers/STM32G4xx_HAL_Driver/Src/stm32g4xx_hal_spi.c ****   }
1571:Drivers/STM32G4xx_HAL_Driver/Src/stm32g4xx_hal_spi.c **** #endif /* USE_SPI_CRC */
1572:Drivers/STM32G4xx_HAL_Driver/Src/stm32g4xx_hal_spi.c **** 
1573:Drivers/STM32G4xx_HAL_Driver/Src/stm32g4xx_hal_spi.c ****   /* Check the end of the transaction */
1574:Drivers/STM32G4xx_HAL_Driver/Src/stm32g4xx_hal_spi.c ****   if (SPI_EndRxTxTransaction(hspi, Timeout, tickstart) != HAL_OK)
 2058              		.loc 1 1574 7
 2059 03fc FA69     		ldr	r2, [r7, #28]
 2060 03fe 396B     		ldr	r1, [r7, #48]
 2061 0400 F868     		ldr	r0, [r7, #12]
 2062 0402 FFF7FEFF 		bl	SPI_EndRxTxTransaction
 2063 0406 0346     		mov	r3, r0
 2064              		.loc 1 1574 6 discriminator 1
 2065 0408 002B     		cmp	r3, #0
 2066 040a 05D0     		beq	.L110
1575:Drivers/STM32G4xx_HAL_Driver/Src/stm32g4xx_hal_spi.c ****   {
1576:Drivers/STM32G4xx_HAL_Driver/Src/stm32g4xx_hal_spi.c ****     errorcode = HAL_ERROR;
 2067              		.loc 1 1576 15
 2068 040c 0123     		movs	r3, #1
 2069 040e 87F82330 		strb	r3, [r7, #35]
ARM GAS  C:\Users\AURORA~1\AppData\Local\Temp\ccDX0hEW.s 			page 65


1577:Drivers/STM32G4xx_HAL_Driver/Src/stm32g4xx_hal_spi.c ****     hspi->ErrorCode = HAL_SPI_ERROR_FLAG;
 2070              		.loc 1 1577 21
 2071 0412 FB68     		ldr	r3, [r7, #12]
 2072 0414 2022     		movs	r2, #32
 2073 0416 1A66     		str	r2, [r3, #96]
 2074              	.L110:
1578:Drivers/STM32G4xx_HAL_Driver/Src/stm32g4xx_hal_spi.c ****   }
1579:Drivers/STM32G4xx_HAL_Driver/Src/stm32g4xx_hal_spi.c **** 
1580:Drivers/STM32G4xx_HAL_Driver/Src/stm32g4xx_hal_spi.c ****   if (hspi->ErrorCode != HAL_SPI_ERROR_NONE)
 2075              		.loc 1 1580 11
 2076 0418 FB68     		ldr	r3, [r7, #12]
 2077 041a 1B6E     		ldr	r3, [r3, #96]
 2078              		.loc 1 1580 6
 2079 041c 002B     		cmp	r3, #0
 2080 041e 03D0     		beq	.L111
1581:Drivers/STM32G4xx_HAL_Driver/Src/stm32g4xx_hal_spi.c ****   {
1582:Drivers/STM32G4xx_HAL_Driver/Src/stm32g4xx_hal_spi.c ****     errorcode = HAL_ERROR;
 2081              		.loc 1 1582 15
 2082 0420 0123     		movs	r3, #1
 2083 0422 87F82330 		strb	r3, [r7, #35]
 2084 0426 03E0     		b	.L80
 2085              	.L111:
1583:Drivers/STM32G4xx_HAL_Driver/Src/stm32g4xx_hal_spi.c ****   }
1584:Drivers/STM32G4xx_HAL_Driver/Src/stm32g4xx_hal_spi.c ****   else
1585:Drivers/STM32G4xx_HAL_Driver/Src/stm32g4xx_hal_spi.c ****   {
1586:Drivers/STM32G4xx_HAL_Driver/Src/stm32g4xx_hal_spi.c ****     hspi->State = HAL_SPI_STATE_READY;
 2086              		.loc 1 1586 17
 2087 0428 FB68     		ldr	r3, [r7, #12]
 2088 042a 0122     		movs	r2, #1
 2089 042c 83F85D20 		strb	r2, [r3, #93]
 2090              	.L80:
1587:Drivers/STM32G4xx_HAL_Driver/Src/stm32g4xx_hal_spi.c ****   }
1588:Drivers/STM32G4xx_HAL_Driver/Src/stm32g4xx_hal_spi.c ****   
1589:Drivers/STM32G4xx_HAL_Driver/Src/stm32g4xx_hal_spi.c **** error :
1590:Drivers/STM32G4xx_HAL_Driver/Src/stm32g4xx_hal_spi.c ****   __HAL_UNLOCK(hspi);
 2091              		.loc 1 1590 3
 2092 0430 FB68     		ldr	r3, [r7, #12]
 2093 0432 0022     		movs	r2, #0
 2094 0434 83F85C20 		strb	r2, [r3, #92]
1591:Drivers/STM32G4xx_HAL_Driver/Src/stm32g4xx_hal_spi.c ****   return errorcode;
 2095              		.loc 1 1591 10
 2096 0438 97F82330 		ldrb	r3, [r7, #35]	@ zero_extendqisi2
 2097              	.L77:
1592:Drivers/STM32G4xx_HAL_Driver/Src/stm32g4xx_hal_spi.c **** }
 2098              		.loc 1 1592 1
 2099 043c 1846     		mov	r0, r3
 2100 043e 2837     		adds	r7, r7, #40
 2101              	.LCFI35:
 2102              		.cfi_def_cfa_offset 8
 2103 0440 BD46     		mov	sp, r7
 2104              	.LCFI36:
 2105              		.cfi_def_cfa_register 13
 2106              		@ sp needed
 2107 0442 80BD     		pop	{r7, pc}
 2108              		.cfi_endproc
 2109              	.LFE138:
 2111              		.section	.text.HAL_SPI_Transmit_IT,"ax",%progbits
ARM GAS  C:\Users\AURORA~1\AppData\Local\Temp\ccDX0hEW.s 			page 66


 2112              		.align	1
 2113              		.global	HAL_SPI_Transmit_IT
 2114              		.syntax unified
 2115              		.thumb
 2116              		.thumb_func
 2118              	HAL_SPI_Transmit_IT:
 2119              	.LFB139:
1593:Drivers/STM32G4xx_HAL_Driver/Src/stm32g4xx_hal_spi.c **** 
1594:Drivers/STM32G4xx_HAL_Driver/Src/stm32g4xx_hal_spi.c **** /**
1595:Drivers/STM32G4xx_HAL_Driver/Src/stm32g4xx_hal_spi.c ****   * @brief  Transmit an amount of data in non-blocking mode with Interrupt.
1596:Drivers/STM32G4xx_HAL_Driver/Src/stm32g4xx_hal_spi.c ****   * @param  hspi pointer to a SPI_HandleTypeDef structure that contains
1597:Drivers/STM32G4xx_HAL_Driver/Src/stm32g4xx_hal_spi.c ****   *               the configuration information for SPI module.
1598:Drivers/STM32G4xx_HAL_Driver/Src/stm32g4xx_hal_spi.c ****   * @param  pData pointer to data buffer
1599:Drivers/STM32G4xx_HAL_Driver/Src/stm32g4xx_hal_spi.c ****   * @param  Size amount of data to be sent
1600:Drivers/STM32G4xx_HAL_Driver/Src/stm32g4xx_hal_spi.c ****   * @retval HAL status
1601:Drivers/STM32G4xx_HAL_Driver/Src/stm32g4xx_hal_spi.c ****   */
1602:Drivers/STM32G4xx_HAL_Driver/Src/stm32g4xx_hal_spi.c **** HAL_StatusTypeDef HAL_SPI_Transmit_IT(SPI_HandleTypeDef *hspi, uint8_t *pData, uint16_t Size)
1603:Drivers/STM32G4xx_HAL_Driver/Src/stm32g4xx_hal_spi.c **** {
 2120              		.loc 1 1603 1
 2121              		.cfi_startproc
 2122              		@ args = 0, pretend = 0, frame = 24
 2123              		@ frame_needed = 1, uses_anonymous_args = 0
 2124              		@ link register save eliminated.
 2125 0000 80B4     		push	{r7}
 2126              	.LCFI37:
 2127              		.cfi_def_cfa_offset 4
 2128              		.cfi_offset 7, -4
 2129 0002 87B0     		sub	sp, sp, #28
 2130              	.LCFI38:
 2131              		.cfi_def_cfa_offset 32
 2132 0004 00AF     		add	r7, sp, #0
 2133              	.LCFI39:
 2134              		.cfi_def_cfa_register 7
 2135 0006 F860     		str	r0, [r7, #12]
 2136 0008 B960     		str	r1, [r7, #8]
 2137 000a 1346     		mov	r3, r2
 2138 000c FB80     		strh	r3, [r7, #6]	@ movhi
1604:Drivers/STM32G4xx_HAL_Driver/Src/stm32g4xx_hal_spi.c ****   HAL_StatusTypeDef errorcode = HAL_OK;
 2139              		.loc 1 1604 21
 2140 000e 0023     		movs	r3, #0
 2141 0010 FB75     		strb	r3, [r7, #23]
1605:Drivers/STM32G4xx_HAL_Driver/Src/stm32g4xx_hal_spi.c **** 
1606:Drivers/STM32G4xx_HAL_Driver/Src/stm32g4xx_hal_spi.c ****   /* Check Direction parameter */
1607:Drivers/STM32G4xx_HAL_Driver/Src/stm32g4xx_hal_spi.c ****   assert_param(IS_SPI_DIRECTION_2LINES_OR_1LINE(hspi->Init.Direction));
1608:Drivers/STM32G4xx_HAL_Driver/Src/stm32g4xx_hal_spi.c **** 
1609:Drivers/STM32G4xx_HAL_Driver/Src/stm32g4xx_hal_spi.c **** 
1610:Drivers/STM32G4xx_HAL_Driver/Src/stm32g4xx_hal_spi.c ****   if ((pData == NULL) || (Size == 0U))
 2142              		.loc 1 1610 6
 2143 0012 BB68     		ldr	r3, [r7, #8]
 2144 0014 002B     		cmp	r3, #0
 2145 0016 02D0     		beq	.L113
 2146              		.loc 1 1610 23 discriminator 1
 2147 0018 FB88     		ldrh	r3, [r7, #6]
 2148 001a 002B     		cmp	r3, #0
 2149 001c 02D1     		bne	.L114
 2150              	.L113:
1611:Drivers/STM32G4xx_HAL_Driver/Src/stm32g4xx_hal_spi.c ****   {
ARM GAS  C:\Users\AURORA~1\AppData\Local\Temp\ccDX0hEW.s 			page 67


1612:Drivers/STM32G4xx_HAL_Driver/Src/stm32g4xx_hal_spi.c ****     errorcode = HAL_ERROR;
 2151              		.loc 1 1612 15
 2152 001e 0123     		movs	r3, #1
 2153 0020 FB75     		strb	r3, [r7, #23]
1613:Drivers/STM32G4xx_HAL_Driver/Src/stm32g4xx_hal_spi.c ****     goto error;
 2154              		.loc 1 1613 5
 2155 0022 6DE0     		b	.L115
 2156              	.L114:
1614:Drivers/STM32G4xx_HAL_Driver/Src/stm32g4xx_hal_spi.c ****   }
1615:Drivers/STM32G4xx_HAL_Driver/Src/stm32g4xx_hal_spi.c **** 
1616:Drivers/STM32G4xx_HAL_Driver/Src/stm32g4xx_hal_spi.c ****   if (hspi->State != HAL_SPI_STATE_READY)
 2157              		.loc 1 1616 11
 2158 0024 FB68     		ldr	r3, [r7, #12]
 2159 0026 93F85D30 		ldrb	r3, [r3, #93]
 2160 002a DBB2     		uxtb	r3, r3
 2161              		.loc 1 1616 6
 2162 002c 012B     		cmp	r3, #1
 2163 002e 02D0     		beq	.L116
1617:Drivers/STM32G4xx_HAL_Driver/Src/stm32g4xx_hal_spi.c ****   {
1618:Drivers/STM32G4xx_HAL_Driver/Src/stm32g4xx_hal_spi.c ****     errorcode = HAL_BUSY;
 2164              		.loc 1 1618 15
 2165 0030 0223     		movs	r3, #2
 2166 0032 FB75     		strb	r3, [r7, #23]
1619:Drivers/STM32G4xx_HAL_Driver/Src/stm32g4xx_hal_spi.c ****     goto error;
 2167              		.loc 1 1619 5
 2168 0034 64E0     		b	.L115
 2169              	.L116:
1620:Drivers/STM32G4xx_HAL_Driver/Src/stm32g4xx_hal_spi.c ****   }
1621:Drivers/STM32G4xx_HAL_Driver/Src/stm32g4xx_hal_spi.c **** 
1622:Drivers/STM32G4xx_HAL_Driver/Src/stm32g4xx_hal_spi.c ****   /* Process Locked */
1623:Drivers/STM32G4xx_HAL_Driver/Src/stm32g4xx_hal_spi.c ****   __HAL_LOCK(hspi);
 2170              		.loc 1 1623 3
 2171 0036 FB68     		ldr	r3, [r7, #12]
 2172 0038 93F85C30 		ldrb	r3, [r3, #92]	@ zero_extendqisi2
 2173 003c 012B     		cmp	r3, #1
 2174 003e 01D1     		bne	.L117
 2175              		.loc 1 1623 3 is_stmt 0 discriminator 1
 2176 0040 0223     		movs	r3, #2
 2177              		.loc 1 1623 3
 2178 0042 5EE0     		b	.L118
 2179              	.L117:
 2180              		.loc 1 1623 3 discriminator 2
 2181 0044 FB68     		ldr	r3, [r7, #12]
 2182 0046 0122     		movs	r2, #1
 2183 0048 83F85C20 		strb	r2, [r3, #92]
1624:Drivers/STM32G4xx_HAL_Driver/Src/stm32g4xx_hal_spi.c **** 
1625:Drivers/STM32G4xx_HAL_Driver/Src/stm32g4xx_hal_spi.c ****   /* Set the transaction information */
1626:Drivers/STM32G4xx_HAL_Driver/Src/stm32g4xx_hal_spi.c ****   hspi->State       = HAL_SPI_STATE_BUSY_TX;
 2184              		.loc 1 1626 21 is_stmt 1
 2185 004c FB68     		ldr	r3, [r7, #12]
 2186 004e 0322     		movs	r2, #3
 2187 0050 83F85D20 		strb	r2, [r3, #93]
1627:Drivers/STM32G4xx_HAL_Driver/Src/stm32g4xx_hal_spi.c ****   hspi->ErrorCode   = HAL_SPI_ERROR_NONE;
 2188              		.loc 1 1627 21
 2189 0054 FB68     		ldr	r3, [r7, #12]
 2190 0056 0022     		movs	r2, #0
 2191 0058 1A66     		str	r2, [r3, #96]
ARM GAS  C:\Users\AURORA~1\AppData\Local\Temp\ccDX0hEW.s 			page 68


1628:Drivers/STM32G4xx_HAL_Driver/Src/stm32g4xx_hal_spi.c ****   hspi->pTxBuffPtr  = (uint8_t *)pData;
 2192              		.loc 1 1628 21
 2193 005a FB68     		ldr	r3, [r7, #12]
 2194 005c BA68     		ldr	r2, [r7, #8]
 2195 005e 9A63     		str	r2, [r3, #56]
1629:Drivers/STM32G4xx_HAL_Driver/Src/stm32g4xx_hal_spi.c ****   hspi->TxXferSize  = Size;
 2196              		.loc 1 1629 21
 2197 0060 FB68     		ldr	r3, [r7, #12]
 2198 0062 FA88     		ldrh	r2, [r7, #6]	@ movhi
 2199 0064 9A87     		strh	r2, [r3, #60]	@ movhi
1630:Drivers/STM32G4xx_HAL_Driver/Src/stm32g4xx_hal_spi.c ****   hspi->TxXferCount = Size;
 2200              		.loc 1 1630 21
 2201 0066 FB68     		ldr	r3, [r7, #12]
 2202 0068 FA88     		ldrh	r2, [r7, #6]	@ movhi
 2203 006a DA87     		strh	r2, [r3, #62]	@ movhi
1631:Drivers/STM32G4xx_HAL_Driver/Src/stm32g4xx_hal_spi.c **** 
1632:Drivers/STM32G4xx_HAL_Driver/Src/stm32g4xx_hal_spi.c ****   /* Init field not used in handle to zero */
1633:Drivers/STM32G4xx_HAL_Driver/Src/stm32g4xx_hal_spi.c ****   hspi->pRxBuffPtr  = (uint8_t *)NULL;
 2204              		.loc 1 1633 21
 2205 006c FB68     		ldr	r3, [r7, #12]
 2206 006e 0022     		movs	r2, #0
 2207 0070 1A64     		str	r2, [r3, #64]
1634:Drivers/STM32G4xx_HAL_Driver/Src/stm32g4xx_hal_spi.c ****   hspi->RxXferSize  = 0U;
 2208              		.loc 1 1634 21
 2209 0072 FB68     		ldr	r3, [r7, #12]
 2210 0074 0022     		movs	r2, #0
 2211 0076 A3F84420 		strh	r2, [r3, #68]	@ movhi
1635:Drivers/STM32G4xx_HAL_Driver/Src/stm32g4xx_hal_spi.c ****   hspi->RxXferCount = 0U;
 2212              		.loc 1 1635 21
 2213 007a FB68     		ldr	r3, [r7, #12]
 2214 007c 0022     		movs	r2, #0
 2215 007e A3F84620 		strh	r2, [r3, #70]	@ movhi
1636:Drivers/STM32G4xx_HAL_Driver/Src/stm32g4xx_hal_spi.c ****   hspi->RxISR       = NULL;
 2216              		.loc 1 1636 21
 2217 0082 FB68     		ldr	r3, [r7, #12]
 2218 0084 0022     		movs	r2, #0
 2219 0086 DA64     		str	r2, [r3, #76]
1637:Drivers/STM32G4xx_HAL_Driver/Src/stm32g4xx_hal_spi.c **** 
1638:Drivers/STM32G4xx_HAL_Driver/Src/stm32g4xx_hal_spi.c ****   /* Set the function for IT treatment */
1639:Drivers/STM32G4xx_HAL_Driver/Src/stm32g4xx_hal_spi.c ****   if (hspi->Init.DataSize > SPI_DATASIZE_8BIT)
 2220              		.loc 1 1639 17
 2221 0088 FB68     		ldr	r3, [r7, #12]
 2222 008a DB68     		ldr	r3, [r3, #12]
 2223              		.loc 1 1639 6
 2224 008c B3F5E06F 		cmp	r3, #1792
 2225 0090 03D9     		bls	.L119
1640:Drivers/STM32G4xx_HAL_Driver/Src/stm32g4xx_hal_spi.c ****   {
1641:Drivers/STM32G4xx_HAL_Driver/Src/stm32g4xx_hal_spi.c ****     hspi->TxISR = SPI_TxISR_16BIT;
 2226              		.loc 1 1641 17
 2227 0092 FB68     		ldr	r3, [r7, #12]
 2228 0094 1E4A     		ldr	r2, .L123
 2229 0096 1A65     		str	r2, [r3, #80]
 2230 0098 02E0     		b	.L120
 2231              	.L119:
1642:Drivers/STM32G4xx_HAL_Driver/Src/stm32g4xx_hal_spi.c ****   }
1643:Drivers/STM32G4xx_HAL_Driver/Src/stm32g4xx_hal_spi.c ****   else
1644:Drivers/STM32G4xx_HAL_Driver/Src/stm32g4xx_hal_spi.c ****   {
ARM GAS  C:\Users\AURORA~1\AppData\Local\Temp\ccDX0hEW.s 			page 69


1645:Drivers/STM32G4xx_HAL_Driver/Src/stm32g4xx_hal_spi.c ****     hspi->TxISR = SPI_TxISR_8BIT;
 2232              		.loc 1 1645 17
 2233 009a FB68     		ldr	r3, [r7, #12]
 2234 009c 1D4A     		ldr	r2, .L123+4
 2235 009e 1A65     		str	r2, [r3, #80]
 2236              	.L120:
1646:Drivers/STM32G4xx_HAL_Driver/Src/stm32g4xx_hal_spi.c ****   }
1647:Drivers/STM32G4xx_HAL_Driver/Src/stm32g4xx_hal_spi.c **** 
1648:Drivers/STM32G4xx_HAL_Driver/Src/stm32g4xx_hal_spi.c ****   /* Configure communication direction : 1Line */
1649:Drivers/STM32G4xx_HAL_Driver/Src/stm32g4xx_hal_spi.c ****   if (hspi->Init.Direction == SPI_DIRECTION_1LINE)
 2237              		.loc 1 1649 17
 2238 00a0 FB68     		ldr	r3, [r7, #12]
 2239 00a2 9B68     		ldr	r3, [r3, #8]
 2240              		.loc 1 1649 6
 2241 00a4 B3F5004F 		cmp	r3, #32768
